	.text
	.attribute	4, 16
	.attribute	5, "rv32i2p1_m2p0_a2p1_c2p0"
	.file	"powdr_riscv_syscalls.b0de478eb457f70-cgu.0"
	.file	1 "/Users/steve/Documents/repo/powdr-5_6_24/powdr/riscv-syscalls" "src/lib.rs"
	.section	".text._ZN44_$LT$$RF$T$u20$as$u20$core..fmt..Display$GT$3fmt17h7370650b9d1da708E","ax",@progbits
	.p2align	1
	.type	_ZN44_$LT$$RF$T$u20$as$u20$core..fmt..Display$GT$3fmt17h7370650b9d1da708E,@function
_ZN44_$LT$$RF$T$u20$as$u20$core..fmt..Display$GT$3fmt17h7370650b9d1da708E:
.Lfunc_begin0:
	.cfi_sections .debug_frame
	.cfi_startproc
	.file	2 "/Users/steve/.rustup/toolchains/nightly-2024-02-01-aarch64-apple-darwin/lib/rustlib/src/rust/library/core/src/fmt" "mod.rs"
	.loc	2 2294 71 prologue_end
	lw	a2, 0(a0)
	lw	a3, 4(a0)
	mv	a4, a1
.Ltmp0:
	.loc	2 2294 62 is_stmt 0
	mv	a0, a2
.Ltmp1:
	mv	a1, a3
	mv	a2, a4
.Ltmp2:
	tail	_ZN42_$LT$str$u20$as$u20$core..fmt..Display$GT$3fmt17h45c916f6fbc68766E
.Ltmp3:
.Lfunc_end0:
	.size	_ZN44_$LT$$RF$T$u20$as$u20$core..fmt..Display$GT$3fmt17h7370650b9d1da708E, .Lfunc_end0-_ZN44_$LT$$RF$T$u20$as$u20$core..fmt..Display$GT$3fmt17h7370650b9d1da708E
	.cfi_endproc

	.section	".text._ZN68_$LT$powdr_riscv_syscalls..Syscall$u20$as$u20$core..fmt..Display$GT$3fmt17hdf8850d239dac7f5E","ax",@progbits
	.globl	_ZN68_$LT$powdr_riscv_syscalls..Syscall$u20$as$u20$core..fmt..Display$GT$3fmt17hdf8850d239dac7f5E
	.p2align	1
	.type	_ZN68_$LT$powdr_riscv_syscalls..Syscall$u20$as$u20$core..fmt..Display$GT$3fmt17hdf8850d239dac7f5E,@function
_ZN68_$LT$powdr_riscv_syscalls..Syscall$u20$as$u20$core..fmt..Display$GT$3fmt17hdf8850d239dac7f5E:
.Lfunc_begin1:
	.loc	1 24 0 is_stmt 1
	.cfi_startproc
	addi	sp, sp, -48
	.cfi_def_cfa_offset 48
.Ltmp4:
	.loc	1 25 39 prologue_end
	sw	ra, 44(sp)
	.cfi_offset ra, -4
	lw	a0, 0(a0)
.Ltmp5:
	.loc	1 0 39 is_stmt 0
	slli	a0, a0, 2
	lui	a2, %hi(.LJTI1_0)
	addi	a2, a2, %lo(.LJTI1_0)
	add	a0, a0, a2
	lw	a2, 0(a0)
	mv	a0, a1
.Ltmp6:
	jr	a2
.Ltmp7:
.LBB1_1:
	.loc	1 61 16 is_stmt 1
	lui	a1, %hi(.L__unnamed_1)
	addi	a1, a1, %lo(.L__unnamed_1)
	sw	a1, 36(sp)
	li	a1, 5
	j	.LBB1_12
.Ltmp8:
.LBB1_2:
	.loc	1 62 25
	lui	a1, %hi(.L__unnamed_2)
	addi	a1, a1, %lo(.L__unnamed_2)
	sw	a1, 36(sp)
	li	a1, 15
	j	.LBB1_12
.Ltmp9:
.LBB1_3:
	.loc	1 63 17
	lui	a1, %hi(.L__unnamed_3)
	addi	a1, a1, %lo(.L__unnamed_3)
	j	.LBB1_7
.Ltmp10:
.LBB1_4:
	.loc	1 64 21
	lui	a1, %hi(.L__unnamed_4)
	addi	a1, a1, %lo(.L__unnamed_4)
	sw	a1, 36(sp)
	li	a1, 11
	j	.LBB1_12
.Ltmp11:
.LBB1_5:
	.loc	1 65 20
	lui	a1, %hi(.L__unnamed_5)
	addi	a1, a1, %lo(.L__unnamed_5)
	sw	a1, 36(sp)
	li	a1, 10
	j	.LBB1_12
.Ltmp12:
.LBB1_6:
	.loc	1 66 16
	lui	a1, %hi(.L__unnamed_6)
	addi	a1, a1, %lo(.L__unnamed_6)
.Ltmp13:
.LBB1_7:
	.loc	1 0 0 is_stmt 0
	sw	a1, 36(sp)
	li	a1, 6
	j	.LBB1_12
.Ltmp14:
.LBB1_8:
	.loc	1 67 19 is_stmt 1
	lui	a1, %hi(.L__unnamed_7)
	addi	a1, a1, %lo(.L__unnamed_7)
	sw	a1, 36(sp)
	li	a1, 9
	j	.LBB1_12
.Ltmp15:
.LBB1_9:
	.loc	1 69 18
	lui	a1, %hi(.L__unnamed_8)
	addi	a1, a1, %lo(.L__unnamed_8)
	j	.LBB1_11
.Ltmp16:
.LBB1_10:
	.loc	1 68 17
	lui	a1, %hi(.L__unnamed_9)
	addi	a1, a1, %lo(.L__unnamed_9)
.Ltmp17:
.LBB1_11:
	.loc	1 0 0 is_stmt 0
	sw	a1, 36(sp)
	li	a1, 7
.Ltmp18:
.LBB1_12:
	sw	a1, 40(sp)
	addi	a1, sp, 36
	.loc	1 25 17 is_stmt 1
	sw	a1, 28(sp)
	lui	a1, %hi(_ZN44_$LT$$RF$T$u20$as$u20$core..fmt..Display$GT$3fmt17h7370650b9d1da708E)
	addi	a1, a1, %lo(_ZN44_$LT$$RF$T$u20$as$u20$core..fmt..Display$GT$3fmt17h7370650b9d1da708E)
	sw	a1, 32(sp)
.Ltmp19:
	.loc	2 335 9
	lui	a1, %hi(.L__unnamed_10)
	addi	a1, a1, %lo(.L__unnamed_10)
.Ltmp20:
	sw	a1, 4(sp)
	li	a1, 1
.Ltmp21:
	sw	a1, 8(sp)
	sw	zero, 20(sp)
	addi	a2, sp, 28
	sw	a2, 12(sp)
	sw	a1, 16(sp)
.Ltmp22:
	.loc	1 25 17
	addi	a1, sp, 4
	call	_ZN4core3fmt9Formatter9write_fmt17hf1a4b1e0be961690E
.Ltmp23:
	.loc	1 28 14
	lw	ra, 44(sp)
	.loc	1 28 14 epilogue_begin is_stmt 0
	addi	sp, sp, 48
	ret
.Ltmp24:
.Lfunc_end1:
	.size	_ZN68_$LT$powdr_riscv_syscalls..Syscall$u20$as$u20$core..fmt..Display$GT$3fmt17hdf8850d239dac7f5E, .Lfunc_end1-_ZN68_$LT$powdr_riscv_syscalls..Syscall$u20$as$u20$core..fmt..Display$GT$3fmt17hdf8850d239dac7f5E
	.cfi_endproc
	.section	".rodata._ZN68_$LT$powdr_riscv_syscalls..Syscall$u20$as$u20$core..fmt..Display$GT$3fmt17hdf8850d239dac7f5E","a",@progbits
	.p2align	2, 0x0
.LJTI1_0:
	.word	.LBB1_1
	.word	.LBB1_2
	.word	.LBB1_3
	.word	.LBB1_4
	.word	.LBB1_5
	.word	.LBB1_6
	.word	.LBB1_8
	.word	.LBB1_9
	.word	.LBB1_10

	.section	".text._ZN76_$LT$powdr_riscv_syscalls..Syscall$u20$as$u20$core..str..traits..FromStr$GT$8from_str17h27673a40b24fea4aE","ax",@progbits
	.globl	_ZN76_$LT$powdr_riscv_syscalls..Syscall$u20$as$u20$core..str..traits..FromStr$GT$8from_str17h27673a40b24fea4aE
	.p2align	1
	.type	_ZN76_$LT$powdr_riscv_syscalls..Syscall$u20$as$u20$core..str..traits..FromStr$GT$8from_str17h27673a40b24fea4aE,@function
_ZN76_$LT$powdr_riscv_syscalls..Syscall$u20$as$u20$core..str..traits..FromStr$GT$8from_str17h27673a40b24fea4aE:
.Lfunc_begin2:
	.loc	1 33 0 is_stmt 1
	.cfi_startproc
	addi	sp, sp, -16
	.cfi_def_cfa_offset 16
	sw	ra, 12(sp)
	sw	s0, 8(sp)
	sw	s1, 4(sp)
	.cfi_offset ra, -4
	.cfi_offset s0, -8
	.cfi_offset s1, -12
	mv	s1, a1
.Ltmp25:
	.file	3 "/Users/steve/.rustup/toolchains/nightly-2024-02-01-aarch64-apple-darwin/lib/rustlib/src/rust/library/core/src/slice" "cmp.rs"
	.loc	3 84 12 prologue_end
	addi	a1, a1, -5
	li	a2, 10
.Ltmp26:
	bltu	a2, a1, .LBB2_14
.Ltmp27:
	.loc	3 0 12 is_stmt 0
	mv	s0, a0
.Ltmp28:
	slli	a1, a1, 2
	lui	a0, %hi(.LJTI2_0)
	addi	a0, a0, %lo(.LJTI2_0)
	add	a0, a0, a1
	lw	a0, 0(a0)
	jr	a0
.Ltmp29:
.LBB2_2:
	.loc	3 92 13 is_stmt 1
	lui	a0, %hi(.L__unnamed_1)
	addi	a1, a0, %lo(.L__unnamed_1)
	li	a2, 5
	mv	a0, s0
	call	memcmp@plt
.Ltmp30:
	.loc	1 35 23
	bnez	a0, .LBB2_14
	j	.LBB2_15
.Ltmp31:
.LBB2_3:
	.loc	3 92 13
	lui	a0, %hi(.L__unnamed_3)
	addi	a1, a0, %lo(.L__unnamed_3)
	li	a2, 6
	mv	a0, s0
	call	memcmp@plt
.Ltmp32:
	.loc	1 35 23
	beqz	a0, .LBB2_16
.Ltmp33:
	.loc	3 92 13
	lui	a0, %hi(.L__unnamed_6)
	addi	a1, a0, %lo(.L__unnamed_6)
.Ltmp34:
	li	a2, 6
	mv	a0, s0
	call	memcmp@plt
.Ltmp35:
	.loc	1 35 23
	bnez	a0, .LBB2_14
.Ltmp36:
	.loc	1 0 23 is_stmt 0
	li	a0, 5
	j	.LBB2_15
.Ltmp37:
.LBB2_6:
	.loc	3 92 13 is_stmt 1
	lui	a0, %hi(.L__unnamed_9)
	addi	a1, a0, %lo(.L__unnamed_9)
	mv	a0, s0
	mv	a2, s1
	call	memcmp@plt
.Ltmp38:
	.loc	1 35 23
	beqz	a0, .LBB2_17
.Ltmp39:
	.loc	3 92 13
	lui	a0, %hi(.L__unnamed_8)
	addi	a1, a0, %lo(.L__unnamed_8)
.Ltmp40:
	mv	a0, s0
	mv	a2, s1
	call	memcmp@plt
.Ltmp41:
	mv	a1, a0
	li	a0, 7
.Ltmp42:
	.loc	1 0 0 is_stmt 0
	bnez	a1, .LBB2_14
	j	.LBB2_15
.Ltmp43:
.LBB2_8:
	.loc	3 92 13
	lui	a0, %hi(.L__unnamed_7)
	addi	a1, a0, %lo(.L__unnamed_7)
	mv	a0, s0
	mv	a2, s1
	call	memcmp@plt
	mv	a1, a0
	li	a0, 6
.Ltmp44:
	.loc	1 35 23 is_stmt 1
	bnez	a1, .LBB2_14
	j	.LBB2_15
.Ltmp45:
.LBB2_9:
	.loc	3 92 13
	lui	a0, %hi(.L__unnamed_5)
	addi	a1, a0, %lo(.L__unnamed_5)
	mv	a0, s0
	mv	a2, s1
	call	memcmp@plt
.Ltmp46:
	.loc	1 35 23
	bnez	a0, .LBB2_14
.Ltmp47:
	.loc	1 0 23 is_stmt 0
	li	a0, 4
	j	.LBB2_15
.Ltmp48:
.LBB2_11:
	.loc	3 92 13 is_stmt 1
	lui	a0, %hi(.L__unnamed_4)
	addi	a1, a0, %lo(.L__unnamed_4)
	li	a2, 11
	mv	a0, s0
	call	memcmp@plt
.Ltmp49:
	.loc	1 35 23
	bnez	a0, .LBB2_14
.Ltmp50:
	.loc	1 0 23 is_stmt 0
	li	a0, 3
	j	.LBB2_15
.Ltmp51:
.LBB2_13:
	.loc	3 92 13 is_stmt 1
	lui	a0, %hi(.L__unnamed_2)
	addi	a1, a0, %lo(.L__unnamed_2)
	li	a2, 15
	mv	a0, s0
	call	memcmp@plt
.Ltmp52:
	.loc	1 35 23
	beqz	a0, .LBB2_18
.Ltmp53:
.LBB2_14:
	.loc	1 0 23 is_stmt 0
	li	a0, 9
.Ltmp54:
.LBB2_15:
	.loc	1 38 14 is_stmt 1
	lw	ra, 12(sp)
	lw	s0, 8(sp)
	lw	s1, 4(sp)
.Ltmp55:
	.loc	1 38 14 epilogue_begin is_stmt 0
	addi	sp, sp, 16
	ret
.Ltmp56:
.LBB2_16:
	.loc	1 0 14
	li	a0, 2
	j	.LBB2_15
.Ltmp57:
.LBB2_17:
	li	a0, 8
	j	.LBB2_15
.Ltmp58:
.LBB2_18:
	li	a0, 1
	j	.LBB2_15
.Lfunc_end2:
	.size	_ZN76_$LT$powdr_riscv_syscalls..Syscall$u20$as$u20$core..str..traits..FromStr$GT$8from_str17h27673a40b24fea4aE, .Lfunc_end2-_ZN76_$LT$powdr_riscv_syscalls..Syscall$u20$as$u20$core..str..traits..FromStr$GT$8from_str17h27673a40b24fea4aE
	.cfi_endproc
	.section	".rodata._ZN76_$LT$powdr_riscv_syscalls..Syscall$u20$as$u20$core..str..traits..FromStr$GT$8from_str17h27673a40b24fea4aE","a",@progbits
	.p2align	2, 0x0
.LJTI2_0:
	.word	.LBB2_2
	.word	.LBB2_3
	.word	.LBB2_6
	.word	.LBB2_14
	.word	.LBB2_8
	.word	.LBB2_9
	.word	.LBB2_11
	.word	.LBB2_14
	.word	.LBB2_14
	.word	.LBB2_14
	.word	.LBB2_13
	.file	4 "/Users/steve/.rustup/toolchains/nightly-2024-02-01-aarch64-apple-darwin/lib/rustlib/src/rust/library/core/src" "cmp.rs"
	.file	5 "/Users/steve/.rustup/toolchains/nightly-2024-02-01-aarch64-apple-darwin/lib/rustlib/src/rust/library/core/src/str" "traits.rs"

	.type	.L__unnamed_11,@object
	.section	.rodata..L__unnamed_11,"a",@progbits
	.p2align	2, 0x0
.L__unnamed_11:
	.size	.L__unnamed_11, 0

	.type	.L__unnamed_12,@object
	.section	.rodata..L__unnamed_12,"a",@progbits
.L__unnamed_12:
	.ascii	"x10"
	.size	.L__unnamed_12, 3

	.type	.L__unnamed_13,@object
	.section	.rodata..L__unnamed_13,"a",@progbits
.L__unnamed_13:
	.ascii	"x11"
	.size	.L__unnamed_13, 3

	.type	.L__unnamed_14,@object
	.section	.rodata..L__unnamed_14,"a",@progbits
.L__unnamed_14:
	.ascii	"x12"
	.size	.L__unnamed_14, 3

	.type	.L__unnamed_15,@object
	.section	.rodata..L__unnamed_15,"a",@progbits
.L__unnamed_15:
	.ascii	"x13"
	.size	.L__unnamed_15, 3

	.type	.L__unnamed_16,@object
	.section	.rodata..L__unnamed_16,"a",@progbits
.L__unnamed_16:
	.ascii	"x14"
	.size	.L__unnamed_16, 3

	.type	.L__unnamed_17,@object
	.section	.rodata..L__unnamed_17,"a",@progbits
.L__unnamed_17:
	.ascii	"x15"
	.size	.L__unnamed_17, 3

	.type	.L__unnamed_18,@object
	.section	.rodata..L__unnamed_18,"a",@progbits
.L__unnamed_18:
	.ascii	"x16"
	.size	.L__unnamed_18, 3

	.type	.L__unnamed_19,@object
	.section	.rodata..L__unnamed_19,"a",@progbits
.L__unnamed_19:
	.ascii	"x17"
	.size	.L__unnamed_19, 3

	.type	.L__unnamed_20,@object
	.section	.rodata..L__unnamed_20,"a",@progbits
.L__unnamed_20:
	.ascii	"x6"
	.size	.L__unnamed_20, 2

	.type	.L__unnamed_21,@object
	.section	.rodata..L__unnamed_21,"a",@progbits
.L__unnamed_21:
	.ascii	"x7"
	.size	.L__unnamed_21, 2

	.type	.L__unnamed_22,@object
	.section	.rodata..L__unnamed_22,"a",@progbits
.L__unnamed_22:
	.ascii	"x28"
	.size	.L__unnamed_22, 3

	.type	.L__unnamed_23,@object
	.section	.rodata..L__unnamed_23,"a",@progbits
.L__unnamed_23:
	.ascii	"x29"
	.size	.L__unnamed_23, 3

	.type	.L__unnamed_24,@object
	.section	.rodata..L__unnamed_24,"a",@progbits
.L__unnamed_24:
	.ascii	"x30"
	.size	.L__unnamed_24, 3

	.type	.L__unnamed_25,@object
	.section	.rodata..L__unnamed_25,"a",@progbits
.L__unnamed_25:
	.ascii	"x31"
	.size	.L__unnamed_25, 3

	.type	_ZN20powdr_riscv_syscalls17SYSCALL_REGISTERS17h69cc336b2d9de90cE,@object
	.section	.rodata._ZN20powdr_riscv_syscalls17SYSCALL_REGISTERS17h69cc336b2d9de90cE,"a",@progbits
	.globl	_ZN20powdr_riscv_syscalls17SYSCALL_REGISTERS17h69cc336b2d9de90cE
	.p2align	2, 0x0
_ZN20powdr_riscv_syscalls17SYSCALL_REGISTERS17h69cc336b2d9de90cE:
	.word	.L__unnamed_12
	.asciz	"\003\000\000"
	.word	.L__unnamed_13
	.asciz	"\003\000\000"
	.word	.L__unnamed_14
	.asciz	"\003\000\000"
	.word	.L__unnamed_15
	.asciz	"\003\000\000"
	.word	.L__unnamed_16
	.asciz	"\003\000\000"
	.word	.L__unnamed_17
	.asciz	"\003\000\000"
	.word	.L__unnamed_18
	.asciz	"\003\000\000"
	.word	.L__unnamed_19
	.asciz	"\003\000\000"
	.word	.L__unnamed_20
	.asciz	"\002\000\000"
	.word	.L__unnamed_21
	.asciz	"\002\000\000"
	.word	.L__unnamed_22
	.asciz	"\003\000\000"
	.word	.L__unnamed_23
	.asciz	"\003\000\000"
	.word	.L__unnamed_24
	.asciz	"\003\000\000"
	.word	.L__unnamed_25
	.asciz	"\003\000\000"
	.size	_ZN20powdr_riscv_syscalls17SYSCALL_REGISTERS17h69cc336b2d9de90cE, 112

	.type	.L__unnamed_10,@object
	.section	.rodata..L__unnamed_10,"a",@progbits
	.p2align	2, 0x0
.L__unnamed_10:
	.word	.L__unnamed_11
	.zero	4
	.size	.L__unnamed_10, 8

	.type	.L__unnamed_1,@object
	.section	.rodata..L__unnamed_1,"a",@progbits
.L__unnamed_1:
	.ascii	"input"
	.size	.L__unnamed_1, 5

	.type	.L__unnamed_2,@object
	.section	.rodata..L__unnamed_2,"a",@progbits
.L__unnamed_2:
	.ascii	"data_identifier"
	.size	.L__unnamed_2, 15

	.type	.L__unnamed_3,@object
	.section	.rodata..L__unnamed_3,"a",@progbits
.L__unnamed_3:
	.ascii	"output"
	.size	.L__unnamed_3, 6

	.type	.L__unnamed_4,@object
	.section	.rodata..L__unnamed_4,"a",@progbits
.L__unnamed_4:
	.ascii	"poseidon_gl"
	.size	.L__unnamed_4, 11

	.type	.L__unnamed_5,@object
	.section	.rodata..L__unnamed_5,"a",@progbits
.L__unnamed_5:
	.ascii	"affine_256"
	.size	.L__unnamed_5, 10

	.type	.L__unnamed_6,@object
	.section	.rodata..L__unnamed_6,"a",@progbits
.L__unnamed_6:
	.ascii	"ec_add"
	.size	.L__unnamed_6, 6

	.type	.L__unnamed_7,@object
	.section	.rodata..L__unnamed_7,"a",@progbits
.L__unnamed_7:
	.ascii	"ec_double"
	.size	.L__unnamed_7, 9

	.type	.L__unnamed_9,@object
	.section	.rodata..L__unnamed_9,"a",@progbits
.L__unnamed_9:
	.ascii	"mod_256"
	.size	.L__unnamed_9, 7

	.type	.L__unnamed_8,@object
	.section	.rodata..L__unnamed_8,"a",@progbits
.L__unnamed_8:
	.ascii	"keccakf"
	.size	.L__unnamed_8, 7

	.section	.rodata._ZN20powdr_riscv_syscalls17SYSCALL_REGISTERS17h69cc336b2d9de90cE,"a",@progbits
.Lsec_end0:
	.section	".text._ZN44_$LT$$RF$T$u20$as$u20$core..fmt..Display$GT$3fmt17h7370650b9d1da708E","ax",@progbits
.Lsec_end1:
	.section	".text._ZN68_$LT$powdr_riscv_syscalls..Syscall$u20$as$u20$core..fmt..Display$GT$3fmt17hdf8850d239dac7f5E","ax",@progbits
.Lsec_end2:
	.section	".text._ZN76_$LT$powdr_riscv_syscalls..Syscall$u20$as$u20$core..str..traits..FromStr$GT$8from_str17h27673a40b24fea4aE","ax",@progbits
.Lsec_end3:
	.section	".note.GNU-stack","",@progbits