	.text
	.attribute	4, 16
	.attribute	5, "rv32i2p1_m2p0_a2p1_c2p0"
	.file	"powdr_riscv_runtime.4f596cfeff218676-cgu.0"
	.file	1 "/Users/steve/Documents/repo/powdr-5_6_24/powdr/riscv-runtime" "src/lib.rs"
	.file	2 "/Users/steve/Documents/repo/powdr-5_6_24/powdr/riscv-runtime" "src/allocator.rs"
	.section	".text._ZN44_$LT$$RF$T$u20$as$u20$core..fmt..Display$GT$3fmt17h54dfc086f6f96921E","ax",@progbits
	.p2align	1
	.type	_ZN44_$LT$$RF$T$u20$as$u20$core..fmt..Display$GT$3fmt17h54dfc086f6f96921E,@function
_ZN44_$LT$$RF$T$u20$as$u20$core..fmt..Display$GT$3fmt17h54dfc086f6f96921E:
.Lfunc_begin0:
	.cfi_sections .debug_frame
	.cfi_startproc
	.file	3 "/Users/steve/.rustup/toolchains/nightly-2024-02-01-aarch64-apple-darwin/lib/rustlib/src/rust/library/core/src/fmt" "mod.rs"
	.loc	3 2294 71 prologue_end
	lw	a0, 0(a0)
.Ltmp0:
	.loc	3 2294 62 is_stmt 0
	tail	_ZN73_$LT$core..panic..panic_info..PanicInfo$u20$as$u20$core..fmt..Display$GT$3fmt17hf3d190f758a640c8E
.Ltmp1:
.Lfunc_end0:
	.size	_ZN44_$LT$$RF$T$u20$as$u20$core..fmt..Display$GT$3fmt17h54dfc086f6f96921E, .Lfunc_end0-_ZN44_$LT$$RF$T$u20$as$u20$core..fmt..Display$GT$3fmt17h54dfc086f6f96921E
	.cfi_endproc

	.section	.text._ZN4core3fmt5Write10write_char17h776683c49eebb88cE,"ax",@progbits
	.p2align	1
	.type	_ZN4core3fmt5Write10write_char17h776683c49eebb88cE,@function
_ZN4core3fmt5Write10write_char17h776683c49eebb88cE:
.Lfunc_begin1:
	.loc	3 166 0 is_stmt 1
	.cfi_startproc
	addi	sp, sp, -16
	.cfi_def_cfa_offset 16
	li	a0, 128
.Ltmp2:
	.loc	3 167 43 prologue_end
	sw	zero, 12(sp)
.Ltmp3:
	.file	4 "/Users/steve/.rustup/toolchains/nightly-2024-02-01-aarch64-apple-darwin/lib/rustlib/src/rust/library/core/src/char" "methods.rs"
	.loc	4 1742 8
	bgeu	a1, a0, .LBB1_2
.Ltmp4:
	.loc	4 1773 13
	sb	a1, 12(sp)
	li	a2, 1
	j	.LBB1_7
.Ltmp5:
.LBB1_2:
	.loc	4 1744 15
	srli	a0, a1, 11
	bnez	a0, .LBB1_4
.Ltmp6:
	.loc	4 1776 19
	srli	a0, a1, 6
	.loc	4 1776 13 is_stmt 0
	ori	a0, a0, 192
	sb	a0, 12(sp)
	.loc	4 1777 18 is_stmt 1
	andi	a0, a1, 63
	.loc	4 1777 13 is_stmt 0
	addi	a0, a0, 128
	sb	a0, 13(sp)
	li	a2, 2
	j	.LBB1_7
.Ltmp7:
.LBB1_4:
	.loc	4 1746 15 is_stmt 1
	srli	a0, a1, 16
	bnez	a0, .LBB1_6
.Ltmp8:
	.loc	4 1780 19
	srli	a0, a1, 12
	.loc	4 1780 13 is_stmt 0
	ori	a0, a0, 224
	sb	a0, 12(sp)
	.loc	4 1781 18 is_stmt 1
	slli	a0, a1, 20
	srli	a0, a0, 26
	.loc	4 1781 13 is_stmt 0
	addi	a0, a0, 128
	sb	a0, 13(sp)
	.loc	4 1782 18 is_stmt 1
	andi	a0, a1, 63
	.loc	4 1782 13 is_stmt 0
	addi	a0, a0, 128
	sb	a0, 14(sp)
	li	a2, 3
	j	.LBB1_7
.Ltmp9:
.LBB1_6:
	.loc	4 1785 18 is_stmt 1
	slli	a0, a1, 11
	srli	a0, a0, 29
	.loc	4 1785 13 is_stmt 0
	addi	a0, a0, 240
	sb	a0, 12(sp)
	.loc	4 1786 18 is_stmt 1
	slli	a0, a1, 14
	srli	a0, a0, 26
	.loc	4 1786 13 is_stmt 0
	addi	a0, a0, 128
	sb	a0, 13(sp)
	.loc	4 1787 18 is_stmt 1
	slli	a0, a1, 20
	srli	a0, a0, 26
	.loc	4 1787 13 is_stmt 0
	addi	a0, a0, 128
	sb	a0, 14(sp)
	.loc	4 1788 18 is_stmt 1
	andi	a0, a1, 63
	.loc	4 1788 13 is_stmt 0
	addi	a0, a0, 128
	sb	a0, 15(sp)
	li	a2, 4
.Ltmp10:
.LBB1_7:
	.loc	4 0 13
	addi	a3, sp, 12
.Ltmp11:
	li	t0, 2
.Ltmp12:
.LBB1_8:
	.file	5 "/Users/steve/.rustup/toolchains/nightly-2024-02-01-aarch64-apple-darwin/lib/rustlib/src/rust/library/core/src" "option.rs"
	.loc	5 1863 19 is_stmt 1
	lbu	a1, 0(a3)
.Ltmp13:
	.file	6 "/Users/steve/Documents/repo/powdr-5_6_24/powdr/riscv-runtime" "src/fmt.rs"
	.loc	6 40 9
	li	a0, 1
	#APP
	ecall
	#NO_APP
.Ltmp14:
	.file	7 "/Users/steve/.rustup/toolchains/nightly-2024-02-01-aarch64-apple-darwin/lib/rustlib/src/rust/library/core/src/ptr" "non_null.rs"
	.loc	7 623 37
	addi	a3, a3, 1
.Ltmp15:
	.loc	7 1796 9
	addi	a2, a2, -1
.Ltmp16:
	.file	8 "/Users/steve/.rustup/toolchains/nightly-2024-02-01-aarch64-apple-darwin/lib/rustlib/src/rust/library/core/src/slice/iter" "macros.rs"
	.loc	8 162 24
	bnez	a2, .LBB1_8
.Ltmp17:
	.loc	3 168 6
	li	a0, 0
	.loc	3 168 6 epilogue_begin is_stmt 0
	addi	sp, sp, 16
	ret
.Ltmp18:
.Lfunc_end1:
	.size	_ZN4core3fmt5Write10write_char17h776683c49eebb88cE, .Lfunc_end1-_ZN4core3fmt5Write10write_char17h776683c49eebb88cE
	.cfi_endproc
	.file	9 "/Users/steve/.rustup/toolchains/nightly-2024-02-01-aarch64-apple-darwin/lib/rustlib/src/rust/library/core/src/iter/adapters" "copied.rs"
	.file	10 "/Users/steve/.rustup/toolchains/nightly-2024-02-01-aarch64-apple-darwin/lib/rustlib/src/rust/library/core/src/str" "iter.rs"

	.section	.text._ZN4core3fmt5Write9write_fmt17h2899a23a41397189E,"ax",@progbits
	.p2align	1
	.type	_ZN4core3fmt5Write9write_fmt17h2899a23a41397189E,@function
_ZN4core3fmt5Write9write_fmt17h2899a23a41397189E:
.Lfunc_begin2:
	.cfi_startproc
	.loc	3 211 17 prologue_end is_stmt 1
	lui	a2, %hi(.L__unnamed_1)
	addi	a2, a2, %lo(.L__unnamed_1)
	mv	a3, a1
.Ltmp19:
	mv	a1, a2
	mv	a2, a3
.Ltmp20:
	tail	_ZN4core3fmt5write17hec90542839f9b0f5E
.Ltmp21:
.Lfunc_end2:
	.size	_ZN4core3fmt5Write9write_fmt17h2899a23a41397189E, .Lfunc_end2-_ZN4core3fmt5Write9write_fmt17h2899a23a41397189E
	.cfi_endproc

	.section	".text._ZN4core3ptr37drop_in_place$LT$core..fmt..Error$GT$17ha51e5909ddaf50a8E","ax",@progbits
	.p2align	1
	.type	_ZN4core3ptr37drop_in_place$LT$core..fmt..Error$GT$17ha51e5909ddaf50a8E,@function
_ZN4core3ptr37drop_in_place$LT$core..fmt..Error$GT$17ha51e5909ddaf50a8E:
.Lfunc_begin3:
	.cfi_startproc
	.file	11 "/Users/steve/.rustup/toolchains/nightly-2024-02-01-aarch64-apple-darwin/lib/rustlib/src/rust/library/core/src/ptr" "mod.rs"
	.loc	11 507 1 prologue_end
	ret
.Ltmp22:
.Lfunc_end3:
	.size	_ZN4core3ptr37drop_in_place$LT$core..fmt..Error$GT$17ha51e5909ddaf50a8E, .Lfunc_end3-_ZN4core3ptr37drop_in_place$LT$core..fmt..Error$GT$17ha51e5909ddaf50a8E
	.cfi_endproc

	.section	".text._ZN53_$LT$core..fmt..Error$u20$as$u20$core..fmt..Debug$GT$3fmt17h1974c3d28fb9bde4E","ax",@progbits
	.p2align	1
	.type	_ZN53_$LT$core..fmt..Error$u20$as$u20$core..fmt..Debug$GT$3fmt17h1974c3d28fb9bde4E,@function
_ZN53_$LT$core..fmt..Error$u20$as$u20$core..fmt..Debug$GT$3fmt17h1974c3d28fb9bde4E:
.Lfunc_begin4:
	.cfi_startproc
	.loc	3 96 23 prologue_end
	lui	a0, %hi(.L__unnamed_3)
	addi	a3, a0, %lo(.L__unnamed_3)
	li	a2, 5
	mv	a0, a1
.Ltmp23:
	mv	a1, a3
	tail	_ZN4core3fmt9Formatter9write_str17h7b224d3eb3847887E
.Ltmp24:
.Lfunc_end4:
	.size	_ZN53_$LT$core..fmt..Error$u20$as$u20$core..fmt..Debug$GT$3fmt17h1974c3d28fb9bde4E, .Lfunc_end4-_ZN53_$LT$core..fmt..Error$u20$as$u20$core..fmt..Debug$GT$3fmt17h1974c3d28fb9bde4E
	.cfi_endproc

	.section	.text._ZN19powdr_riscv_runtime5arith16affine_256_u8_be17h159b74a5a19427ebE,"ax",@progbits
	.globl	_ZN19powdr_riscv_runtime5arith16affine_256_u8_be17h159b74a5a19427ebE
	.p2align	1
	.type	_ZN19powdr_riscv_runtime5arith16affine_256_u8_be17h159b74a5a19427ebE,@function
_ZN19powdr_riscv_runtime5arith16affine_256_u8_be17h159b74a5a19427ebE:
.Lfunc_begin5:
	.file	12 "/Users/steve/Documents/repo/powdr-5_6_24/powdr/riscv-runtime" "src/arith.rs"
	.loc	12 22 0
	.cfi_startproc
	addi	sp, sp, -112
	.cfi_def_cfa_offset 112
	sw	ra, 108(sp)
	sw	s0, 104(sp)
	sw	s1, 100(sp)
	.cfi_offset ra, -4
	.cfi_offset s0, -8
	.cfi_offset s1, -12
	mv	s0, a2
.Ltmp25:
	mv	a4, a1
.Ltmp26:
	mv	s1, a0
.Ltmp27:
	.file	13 "/Users/steve/.rustup/toolchains/nightly-2024-02-01-aarch64-apple-darwin/lib/rustlib/src/rust/library/core/src" "result.rs"
	.loc	13 746 25 prologue_end
	lbu	a0, 30(a1)
	lbu	a1, 31(a1)
	lbu	a2, 29(a4)
	lbu	a5, 28(a4)
.Ltmp28:
	.file	14 "/Users/steve/.rustup/toolchains/nightly-2024-02-01-aarch64-apple-darwin/lib/rustlib/src/rust/library/core/src/num" "mod.rs"
	.loc	14 1157 5
	slli	a0, a0, 8
	or	a0, a0, a1
	slli	a2, a2, 16
	slli	a5, a5, 24
	or	a2, a2, a5
	or	a0, a0, a2
.Ltmp29:
	.loc	12 8 9
	sw	a0, 4(sp)
.Ltmp30:
	.loc	13 746 25
	lbu	a0, 26(a4)
.Ltmp31:
	lbu	a1, 27(a4)
	lbu	a2, 25(a4)
	lbu	a5, 24(a4)
.Ltmp32:
	.loc	14 1157 5
	slli	a0, a0, 8
	or	a0, a0, a1
	slli	a2, a2, 16
	slli	a5, a5, 24
	or	a2, a2, a5
	or	a0, a0, a2
.Ltmp33:
	.loc	12 8 9
	sw	a0, 8(sp)
.Ltmp34:
	.loc	13 746 25
	lbu	a0, 22(a4)
.Ltmp35:
	lbu	a1, 23(a4)
	lbu	a2, 21(a4)
	lbu	a5, 20(a4)
.Ltmp36:
	.loc	14 1157 5
	slli	a0, a0, 8
	or	a0, a0, a1
	slli	a2, a2, 16
	slli	a5, a5, 24
	or	a2, a2, a5
	or	a0, a0, a2
.Ltmp37:
	.loc	12 8 9
	sw	a0, 12(sp)
.Ltmp38:
	.loc	13 746 25
	lbu	a0, 18(a4)
.Ltmp39:
	lbu	a1, 19(a4)
	lbu	a2, 17(a4)
	lbu	a5, 16(a4)
.Ltmp40:
	.loc	14 1157 5
	slli	a0, a0, 8
	or	a0, a0, a1
	slli	a2, a2, 16
	slli	a5, a5, 24
	or	a2, a2, a5
	or	a0, a0, a2
.Ltmp41:
	.loc	12 8 9
	sw	a0, 16(sp)
.Ltmp42:
	.loc	13 746 25
	lbu	a0, 14(a4)
.Ltmp43:
	lbu	a1, 15(a4)
	lbu	a2, 13(a4)
	lbu	a5, 12(a4)
.Ltmp44:
	.loc	14 1157 5
	slli	a0, a0, 8
	or	a0, a0, a1
	slli	a2, a2, 16
	slli	a5, a5, 24
	or	a2, a2, a5
	or	a0, a0, a2
.Ltmp45:
	.loc	12 8 9
	sw	a0, 20(sp)
.Ltmp46:
	.loc	13 746 25
	lbu	a0, 10(a4)
.Ltmp47:
	lbu	a1, 11(a4)
	lbu	a2, 9(a4)
	lbu	a5, 8(a4)
.Ltmp48:
	.loc	14 1157 5
	slli	a0, a0, 8
	or	a0, a0, a1
	slli	a2, a2, 16
	slli	a5, a5, 24
	or	a2, a2, a5
	or	a0, a0, a2
.Ltmp49:
	.loc	12 8 9
	sw	a0, 24(sp)
.Ltmp50:
	.loc	13 746 25
	lbu	a0, 6(a4)
.Ltmp51:
	lbu	a1, 7(a4)
	lbu	a2, 5(a4)
	lbu	a5, 4(a4)
.Ltmp52:
	.loc	14 1157 5
	slli	a0, a0, 8
	or	a0, a0, a1
	slli	a2, a2, 16
	slli	a5, a5, 24
	or	a2, a2, a5
	or	a0, a0, a2
.Ltmp53:
	.loc	12 8 9
	sw	a0, 28(sp)
.Ltmp54:
	.loc	13 746 25
	lbu	a0, 2(a4)
.Ltmp55:
	lbu	a1, 3(a4)
	lbu	a2, 1(a4)
	lbu	a5, 0(a4)
.Ltmp56:
	.loc	14 1157 5
	slli	a0, a0, 8
	or	a0, a0, a1
	slli	a2, a2, 16
	slli	a5, a5, 24
	or	a2, a2, a5
	or	a0, a0, a2
.Ltmp57:
	.loc	12 8 9
	sw	a0, 32(sp)
.Ltmp58:
	.loc	13 746 25
	lbu	a0, 30(s0)
	lbu	a1, 31(s0)
	lbu	a2, 29(s0)
	lbu	a5, 28(s0)
.Ltmp59:
	.loc	14 1157 5
	slli	a0, a0, 8
	or	a0, a0, a1
	slli	a2, a2, 16
	slli	a5, a5, 24
	or	a2, a2, a5
	or	a0, a0, a2
.Ltmp60:
	.loc	12 8 9
	sw	a0, 36(sp)
.Ltmp61:
	.loc	13 746 25
	lbu	a0, 26(s0)
.Ltmp62:
	lbu	a1, 27(s0)
	lbu	a2, 25(s0)
	lbu	a5, 24(s0)
.Ltmp63:
	.loc	14 1157 5
	slli	a0, a0, 8
	or	a0, a0, a1
	slli	a2, a2, 16
	slli	a5, a5, 24
	or	a2, a2, a5
	or	a0, a0, a2
.Ltmp64:
	.loc	12 8 9
	sw	a0, 40(sp)
.Ltmp65:
	.loc	13 746 25
	lbu	a0, 22(s0)
.Ltmp66:
	lbu	a1, 23(s0)
	lbu	a2, 21(s0)
	lbu	a5, 20(s0)
.Ltmp67:
	.loc	14 1157 5
	slli	a0, a0, 8
	or	a0, a0, a1
	slli	a2, a2, 16
	slli	a5, a5, 24
	or	a2, a2, a5
	or	a0, a0, a2
.Ltmp68:
	.loc	12 8 9
	sw	a0, 44(sp)
.Ltmp69:
	.loc	13 746 25
	lbu	a0, 18(s0)
.Ltmp70:
	lbu	a1, 19(s0)
	lbu	a2, 17(s0)
	lbu	a5, 16(s0)
.Ltmp71:
	.loc	14 1157 5
	slli	a0, a0, 8
	or	a0, a0, a1
	slli	a2, a2, 16
	slli	a5, a5, 24
	or	a2, a2, a5
	or	a0, a0, a2
.Ltmp72:
	.loc	12 8 9
	sw	a0, 48(sp)
.Ltmp73:
	.loc	13 746 25
	lbu	a0, 14(s0)
.Ltmp74:
	lbu	a1, 15(s0)
	lbu	a2, 13(s0)
	lbu	a5, 12(s0)
.Ltmp75:
	.loc	14 1157 5
	slli	a0, a0, 8
	or	a0, a0, a1
	slli	a2, a2, 16
	slli	a5, a5, 24
	or	a2, a2, a5
	or	a0, a0, a2
.Ltmp76:
	.loc	12 8 9
	sw	a0, 52(sp)
.Ltmp77:
	.loc	13 746 25
	lbu	a0, 10(s0)
.Ltmp78:
	lbu	a1, 11(s0)
	lbu	a2, 9(s0)
	lbu	a5, 8(s0)
.Ltmp79:
	.loc	14 1157 5
	slli	a0, a0, 8
	or	a0, a0, a1
	slli	a2, a2, 16
	slli	a5, a5, 24
	or	a2, a2, a5
	or	a0, a0, a2
.Ltmp80:
	.loc	12 8 9
	sw	a0, 56(sp)
.Ltmp81:
	.loc	13 746 25
	lbu	a0, 6(s0)
.Ltmp82:
	lbu	a1, 7(s0)
	lbu	a2, 5(s0)
	lbu	a5, 4(s0)
.Ltmp83:
	.loc	14 1157 5
	slli	a0, a0, 8
	or	a0, a0, a1
	slli	a2, a2, 16
	slli	a5, a5, 24
	or	a2, a2, a5
	or	a0, a0, a2
.Ltmp84:
	.loc	12 8 9
	sw	a0, 60(sp)
.Ltmp85:
	.loc	13 746 25
	lbu	a0, 2(s0)
.Ltmp86:
	lbu	a1, 3(s0)
	lbu	a2, 1(s0)
	lbu	a5, 0(s0)
.Ltmp87:
	.loc	14 1157 5
	slli	a0, a0, 8
	or	a0, a0, a1
	slli	a2, a2, 16
	slli	a5, a5, 24
	or	a2, a2, a5
	or	a0, a0, a2
.Ltmp88:
	.loc	12 8 9
	sw	a0, 64(sp)
.Ltmp89:
	.loc	13 746 25
	lbu	a0, 30(a3)
	lbu	a1, 31(a3)
	lbu	a2, 29(a3)
	lbu	a5, 28(a3)
.Ltmp90:
	.loc	14 1157 5
	slli	a0, a0, 8
	or	a0, a0, a1
	slli	a2, a2, 16
	slli	a5, a5, 24
	or	a2, a2, a5
	or	a0, a0, a2
.Ltmp91:
	.loc	12 8 9
	sw	a0, 68(sp)
.Ltmp92:
	.loc	13 746 25
	lbu	a0, 26(a3)
.Ltmp93:
	lbu	a1, 27(a3)
	lbu	a2, 25(a3)
	lbu	a5, 24(a3)
.Ltmp94:
	.loc	14 1157 5
	slli	a0, a0, 8
	or	a0, a0, a1
	slli	a2, a2, 16
	slli	a5, a5, 24
	or	a2, a2, a5
	or	a0, a0, a2
.Ltmp95:
	.loc	12 8 9
	sw	a0, 72(sp)
.Ltmp96:
	.loc	13 746 25
	lbu	a0, 22(a3)
.Ltmp97:
	lbu	a1, 23(a3)
	lbu	a2, 21(a3)
	lbu	a5, 20(a3)
.Ltmp98:
	.loc	14 1157 5
	slli	a0, a0, 8
	or	a0, a0, a1
	slli	a2, a2, 16
	slli	a5, a5, 24
	or	a2, a2, a5
	or	a0, a0, a2
.Ltmp99:
	.loc	12 8 9
	sw	a0, 76(sp)
.Ltmp100:
	.loc	13 746 25
	lbu	a0, 18(a3)
.Ltmp101:
	lbu	a1, 19(a3)
	lbu	a2, 17(a3)
	lbu	a5, 16(a3)
.Ltmp102:
	.loc	14 1157 5
	slli	a0, a0, 8
	or	a0, a0, a1
	slli	a2, a2, 16
	slli	a5, a5, 24
	or	a2, a2, a5
	or	a0, a0, a2
.Ltmp103:
	.loc	12 8 9
	sw	a0, 80(sp)
.Ltmp104:
	.loc	13 746 25
	lbu	a0, 14(a3)
.Ltmp105:
	lbu	a1, 15(a3)
	lbu	a2, 13(a3)
	lbu	a5, 12(a3)
.Ltmp106:
	.loc	14 1157 5
	slli	a0, a0, 8
	or	a0, a0, a1
	slli	a2, a2, 16
	slli	a5, a5, 24
	or	a2, a2, a5
	or	a0, a0, a2
.Ltmp107:
	.loc	12 8 9
	sw	a0, 84(sp)
.Ltmp108:
	.loc	13 746 25
	lbu	a0, 10(a3)
.Ltmp109:
	lbu	a1, 11(a3)
	lbu	a2, 9(a3)
	lbu	a5, 8(a3)
.Ltmp110:
	.loc	14 1157 5
	slli	a0, a0, 8
	or	a0, a0, a1
	slli	a2, a2, 16
	slli	a5, a5, 24
	or	a2, a2, a5
	or	a0, a0, a2
.Ltmp111:
	.loc	12 8 9
	sw	a0, 88(sp)
.Ltmp112:
	.loc	13 746 25
	lbu	a0, 6(a3)
.Ltmp113:
	lbu	a1, 7(a3)
	lbu	a2, 5(a3)
	lbu	a5, 4(a3)
.Ltmp114:
	.loc	14 1157 5
	slli	a0, a0, 8
	or	a0, a0, a1
	slli	a2, a2, 16
	slli	a5, a5, 24
	or	a2, a2, a5
	or	a0, a0, a2
.Ltmp115:
	.loc	12 8 9
	sw	a0, 92(sp)
.Ltmp116:
	.loc	13 746 25
	lbu	a0, 2(a3)
.Ltmp117:
	lbu	a1, 3(a3)
	lbu	a2, 1(a3)
	lbu	a3, 0(a3)
.Ltmp118:
	.loc	14 1157 5
	slli	a0, a0, 8
	or	a0, a0, a1
	slli	a2, a2, 16
	slli	a3, a3, 24
	or	a2, a2, a3
	or	a0, a0, a2
.Ltmp119:
	.loc	12 8 9
	sw	a0, 96(sp)
.Ltmp120:
	.loc	12 32 9
	addi	a0, sp, 4
.Ltmp121:
	addi	a1, sp, 36
	addi	a2, sp, 68
	li	t0, 4
	#APP
	ecall
	#NO_APP
.Ltmp122:
	.loc	12 15 21
	lw	a0, 32(sp)
.Ltmp123:
	.loc	14 1157 5
	srli	a1, a0, 24
.Ltmp124:
	.file	15 "/Users/steve/.rustup/toolchains/nightly-2024-02-01-aarch64-apple-darwin/lib/rustlib/src/rust/library/core/src" "intrinsics.rs"
	.loc	15 2774 9
	sb	a0, 3(a4)
	srli	a2, a0, 8
	sb	a2, 2(a4)
.Ltmp125:
	.loc	12 15 21
	lw	a2, 28(sp)
.Ltmp126:
	.loc	15 2774 9
	srli	a0, a0, 16
.Ltmp127:
	sb	a0, 1(a4)
	sb	a1, 0(a4)
.Ltmp128:
	.loc	14 1157 5
	srli	a0, a2, 24
.Ltmp129:
	.loc	15 2774 9
	sb	a2, 7(a4)
.Ltmp130:
	srli	a1, a2, 8
	sb	a1, 6(a4)
.Ltmp131:
	.loc	12 15 21
	lw	a1, 24(sp)
.Ltmp132:
	.loc	15 2774 9
	srli	a2, a2, 16
.Ltmp133:
	sb	a2, 5(a4)
	sb	a0, 4(a4)
.Ltmp134:
	.loc	14 1157 5
	srli	a0, a1, 24
.Ltmp135:
	.loc	15 2774 9
	sb	a1, 11(a4)
.Ltmp136:
	srli	a2, a1, 8
	sb	a2, 10(a4)
.Ltmp137:
	.loc	12 15 21
	lw	a2, 20(sp)
.Ltmp138:
	.loc	15 2774 9
	srli	a1, a1, 16
.Ltmp139:
	sb	a1, 9(a4)
	sb	a0, 8(a4)
.Ltmp140:
	.loc	14 1157 5
	srli	a0, a2, 24
.Ltmp141:
	.loc	15 2774 9
	sb	a2, 15(a4)
.Ltmp142:
	srli	a1, a2, 8
	sb	a1, 14(a4)
.Ltmp143:
	.loc	12 15 21
	lw	a1, 16(sp)
.Ltmp144:
	.loc	15 2774 9
	srli	a2, a2, 16
.Ltmp145:
	sb	a2, 13(a4)
	sb	a0, 12(a4)
.Ltmp146:
	.loc	14 1157 5
	srli	a0, a1, 24
.Ltmp147:
	.loc	15 2774 9
	sb	a1, 19(a4)
.Ltmp148:
	srli	a2, a1, 8
	sb	a2, 18(a4)
.Ltmp149:
	.loc	12 15 21
	lw	a2, 12(sp)
.Ltmp150:
	.loc	15 2774 9
	srli	a1, a1, 16
.Ltmp151:
	sb	a1, 17(a4)
	sb	a0, 16(a4)
.Ltmp152:
	.loc	14 1157 5
	srli	a0, a2, 24
.Ltmp153:
	.loc	15 2774 9
	sb	a2, 23(a4)
.Ltmp154:
	srli	a1, a2, 8
	sb	a1, 22(a4)
.Ltmp155:
	.loc	12 15 21
	lw	a1, 8(sp)
.Ltmp156:
	.loc	15 2774 9
	srli	a2, a2, 16
.Ltmp157:
	sb	a2, 21(a4)
	sb	a0, 20(a4)
.Ltmp158:
	.loc	14 1157 5
	srli	a0, a1, 24
.Ltmp159:
	.loc	15 2774 9
	sb	a1, 27(a4)
.Ltmp160:
	srli	a2, a1, 8
	sb	a2, 26(a4)
.Ltmp161:
	.loc	12 15 21
	lw	a2, 4(sp)
.Ltmp162:
	.loc	15 2774 9
	srli	a1, a1, 16
.Ltmp163:
	sb	a1, 25(a4)
	sb	a0, 24(a4)
.Ltmp164:
	.loc	14 1157 5
	srli	a0, a2, 24
.Ltmp165:
	.loc	15 2774 9
	sb	a2, 31(a4)
.Ltmp166:
	srli	a1, a2, 8
	sb	a1, 30(a4)
.Ltmp167:
	.loc	12 15 21
	lw	a1, 64(sp)
.Ltmp168:
	.loc	15 2774 9
	srli	a2, a2, 16
.Ltmp169:
	sb	a2, 29(a4)
	sb	a0, 28(a4)
.Ltmp170:
	.loc	14 1157 5
	srli	a0, a1, 24
.Ltmp171:
	.loc	15 2774 9
	sb	a1, 3(s0)
	srli	a2, a1, 8
	sb	a2, 2(s0)
.Ltmp172:
	.loc	12 15 21
	lw	a2, 60(sp)
.Ltmp173:
	.loc	15 2774 9
	srli	a1, a1, 16
.Ltmp174:
	sb	a1, 1(s0)
	sb	a0, 0(s0)
.Ltmp175:
	.loc	14 1157 5
	srli	a0, a2, 24
.Ltmp176:
	.loc	15 2774 9
	sb	a2, 7(s0)
.Ltmp177:
	srli	a1, a2, 8
	sb	a1, 6(s0)
.Ltmp178:
	.loc	12 15 21
	lw	a1, 56(sp)
.Ltmp179:
	.loc	15 2774 9
	srli	a2, a2, 16
.Ltmp180:
	sb	a2, 5(s0)
	sb	a0, 4(s0)
.Ltmp181:
	.loc	14 1157 5
	srli	a0, a1, 24
.Ltmp182:
	.loc	15 2774 9
	sb	a1, 11(s0)
.Ltmp183:
	srli	a2, a1, 8
	sb	a2, 10(s0)
.Ltmp184:
	.loc	12 15 21
	lw	a2, 52(sp)
.Ltmp185:
	.loc	15 2774 9
	srli	a1, a1, 16
.Ltmp186:
	sb	a1, 9(s0)
	sb	a0, 8(s0)
.Ltmp187:
	.loc	14 1157 5
	srli	a0, a2, 24
.Ltmp188:
	.loc	15 2774 9
	sb	a2, 15(s0)
.Ltmp189:
	srli	a1, a2, 8
	sb	a1, 14(s0)
.Ltmp190:
	.loc	12 15 21
	lw	a1, 48(sp)
.Ltmp191:
	.loc	15 2774 9
	srli	a2, a2, 16
.Ltmp192:
	sb	a2, 13(s0)
	sb	a0, 12(s0)
.Ltmp193:
	.loc	14 1157 5
	srli	a0, a1, 24
.Ltmp194:
	.loc	15 2774 9
	sb	a1, 19(s0)
.Ltmp195:
	srli	a2, a1, 8
	sb	a2, 18(s0)
.Ltmp196:
	.loc	12 15 21
	lw	a2, 44(sp)
.Ltmp197:
	.loc	15 2774 9
	srli	a1, a1, 16
.Ltmp198:
	sb	a1, 17(s0)
	sb	a0, 16(s0)
.Ltmp199:
	.loc	14 1157 5
	srli	a0, a2, 24
.Ltmp200:
	.loc	15 2774 9
	sb	a2, 23(s0)
.Ltmp201:
	srli	a1, a2, 8
	sb	a1, 22(s0)
.Ltmp202:
	.loc	12 15 21
	lw	a1, 40(sp)
.Ltmp203:
	.loc	15 2774 9
	srli	a2, a2, 16
.Ltmp204:
	sb	a2, 21(s0)
	sb	a0, 20(s0)
.Ltmp205:
	.loc	14 1157 5
	srli	a0, a1, 24
.Ltmp206:
	.loc	15 2774 9
	sb	a1, 27(s0)
.Ltmp207:
	srli	a2, a1, 8
	sb	a2, 26(s0)
.Ltmp208:
	.loc	12 15 21
	lw	a2, 36(sp)
.Ltmp209:
	.loc	15 2774 9
	srli	a1, a1, 16
.Ltmp210:
	sb	a1, 25(s0)
	sb	a0, 24(s0)
.Ltmp211:
	.loc	14 1157 5
	srli	a0, a2, 24
.Ltmp212:
	.loc	15 2774 9
	sb	a2, 31(s0)
.Ltmp213:
	srli	a1, a2, 8
	sb	a1, 30(s0)
	srli	a2, a2, 16
.Ltmp214:
	sb	a2, 29(s0)
	sb	a0, 28(s0)
.Ltmp215:
	.loc	12 41 6
	li	a2, 32
	mv	a0, s1
	mv	a1, a4
	call	memcpy@plt
.Ltmp216:
	.loc	12 41 5 is_stmt 0
	addi	a0, s1, 32
	.loc	12 41 9
	li	a2, 32
	mv	a1, s0
	call	memcpy@plt
.Ltmp217:
	.loc	12 42 2 is_stmt 1
	lw	ra, 108(sp)
	lw	s0, 104(sp)
.Ltmp218:
	lw	s1, 100(sp)
	.loc	12 42 2 epilogue_begin is_stmt 0
	addi	sp, sp, 112
	ret
.Ltmp219:
.Lfunc_end5:
	.size	_ZN19powdr_riscv_runtime5arith16affine_256_u8_be17h159b74a5a19427ebE, .Lfunc_end5-_ZN19powdr_riscv_runtime5arith16affine_256_u8_be17h159b74a5a19427ebE
	.cfi_endproc
	.file	16 "/Users/steve/.rustup/toolchains/nightly-2024-02-01-aarch64-apple-darwin/lib/rustlib/src/rust/library/core/src/array" "mod.rs"
	.file	17 "/Users/steve/.rustup/toolchains/nightly-2024-02-01-aarch64-apple-darwin/lib/rustlib/src/rust/library/core/src/convert" "mod.rs"
	.file	18 "/Users/steve/.rustup/toolchains/nightly-2024-02-01-aarch64-apple-darwin/lib/rustlib/src/rust/library/core/src/num" "uint_macros.rs"
	.file	19 "/Users/steve/.rustup/toolchains/nightly-2024-02-01-aarch64-apple-darwin/lib/rustlib/src/rust/library/core/src/slice" "mod.rs"

	.section	.text._ZN19powdr_riscv_runtime5arith16modmul_256_u8_be17h4502ba2ee97d18f8E,"ax",@progbits
	.globl	_ZN19powdr_riscv_runtime5arith16modmul_256_u8_be17h4502ba2ee97d18f8E
	.p2align	1
	.type	_ZN19powdr_riscv_runtime5arith16modmul_256_u8_be17h4502ba2ee97d18f8E,@function
_ZN19powdr_riscv_runtime5arith16modmul_256_u8_be17h4502ba2ee97d18f8E:
.Lfunc_begin6:
	.loc	12 77 0 is_stmt 1
	.cfi_startproc
	addi	sp, sp, -144
	.cfi_def_cfa_offset 144
	sw	ra, 140(sp)
	.cfi_offset ra, -4
	mv	a5, a1
.Ltmp220:
	mv	a6, a0
.Ltmp221:
	.loc	13 746 25 prologue_end
	lbu	a0, 30(a1)
	lbu	a1, 31(a1)
	lbu	a4, 29(a5)
	lbu	a7, 28(a5)
.Ltmp222:
	.loc	14 1157 5
	slli	a0, a0, 8
	or	a0, a0, a1
	slli	a4, a4, 16
	slli	a7, a7, 24
	or	a1, a7, a4
	or	a0, a0, a1
.Ltmp223:
	.loc	12 8 9
	sw	a0, 12(sp)
.Ltmp224:
	.loc	13 746 25
	lbu	a0, 26(a5)
.Ltmp225:
	lbu	a1, 27(a5)
	lbu	a4, 25(a5)
	lbu	a7, 24(a5)
.Ltmp226:
	.loc	14 1157 5
	slli	a0, a0, 8
	or	a0, a0, a1
	slli	a4, a4, 16
	slli	a7, a7, 24
	or	a1, a7, a4
	or	a0, a0, a1
.Ltmp227:
	.loc	12 8 9
	sw	a0, 16(sp)
.Ltmp228:
	.loc	13 746 25
	lbu	a0, 22(a5)
.Ltmp229:
	lbu	a1, 23(a5)
	lbu	a4, 21(a5)
	lbu	a7, 20(a5)
.Ltmp230:
	.loc	14 1157 5
	slli	a0, a0, 8
	or	a0, a0, a1
	slli	a4, a4, 16
	slli	a7, a7, 24
	or	a1, a7, a4
	or	a0, a0, a1
.Ltmp231:
	.loc	12 8 9
	sw	a0, 20(sp)
.Ltmp232:
	.loc	13 746 25
	lbu	a0, 18(a5)
.Ltmp233:
	lbu	a1, 19(a5)
	lbu	a4, 17(a5)
	lbu	a7, 16(a5)
.Ltmp234:
	.loc	14 1157 5
	slli	a0, a0, 8
	or	a0, a0, a1
	slli	a4, a4, 16
	slli	a7, a7, 24
	or	a1, a7, a4
	or	a0, a0, a1
.Ltmp235:
	.loc	12 8 9
	sw	a0, 24(sp)
.Ltmp236:
	.loc	13 746 25
	lbu	a0, 14(a5)
.Ltmp237:
	lbu	a1, 15(a5)
	lbu	a4, 13(a5)
	lbu	a7, 12(a5)
.Ltmp238:
	.loc	14 1157 5
	slli	a0, a0, 8
	or	a0, a0, a1
	slli	a4, a4, 16
	slli	a7, a7, 24
	or	a1, a7, a4
	or	a0, a0, a1
.Ltmp239:
	.loc	12 8 9
	sw	a0, 28(sp)
.Ltmp240:
	.loc	13 746 25
	lbu	a0, 10(a5)
.Ltmp241:
	lbu	a1, 11(a5)
	lbu	a4, 9(a5)
	lbu	a7, 8(a5)
.Ltmp242:
	.loc	14 1157 5
	slli	a0, a0, 8
	or	a0, a0, a1
	slli	a4, a4, 16
	slli	a7, a7, 24
	or	a1, a7, a4
	or	a0, a0, a1
.Ltmp243:
	.loc	12 8 9
	sw	a0, 32(sp)
.Ltmp244:
	.loc	13 746 25
	lbu	a0, 6(a5)
.Ltmp245:
	lbu	a1, 7(a5)
	lbu	a4, 5(a5)
	lbu	a7, 4(a5)
.Ltmp246:
	.loc	14 1157 5
	slli	a0, a0, 8
	or	a0, a0, a1
	slli	a4, a4, 16
	slli	a7, a7, 24
	or	a1, a7, a4
	or	a0, a0, a1
.Ltmp247:
	.loc	12 8 9
	sw	a0, 36(sp)
.Ltmp248:
	.loc	13 746 25
	lbu	a0, 2(a5)
.Ltmp249:
	lbu	a1, 3(a5)
	lbu	a4, 1(a5)
	lbu	a7, 0(a5)
.Ltmp250:
	.loc	14 1157 5
	slli	a0, a0, 8
	or	a0, a0, a1
	slli	a4, a4, 16
	slli	a7, a7, 24
	or	a1, a7, a4
	or	a0, a0, a1
.Ltmp251:
	.loc	12 8 9
	sw	a0, 40(sp)
.Ltmp252:
	.loc	13 746 25
	lbu	a0, 30(a2)
	lbu	a1, 31(a2)
	lbu	a4, 29(a2)
	lbu	a7, 28(a2)
.Ltmp253:
	.loc	14 1157 5
	slli	a0, a0, 8
	or	a0, a0, a1
	slli	a4, a4, 16
	slli	a7, a7, 24
	or	a1, a7, a4
	or	a0, a0, a1
.Ltmp254:
	.loc	12 8 9
	sw	a0, 44(sp)
.Ltmp255:
	.loc	13 746 25
	lbu	a0, 26(a2)
.Ltmp256:
	lbu	a1, 27(a2)
	lbu	a4, 25(a2)
	lbu	a7, 24(a2)
.Ltmp257:
	.loc	14 1157 5
	slli	a0, a0, 8
	or	a0, a0, a1
	slli	a4, a4, 16
	slli	a7, a7, 24
	or	a1, a7, a4
	or	a0, a0, a1
.Ltmp258:
	.loc	12 8 9
	sw	a0, 48(sp)
.Ltmp259:
	.loc	13 746 25
	lbu	a0, 22(a2)
.Ltmp260:
	lbu	a1, 23(a2)
	lbu	a4, 21(a2)
	lbu	a7, 20(a2)
.Ltmp261:
	.loc	14 1157 5
	slli	a0, a0, 8
	or	a0, a0, a1
	slli	a4, a4, 16
	slli	a7, a7, 24
	or	a1, a7, a4
	or	a0, a0, a1
.Ltmp262:
	.loc	12 8 9
	sw	a0, 52(sp)
.Ltmp263:
	.loc	13 746 25
	lbu	a0, 18(a2)
.Ltmp264:
	lbu	a1, 19(a2)
	lbu	a4, 17(a2)
	lbu	a7, 16(a2)
.Ltmp265:
	.loc	14 1157 5
	slli	a0, a0, 8
	or	a0, a0, a1
	slli	a4, a4, 16
	slli	a7, a7, 24
	or	a1, a7, a4
	or	a0, a0, a1
.Ltmp266:
	.loc	12 8 9
	sw	a0, 56(sp)
.Ltmp267:
	.loc	13 746 25
	lbu	a0, 14(a2)
.Ltmp268:
	lbu	a1, 15(a2)
	lbu	a4, 13(a2)
	lbu	a7, 12(a2)
.Ltmp269:
	.loc	14 1157 5
	slli	a0, a0, 8
	or	a0, a0, a1
	slli	a4, a4, 16
	slli	a7, a7, 24
	or	a1, a7, a4
	or	a0, a0, a1
.Ltmp270:
	.loc	12 8 9
	sw	a0, 60(sp)
.Ltmp271:
	.loc	13 746 25
	lbu	a0, 10(a2)
.Ltmp272:
	lbu	a1, 11(a2)
	lbu	a4, 9(a2)
	lbu	a7, 8(a2)
.Ltmp273:
	.loc	14 1157 5
	slli	a0, a0, 8
	or	a0, a0, a1
	slli	a4, a4, 16
	slli	a7, a7, 24
	or	a1, a7, a4
	or	a0, a0, a1
.Ltmp274:
	.loc	12 8 9
	sw	a0, 64(sp)
.Ltmp275:
	.loc	13 746 25
	lbu	a0, 6(a2)
.Ltmp276:
	lbu	a1, 7(a2)
	lbu	a4, 5(a2)
	lbu	a7, 4(a2)
.Ltmp277:
	.loc	14 1157 5
	slli	a0, a0, 8
	or	a0, a0, a1
	slli	a4, a4, 16
	slli	a7, a7, 24
	or	a1, a7, a4
	or	a0, a0, a1
.Ltmp278:
	.loc	12 8 9
	sw	a0, 68(sp)
.Ltmp279:
	.loc	13 746 25
	lbu	a0, 2(a2)
.Ltmp280:
	lbu	a1, 3(a2)
	lbu	a4, 1(a2)
	lbu	a2, 0(a2)
.Ltmp281:
	.loc	14 1157 5
	slli	a0, a0, 8
	or	a0, a0, a1
	slli	a4, a4, 16
	slli	a2, a2, 24
	or	a2, a2, a4
	or	a0, a0, a2
.Ltmp282:
	.loc	12 8 9
	sw	a0, 72(sp)
.Ltmp283:
	.loc	13 746 25
	lbu	a0, 30(a3)
	lbu	a1, 31(a3)
	lbu	a2, 29(a3)
	lbu	a4, 28(a3)
.Ltmp284:
	.loc	14 1157 5
	slli	a0, a0, 8
	or	a0, a0, a1
	slli	a2, a2, 16
	slli	a4, a4, 24
	or	a2, a2, a4
	or	a0, a0, a2
.Ltmp285:
	.loc	12 8 9
	sw	a0, 76(sp)
.Ltmp286:
	.loc	13 746 25
	lbu	a0, 26(a3)
.Ltmp287:
	lbu	a1, 27(a3)
	lbu	a2, 25(a3)
	lbu	a4, 24(a3)
.Ltmp288:
	.loc	14 1157 5
	slli	a0, a0, 8
	or	a0, a0, a1
	slli	a2, a2, 16
	slli	a4, a4, 24
	or	a2, a2, a4
	or	a0, a0, a2
.Ltmp289:
	.loc	12 8 9
	sw	a0, 80(sp)
.Ltmp290:
	.loc	13 746 25
	lbu	a0, 22(a3)
.Ltmp291:
	lbu	a1, 23(a3)
	lbu	a2, 21(a3)
	lbu	a4, 20(a3)
.Ltmp292:
	.loc	14 1157 5
	slli	a0, a0, 8
	or	a0, a0, a1
	slli	a2, a2, 16
	slli	a4, a4, 24
	or	a2, a2, a4
	or	a0, a0, a2
.Ltmp293:
	.loc	12 8 9
	sw	a0, 84(sp)
.Ltmp294:
	.loc	13 746 25
	lbu	a0, 18(a3)
.Ltmp295:
	lbu	a1, 19(a3)
	lbu	a2, 17(a3)
	lbu	a4, 16(a3)
.Ltmp296:
	.loc	14 1157 5
	slli	a0, a0, 8
	or	a0, a0, a1
	slli	a2, a2, 16
	slli	a4, a4, 24
	or	a2, a2, a4
	or	a0, a0, a2
.Ltmp297:
	.loc	12 8 9
	sw	a0, 88(sp)
.Ltmp298:
	.loc	13 746 25
	lbu	a0, 14(a3)
.Ltmp299:
	lbu	a1, 15(a3)
	lbu	a2, 13(a3)
	lbu	a4, 12(a3)
.Ltmp300:
	.loc	14 1157 5
	slli	a0, a0, 8
	or	a0, a0, a1
	slli	a2, a2, 16
	slli	a4, a4, 24
	or	a2, a2, a4
	or	a0, a0, a2
.Ltmp301:
	.loc	12 8 9
	sw	a0, 92(sp)
.Ltmp302:
	.loc	13 746 25
	lbu	a0, 10(a3)
.Ltmp303:
	lbu	a1, 11(a3)
	lbu	a2, 9(a3)
	lbu	a4, 8(a3)
.Ltmp304:
	.loc	14 1157 5
	slli	a0, a0, 8
	or	a0, a0, a1
	slli	a2, a2, 16
	slli	a4, a4, 24
	or	a2, a2, a4
	or	a0, a0, a2
.Ltmp305:
	.loc	12 8 9
	sw	a0, 96(sp)
.Ltmp306:
	.loc	13 746 25
	lbu	a0, 6(a3)
.Ltmp307:
	lbu	a1, 7(a3)
	lbu	a2, 5(a3)
	lbu	a4, 4(a3)
.Ltmp308:
	.loc	14 1157 5
	slli	a0, a0, 8
	or	a0, a0, a1
	slli	a2, a2, 16
	slli	a4, a4, 24
	or	a2, a2, a4
	or	a0, a0, a2
.Ltmp309:
	.loc	12 8 9
	sw	a0, 100(sp)
.Ltmp310:
	.loc	13 746 25
	lbu	a0, 2(a3)
.Ltmp311:
	lbu	a1, 3(a3)
	lbu	a2, 1(a3)
	lbu	a3, 0(a3)
.Ltmp312:
	.loc	14 1157 5
	slli	a0, a0, 8
	or	a0, a0, a1
	slli	a2, a2, 16
	slli	a3, a3, 24
	or	a2, a2, a3
	or	a0, a0, a2
.Ltmp313:
	.loc	12 8 9
	sw	a0, 104(sp)
.Ltmp314:
	.loc	12 96 28
	sw	zero, 136(sp)
	sw	zero, 132(sp)
	sw	zero, 128(sp)
	sw	zero, 124(sp)
	sw	zero, 120(sp)
	sw	zero, 116(sp)
	sw	zero, 112(sp)
	sw	zero, 108(sp)
.Ltmp315:
	.loc	12 93 9
	addi	a0, sp, 12
	addi	a1, sp, 44
	addi	a2, sp, 108
	li	t0, 4
	#APP
	ecall
	#NO_APP
.Ltmp316:
	.loc	12 99 9
	addi	a2, sp, 76
	li	t0, 8
	#APP
	ecall
	#NO_APP
.Ltmp317:
	.loc	12 15 21
	lw	a0, 40(sp)
.Ltmp318:
	.loc	14 1157 5
	srli	a1, a0, 24
.Ltmp319:
	.loc	15 2774 9
	sb	a0, 3(a5)
	srli	a2, a0, 8
	sb	a2, 2(a5)
.Ltmp320:
	.loc	12 15 21
	lw	a2, 36(sp)
.Ltmp321:
	.loc	15 2774 9
	srli	a0, a0, 16
.Ltmp322:
	sb	a0, 1(a5)
	sb	a1, 0(a5)
.Ltmp323:
	.loc	14 1157 5
	srli	a0, a2, 24
.Ltmp324:
	.loc	15 2774 9
	sb	a2, 7(a5)
.Ltmp325:
	srli	a1, a2, 8
	sb	a1, 6(a5)
.Ltmp326:
	.loc	12 15 21
	lw	a1, 32(sp)
.Ltmp327:
	.loc	15 2774 9
	srli	a2, a2, 16
.Ltmp328:
	sb	a2, 5(a5)
	sb	a0, 4(a5)
.Ltmp329:
	.loc	14 1157 5
	srli	a0, a1, 24
.Ltmp330:
	.loc	15 2774 9
	sb	a1, 11(a5)
.Ltmp331:
	srli	a2, a1, 8
	sb	a2, 10(a5)
.Ltmp332:
	.loc	12 15 21
	lw	a2, 28(sp)
.Ltmp333:
	.loc	15 2774 9
	srli	a1, a1, 16
.Ltmp334:
	sb	a1, 9(a5)
	sb	a0, 8(a5)
.Ltmp335:
	.loc	14 1157 5
	srli	a0, a2, 24
.Ltmp336:
	.loc	15 2774 9
	sb	a2, 15(a5)
.Ltmp337:
	srli	a1, a2, 8
	sb	a1, 14(a5)
.Ltmp338:
	.loc	12 15 21
	lw	a1, 24(sp)
.Ltmp339:
	.loc	15 2774 9
	srli	a2, a2, 16
.Ltmp340:
	sb	a2, 13(a5)
	sb	a0, 12(a5)
.Ltmp341:
	.loc	14 1157 5
	srli	a0, a1, 24
.Ltmp342:
	.loc	15 2774 9
	sb	a1, 19(a5)
.Ltmp343:
	srli	a2, a1, 8
	sb	a2, 18(a5)
.Ltmp344:
	.loc	12 15 21
	lw	a2, 20(sp)
.Ltmp345:
	.loc	15 2774 9
	srli	a1, a1, 16
.Ltmp346:
	sb	a1, 17(a5)
	sb	a0, 16(a5)
.Ltmp347:
	.loc	14 1157 5
	srli	a0, a2, 24
.Ltmp348:
	.loc	15 2774 9
	sb	a2, 23(a5)
.Ltmp349:
	srli	a1, a2, 8
	sb	a1, 22(a5)
.Ltmp350:
	.loc	12 15 21
	lw	a1, 16(sp)
.Ltmp351:
	.loc	15 2774 9
	srli	a2, a2, 16
.Ltmp352:
	sb	a2, 21(a5)
	sb	a0, 20(a5)
.Ltmp353:
	.loc	14 1157 5
	srli	a0, a1, 24
.Ltmp354:
	.loc	15 2774 9
	sb	a1, 27(a5)
.Ltmp355:
	srli	a2, a1, 8
	sb	a2, 26(a5)
.Ltmp356:
	.loc	12 15 21
	lw	a2, 12(sp)
.Ltmp357:
	.loc	15 2774 9
	srli	a1, a1, 16
.Ltmp358:
	sb	a1, 25(a5)
	sb	a0, 24(a5)
.Ltmp359:
	.loc	14 1157 5
	srli	a0, a2, 24
.Ltmp360:
	.loc	15 2774 9
	sb	a2, 31(a5)
.Ltmp361:
	srli	a1, a2, 8
	sb	a1, 30(a5)
	srli	a2, a2, 16
.Ltmp362:
	sb	a2, 29(a5)
	sb	a0, 28(a5)
.Ltmp363:
	.loc	12 107 5
	li	a2, 32
	mv	a0, a6
	mv	a1, a5
	call	memcpy@plt
.Ltmp364:
	.loc	12 108 2
	lw	ra, 140(sp)
	.loc	12 108 2 epilogue_begin is_stmt 0
	addi	sp, sp, 144
	ret
.Ltmp365:
.Lfunc_end6:
	.size	_ZN19powdr_riscv_runtime5arith16modmul_256_u8_be17h4502ba2ee97d18f8E, .Lfunc_end6-_ZN19powdr_riscv_runtime5arith16modmul_256_u8_be17h4502ba2ee97d18f8E
	.cfi_endproc

	.section	.text._ZN19powdr_riscv_runtime2ec9add_u8_be17h8b87db81c1a0f783E,"ax",@progbits
	.globl	_ZN19powdr_riscv_runtime2ec9add_u8_be17h8b87db81c1a0f783E
	.p2align	1
	.type	_ZN19powdr_riscv_runtime2ec9add_u8_be17h8b87db81c1a0f783E,@function
_ZN19powdr_riscv_runtime2ec9add_u8_be17h8b87db81c1a0f783E:
.Lfunc_begin7:
	.file	20 "/Users/steve/Documents/repo/powdr-5_6_24/powdr/riscv-runtime" "src/ec.rs"
	.loc	20 7 0 is_stmt 1
	.cfi_startproc
	addi	sp, sp, -144
	.cfi_def_cfa_offset 144
	sw	ra, 140(sp)
	sw	s0, 136(sp)
	sw	s1, 132(sp)
	sw	s2, 128(sp)
	.cfi_offset ra, -4
	.cfi_offset s0, -8
	.cfi_offset s1, -12
	.cfi_offset s2, -16
	mv	s0, a2
.Ltmp366:
	mv	a5, a1
.Ltmp367:
	mv	s2, a0
.Ltmp368:
	.loc	13 746 25 prologue_end
	lbu	a0, 30(a1)
	lbu	a1, 31(a1)
	lbu	a2, 29(a5)
	lbu	s1, 28(a5)
.Ltmp369:
	.loc	14 1157 5
	slli	a0, a0, 8
	or	a0, a0, a1
	slli	a2, a2, 16
	slli	s1, s1, 24
	or	a2, a2, s1
	or	a0, a0, a2
.Ltmp370:
	.loc	12 8 9
	sw	a0, 0(sp)
.Ltmp371:
	.loc	13 746 25
	lbu	a0, 26(a5)
.Ltmp372:
	lbu	a1, 27(a5)
	lbu	a2, 25(a5)
	lbu	s1, 24(a5)
.Ltmp373:
	.loc	14 1157 5
	slli	a0, a0, 8
	or	a0, a0, a1
	slli	a2, a2, 16
	slli	s1, s1, 24
	or	a2, a2, s1
	or	a0, a0, a2
.Ltmp374:
	.loc	12 8 9
	sw	a0, 4(sp)
.Ltmp375:
	.loc	13 746 25
	lbu	a0, 22(a5)
.Ltmp376:
	lbu	a1, 23(a5)
	lbu	a2, 21(a5)
	lbu	s1, 20(a5)
.Ltmp377:
	.loc	14 1157 5
	slli	a0, a0, 8
	or	a0, a0, a1
	slli	a2, a2, 16
	slli	s1, s1, 24
	or	a2, a2, s1
	or	a0, a0, a2
.Ltmp378:
	.loc	12 8 9
	sw	a0, 8(sp)
.Ltmp379:
	.loc	13 746 25
	lbu	a0, 18(a5)
.Ltmp380:
	lbu	a1, 19(a5)
	lbu	a2, 17(a5)
	lbu	s1, 16(a5)
.Ltmp381:
	.loc	14 1157 5
	slli	a0, a0, 8
	or	a0, a0, a1
	slli	a2, a2, 16
	slli	s1, s1, 24
	or	a2, a2, s1
	or	a0, a0, a2
.Ltmp382:
	.loc	12 8 9
	sw	a0, 12(sp)
.Ltmp383:
	.loc	13 746 25
	lbu	a0, 14(a5)
.Ltmp384:
	lbu	a1, 15(a5)
	lbu	a2, 13(a5)
	lbu	s1, 12(a5)
.Ltmp385:
	.loc	14 1157 5
	slli	a0, a0, 8
	or	a0, a0, a1
	slli	a2, a2, 16
	slli	s1, s1, 24
	or	a2, a2, s1
	or	a0, a0, a2
.Ltmp386:
	.loc	12 8 9
	sw	a0, 16(sp)
.Ltmp387:
	.loc	13 746 25
	lbu	a0, 10(a5)
.Ltmp388:
	lbu	a1, 11(a5)
	lbu	a2, 9(a5)
	lbu	s1, 8(a5)
.Ltmp389:
	.loc	14 1157 5
	slli	a0, a0, 8
	or	a0, a0, a1
	slli	a2, a2, 16
	slli	s1, s1, 24
	or	a2, a2, s1
	or	a0, a0, a2
.Ltmp390:
	.loc	12 8 9
	sw	a0, 20(sp)
.Ltmp391:
	.loc	13 746 25
	lbu	a0, 6(a5)
.Ltmp392:
	lbu	a1, 7(a5)
	lbu	a2, 5(a5)
	lbu	s1, 4(a5)
.Ltmp393:
	.loc	14 1157 5
	slli	a0, a0, 8
	or	a0, a0, a1
	slli	a2, a2, 16
	slli	s1, s1, 24
	or	a2, a2, s1
	or	a0, a0, a2
.Ltmp394:
	.loc	12 8 9
	sw	a0, 24(sp)
.Ltmp395:
	.loc	13 746 25
	lbu	a0, 2(a5)
.Ltmp396:
	lbu	a1, 3(a5)
	lbu	a2, 1(a5)
	lbu	s1, 0(a5)
.Ltmp397:
	.loc	14 1157 5
	slli	a0, a0, 8
	or	a0, a0, a1
	slli	a2, a2, 16
	slli	s1, s1, 24
	or	a2, a2, s1
	or	a0, a0, a2
.Ltmp398:
	.loc	12 8 9
	sw	a0, 28(sp)
.Ltmp399:
	.loc	13 746 25
	lbu	a0, 30(s0)
	lbu	a1, 31(s0)
	lbu	a2, 29(s0)
	lbu	s1, 28(s0)
.Ltmp400:
	.loc	14 1157 5
	slli	a0, a0, 8
	or	a0, a0, a1
	slli	a2, a2, 16
	slli	s1, s1, 24
	or	a2, a2, s1
	or	a0, a0, a2
.Ltmp401:
	.loc	12 8 9
	sw	a0, 32(sp)
.Ltmp402:
	.loc	13 746 25
	lbu	a0, 26(s0)
.Ltmp403:
	lbu	a1, 27(s0)
	lbu	a2, 25(s0)
	lbu	s1, 24(s0)
.Ltmp404:
	.loc	14 1157 5
	slli	a0, a0, 8
	or	a0, a0, a1
	slli	a2, a2, 16
	slli	s1, s1, 24
	or	a2, a2, s1
	or	a0, a0, a2
.Ltmp405:
	.loc	12 8 9
	sw	a0, 36(sp)
.Ltmp406:
	.loc	13 746 25
	lbu	a0, 22(s0)
.Ltmp407:
	lbu	a1, 23(s0)
	lbu	a2, 21(s0)
	lbu	s1, 20(s0)
.Ltmp408:
	.loc	14 1157 5
	slli	a0, a0, 8
	or	a0, a0, a1
	slli	a2, a2, 16
	slli	s1, s1, 24
	or	a2, a2, s1
	or	a0, a0, a2
.Ltmp409:
	.loc	12 8 9
	sw	a0, 40(sp)
.Ltmp410:
	.loc	13 746 25
	lbu	a0, 18(s0)
.Ltmp411:
	lbu	a1, 19(s0)
	lbu	a2, 17(s0)
	lbu	s1, 16(s0)
.Ltmp412:
	.loc	14 1157 5
	slli	a0, a0, 8
	or	a0, a0, a1
	slli	a2, a2, 16
	slli	s1, s1, 24
	or	a2, a2, s1
	or	a0, a0, a2
.Ltmp413:
	.loc	12 8 9
	sw	a0, 44(sp)
.Ltmp414:
	.loc	13 746 25
	lbu	a0, 14(s0)
.Ltmp415:
	lbu	a1, 15(s0)
	lbu	a2, 13(s0)
	lbu	s1, 12(s0)
.Ltmp416:
	.loc	14 1157 5
	slli	a0, a0, 8
	or	a0, a0, a1
	slli	a2, a2, 16
	slli	s1, s1, 24
	or	a2, a2, s1
	or	a0, a0, a2
.Ltmp417:
	.loc	12 8 9
	sw	a0, 48(sp)
.Ltmp418:
	.loc	13 746 25
	lbu	a0, 10(s0)
.Ltmp419:
	lbu	a1, 11(s0)
	lbu	a2, 9(s0)
	lbu	s1, 8(s0)
.Ltmp420:
	.loc	14 1157 5
	slli	a0, a0, 8
	or	a0, a0, a1
	slli	a2, a2, 16
	slli	s1, s1, 24
	or	a2, a2, s1
	or	a0, a0, a2
.Ltmp421:
	.loc	12 8 9
	sw	a0, 52(sp)
.Ltmp422:
	.loc	13 746 25
	lbu	a0, 6(s0)
.Ltmp423:
	lbu	a1, 7(s0)
	lbu	a2, 5(s0)
	lbu	s1, 4(s0)
.Ltmp424:
	.loc	14 1157 5
	slli	a0, a0, 8
	or	a0, a0, a1
	slli	a2, a2, 16
	slli	s1, s1, 24
	or	a2, a2, s1
	or	a0, a0, a2
.Ltmp425:
	.loc	12 8 9
	sw	a0, 56(sp)
.Ltmp426:
	.loc	13 746 25
	lbu	a0, 2(s0)
.Ltmp427:
	lbu	a1, 3(s0)
	lbu	a2, 1(s0)
	lbu	s1, 0(s0)
.Ltmp428:
	.loc	14 1157 5
	slli	a0, a0, 8
	or	a0, a0, a1
	slli	a2, a2, 16
	slli	s1, s1, 24
	or	a2, a2, s1
	or	a0, a0, a2
.Ltmp429:
	.loc	12 8 9
	sw	a0, 60(sp)
.Ltmp430:
	.loc	13 746 25
	lbu	a0, 30(a3)
	lbu	a1, 31(a3)
	lbu	a2, 29(a3)
	lbu	s1, 28(a3)
.Ltmp431:
	.loc	14 1157 5
	slli	a0, a0, 8
	or	a0, a0, a1
	slli	a2, a2, 16
	slli	s1, s1, 24
	or	a2, a2, s1
	or	a0, a0, a2
.Ltmp432:
	.loc	12 8 9
	sw	a0, 64(sp)
.Ltmp433:
	.loc	13 746 25
	lbu	a0, 26(a3)
.Ltmp434:
	lbu	a1, 27(a3)
	lbu	a2, 25(a3)
	lbu	s1, 24(a3)
.Ltmp435:
	.loc	14 1157 5
	slli	a0, a0, 8
	or	a0, a0, a1
	slli	a2, a2, 16
	slli	s1, s1, 24
	or	a2, a2, s1
	or	a0, a0, a2
.Ltmp436:
	.loc	12 8 9
	sw	a0, 68(sp)
.Ltmp437:
	.loc	13 746 25
	lbu	a0, 22(a3)
.Ltmp438:
	lbu	a1, 23(a3)
	lbu	a2, 21(a3)
	lbu	s1, 20(a3)
.Ltmp439:
	.loc	14 1157 5
	slli	a0, a0, 8
	or	a0, a0, a1
	slli	a2, a2, 16
	slli	s1, s1, 24
	or	a2, a2, s1
	or	a0, a0, a2
.Ltmp440:
	.loc	12 8 9
	sw	a0, 72(sp)
.Ltmp441:
	.loc	13 746 25
	lbu	a0, 18(a3)
.Ltmp442:
	lbu	a1, 19(a3)
	lbu	a2, 17(a3)
	lbu	s1, 16(a3)
.Ltmp443:
	.loc	14 1157 5
	slli	a0, a0, 8
	or	a0, a0, a1
	slli	a2, a2, 16
	slli	s1, s1, 24
	or	a2, a2, s1
	or	a0, a0, a2
.Ltmp444:
	.loc	12 8 9
	sw	a0, 76(sp)
.Ltmp445:
	.loc	13 746 25
	lbu	a0, 14(a3)
.Ltmp446:
	lbu	a1, 15(a3)
	lbu	a2, 13(a3)
	lbu	s1, 12(a3)
.Ltmp447:
	.loc	14 1157 5
	slli	a0, a0, 8
	or	a0, a0, a1
	slli	a2, a2, 16
	slli	s1, s1, 24
	or	a2, a2, s1
	or	a0, a0, a2
.Ltmp448:
	.loc	12 8 9
	sw	a0, 80(sp)
.Ltmp449:
	.loc	13 746 25
	lbu	a0, 10(a3)
.Ltmp450:
	lbu	a1, 11(a3)
	lbu	a2, 9(a3)
	lbu	s1, 8(a3)
.Ltmp451:
	.loc	14 1157 5
	slli	a0, a0, 8
	or	a0, a0, a1
	slli	a2, a2, 16
	slli	s1, s1, 24
	or	a2, a2, s1
	or	a0, a0, a2
.Ltmp452:
	.loc	12 8 9
	sw	a0, 84(sp)
.Ltmp453:
	.loc	13 746 25
	lbu	a0, 6(a3)
.Ltmp454:
	lbu	a1, 7(a3)
	lbu	a2, 5(a3)
	lbu	s1, 4(a3)
.Ltmp455:
	.loc	14 1157 5
	slli	a0, a0, 8
	or	a0, a0, a1
	slli	a2, a2, 16
	slli	s1, s1, 24
	or	a2, a2, s1
	or	a0, a0, a2
.Ltmp456:
	.loc	12 8 9
	sw	a0, 88(sp)
.Ltmp457:
	.loc	13 746 25
	lbu	a0, 2(a3)
.Ltmp458:
	lbu	a1, 3(a3)
	lbu	a2, 1(a3)
	lbu	a3, 0(a3)
.Ltmp459:
	.loc	14 1157 5
	slli	a0, a0, 8
	or	a0, a0, a1
	slli	a2, a2, 16
	slli	a3, a3, 24
	or	a2, a2, a3
	or	a0, a0, a2
.Ltmp460:
	.loc	12 8 9
	sw	a0, 92(sp)
.Ltmp461:
	.loc	13 746 25
	lbu	a0, 30(a4)
	lbu	a1, 31(a4)
	lbu	a2, 29(a4)
	lbu	a3, 28(a4)
.Ltmp462:
	.loc	14 1157 5
	slli	a0, a0, 8
	or	a0, a0, a1
	slli	a2, a2, 16
	slli	a3, a3, 24
	or	a2, a2, a3
	or	a0, a0, a2
.Ltmp463:
	.loc	12 8 9
	sw	a0, 96(sp)
.Ltmp464:
	.loc	13 746 25
	lbu	a0, 26(a4)
.Ltmp465:
	lbu	a1, 27(a4)
	lbu	a2, 25(a4)
	lbu	a3, 24(a4)
.Ltmp466:
	.loc	14 1157 5
	slli	a0, a0, 8
	or	a0, a0, a1
	slli	a2, a2, 16
	slli	a3, a3, 24
	or	a2, a2, a3
	or	a0, a0, a2
.Ltmp467:
	.loc	12 8 9
	sw	a0, 100(sp)
.Ltmp468:
	.loc	13 746 25
	lbu	a0, 22(a4)
.Ltmp469:
	lbu	a1, 23(a4)
	lbu	a2, 21(a4)
	lbu	a3, 20(a4)
.Ltmp470:
	.loc	14 1157 5
	slli	a0, a0, 8
	or	a0, a0, a1
	slli	a2, a2, 16
	slli	a3, a3, 24
	or	a2, a2, a3
	or	a0, a0, a2
.Ltmp471:
	.loc	12 8 9
	sw	a0, 104(sp)
.Ltmp472:
	.loc	13 746 25
	lbu	a0, 18(a4)
.Ltmp473:
	lbu	a1, 19(a4)
	lbu	a2, 17(a4)
	lbu	a3, 16(a4)
.Ltmp474:
	.loc	14 1157 5
	slli	a0, a0, 8
	or	a0, a0, a1
	slli	a2, a2, 16
	slli	a3, a3, 24
	or	a2, a2, a3
	or	a0, a0, a2
.Ltmp475:
	.loc	12 8 9
	sw	a0, 108(sp)
.Ltmp476:
	.loc	13 746 25
	lbu	a0, 14(a4)
.Ltmp477:
	lbu	a1, 15(a4)
	lbu	a2, 13(a4)
	lbu	a3, 12(a4)
.Ltmp478:
	.loc	14 1157 5
	slli	a0, a0, 8
	or	a0, a0, a1
	slli	a2, a2, 16
	slli	a3, a3, 24
	or	a2, a2, a3
	or	a0, a0, a2
.Ltmp479:
	.loc	12 8 9
	sw	a0, 112(sp)
.Ltmp480:
	.loc	13 746 25
	lbu	a0, 10(a4)
.Ltmp481:
	lbu	a1, 11(a4)
	lbu	a2, 9(a4)
	lbu	a3, 8(a4)
.Ltmp482:
	.loc	14 1157 5
	slli	a0, a0, 8
	or	a0, a0, a1
	slli	a2, a2, 16
	slli	a3, a3, 24
	or	a2, a2, a3
	or	a0, a0, a2
.Ltmp483:
	.loc	12 8 9
	sw	a0, 116(sp)
.Ltmp484:
	.loc	13 746 25
	lbu	a0, 6(a4)
.Ltmp485:
	lbu	a1, 7(a4)
	lbu	a2, 5(a4)
	lbu	a3, 4(a4)
.Ltmp486:
	.loc	14 1157 5
	slli	a0, a0, 8
	or	a0, a0, a1
	slli	a2, a2, 16
	slli	a3, a3, 24
	or	a2, a2, a3
	or	a0, a0, a2
.Ltmp487:
	.loc	12 8 9
	sw	a0, 120(sp)
.Ltmp488:
	.loc	13 746 25
	lbu	a0, 2(a4)
.Ltmp489:
	lbu	a1, 3(a4)
	lbu	a2, 1(a4)
	lbu	a3, 0(a4)
.Ltmp490:
	.loc	14 1157 5
	slli	a0, a0, 8
	or	a0, a0, a1
	slli	a2, a2, 16
	slli	a3, a3, 24
	or	a2, a2, a3
	or	a0, a0, a2
.Ltmp491:
	.loc	12 8 9
	sw	a0, 124(sp)
.Ltmp492:
	.loc	20 24 9
	mv	a0, sp
.Ltmp493:
	addi	a1, sp, 32
	addi	a2, sp, 64
	addi	a3, sp, 96
	li	t0, 5
	#APP
	ecall
	#NO_APP
.Ltmp494:
	.loc	12 15 21
	lw	a0, 28(sp)
.Ltmp495:
	.loc	14 1157 5
	srli	a1, a0, 24
.Ltmp496:
	.loc	15 2774 9
	sb	a0, 3(a5)
	srli	a2, a0, 8
	sb	a2, 2(a5)
.Ltmp497:
	.loc	12 15 21
	lw	a2, 24(sp)
.Ltmp498:
	.loc	15 2774 9
	srli	a0, a0, 16
.Ltmp499:
	sb	a0, 1(a5)
	sb	a1, 0(a5)
.Ltmp500:
	.loc	14 1157 5
	srli	a0, a2, 24
.Ltmp501:
	.loc	15 2774 9
	sb	a2, 7(a5)
.Ltmp502:
	srli	a1, a2, 8
	sb	a1, 6(a5)
.Ltmp503:
	.loc	12 15 21
	lw	a1, 20(sp)
.Ltmp504:
	.loc	15 2774 9
	srli	a2, a2, 16
.Ltmp505:
	sb	a2, 5(a5)
	sb	a0, 4(a5)
.Ltmp506:
	.loc	14 1157 5
	srli	a0, a1, 24
.Ltmp507:
	.loc	15 2774 9
	sb	a1, 11(a5)
.Ltmp508:
	srli	a2, a1, 8
	sb	a2, 10(a5)
.Ltmp509:
	.loc	12 15 21
	lw	a2, 16(sp)
.Ltmp510:
	.loc	15 2774 9
	srli	a1, a1, 16
.Ltmp511:
	sb	a1, 9(a5)
	sb	a0, 8(a5)
.Ltmp512:
	.loc	14 1157 5
	srli	a0, a2, 24
.Ltmp513:
	.loc	15 2774 9
	sb	a2, 15(a5)
.Ltmp514:
	srli	a1, a2, 8
	sb	a1, 14(a5)
.Ltmp515:
	.loc	12 15 21
	lw	a1, 12(sp)
.Ltmp516:
	.loc	15 2774 9
	srli	a2, a2, 16
.Ltmp517:
	sb	a2, 13(a5)
	sb	a0, 12(a5)
.Ltmp518:
	.loc	14 1157 5
	srli	a0, a1, 24
.Ltmp519:
	.loc	15 2774 9
	sb	a1, 19(a5)
.Ltmp520:
	srli	a2, a1, 8
	sb	a2, 18(a5)
.Ltmp521:
	.loc	12 15 21
	lw	a2, 8(sp)
.Ltmp522:
	.loc	15 2774 9
	srli	a1, a1, 16
.Ltmp523:
	sb	a1, 17(a5)
	sb	a0, 16(a5)
.Ltmp524:
	.loc	14 1157 5
	srli	a0, a2, 24
.Ltmp525:
	.loc	15 2774 9
	sb	a2, 23(a5)
.Ltmp526:
	srli	a1, a2, 8
	sb	a1, 22(a5)
.Ltmp527:
	.loc	12 15 21
	lw	a1, 4(sp)
.Ltmp528:
	.loc	15 2774 9
	srli	a2, a2, 16
.Ltmp529:
	sb	a2, 21(a5)
	sb	a0, 20(a5)
.Ltmp530:
	.loc	14 1157 5
	srli	a0, a1, 24
.Ltmp531:
	.loc	15 2774 9
	sb	a1, 27(a5)
.Ltmp532:
	srli	a2, a1, 8
	sb	a2, 26(a5)
.Ltmp533:
	.loc	12 15 21
	lw	a2, 0(sp)
.Ltmp534:
	.loc	15 2774 9
	srli	a1, a1, 16
.Ltmp535:
	sb	a1, 25(a5)
	sb	a0, 24(a5)
.Ltmp536:
	.loc	14 1157 5
	srli	a0, a2, 24
.Ltmp537:
	.loc	15 2774 9
	sb	a2, 31(a5)
.Ltmp538:
	srli	a1, a2, 8
	sb	a1, 30(a5)
.Ltmp539:
	.loc	12 15 21
	lw	a1, 60(sp)
.Ltmp540:
	.loc	15 2774 9
	srli	a2, a2, 16
.Ltmp541:
	sb	a2, 29(a5)
	sb	a0, 28(a5)
.Ltmp542:
	.loc	14 1157 5
	srli	a0, a1, 24
.Ltmp543:
	.loc	15 2774 9
	sb	a1, 3(s0)
	srli	a2, a1, 8
	sb	a2, 2(s0)
.Ltmp544:
	.loc	12 15 21
	lw	a2, 56(sp)
.Ltmp545:
	.loc	15 2774 9
	srli	a1, a1, 16
.Ltmp546:
	sb	a1, 1(s0)
	sb	a0, 0(s0)
.Ltmp547:
	.loc	14 1157 5
	srli	a0, a2, 24
.Ltmp548:
	.loc	15 2774 9
	sb	a2, 7(s0)
.Ltmp549:
	srli	a1, a2, 8
	sb	a1, 6(s0)
.Ltmp550:
	.loc	12 15 21
	lw	a1, 52(sp)
.Ltmp551:
	.loc	15 2774 9
	srli	a2, a2, 16
.Ltmp552:
	sb	a2, 5(s0)
	sb	a0, 4(s0)
.Ltmp553:
	.loc	14 1157 5
	srli	a0, a1, 24
.Ltmp554:
	.loc	15 2774 9
	sb	a1, 11(s0)
.Ltmp555:
	srli	a2, a1, 8
	sb	a2, 10(s0)
.Ltmp556:
	.loc	12 15 21
	lw	a2, 48(sp)
.Ltmp557:
	.loc	15 2774 9
	srli	a1, a1, 16
.Ltmp558:
	sb	a1, 9(s0)
	sb	a0, 8(s0)
.Ltmp559:
	.loc	14 1157 5
	srli	a0, a2, 24
.Ltmp560:
	.loc	15 2774 9
	sb	a2, 15(s0)
.Ltmp561:
	srli	a1, a2, 8
	sb	a1, 14(s0)
.Ltmp562:
	.loc	12 15 21
	lw	a1, 44(sp)
.Ltmp563:
	.loc	15 2774 9
	srli	a2, a2, 16
.Ltmp564:
	sb	a2, 13(s0)
	sb	a0, 12(s0)
.Ltmp565:
	.loc	14 1157 5
	srli	a0, a1, 24
.Ltmp566:
	.loc	15 2774 9
	sb	a1, 19(s0)
.Ltmp567:
	srli	a2, a1, 8
	sb	a2, 18(s0)
.Ltmp568:
	.loc	12 15 21
	lw	a2, 40(sp)
.Ltmp569:
	.loc	15 2774 9
	srli	a1, a1, 16
.Ltmp570:
	sb	a1, 17(s0)
	sb	a0, 16(s0)
.Ltmp571:
	.loc	14 1157 5
	srli	a0, a2, 24
.Ltmp572:
	.loc	15 2774 9
	sb	a2, 23(s0)
.Ltmp573:
	srli	a1, a2, 8
	sb	a1, 22(s0)
.Ltmp574:
	.loc	12 15 21
	lw	a1, 36(sp)
.Ltmp575:
	.loc	15 2774 9
	srli	a2, a2, 16
.Ltmp576:
	sb	a2, 21(s0)
	sb	a0, 20(s0)
.Ltmp577:
	.loc	14 1157 5
	srli	a0, a1, 24
.Ltmp578:
	.loc	15 2774 9
	sb	a1, 27(s0)
.Ltmp579:
	srli	a2, a1, 8
	sb	a2, 26(s0)
.Ltmp580:
	.loc	12 15 21
	lw	a2, 32(sp)
.Ltmp581:
	.loc	15 2774 9
	srli	a1, a1, 16
.Ltmp582:
	sb	a1, 25(s0)
	sb	a0, 24(s0)
.Ltmp583:
	.loc	14 1157 5
	srli	a0, a2, 24
.Ltmp584:
	.loc	15 2774 9
	sb	a2, 31(s0)
.Ltmp585:
	srli	a1, a2, 8
	sb	a1, 30(s0)
	srli	a2, a2, 16
.Ltmp586:
	sb	a2, 29(s0)
	sb	a0, 28(s0)
.Ltmp587:
	.loc	20 35 6
	li	a2, 32
	mv	a0, s2
	mv	a1, a5
	call	memcpy@plt
.Ltmp588:
	.loc	20 35 5 is_stmt 0
	addi	a0, s2, 32
	.loc	20 35 10
	li	a2, 32
	mv	a1, s0
	call	memcpy@plt
.Ltmp589:
	.loc	20 36 2 is_stmt 1
	lw	ra, 140(sp)
	lw	s0, 136(sp)
.Ltmp590:
	lw	s1, 132(sp)
	lw	s2, 128(sp)
	.loc	20 36 2 epilogue_begin is_stmt 0
	addi	sp, sp, 144
	ret
.Ltmp591:
.Lfunc_end7:
	.size	_ZN19powdr_riscv_runtime2ec9add_u8_be17h8b87db81c1a0f783E, .Lfunc_end7-_ZN19powdr_riscv_runtime2ec9add_u8_be17h8b87db81c1a0f783E
	.cfi_endproc

	.section	.text._ZN19powdr_riscv_runtime2ec12double_u8_be17h3ebfed236b8e7dbcE,"ax",@progbits
	.globl	_ZN19powdr_riscv_runtime2ec12double_u8_be17h3ebfed236b8e7dbcE
	.p2align	1
	.type	_ZN19powdr_riscv_runtime2ec12double_u8_be17h3ebfed236b8e7dbcE,@function
_ZN19powdr_riscv_runtime2ec12double_u8_be17h3ebfed236b8e7dbcE:
.Lfunc_begin8:
	.loc	20 75 0 is_stmt 1
	.cfi_startproc
	addi	sp, sp, -80
	.cfi_def_cfa_offset 80
	sw	ra, 76(sp)
	sw	s0, 72(sp)
	sw	s1, 68(sp)
	.cfi_offset ra, -4
	.cfi_offset s0, -8
	.cfi_offset s1, -12
	mv	s0, a2
.Ltmp592:
	mv	a3, a1
.Ltmp593:
	mv	s1, a0
.Ltmp594:
	.loc	13 746 25 prologue_end
	lbu	a0, 30(a1)
	lbu	a1, 31(a1)
	lbu	a2, 29(a3)
	lbu	a4, 28(a3)
.Ltmp595:
	.loc	14 1157 5
	slli	a0, a0, 8
	or	a0, a0, a1
	slli	a2, a2, 16
	slli	a4, a4, 24
	or	a2, a2, a4
	or	a0, a0, a2
.Ltmp596:
	.loc	12 8 9
	sw	a0, 4(sp)
.Ltmp597:
	.loc	13 746 25
	lbu	a0, 26(a3)
.Ltmp598:
	lbu	a1, 27(a3)
	lbu	a2, 25(a3)
	lbu	a4, 24(a3)
.Ltmp599:
	.loc	14 1157 5
	slli	a0, a0, 8
	or	a0, a0, a1
	slli	a2, a2, 16
	slli	a4, a4, 24
	or	a2, a2, a4
	or	a0, a0, a2
.Ltmp600:
	.loc	12 8 9
	sw	a0, 8(sp)
.Ltmp601:
	.loc	13 746 25
	lbu	a0, 22(a3)
.Ltmp602:
	lbu	a1, 23(a3)
	lbu	a2, 21(a3)
	lbu	a4, 20(a3)
.Ltmp603:
	.loc	14 1157 5
	slli	a0, a0, 8
	or	a0, a0, a1
	slli	a2, a2, 16
	slli	a4, a4, 24
	or	a2, a2, a4
	or	a0, a0, a2
.Ltmp604:
	.loc	12 8 9
	sw	a0, 12(sp)
.Ltmp605:
	.loc	13 746 25
	lbu	a0, 18(a3)
.Ltmp606:
	lbu	a1, 19(a3)
	lbu	a2, 17(a3)
	lbu	a4, 16(a3)
.Ltmp607:
	.loc	14 1157 5
	slli	a0, a0, 8
	or	a0, a0, a1
	slli	a2, a2, 16
	slli	a4, a4, 24
	or	a2, a2, a4
	or	a0, a0, a2
.Ltmp608:
	.loc	12 8 9
	sw	a0, 16(sp)
.Ltmp609:
	.loc	13 746 25
	lbu	a0, 14(a3)
.Ltmp610:
	lbu	a1, 15(a3)
	lbu	a2, 13(a3)
	lbu	a4, 12(a3)
.Ltmp611:
	.loc	14 1157 5
	slli	a0, a0, 8
	or	a0, a0, a1
	slli	a2, a2, 16
	slli	a4, a4, 24
	or	a2, a2, a4
	or	a0, a0, a2
.Ltmp612:
	.loc	12 8 9
	sw	a0, 20(sp)
.Ltmp613:
	.loc	13 746 25
	lbu	a0, 10(a3)
.Ltmp614:
	lbu	a1, 11(a3)
	lbu	a2, 9(a3)
	lbu	a4, 8(a3)
.Ltmp615:
	.loc	14 1157 5
	slli	a0, a0, 8
	or	a0, a0, a1
	slli	a2, a2, 16
	slli	a4, a4, 24
	or	a2, a2, a4
	or	a0, a0, a2
.Ltmp616:
	.loc	12 8 9
	sw	a0, 24(sp)
.Ltmp617:
	.loc	13 746 25
	lbu	a0, 6(a3)
.Ltmp618:
	lbu	a1, 7(a3)
	lbu	a2, 5(a3)
	lbu	a4, 4(a3)
.Ltmp619:
	.loc	14 1157 5
	slli	a0, a0, 8
	or	a0, a0, a1
	slli	a2, a2, 16
	slli	a4, a4, 24
	or	a2, a2, a4
	or	a0, a0, a2
.Ltmp620:
	.loc	12 8 9
	sw	a0, 28(sp)
.Ltmp621:
	.loc	13 746 25
	lbu	a0, 2(a3)
.Ltmp622:
	lbu	a1, 3(a3)
	lbu	a2, 1(a3)
	lbu	a4, 0(a3)
.Ltmp623:
	.loc	14 1157 5
	slli	a0, a0, 8
	or	a0, a0, a1
	slli	a2, a2, 16
	slli	a4, a4, 24
	or	a2, a2, a4
	or	a0, a0, a2
.Ltmp624:
	.loc	12 8 9
	sw	a0, 32(sp)
.Ltmp625:
	.loc	13 746 25
	lbu	a0, 30(s0)
	lbu	a1, 31(s0)
	lbu	a2, 29(s0)
	lbu	a4, 28(s0)
.Ltmp626:
	.loc	14 1157 5
	slli	a0, a0, 8
	or	a0, a0, a1
	slli	a2, a2, 16
	slli	a4, a4, 24
	or	a2, a2, a4
	or	a0, a0, a2
.Ltmp627:
	.loc	12 8 9
	sw	a0, 36(sp)
.Ltmp628:
	.loc	13 746 25
	lbu	a0, 26(s0)
.Ltmp629:
	lbu	a1, 27(s0)
	lbu	a2, 25(s0)
	lbu	a4, 24(s0)
.Ltmp630:
	.loc	14 1157 5
	slli	a0, a0, 8
	or	a0, a0, a1
	slli	a2, a2, 16
	slli	a4, a4, 24
	or	a2, a2, a4
	or	a0, a0, a2
.Ltmp631:
	.loc	12 8 9
	sw	a0, 40(sp)
.Ltmp632:
	.loc	13 746 25
	lbu	a0, 22(s0)
.Ltmp633:
	lbu	a1, 23(s0)
	lbu	a2, 21(s0)
	lbu	a4, 20(s0)
.Ltmp634:
	.loc	14 1157 5
	slli	a0, a0, 8
	or	a0, a0, a1
	slli	a2, a2, 16
	slli	a4, a4, 24
	or	a2, a2, a4
	or	a0, a0, a2
.Ltmp635:
	.loc	12 8 9
	sw	a0, 44(sp)
.Ltmp636:
	.loc	13 746 25
	lbu	a0, 18(s0)
.Ltmp637:
	lbu	a1, 19(s0)
	lbu	a2, 17(s0)
	lbu	a4, 16(s0)
.Ltmp638:
	.loc	14 1157 5
	slli	a0, a0, 8
	or	a0, a0, a1
	slli	a2, a2, 16
	slli	a4, a4, 24
	or	a2, a2, a4
	or	a0, a0, a2
.Ltmp639:
	.loc	12 8 9
	sw	a0, 48(sp)
.Ltmp640:
	.loc	13 746 25
	lbu	a0, 14(s0)
.Ltmp641:
	lbu	a1, 15(s0)
	lbu	a2, 13(s0)
	lbu	a4, 12(s0)
.Ltmp642:
	.loc	14 1157 5
	slli	a0, a0, 8
	or	a0, a0, a1
	slli	a2, a2, 16
	slli	a4, a4, 24
	or	a2, a2, a4
	or	a0, a0, a2
.Ltmp643:
	.loc	12 8 9
	sw	a0, 52(sp)
.Ltmp644:
	.loc	13 746 25
	lbu	a0, 10(s0)
.Ltmp645:
	lbu	a1, 11(s0)
	lbu	a2, 9(s0)
	lbu	a4, 8(s0)
.Ltmp646:
	.loc	14 1157 5
	slli	a0, a0, 8
	or	a0, a0, a1
	slli	a2, a2, 16
	slli	a4, a4, 24
	or	a2, a2, a4
	or	a0, a0, a2
.Ltmp647:
	.loc	12 8 9
	sw	a0, 56(sp)
.Ltmp648:
	.loc	13 746 25
	lbu	a0, 6(s0)
.Ltmp649:
	lbu	a1, 7(s0)
	lbu	a2, 5(s0)
	lbu	a4, 4(s0)
.Ltmp650:
	.loc	14 1157 5
	slli	a0, a0, 8
	or	a0, a0, a1
	slli	a2, a2, 16
	slli	a4, a4, 24
	or	a2, a2, a4
	or	a0, a0, a2
.Ltmp651:
	.loc	12 8 9
	sw	a0, 60(sp)
.Ltmp652:
	.loc	13 746 25
	lbu	a0, 2(s0)
.Ltmp653:
	lbu	a1, 3(s0)
	lbu	a2, 1(s0)
	lbu	a4, 0(s0)
.Ltmp654:
	.loc	14 1157 5
	slli	a0, a0, 8
	or	a0, a0, a1
	slli	a2, a2, 16
	slli	a4, a4, 24
	or	a2, a2, a4
	or	a0, a0, a2
.Ltmp655:
	.loc	12 8 9
	sw	a0, 64(sp)
.Ltmp656:
	.loc	20 83 9
	addi	a0, sp, 4
.Ltmp657:
	addi	a1, sp, 36
	li	t0, 6
	#APP
	ecall
	#NO_APP
.Ltmp658:
	.loc	12 15 21
	lw	a0, 32(sp)
.Ltmp659:
	.loc	14 1157 5
	srli	a1, a0, 24
.Ltmp660:
	.loc	15 2774 9
	sb	a0, 3(a3)
	srli	a2, a0, 8
	sb	a2, 2(a3)
.Ltmp661:
	.loc	12 15 21
	lw	a2, 28(sp)
.Ltmp662:
	.loc	15 2774 9
	srli	a0, a0, 16
.Ltmp663:
	sb	a0, 1(a3)
	sb	a1, 0(a3)
.Ltmp664:
	.loc	14 1157 5
	srli	a0, a2, 24
.Ltmp665:
	.loc	15 2774 9
	sb	a2, 7(a3)
.Ltmp666:
	srli	a1, a2, 8
	sb	a1, 6(a3)
.Ltmp667:
	.loc	12 15 21
	lw	a1, 24(sp)
.Ltmp668:
	.loc	15 2774 9
	srli	a2, a2, 16
.Ltmp669:
	sb	a2, 5(a3)
	sb	a0, 4(a3)
.Ltmp670:
	.loc	14 1157 5
	srli	a0, a1, 24
.Ltmp671:
	.loc	15 2774 9
	sb	a1, 11(a3)
.Ltmp672:
	srli	a2, a1, 8
	sb	a2, 10(a3)
.Ltmp673:
	.loc	12 15 21
	lw	a2, 20(sp)
.Ltmp674:
	.loc	15 2774 9
	srli	a1, a1, 16
.Ltmp675:
	sb	a1, 9(a3)
	sb	a0, 8(a3)
.Ltmp676:
	.loc	14 1157 5
	srli	a0, a2, 24
.Ltmp677:
	.loc	15 2774 9
	sb	a2, 15(a3)
.Ltmp678:
	srli	a1, a2, 8
	sb	a1, 14(a3)
.Ltmp679:
	.loc	12 15 21
	lw	a1, 16(sp)
.Ltmp680:
	.loc	15 2774 9
	srli	a2, a2, 16
.Ltmp681:
	sb	a2, 13(a3)
	sb	a0, 12(a3)
.Ltmp682:
	.loc	14 1157 5
	srli	a0, a1, 24
.Ltmp683:
	.loc	15 2774 9
	sb	a1, 19(a3)
.Ltmp684:
	srli	a2, a1, 8
	sb	a2, 18(a3)
.Ltmp685:
	.loc	12 15 21
	lw	a2, 12(sp)
.Ltmp686:
	.loc	15 2774 9
	srli	a1, a1, 16
.Ltmp687:
	sb	a1, 17(a3)
	sb	a0, 16(a3)
.Ltmp688:
	.loc	14 1157 5
	srli	a0, a2, 24
.Ltmp689:
	.loc	15 2774 9
	sb	a2, 23(a3)
.Ltmp690:
	srli	a1, a2, 8
	sb	a1, 22(a3)
.Ltmp691:
	.loc	12 15 21
	lw	a1, 8(sp)
.Ltmp692:
	.loc	15 2774 9
	srli	a2, a2, 16
.Ltmp693:
	sb	a2, 21(a3)
	sb	a0, 20(a3)
.Ltmp694:
	.loc	14 1157 5
	srli	a0, a1, 24
.Ltmp695:
	.loc	15 2774 9
	sb	a1, 27(a3)
.Ltmp696:
	srli	a2, a1, 8
	sb	a2, 26(a3)
.Ltmp697:
	.loc	12 15 21
	lw	a2, 4(sp)
.Ltmp698:
	.loc	15 2774 9
	srli	a1, a1, 16
.Ltmp699:
	sb	a1, 25(a3)
	sb	a0, 24(a3)
.Ltmp700:
	.loc	14 1157 5
	srli	a0, a2, 24
.Ltmp701:
	.loc	15 2774 9
	sb	a2, 31(a3)
.Ltmp702:
	srli	a1, a2, 8
	sb	a1, 30(a3)
.Ltmp703:
	.loc	12 15 21
	lw	a1, 64(sp)
.Ltmp704:
	.loc	15 2774 9
	srli	a2, a2, 16
.Ltmp705:
	sb	a2, 29(a3)
	sb	a0, 28(a3)
.Ltmp706:
	.loc	14 1157 5
	srli	a0, a1, 24
.Ltmp707:
	.loc	15 2774 9
	sb	a1, 3(s0)
	srli	a2, a1, 8
	sb	a2, 2(s0)
.Ltmp708:
	.loc	12 15 21
	lw	a2, 60(sp)
.Ltmp709:
	.loc	15 2774 9
	srli	a1, a1, 16
.Ltmp710:
	sb	a1, 1(s0)
	sb	a0, 0(s0)
.Ltmp711:
	.loc	14 1157 5
	srli	a0, a2, 24
.Ltmp712:
	.loc	15 2774 9
	sb	a2, 7(s0)
.Ltmp713:
	srli	a1, a2, 8
	sb	a1, 6(s0)
.Ltmp714:
	.loc	12 15 21
	lw	a1, 56(sp)
.Ltmp715:
	.loc	15 2774 9
	srli	a2, a2, 16
.Ltmp716:
	sb	a2, 5(s0)
	sb	a0, 4(s0)
.Ltmp717:
	.loc	14 1157 5
	srli	a0, a1, 24
.Ltmp718:
	.loc	15 2774 9
	sb	a1, 11(s0)
.Ltmp719:
	srli	a2, a1, 8
	sb	a2, 10(s0)
.Ltmp720:
	.loc	12 15 21
	lw	a2, 52(sp)
.Ltmp721:
	.loc	15 2774 9
	srli	a1, a1, 16
.Ltmp722:
	sb	a1, 9(s0)
	sb	a0, 8(s0)
.Ltmp723:
	.loc	14 1157 5
	srli	a0, a2, 24
.Ltmp724:
	.loc	15 2774 9
	sb	a2, 15(s0)
.Ltmp725:
	srli	a1, a2, 8
	sb	a1, 14(s0)
.Ltmp726:
	.loc	12 15 21
	lw	a1, 48(sp)
.Ltmp727:
	.loc	15 2774 9
	srli	a2, a2, 16
.Ltmp728:
	sb	a2, 13(s0)
	sb	a0, 12(s0)
.Ltmp729:
	.loc	14 1157 5
	srli	a0, a1, 24
.Ltmp730:
	.loc	15 2774 9
	sb	a1, 19(s0)
.Ltmp731:
	srli	a2, a1, 8
	sb	a2, 18(s0)
.Ltmp732:
	.loc	12 15 21
	lw	a2, 44(sp)
.Ltmp733:
	.loc	15 2774 9
	srli	a1, a1, 16
.Ltmp734:
	sb	a1, 17(s0)
	sb	a0, 16(s0)
.Ltmp735:
	.loc	14 1157 5
	srli	a0, a2, 24
.Ltmp736:
	.loc	15 2774 9
	sb	a2, 23(s0)
.Ltmp737:
	srli	a1, a2, 8
	sb	a1, 22(s0)
.Ltmp738:
	.loc	12 15 21
	lw	a1, 40(sp)
.Ltmp739:
	.loc	15 2774 9
	srli	a2, a2, 16
.Ltmp740:
	sb	a2, 21(s0)
	sb	a0, 20(s0)
.Ltmp741:
	.loc	14 1157 5
	srli	a0, a1, 24
.Ltmp742:
	.loc	15 2774 9
	sb	a1, 27(s0)
.Ltmp743:
	srli	a2, a1, 8
	sb	a2, 26(s0)
.Ltmp744:
	.loc	12 15 21
	lw	a2, 36(sp)
.Ltmp745:
	.loc	15 2774 9
	srli	a1, a1, 16
.Ltmp746:
	sb	a1, 25(s0)
	sb	a0, 24(s0)
.Ltmp747:
	.loc	14 1157 5
	srli	a0, a2, 24
.Ltmp748:
	.loc	15 2774 9
	sb	a2, 31(s0)
.Ltmp749:
	srli	a1, a2, 8
	sb	a1, 30(s0)
	srli	a2, a2, 16
.Ltmp750:
	sb	a2, 29(s0)
	sb	a0, 28(s0)
.Ltmp751:
	.loc	20 92 6
	li	a2, 32
	mv	a0, s1
	mv	a1, a3
	call	memcpy@plt
.Ltmp752:
	.loc	20 92 5 is_stmt 0
	addi	a0, s1, 32
	.loc	20 92 9
	li	a2, 32
	mv	a1, s0
	call	memcpy@plt
.Ltmp753:
	.loc	20 93 2 is_stmt 1
	lw	ra, 76(sp)
	lw	s0, 72(sp)
.Ltmp754:
	lw	s1, 68(sp)
	.loc	20 93 2 epilogue_begin is_stmt 0
	addi	sp, sp, 80
	ret
.Ltmp755:
.Lfunc_end8:
	.size	_ZN19powdr_riscv_runtime2ec12double_u8_be17h3ebfed236b8e7dbcE, .Lfunc_end8-_ZN19powdr_riscv_runtime2ec12double_u8_be17h3ebfed236b8e7dbcE
	.cfi_endproc

	.section	.text._ZN19powdr_riscv_runtime3fmt10print_args17h7bce50ebb85017deE,"ax",@progbits
	.globl	_ZN19powdr_riscv_runtime3fmt10print_args17h7bce50ebb85017deE
	.p2align	1
	.type	_ZN19powdr_riscv_runtime3fmt10print_args17h7bce50ebb85017deE,@function
_ZN19powdr_riscv_runtime3fmt10print_args17h7bce50ebb85017deE:
.Lfunc_begin9:
	.loc	6 13 0 is_stmt 1
	.cfi_startproc
	addi	sp, sp, -16
	.cfi_def_cfa_offset 16
	sw	ra, 12(sp)
	.cfi_offset ra, -4
	mv	a2, a0
.Ltmp756:
	.loc	6 14 5 prologue_end
	lui	a0, %hi(.L__unnamed_1)
	addi	a1, a0, %lo(.L__unnamed_1)
	addi	a0, sp, 11
	call	_ZN4core3fmt5write17hec90542839f9b0f5E
.Ltmp757:
	.loc	13 1071 9
	bnez	a0, .LBB9_2
.Ltmp758:
	.loc	6 15 2
	lw	ra, 12(sp)
	.loc	6 15 2 epilogue_begin is_stmt 0
	addi	sp, sp, 16
	ret
.LBB9_2:
.Ltmp759:
	.loc	13 1073 23 is_stmt 1
	lui	a0, %hi(.L__unnamed_4)
.Ltmp760:
	addi	a0, a0, %lo(.L__unnamed_4)
	lui	a1, %hi(.L__unnamed_2)
	addi	a3, a1, %lo(.L__unnamed_2)
	lui	a1, %hi(.L__unnamed_5)
	addi	a4, a1, %lo(.L__unnamed_5)
	li	a1, 43
	addi	a2, sp, 11
	call	_ZN4core6result13unwrap_failed17h9088d0865a96f7faE
.Ltmp761:
.Lfunc_end9:
	.size	_ZN19powdr_riscv_runtime3fmt10print_args17h7bce50ebb85017deE, .Lfunc_end9-_ZN19powdr_riscv_runtime3fmt10print_args17h7bce50ebb85017deE
	.cfi_endproc

	.section	".text._ZN75_$LT$powdr_riscv_runtime..fmt..ProverWriter$u20$as$u20$core..fmt..Write$GT$9write_str17h0c3f3219d3c231a5E","ax",@progbits
	.globl	_ZN75_$LT$powdr_riscv_runtime..fmt..ProverWriter$u20$as$u20$core..fmt..Write$GT$9write_str17h0c3f3219d3c231a5E
	.p2align	1
	.type	_ZN75_$LT$powdr_riscv_runtime..fmt..ProverWriter$u20$as$u20$core..fmt..Write$GT$9write_str17h0c3f3219d3c231a5E,@function
_ZN75_$LT$powdr_riscv_runtime..fmt..ProverWriter$u20$as$u20$core..fmt..Write$GT$9write_str17h0c3f3219d3c231a5E:
.Lfunc_begin10:
	.cfi_startproc
	.loc	8 162 24 prologue_end
	beqz	a2, .LBB10_3
.Ltmp762:
	.cfi_def_cfa_offset 0
	.loc	8 0 24 is_stmt 0
	mv	a3, a1
.Ltmp763:
	li	t0, 2
.Ltmp764:
.LBB10_2:
	.loc	5 1863 19 is_stmt 1
	lbu	a1, 0(a3)
.Ltmp765:
	.loc	6 40 9
	li	a0, 1
	#APP
	ecall
	#NO_APP
.Ltmp766:
	.loc	7 623 37
	addi	a3, a3, 1
.Ltmp767:
	.loc	7 1796 9
	addi	a2, a2, -1
.Ltmp768:
	.loc	8 162 24
	bnez	a2, .LBB10_2
.Ltmp769:
.LBB10_3:
	.loc	6 23 6
	li	a0, 0
	ret
.Ltmp770:
.Lfunc_end10:
	.size	_ZN75_$LT$powdr_riscv_runtime..fmt..ProverWriter$u20$as$u20$core..fmt..Write$GT$9write_str17h0c3f3219d3c231a5E, .Lfunc_end10-_ZN75_$LT$powdr_riscv_runtime..fmt..ProverWriter$u20$as$u20$core..fmt..Write$GT$9write_str17h0c3f3219d3c231a5E
	.cfi_endproc

	.section	.text._ZN19powdr_riscv_runtime3fmt9print_str17hbd001a393bc72a39E,"ax",@progbits
	.globl	_ZN19powdr_riscv_runtime3fmt9print_str17hbd001a393bc72a39E
	.p2align	1
	.type	_ZN19powdr_riscv_runtime3fmt9print_str17hbd001a393bc72a39E,@function
_ZN19powdr_riscv_runtime3fmt9print_str17hbd001a393bc72a39E:
.Lfunc_begin11:
	.cfi_startproc
	.loc	8 162 24 prologue_end
	beqz	a1, .LBB11_3
.Ltmp771:
	.cfi_def_cfa_offset 0
	.loc	8 0 24 is_stmt 0
	mv	a2, a1
.Ltmp772:
	mv	a3, a0
.Ltmp773:
	li	t0, 2
.Ltmp774:
.LBB11_2:
	.loc	5 1863 19 is_stmt 1
	lbu	a1, 0(a3)
.Ltmp775:
	.loc	6 40 9
	li	a0, 1
	#APP
	ecall
	#NO_APP
.Ltmp776:
	.loc	7 623 37
	addi	a3, a3, 1
.Ltmp777:
	.loc	7 1796 9
	addi	a2, a2, -1
.Ltmp778:
	.loc	8 162 24
	bnez	a2, .LBB11_2
.Ltmp779:
.LBB11_3:
	.loc	6 33 2
	ret
.Ltmp780:
.Lfunc_end11:
	.size	_ZN19powdr_riscv_runtime3fmt9print_str17hbd001a393bc72a39E, .Lfunc_end11-_ZN19powdr_riscv_runtime3fmt9print_str17hbd001a393bc72a39E
	.cfi_endproc

	.section	.text._ZN19powdr_riscv_runtime4hash11poseidon_gl17h1535c982e30c65b6E,"ax",@progbits
	.globl	_ZN19powdr_riscv_runtime4hash11poseidon_gl17h1535c982e30c65b6E
	.p2align	1
	.type	_ZN19powdr_riscv_runtime4hash11poseidon_gl17h1535c982e30c65b6E,@function
_ZN19powdr_riscv_runtime4hash11poseidon_gl17h1535c982e30c65b6E:
.Lfunc_begin12:
	.file	21 "/Users/steve/Documents/repo/powdr-5_6_24/powdr/riscv-runtime" "src/hash.rs"
	.loc	21 24 0
	.cfi_startproc
	addi	sp, sp, -112
	.cfi_def_cfa_offset 112
.Ltmp781:
	.loc	21 25 10 prologue_end
	sw	ra, 108(sp)
	sw	s0, 104(sp)
	.cfi_offset ra, -4
	.cfi_offset s0, -8
	lw	a2, 4(a1)
.Ltmp782:
	lw	a3, 0(a1)
.Ltmp783:
	.loc	21 26 17
	sltiu	a2, a2, -1
.Ltmp784:
	.loc	21 0 17 is_stmt 0
	lw	a4, 12(a1)
.Ltmp785:
	lw	a5, 8(a1)
	.loc	21 26 17
	seqz	a3, a3
.Ltmp786:
	or	a2, a2, a3
	sltiu	a3, a4, -1
	seqz	a4, a5
.Ltmp787:
	.loc	21 0 17
	lw	a5, 20(a1)
.Ltmp788:
	.loc	21 26 17
	or	a3, a3, a4
	and	a2, a2, a3
.Ltmp789:
	.loc	21 0 17
	lw	a3, 16(a1)
	.loc	21 26 17
	sltiu	a4, a5, -1
	lw	a5, 28(a1)
.Ltmp790:
	.loc	21 0 17
	lw	s0, 24(a1)
	.loc	21 26 17
	seqz	a3, a3
	or	a3, a3, a4
.Ltmp791:
	sltiu	a4, a5, -1
	seqz	a5, s0
.Ltmp792:
	or	a4, a4, a5
	lw	a5, 36(a1)
.Ltmp793:
	and	a3, a3, a4
	and	a6, a2, a3
.Ltmp794:
	.loc	21 0 17
	lw	a3, 32(a1)
	.loc	21 26 17
	sltiu	a4, a5, -1
	lw	a5, 44(a1)
.Ltmp795:
	.loc	21 0 17
	lw	s0, 40(a1)
	.loc	21 26 17
	seqz	a3, a3
	or	a3, a3, a4
.Ltmp796:
	sltiu	a4, a5, -1
	seqz	a5, s0
.Ltmp797:
	.loc	21 0 17
	lw	s0, 52(a1)
.Ltmp798:
	lw	a2, 48(a1)
	.loc	21 26 17
	or	a4, a4, a5
	and	a3, a3, a4
.Ltmp799:
	sltiu	a4, s0, -1
	seqz	a2, a2
	or	a2, a2, a4
	lw	a4, 60(a1)
.Ltmp800:
	and	a2, a2, a3
	and	a6, a6, a2
.Ltmp801:
	.loc	21 0 17
	lw	a3, 56(a1)
	.loc	21 26 17
	sltiu	a4, a4, -1
.Ltmp802:
	.loc	21 0 17
	lw	a5, 68(a1)
.Ltmp803:
	lw	s0, 64(a1)
	.loc	21 26 17
	seqz	a3, a3
	or	a3, a3, a4
.Ltmp804:
	sltiu	a4, a5, -1
	seqz	a5, s0
.Ltmp805:
	.loc	21 0 17
	lw	s0, 76(a1)
.Ltmp806:
	lw	a2, 72(a1)
	.loc	21 26 17
	or	a4, a4, a5
	and	a3, a3, a4
.Ltmp807:
	sltiu	a4, s0, -1
	seqz	a2, a2
	lw	a5, 84(a1)
.Ltmp808:
	.loc	21 0 17
	lw	s0, 80(a1)
	.loc	21 26 17
	or	a2, a2, a4
	and	a2, a2, a3
.Ltmp809:
	sltiu	a3, a5, -1
	seqz	a4, s0
	or	a3, a3, a4
	lw	a4, 92(a1)
.Ltmp810:
	.loc	21 0 17
	lw	a5, 88(a1)
	.loc	21 26 17
	and	a2, a2, a3
	and	a2, a6, a2
.Ltmp811:
	sltiu	a3, a4, -1
	seqz	a4, a5
.Ltmp812:
	or	a3, a3, a4
	and	a2, a2, a3
.Ltmp813:
	beqz	a2, .LBB12_2
.Ltmp814:
	.loc	21 0 17
	mv	s0, a0
	.loc	21 29 24 is_stmt 1
	addi	a0, sp, 8
	li	a2, 96
	call	memcpy@plt
.Ltmp815:
	.loc	21 14 9
	addi	a0, sp, 8
	li	t0, 3
	#APP
	ecall
	#NO_APP
	.loc	21 17 6
	lw	a7, 12(sp)
	lw	a1, 8(sp)
	.loc	21 17 15 is_stmt 0
	lw	a2, 20(sp)
	lw	a3, 16(sp)
	.loc	21 17 24
	lw	a4, 28(sp)
	lw	a5, 24(sp)
	.loc	21 17 33
	lw	a6, 36(sp)
	lw	a0, 32(sp)
	.loc	21 17 5
	sw	a1, 0(s0)
	sw	a7, 4(s0)
	sw	a3, 8(s0)
	sw	a2, 12(s0)
	sw	a5, 16(s0)
	sw	a4, 20(s0)
	sw	a0, 24(s0)
	sw	a6, 28(s0)
.Ltmp816:
	.loc	21 30 2 is_stmt 1
	lw	ra, 108(sp)
	lw	s0, 104(sp)
	.loc	21 30 2 epilogue_begin is_stmt 0
	addi	sp, sp, 112
	ret
.LBB12_2:
.Ltmp817:
	.loc	21 26 9 is_stmt 1
	lui	a0, %hi(.L__unnamed_6)
	addi	a0, a0, %lo(.L__unnamed_6)
	lui	a1, %hi(.L__unnamed_7)
.Ltmp818:
	addi	a2, a1, %lo(.L__unnamed_7)
	li	a1, 32
	call	_ZN4core9panicking5panic17hcc06d44c07847f12E
.Ltmp819:
.Lfunc_end12:
	.size	_ZN19powdr_riscv_runtime4hash11poseidon_gl17h1535c982e30c65b6E, .Lfunc_end12-_ZN19powdr_riscv_runtime4hash11poseidon_gl17h1535c982e30c65b6E
	.cfi_endproc

	.section	.text._ZN19powdr_riscv_runtime4hash7keccakf17he2564457d5388bfdE,"ax",@progbits
	.globl	_ZN19powdr_riscv_runtime4hash7keccakf17he2564457d5388bfdE
	.p2align	1
	.type	_ZN19powdr_riscv_runtime4hash7keccakf17he2564457d5388bfdE,@function
_ZN19powdr_riscv_runtime4hash7keccakf17he2564457d5388bfdE:
.Lfunc_begin13:
	.cfi_startproc
	.cfi_def_cfa_offset 0
	.loc	21 35 5 prologue_end
	lui	a0, %hi(.L__unnamed_8)
.Ltmp820:
	addi	a0, a0, %lo(.L__unnamed_8)
	lui	a1, %hi(.L__unnamed_9)
.Ltmp821:
	addi	a2, a1, %lo(.L__unnamed_9)
	li	a1, 15
	call	_ZN4core9panicking5panic17hcc06d44c07847f12E
.Ltmp822:
.Lfunc_end13:
	.size	_ZN19powdr_riscv_runtime4hash7keccakf17he2564457d5388bfdE, .Lfunc_end13-_ZN19powdr_riscv_runtime4hash7keccakf17he2564457d5388bfdE
	.cfi_endproc

	.section	.text._ZN19powdr_riscv_runtime4hash6keccak17h16b3e2b8c092c28cE,"ax",@progbits
	.globl	_ZN19powdr_riscv_runtime4hash6keccak17h16b3e2b8c092c28cE
	.p2align	1
	.type	_ZN19powdr_riscv_runtime4hash6keccak17h16b3e2b8c092c28cE,@function
_ZN19powdr_riscv_runtime4hash6keccak17h16b3e2b8c092c28cE:
.Lfunc_begin14:
	.loc	21 44 0
	.cfi_startproc
	addi	sp, sp, -224
	.cfi_def_cfa_offset 224
	sw	ra, 220(sp)
	sw	s0, 216(sp)
	sw	s1, 212(sp)
	sw	s2, 208(sp)
	.cfi_offset ra, -4
	.cfi_offset s0, -8
	.cfi_offset s1, -12
	.cfi_offset s2, -16
	mv	s0, a2
.Ltmp823:
	mv	s1, a1
.Ltmp824:
	.loc	21 45 18 prologue_end
	addi	a0, sp, 8
	li	a2, 200
	addi	s2, sp, 8
	li	a1, 0
	call	memset@plt
.Ltmp825:
	.loc	21 0 18 is_stmt 0
	li	a3, 0
	li	a0, 135
	li	a1, -1
.Ltmp826:
.LBB14_1:
	.loc	8 162 24 is_stmt 1
	beq	s0, a3, .LBB14_4
.Ltmp827:
	.loc	21 0 0 is_stmt 0
	mv	a2, a3
.Ltmp828:
	add	a3, a3, s1
.Ltmp829:
	.loc	21 51 10 is_stmt 1
	lbu	a3, 0(a3)
.Ltmp830:
	.loc	21 52 9
	add	a4, s2, a2
	lbu	a5, 0(a4)
	xor	a3, a3, a5
.Ltmp831:
	sb	a3, 0(a4)
.Ltmp832:
	.loc	21 54 12
	beq	a2, a0, .LBB14_4
.Ltmp833:
	.loc	21 0 0 is_stmt 0
	addi	a3, a2, 1
	.loc	21 54 12
	bne	a2, a1, .LBB14_1
.Ltmp834:
.LBB14_4:
	.loc	21 35 5 is_stmt 1
	lui	a0, %hi(.L__unnamed_8)
	addi	a0, a0, %lo(.L__unnamed_8)
	lui	a1, %hi(.L__unnamed_9)
	addi	a2, a1, %lo(.L__unnamed_9)
	li	a1, 15
	call	_ZN4core9panicking5panic17hcc06d44c07847f12E
.Ltmp835:
.Lfunc_end14:
	.size	_ZN19powdr_riscv_runtime4hash6keccak17h16b3e2b8c092c28cE, .Lfunc_end14-_ZN19powdr_riscv_runtime4hash6keccak17h16b3e2b8c092c28cE
	.cfi_endproc

	.section	.text._ZN19powdr_riscv_runtime2io10read_slice17h33db1faf0b8e83c7E,"ax",@progbits
	.globl	_ZN19powdr_riscv_runtime2io10read_slice17h33db1faf0b8e83c7E
	.p2align	1
	.type	_ZN19powdr_riscv_runtime2io10read_slice17h33db1faf0b8e83c7E,@function
_ZN19powdr_riscv_runtime2io10read_slice17h33db1faf0b8e83c7E:
.Lfunc_begin15:
	.cfi_startproc
	.loc	8 162 24 prologue_end
	beqz	a2, .LBB15_3
.Ltmp836:
	.cfi_def_cfa_offset 0
	.loc	8 0 24 is_stmt 0
	mv	a3, a1
.Ltmp837:
	mv	a4, a0
.Ltmp838:
	.loc	8 162 24
	slli	a2, a2, 2
.Ltmp839:
	.loc	8 0 24
	li	a1, 1
	li	t0, 1
.Ltmp840:
.LBB15_2:
	.file	22 "/Users/steve/Documents/repo/powdr-5_6_24/powdr/riscv-runtime" "src/io.rs"
	.loc	22 23 13 is_stmt 1
	mv	a0, a4
	#APP
	ecall
	#NO_APP
	sw	a0, 0(a3)
.Ltmp841:
	.loc	7 623 37
	addi	a3, a3, 4
.Ltmp842:
	.loc	7 1796 9
	addi	a2, a2, -4
.Ltmp843:
	addi	a1, a1, 1
.Ltmp844:
	.loc	8 162 24
	bnez	a2, .LBB15_2
.Ltmp845:
.LBB15_3:
	.loc	22 26 2
	ret
.Ltmp846:
.Lfunc_end15:
	.size	_ZN19powdr_riscv_runtime2io10read_slice17h33db1faf0b8e83c7E, .Lfunc_end15-_ZN19powdr_riscv_runtime2io10read_slice17h33db1faf0b8e83c7E
	.cfi_endproc
	.file	23 "/Users/steve/.rustup/toolchains/nightly-2024-02-01-aarch64-apple-darwin/lib/rustlib/src/rust/library/core/src/iter/adapters" "enumerate.rs"

	.section	.text._ZN19powdr_riscv_runtime2io11write_slice17h13dacf9ebde3edacE,"ax",@progbits
	.globl	_ZN19powdr_riscv_runtime2io11write_slice17h13dacf9ebde3edacE
	.p2align	1
	.type	_ZN19powdr_riscv_runtime2io11write_slice17h13dacf9ebde3edacE,@function
_ZN19powdr_riscv_runtime2io11write_slice17h13dacf9ebde3edacE:
.Lfunc_begin16:
	.cfi_startproc
	.loc	8 162 24 prologue_end
	beqz	a2, .LBB16_3
.Ltmp847:
	.cfi_def_cfa_offset 0
	.loc	8 0 24 is_stmt 0
	mv	a3, a1
.Ltmp848:
	li	t0, 2
.Ltmp849:
.LBB16_2:
	.loc	22 47 22 is_stmt 1
	lbu	a1, 0(a3)
.Ltmp850:
	.loc	22 40 9
	#APP
	ecall
	#NO_APP
.Ltmp851:
	.loc	7 623 37
	addi	a3, a3, 1
.Ltmp852:
	.loc	7 1796 9
	addi	a2, a2, -1
.Ltmp853:
	.loc	8 162 24
	bnez	a2, .LBB16_2
.Ltmp854:
.LBB16_3:
	.loc	22 49 2
	ret
.Ltmp855:
.Lfunc_end16:
	.size	_ZN19powdr_riscv_runtime2io11write_slice17h13dacf9ebde3edacE, .Lfunc_end16-_ZN19powdr_riscv_runtime2io11write_slice17h13dacf9ebde3edacE
	.cfi_endproc

	.section	.text.rust_begin_unwind,"ax",@progbits
	.globl	rust_begin_unwind
	.p2align	1
	.type	rust_begin_unwind,@function
rust_begin_unwind:
.Lfunc_begin17:
	.loc	1 22 0
	.cfi_startproc
	addi	sp, sp, -48
	.cfi_def_cfa_offset 48
.Ltmp856:
	.loc	1 25 9 prologue_end
	sw	ra, 44(sp)
	.cfi_offset ra, -4
	lui	a1, %hi(_ZN19powdr_riscv_runtime5panic12IS_PANICKING17hbb4e8684952b1aeaE.0)
	lbu	a2, %lo(_ZN19powdr_riscv_runtime5panic12IS_PANICKING17hbb4e8684952b1aeaE.0)(a1)
	sw	a0, 4(sp)
	li	a0, 1
.Ltmp857:
	beqz	a2, .LBB17_2
.Ltmp858:
	.loc	6 40 9
	li	a1, 80
	li	t0, 2
	#APP
	ecall
	#NO_APP
.Ltmp859:
	li	a0, 1
	li	a1, 97
	li	t0, 2
	#APP
	ecall
	#NO_APP
.Ltmp860:
	li	a0, 1
	li	a1, 110
	li	t0, 2
	#APP
	ecall
	#NO_APP
.Ltmp861:
	li	a0, 1
	li	a1, 105
	li	t0, 2
	#APP
	ecall
	#NO_APP
.Ltmp862:
	li	a0, 1
	li	a1, 99
	li	t0, 2
	#APP
	ecall
	#NO_APP
.Ltmp863:
	li	a0, 1
	li	a1, 32
	li	t0, 2
	#APP
	ecall
	#NO_APP
.Ltmp864:
	li	a0, 1
	li	a1, 104
	li	t0, 2
	#APP
	ecall
	#NO_APP
.Ltmp865:
	li	a0, 1
	li	a1, 97
	li	t0, 2
	#APP
	ecall
	#NO_APP
.Ltmp866:
	li	a0, 1
	li	a1, 110
	li	t0, 2
	#APP
	ecall
	#NO_APP
.Ltmp867:
	li	a0, 1
	li	a1, 100
	li	t0, 2
	#APP
	ecall
	#NO_APP
.Ltmp868:
	li	a0, 1
	li	a1, 108
	li	t0, 2
	#APP
	ecall
	#NO_APP
.Ltmp869:
	li	a0, 1
	li	a1, 101
	li	t0, 2
	#APP
	ecall
	#NO_APP
.Ltmp870:
	li	a0, 1
	li	a1, 114
	li	t0, 2
	#APP
	ecall
	#NO_APP
.Ltmp871:
	li	a0, 1
	li	a1, 32
	li	t0, 2
	#APP
	ecall
	#NO_APP
.Ltmp872:
	li	a0, 1
	li	a1, 104
	li	t0, 2
	#APP
	ecall
	#NO_APP
.Ltmp873:
	li	a0, 1
	li	a1, 97
	li	t0, 2
	#APP
	ecall
	#NO_APP
.Ltmp874:
	li	a0, 1
	li	a1, 115
	li	t0, 2
	#APP
	ecall
	#NO_APP
.Ltmp875:
	li	a0, 1
	li	a1, 32
	li	t0, 2
	#APP
	ecall
	#NO_APP
.Ltmp876:
	li	a0, 1
	li	a1, 112
	li	t0, 2
	#APP
	ecall
	#NO_APP
.Ltmp877:
	li	a0, 1
	li	a1, 97
	li	t0, 2
	#APP
	ecall
	#NO_APP
.Ltmp878:
	li	a0, 1
	li	a1, 110
	li	t0, 2
	#APP
	ecall
	#NO_APP
.Ltmp879:
	li	a0, 1
	li	a1, 105
	li	t0, 2
	#APP
	ecall
	#NO_APP
.Ltmp880:
	li	a0, 1
	li	a1, 99
	li	t0, 2
	#APP
	ecall
	#NO_APP
.Ltmp881:
	li	a0, 1
	li	a1, 107
	li	t0, 2
	#APP
	ecall
	#NO_APP
.Ltmp882:
	li	a0, 1
	li	a1, 101
	li	t0, 2
	#APP
	ecall
	#NO_APP
.Ltmp883:
	li	a0, 1
	li	a1, 100
	li	t0, 2
	#APP
	ecall
	#NO_APP
.Ltmp884:
	li	a0, 1
	li	a1, 33
	li	t0, 2
	#APP
	ecall
	#NO_APP
.Ltmp885:
	li	a0, 1
	li	a1, 32
	li	t0, 2
	#APP
	ecall
	#NO_APP
.Ltmp886:
	li	a0, 1
	li	a1, 84
	li	t0, 2
	#APP
	ecall
	#NO_APP
.Ltmp887:
	li	a0, 1
	li	a1, 104
	li	t0, 2
	#APP
	ecall
	#NO_APP
.Ltmp888:
	li	a0, 1
	li	a1, 105
	li	t0, 2
	#APP
	ecall
	#NO_APP
.Ltmp889:
	li	a0, 1
	li	a1, 110
	li	t0, 2
	#APP
	ecall
	#NO_APP
.Ltmp890:
	li	a0, 1
	li	a1, 103
	li	t0, 2
	#APP
	ecall
	#NO_APP
.Ltmp891:
	li	a0, 1
	li	a1, 115
	li	t0, 2
	#APP
	ecall
	#NO_APP
.Ltmp892:
	li	a0, 1
	li	a1, 32
	li	t0, 2
	#APP
	ecall
	#NO_APP
.Ltmp893:
	li	a0, 1
	li	a1, 97
	li	t0, 2
	#APP
	ecall
	#NO_APP
.Ltmp894:
	li	a0, 1
	li	a1, 114
	li	t0, 2
	#APP
	ecall
	#NO_APP
.Ltmp895:
	li	a0, 1
	li	a1, 101
	li	t0, 2
	#APP
	ecall
	#NO_APP
.Ltmp896:
	li	a0, 1
	li	a1, 32
	li	t0, 2
	#APP
	ecall
	#NO_APP
.Ltmp897:
	li	a0, 1
	li	a1, 118
	li	t0, 2
	#APP
	ecall
	#NO_APP
.Ltmp898:
	li	a0, 1
	li	a1, 101
	li	t0, 2
	#APP
	ecall
	#NO_APP
.Ltmp899:
	li	a0, 1
	li	a1, 114
	li	t0, 2
	#APP
	ecall
	#NO_APP
.Ltmp900:
	li	a0, 1
	li	a1, 121
	li	t0, 2
	#APP
	ecall
	#NO_APP
.Ltmp901:
	li	a0, 1
	li	a1, 32
	li	t0, 2
	#APP
	ecall
	#NO_APP
.Ltmp902:
	li	a0, 1
	li	a1, 100
	li	t0, 2
	#APP
	ecall
	#NO_APP
.Ltmp903:
	li	a0, 1
	li	a1, 105
	li	t0, 2
	#APP
	ecall
	#NO_APP
.Ltmp904:
	li	a0, 1
	li	a1, 114
	li	t0, 2
	#APP
	ecall
	#NO_APP
.Ltmp905:
	li	a0, 1
	li	a1, 101
	li	t0, 2
	#APP
	ecall
	#NO_APP
.Ltmp906:
	li	a0, 1
	li	a1, 32
	li	t0, 2
	#APP
	ecall
	#NO_APP
.Ltmp907:
	li	a0, 1
	li	a1, 105
	li	t0, 2
	#APP
	ecall
	#NO_APP
.Ltmp908:
	li	a0, 1
	li	a1, 110
	li	t0, 2
	#APP
	ecall
	#NO_APP
.Ltmp909:
	li	a0, 1
	li	a1, 100
	li	t0, 2
	#APP
	ecall
	#NO_APP
.Ltmp910:
	li	a0, 1
	li	a1, 101
	li	t0, 2
	#APP
	ecall
	#NO_APP
	li	a0, 1
	li	a1, 101
	li	t0, 2
	#APP
	ecall
	#NO_APP
.Ltmp911:
	li	a0, 1
	li	a1, 100
	li	t0, 2
	#APP
	ecall
	#NO_APP
.Ltmp912:
	li	a0, 1
	li	a1, 46
	li	t0, 2
	#APP
	ecall
	#NO_APP
	li	a0, 1
	li	a1, 46
	li	t0, 2
	#APP
	ecall
	#NO_APP
	li	a0, 1
	li	a1, 46
	li	t0, 2
	#APP
	ecall
	#NO_APP
.Ltmp913:
	li	a0, 1
	li	a1, 10
	li	t0, 2
	#APP
	ecall
	#NO_APP
.Ltmp914:
	.loc	6 0 9 is_stmt 0
	j	.LBB17_3
.Ltmp915:
.LBB17_2:
	.loc	1 26 9 is_stmt 1
	sb	a0, %lo(_ZN19powdr_riscv_runtime5panic12IS_PANICKING17hbb4e8684952b1aeaE.0)(a1)
	addi	a1, sp, 4
	.loc	1 28 9
	sw	a1, 32(sp)
	lui	a1, %hi(_ZN44_$LT$$RF$T$u20$as$u20$core..fmt..Display$GT$3fmt17h54dfc086f6f96921E)
	addi	a1, a1, %lo(_ZN44_$LT$$RF$T$u20$as$u20$core..fmt..Display$GT$3fmt17h54dfc086f6f96921E)
	sw	a1, 36(sp)
.Ltmp916:
	.loc	3 335 9
	lui	a1, %hi(.L__unnamed_10)
	addi	a1, a1, %lo(.L__unnamed_10)
.Ltmp917:
	sw	a1, 8(sp)
	li	a1, 2
.Ltmp918:
	sw	a1, 12(sp)
	sw	zero, 24(sp)
	addi	a1, sp, 32
	sw	a1, 16(sp)
	sw	a0, 20(sp)
.Ltmp919:
	.loc	6 14 5
	lui	a0, %hi(.L__unnamed_1)
	addi	a1, a0, %lo(.L__unnamed_1)
	addi	a0, sp, 43
	addi	a2, sp, 8
	call	_ZN4core3fmt5write17hec90542839f9b0f5E
.Ltmp920:
	.loc	13 1071 9
	bnez	a0, .LBB17_5
.Ltmp921:
.LBB17_3:
	.loc	1 33 5
	#APP
	unimp
	#NO_APP
.LBB17_4:
	.loc	1 34 5
	j	.LBB17_4
.LBB17_5:
.Ltmp922:
	.loc	13 1073 23
	lui	a0, %hi(.L__unnamed_4)
	addi	a0, a0, %lo(.L__unnamed_4)
	lui	a1, %hi(.L__unnamed_2)
	addi	a3, a1, %lo(.L__unnamed_2)
	lui	a1, %hi(.L__unnamed_5)
	addi	a4, a1, %lo(.L__unnamed_5)
	li	a1, 43
	addi	a2, sp, 43
	call	_ZN4core6result13unwrap_failed17h9088d0865a96f7faE
.Ltmp923:
.Lfunc_end17:
	.size	rust_begin_unwind, .Lfunc_end17-rust_begin_unwind
	.cfi_endproc

	.section	.text.__runtime_start,"ax",@progbits
	.globl	__runtime_start
	.p2align	1
	.type	__runtime_start,@function
__runtime_start:
.Lfunc_begin18:
	.cfi_startproc
	.loc	1 44 9 prologue_end
	tail	main
.Ltmp924:
.Lfunc_end18:
	.size	__runtime_start, .Lfunc_end18-__runtime_start
	.cfi_endproc

	.section	.text.__rust_alloc,"ax",@progbits
	.globl	__rust_alloc
	.p2align	1
	.type	__rust_alloc,@function
__rust_alloc:
.Lfunc_begin19:
	.cfi_startproc
	.file	24 "/Users/steve/.rustup/toolchains/nightly-2024-02-01-aarch64-apple-darwin/lib/rustlib/src/rust/library/core/src" "cell.rs"
	.loc	24 512 18 prologue_end
	lui	a2, %hi(_ZN19powdr_riscv_runtime9allocator6GLOBAL17h6c7af0dd3a9aab19E)
	lw	a3, %lo(_ZN19powdr_riscv_runtime9allocator6GLOBAL17h6c7af0dd3a9aab19E)(a2)
	addi	a4, a2, %lo(_ZN19powdr_riscv_runtime9allocator6GLOBAL17h6c7af0dd3a9aab19E)
.Ltmp925:
	.loc	2 41 28
	addi	a4, a4, 4
.Ltmp926:
	add	a5, a4, a1
	add	a3, a3, a5
	.loc	2 41 27 is_stmt 0
	addi	a3, a3, -1
	.loc	2 41 61
	neg	a1, a1
.Ltmp927:
	.loc	2 41 27
	and	a1, a1, a3
.Ltmp928:
	.loc	2 44 37 is_stmt 1
	sub	a0, a0, a4
.Ltmp929:
	.loc	2 47 34
	add	a3, a1, a0
	lui	a4, 262144
	li	a0, 0
.Ltmp930:
	.loc	2 49 12
	bltu	a4, a3, .LBB19_2
.Ltmp931:
	.loc	11 1415 9
	sw	a3, %lo(_ZN19powdr_riscv_runtime9allocator6GLOBAL17h6c7af0dd3a9aab19E)(a2)
.Ltmp932:
	.loc	11 0 9 is_stmt 0
	mv	a0, a1
.Ltmp933:
.LBB19_2:
	.loc	2 63 95 is_stmt 1
	ret
.Ltmp934:
.Lfunc_end19:
	.size	__rust_alloc, .Lfunc_end19-__rust_alloc
	.cfi_endproc
	.file	25 "/Users/steve/.rustup/toolchains/nightly-2024-02-01-aarch64-apple-darwin/lib/rustlib/src/rust/library/core/src/mem" "mod.rs"

	.section	.text.__rust_dealloc,"ax",@progbits
	.globl	__rust_dealloc
	.p2align	1
	.type	__rust_dealloc,@function
__rust_dealloc:
.Lfunc_begin20:
	.cfi_startproc
	.loc	2 63 95 prologue_end
	ret
.Ltmp935:
.Lfunc_end20:
	.size	__rust_dealloc, .Lfunc_end20-__rust_dealloc
	.cfi_endproc

	.section	.text.__rust_realloc,"ax",@progbits
	.globl	__rust_realloc
	.p2align	1
	.type	__rust_realloc,@function
__rust_realloc:
.Lfunc_begin21:
	.loc	2 63 0
	.cfi_startproc
	addi	sp, sp, -16
	.cfi_def_cfa_offset 16
.Ltmp936:
	.file	26 "/Users/steve/.rustup/toolchains/nightly-2024-02-01-aarch64-apple-darwin/lib/rustlib/src/rust/library/core/src/alloc" "global.rs"
	.loc	26 0 0 is_stmt 0
	sw	ra, 12(sp)
	sw	s0, 8(sp)
	sw	s1, 4(sp)
	.cfi_offset ra, -4
	.cfi_offset s0, -8
	.cfi_offset s1, -12
.Ltmp937:
	.loc	24 512 18 prologue_end is_stmt 1
	lui	a6, %hi(_ZN19powdr_riscv_runtime9allocator6GLOBAL17h6c7af0dd3a9aab19E)
	lw	a5, %lo(_ZN19powdr_riscv_runtime9allocator6GLOBAL17h6c7af0dd3a9aab19E)(a6)
	addi	s0, a6, %lo(_ZN19powdr_riscv_runtime9allocator6GLOBAL17h6c7af0dd3a9aab19E)
.Ltmp938:
	.loc	2 41 28
	addi	a4, s0, 4
	add	s0, a4, a2
.Ltmp939:
	add	a5, a5, s0
	.loc	2 41 27 is_stmt 0
	addi	a5, a5, -1
	.loc	2 41 61
	neg	s1, a2
	.loc	2 41 27
	and	s1, s1, a5
.Ltmp940:
	.loc	2 44 37 is_stmt 1
	sub	a5, a3, a4
.Ltmp941:
	.loc	2 47 34
	add	a5, a5, s1
	lui	a4, 262144
	mv	a2, a1
.Ltmp942:
	.loc	2 0 34 is_stmt 0
	mv	a1, a0
.Ltmp943:
	li	a0, 0
.Ltmp944:
	.loc	2 49 12 is_stmt 1
	bltu	a4, a5, .LBB21_6
.Ltmp945:
	.loc	11 1415 9
	sw	a5, %lo(_ZN19powdr_riscv_runtime9allocator6GLOBAL17h6c7af0dd3a9aab19E)(a6)
.Ltmp946:
	.loc	26 269 13
	beqz	s1, .LBB21_5
.Ltmp947:
	.file	27 "/Users/steve/.rustup/toolchains/nightly-2024-02-01-aarch64-apple-darwin/lib/rustlib/src/rust/library/core/src" "cmp.rs"
	.loc	27 0 0 is_stmt 0
	bltu	a2, a3, .LBB21_4
.Ltmp948:
	mv	a2, a3
.Ltmp949:
.LBB21_4:
	.loc	15 2774 9 is_stmt 1
	mv	a0, s1
	call	memcpy@plt
.Ltmp950:
	.loc	15 0 9 is_stmt 0
	mv	a0, s1
	j	.LBB21_6
.Ltmp951:
.LBB21_5:
	li	a0, 0
.Ltmp952:
.LBB21_6:
	.loc	2 63 95 is_stmt 1
	lw	ra, 12(sp)
	lw	s0, 8(sp)
	lw	s1, 4(sp)
	.loc	2 63 95 epilogue_begin is_stmt 0
	addi	sp, sp, 16
	ret
.Ltmp953:
.Lfunc_end21:
	.size	__rust_realloc, .Lfunc_end21-__rust_realloc
	.cfi_endproc

	.section	.text.__rust_alloc_zeroed,"ax",@progbits
	.globl	__rust_alloc_zeroed
	.p2align	1
	.type	__rust_alloc_zeroed,@function
__rust_alloc_zeroed:
.Lfunc_begin22:
	.cfi_startproc
	.loc	24 512 18 prologue_end is_stmt 1
	lui	a2, %hi(_ZN19powdr_riscv_runtime9allocator6GLOBAL17h6c7af0dd3a9aab19E)
	lw	a3, %lo(_ZN19powdr_riscv_runtime9allocator6GLOBAL17h6c7af0dd3a9aab19E)(a2)
	addi	a4, a2, %lo(_ZN19powdr_riscv_runtime9allocator6GLOBAL17h6c7af0dd3a9aab19E)
.Ltmp954:
	.loc	2 41 28
	addi	a4, a4, 4
.Ltmp955:
	add	a5, a4, a1
	add	a3, a3, a5
	.loc	2 41 27 is_stmt 0
	addi	a3, a3, -1
	.loc	2 41 61
	neg	a1, a1
.Ltmp956:
	.loc	2 41 27
	and	a1, a1, a3
.Ltmp957:
	.loc	2 44 37 is_stmt 1
	sub	a0, a0, a4
.Ltmp958:
	.loc	2 47 34
	add	a3, a1, a0
	lui	a4, 262144
	li	a0, 0
.Ltmp959:
	.loc	2 49 12
	bltu	a4, a3, .LBB22_2
.Ltmp960:
	.loc	11 1415 9
	sw	a3, %lo(_ZN19powdr_riscv_runtime9allocator6GLOBAL17h6c7af0dd3a9aab19E)(a2)
.Ltmp961:
	.loc	11 0 9 is_stmt 0
	mv	a0, a1
.Ltmp962:
.LBB22_2:
	.loc	2 63 95 is_stmt 1
	ret
.Ltmp963:
.Lfunc_end22:
	.size	__rust_alloc_zeroed, .Lfunc_end22-__rust_alloc_zeroed
	.cfi_endproc

	.section	.text._ZN19powdr_riscv_runtime9allocator11alloc_error17h359cc0a273c0fdceE,"ax",@progbits
	.p2align	1
	.type	_ZN19powdr_riscv_runtime9allocator11alloc_error17h359cc0a273c0fdceE,@function
_ZN19powdr_riscv_runtime9allocator11alloc_error17h359cc0a273c0fdceE:
.Lfunc_begin23:
	.loc	2 66 0
	.cfi_startproc
	addi	sp, sp, -48
	.cfi_def_cfa_offset 48
.Ltmp964:
	.file	28 "/Users/steve/.rustup/toolchains/nightly-2024-02-01-aarch64-apple-darwin/lib/rustlib/src/rust/library/core/src/alloc" "layout.rs"
	.loc	28 129 9 prologue_end
	sw	a1, 40(sp)
.Ltmp965:
	.file	29 "/Users/steve/.rustup/toolchains/nightly-2024-02-01-aarch64-apple-darwin/lib/rustlib/src/rust/library/core/src/ptr" "alignment.rs"
	.loc	29 94 9
	sw	a0, 44(sp)
	addi	a0, sp, 40
.Ltmp966:
	.loc	2 67 5
	sw	a0, 24(sp)
	lui	a0, %hi(_ZN4core3fmt3num3imp54_$LT$impl$u20$core..fmt..Display$u20$for$u20$usize$GT$3fmt17h234c5c82398ec9b3E)
	addi	a0, a0, %lo(_ZN4core3fmt3num3imp54_$LT$impl$u20$core..fmt..Display$u20$for$u20$usize$GT$3fmt17h234c5c82398ec9b3E)
	sw	a0, 28(sp)
	addi	a1, sp, 44
.Ltmp967:
	sw	a1, 32(sp)
	sw	a0, 36(sp)
.Ltmp968:
	.loc	3 335 9
	lui	a0, %hi(.L__unnamed_11)
	addi	a0, a0, %lo(.L__unnamed_11)
.Ltmp969:
	sw	a0, 0(sp)
	li	a0, 3
.Ltmp970:
	sw	a0, 4(sp)
	sw	zero, 16(sp)
	addi	a0, sp, 24
	sw	a0, 8(sp)
	li	a0, 2
	sw	a0, 12(sp)
.Ltmp971:
	.loc	2 67 5
	lui	a0, %hi(.L__unnamed_12)
	addi	a1, a0, %lo(.L__unnamed_12)
	mv	a0, sp
	call	_ZN4core9panicking9panic_fmt17h0079632a8b35876aE
.Ltmp972:
.Lfunc_end23:
	.size	_ZN19powdr_riscv_runtime9allocator11alloc_error17h359cc0a273c0fdceE, .Lfunc_end23-_ZN19powdr_riscv_runtime9allocator11alloc_error17h359cc0a273c0fdceE
	.cfi_endproc

	.section	.text.__rg_oom,"ax",@progbits
	.globl	__rg_oom
	.p2align	1
	.type	__rg_oom,@function
__rg_oom:
.Lfunc_begin24:
	.loc	2 66 0
	.cfi_startproc
	.cfi_def_cfa_offset 0
	mv	a2, a0
.Ltmp973:
	.loc	2 66 1 prologue_end
	mv	a0, a1
.Ltmp974:
	mv	a1, a2
.Ltmp975:
	call	_ZN19powdr_riscv_runtime9allocator11alloc_error17h359cc0a273c0fdceE
.Ltmp976:
.Lfunc_end24:
	.size	__rg_oom, .Lfunc_end24-__rg_oom
	.cfi_endproc

	.type	.L__unnamed_13,@object
	.section	.rodata..L__unnamed_13,"a",@progbits
	.p2align	2, 0x0
.L__unnamed_13:
	.size	.L__unnamed_13, 0

	.type	.L__unnamed_3,@object
	.section	.rodata..L__unnamed_3,"a",@progbits
.L__unnamed_3:
	.ascii	"Error"
	.size	.L__unnamed_3, 5

	.type	.L__unnamed_1,@object
	.section	.rodata..L__unnamed_1,"a",@progbits
	.p2align	2, 0x0
.L__unnamed_1:
	.word	_ZN4core3ptr37drop_in_place$LT$core..fmt..Error$GT$17ha51e5909ddaf50a8E
	.asciz	"\000\000\000\000\001\000\000"
	.word	_ZN75_$LT$powdr_riscv_runtime..fmt..ProverWriter$u20$as$u20$core..fmt..Write$GT$9write_str17h0c3f3219d3c231a5E
	.word	_ZN4core3fmt5Write10write_char17h776683c49eebb88cE
	.word	_ZN4core3fmt5Write9write_fmt17h2899a23a41397189E
	.size	.L__unnamed_1, 24

	.type	.L__unnamed_4,@object
	.section	.rodata..L__unnamed_4,"a",@progbits
.L__unnamed_4:
	.ascii	"called `Result::unwrap()` on an `Err` value"
	.size	.L__unnamed_4, 43

	.type	.L__unnamed_2,@object
	.section	.rodata..L__unnamed_2,"a",@progbits
	.p2align	2, 0x0
.L__unnamed_2:
	.word	_ZN4core3ptr37drop_in_place$LT$core..fmt..Error$GT$17ha51e5909ddaf50a8E
	.asciz	"\000\000\000\000\001\000\000"
	.word	_ZN53_$LT$core..fmt..Error$u20$as$u20$core..fmt..Debug$GT$3fmt17h1974c3d28fb9bde4E
	.size	.L__unnamed_2, 16

	.type	.L__unnamed_14,@object
	.section	.rodata..L__unnamed_14,"a",@progbits
.L__unnamed_14:
	.ascii	"/Users/steve/Documents/repo/powdr-5_6_24/powdr/riscv-runtime/src/fmt.rs"
	.size	.L__unnamed_14, 71

	.type	.L__unnamed_5,@object
	.section	.rodata..L__unnamed_5,"a",@progbits
	.p2align	2, 0x0
.L__unnamed_5:
	.word	.L__unnamed_14
	.asciz	"G\000\000\000\016\000\000\000,\000\000"
	.size	.L__unnamed_5, 16

	.type	.L__unnamed_6,@object
	.section	.rodata.cst32,"aM",@progbits,32
.L__unnamed_6:
	.ascii	"assertion failed: n < GOLDILOCKS"
	.size	.L__unnamed_6, 32

	.type	.L__unnamed_15,@object
	.section	.rodata..L__unnamed_15,"a",@progbits
.L__unnamed_15:
	.ascii	"/Users/steve/Documents/repo/powdr-5_6_24/powdr/riscv-runtime/src/hash.rs"
	.size	.L__unnamed_15, 72

	.type	.L__unnamed_7,@object
	.section	.rodata..L__unnamed_7,"a",@progbits
	.p2align	2, 0x0
.L__unnamed_7:
	.word	.L__unnamed_15
	.asciz	"H\000\000\000\032\000\000\000\t\000\000"
	.size	.L__unnamed_7, 16

	.type	.L__unnamed_8,@object
	.section	.rodata..L__unnamed_8,"a",@progbits
.L__unnamed_8:
	.ascii	"not implemented"
	.size	.L__unnamed_8, 15

	.type	.L__unnamed_9,@object
	.section	.rodata..L__unnamed_9,"a",@progbits
	.p2align	2, 0x0
.L__unnamed_9:
	.word	.L__unnamed_15
	.asciz	"H\000\000\000#\000\000\000\005\000\000"
	.size	.L__unnamed_9, 16

	.type	.L__unnamed_16,@object
	.section	.rodata..L__unnamed_16,"a",@progbits
.L__unnamed_16:
	.byte	10
	.size	.L__unnamed_16, 1

	.type	.L__unnamed_10,@object
	.section	.rodata..L__unnamed_10,"a",@progbits
	.p2align	2, 0x0
.L__unnamed_10:
	.word	.L__unnamed_13
	.zero	4
	.word	.L__unnamed_16
	.asciz	"\001\000\000"
	.size	.L__unnamed_10, 16

	.type	_ZN19powdr_riscv_runtime5panic12IS_PANICKING17hbb4e8684952b1aeaE.0,@object
	.section	.sbss,"aw",@nobits
_ZN19powdr_riscv_runtime5panic12IS_PANICKING17hbb4e8684952b1aeaE.0:
	.byte	0
	.size	_ZN19powdr_riscv_runtime5panic12IS_PANICKING17hbb4e8684952b1aeaE.0, 1

	.type	_ZN19powdr_riscv_runtime9allocator6GLOBAL17h6c7af0dd3a9aab19E,@object
	.section	.bss._ZN19powdr_riscv_runtime9allocator6GLOBAL17h6c7af0dd3a9aab19E,"aw",@nobits
	.p2align	2, 0x0
_ZN19powdr_riscv_runtime9allocator6GLOBAL17h6c7af0dd3a9aab19E:
	.zero	1073741828
	.size	_ZN19powdr_riscv_runtime9allocator6GLOBAL17h6c7af0dd3a9aab19E, 1073741828

	.type	.L__unnamed_17,@object
	.section	.rodata..L__unnamed_17,"a",@progbits
.L__unnamed_17:
	.ascii	"memory allocation of "
	.size	.L__unnamed_17, 21

	.type	.L__unnamed_18,@object
	.section	.rodata..L__unnamed_18,"a",@progbits
.L__unnamed_18:
	.ascii	" bytes with alignment "
	.size	.L__unnamed_18, 22

	.type	.L__unnamed_19,@object
	.section	.rodata..L__unnamed_19,"a",@progbits
.L__unnamed_19:
	.ascii	" failed"
	.size	.L__unnamed_19, 7

	.type	.L__unnamed_11,@object
	.section	.rodata..L__unnamed_11,"a",@progbits
	.p2align	2, 0x0
.L__unnamed_11:
	.word	.L__unnamed_17
	.asciz	"\025\000\000"
	.word	.L__unnamed_18
	.asciz	"\026\000\000"
	.word	.L__unnamed_19
	.asciz	"\007\000\000"
	.size	.L__unnamed_11, 24

	.type	.L__unnamed_20,@object
	.section	.rodata..L__unnamed_20,"a",@progbits
.L__unnamed_20:
	.ascii	"/Users/steve/Documents/repo/powdr-5_6_24/powdr/riscv-runtime/src/allocator.rs"
	.size	.L__unnamed_20, 77

	.type	.L__unnamed_12,@object
	.section	.rodata..L__unnamed_12,"a",@progbits
	.p2align	2, 0x0
.L__unnamed_12:
	.word	.L__unnamed_20
	.asciz	"M\000\000\000C\000\000\000\005\000\000"
	.size	.L__unnamed_12, 16

	.section	.rodata..L__unnamed_1,"a",@progbits
.Lsec_end0:
	.section	.rodata..L__unnamed_2,"a",@progbits
.Lsec_end1:
	.section	.sbss,"aw",@nobits
.Lsec_end2:
	.section	.bss._ZN19powdr_riscv_runtime9allocator6GLOBAL17h6c7af0dd3a9aab19E,"aw",@nobits
.Lsec_end3:
	.section	".text._ZN44_$LT$$RF$T$u20$as$u20$core..fmt..Display$GT$3fmt17h54dfc086f6f96921E","ax",@progbits
.Lsec_end4:
	.section	.text._ZN4core3fmt5Write10write_char17h776683c49eebb88cE,"ax",@progbits
.Lsec_end5:
	.section	.text._ZN4core3fmt5Write9write_fmt17h2899a23a41397189E,"ax",@progbits
.Lsec_end6:
	.section	".text._ZN4core3ptr37drop_in_place$LT$core..fmt..Error$GT$17ha51e5909ddaf50a8E","ax",@progbits
.Lsec_end7:
	.section	".text._ZN53_$LT$core..fmt..Error$u20$as$u20$core..fmt..Debug$GT$3fmt17h1974c3d28fb9bde4E","ax",@progbits
.Lsec_end8:
	.section	.text._ZN19powdr_riscv_runtime5arith16affine_256_u8_be17h159b74a5a19427ebE,"ax",@progbits
.Lsec_end9:
	.section	.text._ZN19powdr_riscv_runtime5arith16modmul_256_u8_be17h4502ba2ee97d18f8E,"ax",@progbits
.Lsec_end10:
	.section	.text._ZN19powdr_riscv_runtime2ec9add_u8_be17h8b87db81c1a0f783E,"ax",@progbits
.Lsec_end11:
	.section	.text._ZN19powdr_riscv_runtime2ec12double_u8_be17h3ebfed236b8e7dbcE,"ax",@progbits
.Lsec_end12:
	.section	.text._ZN19powdr_riscv_runtime3fmt10print_args17h7bce50ebb85017deE,"ax",@progbits
.Lsec_end13:
	.section	".text._ZN75_$LT$powdr_riscv_runtime..fmt..ProverWriter$u20$as$u20$core..fmt..Write$GT$9write_str17h0c3f3219d3c231a5E","ax",@progbits
.Lsec_end14:
	.section	.text._ZN19powdr_riscv_runtime3fmt9print_str17hbd001a393bc72a39E,"ax",@progbits
.Lsec_end15:
	.section	.text._ZN19powdr_riscv_runtime4hash11poseidon_gl17h1535c982e30c65b6E,"ax",@progbits
.Lsec_end16:
	.section	.text._ZN19powdr_riscv_runtime4hash7keccakf17he2564457d5388bfdE,"ax",@progbits
.Lsec_end17:
	.section	.text._ZN19powdr_riscv_runtime4hash6keccak17h16b3e2b8c092c28cE,"ax",@progbits
.Lsec_end18:
	.section	.text._ZN19powdr_riscv_runtime2io10read_slice17h33db1faf0b8e83c7E,"ax",@progbits
.Lsec_end19:
	.section	.text._ZN19powdr_riscv_runtime2io11write_slice17h13dacf9ebde3edacE,"ax",@progbits
.Lsec_end20:
	.section	.text.rust_begin_unwind,"ax",@progbits
.Lsec_end21:
	.section	.text.__runtime_start,"ax",@progbits
.Lsec_end22:
	.section	.text.__rust_alloc,"ax",@progbits
.Lsec_end23:
	.section	.text.__rust_dealloc,"ax",@progbits
.Lsec_end24:
	.section	.text.__rust_realloc,"ax",@progbits
.Lsec_end25:
	.section	.text.__rust_alloc_zeroed,"ax",@progbits
.Lsec_end26:
	.section	.text._ZN19powdr_riscv_runtime9allocator11alloc_error17h359cc0a273c0fdceE,"ax",@progbits
.Lsec_end27:
	.section	.text.__rg_oom,"ax",@progbits
.Lsec_end28:
	.section	".note.GNU-stack","",@progbits