	.text
	.attribute	4, 16
	.attribute	5, "rv32i2p1_m2p0_a2p1_c2p0"
	.file	"serde.f38853649929e07e-cgu.0"
	.file	1 "/Users/steve/.cargo/registry/src/index.crates.io-6f17d22bba15001f/serde-1.0.205" "src/de/impls.rs"
	.section	".text._ZN42_$LT$$RF$T$u20$as$u20$core..fmt..Debug$GT$3fmt17h05789b1e5d7153a8E","ax",@progbits
	.p2align	1
	.type	_ZN42_$LT$$RF$T$u20$as$u20$core..fmt..Debug$GT$3fmt17h05789b1e5d7153a8E,@function
_ZN42_$LT$$RF$T$u20$as$u20$core..fmt..Debug$GT$3fmt17h05789b1e5d7153a8E:
.Lfunc_begin0:
	.cfi_sections .debug_frame
	.cfi_startproc
	.file	2 "/Users/steve/.rustup/toolchains/nightly-2024-02-01-aarch64-apple-darwin/lib/rustlib/src/rust/library/core/src/fmt" "mod.rs"
	.loc	2 2294 71 prologue_end
	lw	a2, 0(a0)
	lw	a3, 4(a0)
	mv	a4, a1
.Ltmp0:
	.loc	2 2294 62 is_stmt 0
	mv	a0, a2
.Ltmp1:
	mv	a1, a3
	mv	a2, a4
.Ltmp2:
	tail	_ZN40_$LT$str$u20$as$u20$core..fmt..Debug$GT$3fmt17h697fa99633e9ffccE
.Ltmp3:
.Lfunc_end0:
	.size	_ZN42_$LT$$RF$T$u20$as$u20$core..fmt..Debug$GT$3fmt17h05789b1e5d7153a8E, .Lfunc_end0-_ZN42_$LT$$RF$T$u20$as$u20$core..fmt..Debug$GT$3fmt17h05789b1e5d7153a8E
	.cfi_endproc

	.section	".text._ZN44_$LT$$RF$T$u20$as$u20$core..fmt..Display$GT$3fmt17h52d87e945500df40E","ax",@progbits
	.p2align	1
	.type	_ZN44_$LT$$RF$T$u20$as$u20$core..fmt..Display$GT$3fmt17h52d87e945500df40E,@function
_ZN44_$LT$$RF$T$u20$as$u20$core..fmt..Display$GT$3fmt17h52d87e945500df40E:
.Lfunc_begin1:
	.cfi_startproc
	.loc	2 2294 71 prologue_end is_stmt 1
	lw	a2, 0(a0)
	lw	a3, 4(a0)
	mv	a4, a1
.Ltmp4:
	.loc	2 2294 62 is_stmt 0
	mv	a0, a2
.Ltmp5:
	mv	a1, a3
	mv	a2, a4
.Ltmp6:
	tail	_ZN42_$LT$str$u20$as$u20$core..fmt..Display$GT$3fmt17h45c916f6fbc68766E
.Ltmp7:
.Lfunc_end1:
	.size	_ZN44_$LT$$RF$T$u20$as$u20$core..fmt..Display$GT$3fmt17h52d87e945500df40E, .Lfunc_end1-_ZN44_$LT$$RF$T$u20$as$u20$core..fmt..Display$GT$3fmt17h52d87e945500df40E
	.cfi_endproc

	.section	".text._ZN44_$LT$$RF$T$u20$as$u20$core..fmt..Display$GT$3fmt17haf3bd33e0725d546E","ax",@progbits
	.p2align	1
	.type	_ZN44_$LT$$RF$T$u20$as$u20$core..fmt..Display$GT$3fmt17haf3bd33e0725d546E,@function
_ZN44_$LT$$RF$T$u20$as$u20$core..fmt..Display$GT$3fmt17haf3bd33e0725d546E:
.Lfunc_begin2:
	.cfi_startproc
	.loc	2 2294 71 prologue_end is_stmt 1
	lw	a2, 0(a0)
.Ltmp8:
	.loc	2 2294 71 is_stmt 0
	lw	a0, 0(a2)
.Ltmp9:
	lw	a2, 4(a2)
.Ltmp10:
	.loc	2 0 71
	mv	a3, a1
.Ltmp11:
	.loc	2 2294 62
	mv	a1, a2
	mv	a2, a3
.Ltmp12:
	tail	_ZN42_$LT$str$u20$as$u20$core..fmt..Display$GT$3fmt17h45c916f6fbc68766E
.Ltmp13:
.Lfunc_end2:
	.size	_ZN44_$LT$$RF$T$u20$as$u20$core..fmt..Display$GT$3fmt17haf3bd33e0725d546E, .Lfunc_end2-_ZN44_$LT$$RF$T$u20$as$u20$core..fmt..Display$GT$3fmt17haf3bd33e0725d546E
	.cfi_endproc

	.section	.text._ZN4core3fmt5Write9write_fmt17h132f4e0197a0a7caE,"ax",@progbits
	.p2align	1
	.type	_ZN4core3fmt5Write9write_fmt17h132f4e0197a0a7caE,@function
_ZN4core3fmt5Write9write_fmt17h132f4e0197a0a7caE:
.Lfunc_begin3:
	.cfi_startproc
	.loc	2 211 17 prologue_end is_stmt 1
	lui	a2, %hi(.L__unnamed_1)
	addi	a2, a2, %lo(.L__unnamed_1)
	mv	a3, a1
.Ltmp14:
	mv	a1, a2
	mv	a2, a3
.Ltmp15:
	tail	_ZN4core3fmt5write17hec90542839f9b0f5E
.Ltmp16:
.Lfunc_end3:
	.size	_ZN4core3fmt5Write9write_fmt17h132f4e0197a0a7caE, .Lfunc_end3-_ZN4core3fmt5Write9write_fmt17h132f4e0197a0a7caE
	.cfi_endproc

	.section	".text._ZN4core3ptr112drop_in_place$LT$$LT$serde..de..WithDecimalPoint$u20$as$u20$core..fmt..Display$GT$..fmt..LookForDecimalPoint$GT$17h6b1b6b7a4b0201e6E","ax",@progbits
	.p2align	1
	.type	_ZN4core3ptr112drop_in_place$LT$$LT$serde..de..WithDecimalPoint$u20$as$u20$core..fmt..Display$GT$..fmt..LookForDecimalPoint$GT$17h6b1b6b7a4b0201e6E,@function
_ZN4core3ptr112drop_in_place$LT$$LT$serde..de..WithDecimalPoint$u20$as$u20$core..fmt..Display$GT$..fmt..LookForDecimalPoint$GT$17h6b1b6b7a4b0201e6E:
.Lfunc_begin4:
	.cfi_startproc
	.file	3 "/Users/steve/.rustup/toolchains/nightly-2024-02-01-aarch64-apple-darwin/lib/rustlib/src/rust/library/core/src/ptr" "mod.rs"
	.loc	3 507 1 prologue_end
	ret
.Ltmp17:
.Lfunc_end4:
	.size	_ZN4core3ptr112drop_in_place$LT$$LT$serde..de..WithDecimalPoint$u20$as$u20$core..fmt..Display$GT$..fmt..LookForDecimalPoint$GT$17h6b1b6b7a4b0201e6E, .Lfunc_end4-_ZN4core3ptr112drop_in_place$LT$$LT$serde..de..WithDecimalPoint$u20$as$u20$core..fmt..Display$GT$..fmt..LookForDecimalPoint$GT$17h6b1b6b7a4b0201e6E
	.cfi_endproc

	.section	".text._ZN4core3ptr49drop_in_place$LT$alloc..boxed..Box$LT$str$GT$$GT$17h7530d9b8deb0b070E","ax",@progbits
	.p2align	1
	.type	_ZN4core3ptr49drop_in_place$LT$alloc..boxed..Box$LT$str$GT$$GT$17h7530d9b8deb0b070E,@function
_ZN4core3ptr49drop_in_place$LT$alloc..boxed..Box$LT$str$GT$$GT$17h7530d9b8deb0b070E:
.Lfunc_begin5:
	.cfi_startproc
	.loc	3 507 1 prologue_end
	lw	a1, 4(a0)
.Ltmp18:
	.file	4 "/Users/steve/.rustup/toolchains/nightly-2024-02-01-aarch64-apple-darwin/lib/rustlib/src/rust/library/alloc/src" "boxed.rs"
	.loc	4 1242 16
	beqz	a1, .LBB5_2
.Ltmp19:
	.loc	3 507 1
	lw	a0, 0(a0)
.Ltmp20:
	.file	5 "/Users/steve/.rustup/toolchains/nightly-2024-02-01-aarch64-apple-darwin/lib/rustlib/src/rust/library/alloc/src" "alloc.rs"
	.loc	5 117 14
	li	a2, 1
	tail	__rust_dealloc
.Ltmp21:
.LBB5_2:
	.loc	3 507 1
	ret
.Ltmp22:
.Lfunc_end5:
	.size	_ZN4core3ptr49drop_in_place$LT$alloc..boxed..Box$LT$str$GT$$GT$17h7530d9b8deb0b070E, .Lfunc_end5-_ZN4core3ptr49drop_in_place$LT$alloc..boxed..Box$LT$str$GT$$GT$17h7530d9b8deb0b070E
	.cfi_endproc

	.section	".text._ZN60_$LT$serde..de..value..Error$u20$as$u20$core..fmt..Debug$GT$3fmt17h82c066d61dfee745E","ax",@progbits
	.globl	_ZN60_$LT$serde..de..value..Error$u20$as$u20$core..fmt..Debug$GT$3fmt17h82c066d61dfee745E
	.p2align	1
	.type	_ZN60_$LT$serde..de..value..Error$u20$as$u20$core..fmt..Debug$GT$3fmt17h82c066d61dfee745E,@function
_ZN60_$LT$serde..de..value..Error$u20$as$u20$core..fmt..Debug$GT$3fmt17h82c066d61dfee745E:
.Lfunc_begin6:
	.file	6 "/Users/steve/.cargo/registry/src/index.crates.io-6f17d22bba15001f/serde-1.0.205" "src/de/value.rs"
	.loc	6 106 0
	.cfi_startproc
	addi	sp, sp, -32
	.cfi_def_cfa_offset 32
	sw	ra, 28(sp)
	sw	s0, 24(sp)
	.cfi_offset ra, -4
	.cfi_offset s0, -8
	mv	s0, a0
.Ltmp23:
	.loc	6 107 25 prologue_end
	lui	a0, %hi(.L__unnamed_3)
	addi	a2, a0, %lo(.L__unnamed_3)
	addi	a0, sp, 12
	li	a3, 5
	call	_ZN4core3fmt9Formatter11debug_tuple17hb7e8b6e868b3d40fE
.Ltmp24:
	.loc	6 109 9
	lui	a0, %hi(.L__unnamed_2)
	addi	a2, a0, %lo(.L__unnamed_2)
	addi	a0, sp, 12
	mv	a1, s0
.Ltmp25:
	call	_ZN4core3fmt8builders10DebugTuple5field17h6d34587e2d08c040E
.Ltmp26:
	.loc	6 110 9
	addi	a0, sp, 12
	call	_ZN4core3fmt8builders10DebugTuple6finish17h203d313ec2ed80bbE
.Ltmp27:
	.loc	6 111 6
	lw	ra, 28(sp)
	lw	s0, 24(sp)
	.loc	6 111 6 epilogue_begin is_stmt 0
	addi	sp, sp, 32
	ret
.Ltmp28:
.Lfunc_end6:
	.size	_ZN60_$LT$serde..de..value..Error$u20$as$u20$core..fmt..Debug$GT$3fmt17h82c066d61dfee745E, .Lfunc_end6-_ZN60_$LT$serde..de..value..Error$u20$as$u20$core..fmt..Debug$GT$3fmt17h82c066d61dfee745E
	.cfi_endproc

	.section	".text._ZN71_$LT$serde..de..value..ExpectedInSeq$u20$as$u20$serde..de..Expected$GT$3fmt17h62388717c2a5a9d3E","ax",@progbits
	.globl	_ZN71_$LT$serde..de..value..ExpectedInSeq$u20$as$u20$serde..de..Expected$GT$3fmt17h62388717c2a5a9d3E
	.p2align	1
	.type	_ZN71_$LT$serde..de..value..ExpectedInSeq$u20$as$u20$serde..de..Expected$GT$3fmt17h62388717c2a5a9d3E,@function
_ZN71_$LT$serde..de..value..ExpectedInSeq$u20$as$u20$serde..de..Expected$GT$3fmt17h62388717c2a5a9d3E:
.Lfunc_begin7:
	.loc	6 984 0 is_stmt 1
	.cfi_startproc
	mv	a2, a0
.Ltmp29:
	.loc	6 985 12 prologue_end
	lw	a4, 0(a0)
	li	a3, 1
	mv	a0, a1
.Ltmp30:
	bne	a4, a3, .LBB7_2
.Ltmp31:
	.loc	6 986 13
	lui	a1, %hi(.L__unnamed_4)
	addi	a1, a1, %lo(.L__unnamed_4)
	li	a2, 21
.Ltmp32:
	tail	_ZN4core3fmt9Formatter9write_str17h7b224d3eb3847887E
.Ltmp33:
.LBB7_2:
	addi	sp, sp, -48
	.cfi_def_cfa_offset 48
	.loc	6 988 13
	sw	ra, 44(sp)
	.cfi_offset ra, -4
	sw	a2, 36(sp)
	lui	a1, %hi(_ZN4core3fmt3num3imp54_$LT$impl$u20$core..fmt..Display$u20$for$u20$usize$GT$3fmt17h234c5c82398ec9b3E)
	addi	a1, a1, %lo(_ZN4core3fmt3num3imp54_$LT$impl$u20$core..fmt..Display$u20$for$u20$usize$GT$3fmt17h234c5c82398ec9b3E)
	sw	a1, 40(sp)
.Ltmp34:
	.loc	2 335 9
	lui	a1, %hi(.L__unnamed_5)
	addi	a1, a1, %lo(.L__unnamed_5)
.Ltmp35:
	sw	a1, 12(sp)
	li	a1, 2
.Ltmp36:
	sw	a1, 16(sp)
	sw	zero, 28(sp)
	addi	a1, sp, 36
	sw	a1, 20(sp)
	sw	a3, 24(sp)
.Ltmp37:
	.loc	6 988 13
	addi	a1, sp, 12
	call	_ZN4core3fmt9Formatter9write_fmt17hf1a4b1e0be961690E
.Ltmp38:
	.loc	6 990 6
	lw	ra, 44(sp)
	.loc	6 990 6 epilogue_begin is_stmt 0
	addi	sp, sp, 48
	ret
.Ltmp39:
.Lfunc_end7:
	.size	_ZN71_$LT$serde..de..value..ExpectedInSeq$u20$as$u20$serde..de..Expected$GT$3fmt17h62388717c2a5a9d3E, .Lfunc_end7-_ZN71_$LT$serde..de..value..ExpectedInSeq$u20$as$u20$serde..de..Expected$GT$3fmt17h62388717c2a5a9d3E
	.cfi_endproc

	.section	".text._ZN71_$LT$serde..de..value..ExpectedInMap$u20$as$u20$serde..de..Expected$GT$3fmt17hdf9e2bfaf98c34bfE","ax",@progbits
	.globl	_ZN71_$LT$serde..de..value..ExpectedInMap$u20$as$u20$serde..de..Expected$GT$3fmt17hdf9e2bfaf98c34bfE
	.p2align	1
	.type	_ZN71_$LT$serde..de..value..ExpectedInMap$u20$as$u20$serde..de..Expected$GT$3fmt17hdf9e2bfaf98c34bfE,@function
_ZN71_$LT$serde..de..value..ExpectedInMap$u20$as$u20$serde..de..Expected$GT$3fmt17hdf9e2bfaf98c34bfE:
.Lfunc_begin8:
	.loc	6 1412 0 is_stmt 1
	.cfi_startproc
	mv	a2, a0
.Ltmp40:
	.loc	6 1413 12 prologue_end
	lw	a4, 0(a0)
	li	a3, 1
	mv	a0, a1
.Ltmp41:
	bne	a4, a3, .LBB8_2
.Ltmp42:
	.loc	6 1414 13
	lui	a1, %hi(.L__unnamed_6)
	addi	a1, a1, %lo(.L__unnamed_6)
	li	a2, 16
.Ltmp43:
	tail	_ZN4core3fmt9Formatter9write_str17h7b224d3eb3847887E
.Ltmp44:
.LBB8_2:
	addi	sp, sp, -48
	.cfi_def_cfa_offset 48
	.loc	6 1416 13
	sw	ra, 44(sp)
	.cfi_offset ra, -4
	sw	a2, 36(sp)
	lui	a1, %hi(_ZN4core3fmt3num3imp54_$LT$impl$u20$core..fmt..Display$u20$for$u20$usize$GT$3fmt17h234c5c82398ec9b3E)
	addi	a1, a1, %lo(_ZN4core3fmt3num3imp54_$LT$impl$u20$core..fmt..Display$u20$for$u20$usize$GT$3fmt17h234c5c82398ec9b3E)
	sw	a1, 40(sp)
.Ltmp45:
	.loc	2 335 9
	lui	a1, %hi(.L__unnamed_7)
	addi	a1, a1, %lo(.L__unnamed_7)
.Ltmp46:
	sw	a1, 12(sp)
	li	a1, 2
.Ltmp47:
	sw	a1, 16(sp)
	sw	zero, 28(sp)
	addi	a1, sp, 36
	sw	a1, 20(sp)
	sw	a3, 24(sp)
.Ltmp48:
	.loc	6 1416 13
	addi	a1, sp, 12
	call	_ZN4core3fmt9Formatter9write_fmt17hf1a4b1e0be961690E
.Ltmp49:
	.loc	6 1418 6
	lw	ra, 44(sp)
	.loc	6 1418 6 epilogue_begin is_stmt 0
	addi	sp, sp, 48
	ret
.Ltmp50:
.Lfunc_end8:
	.size	_ZN71_$LT$serde..de..value..ExpectedInMap$u20$as$u20$serde..de..Expected$GT$3fmt17hdf9e2bfaf98c34bfE, .Lfunc_end8-_ZN71_$LT$serde..de..value..ExpectedInMap$u20$as$u20$serde..de..Expected$GT$3fmt17hdf9e2bfaf98c34bfE
	.cfi_endproc

	.section	.text._ZN5serde2de6format3Buf6as_str17h17ecb2354f4eed7cE,"ax",@progbits
	.globl	_ZN5serde2de6format3Buf6as_str17h17ecb2354f4eed7cE
	.p2align	1
	.type	_ZN5serde2de6format3Buf6as_str17h17ecb2354f4eed7cE,@function
_ZN5serde2de6format3Buf6as_str17h17ecb2354f4eed7cE:
.Lfunc_begin9:
	.cfi_startproc
	.file	7 "/Users/steve/.cargo/registry/src/index.crates.io-6f17d22bba15001f/serde-1.0.205" "src/de/format.rs"
	.loc	7 15 22 prologue_end is_stmt 1
	lw	a3, 4(a0)
.Ltmp51:
	.loc	7 15 35 is_stmt 0
	lw	a1, 8(a0)
.Ltmp52:
	.file	8 "/Users/steve/.rustup/toolchains/nightly-2024-02-01-aarch64-apple-darwin/lib/rustlib/src/rust/library/core/src/slice" "index.rs"
	.loc	8 393 19 is_stmt 1
	bltu	a3, a1, .LBB9_2
.Ltmp53:
	.loc	7 15 22
	lw	a0, 0(a0)
.Ltmp54:
	.loc	7 17 6
	ret
.LBB9_2:
.Ltmp55:
	.cfi_def_cfa_offset 0
	.loc	8 394 13
	lui	a0, %hi(.L__unnamed_8)
.Ltmp56:
	addi	a2, a0, %lo(.L__unnamed_8)
	mv	a0, a1
	mv	a1, a3
.Ltmp57:
	call	_ZN4core5slice5index24slice_end_index_len_fail17he0d721b4a6ea45a9E
.Ltmp58:
.Lfunc_end9:
	.size	_ZN5serde2de6format3Buf6as_str17h17ecb2354f4eed7cE, .Lfunc_end9-_ZN5serde2de6format3Buf6as_str17h17ecb2354f4eed7cE
	.cfi_endproc

	.section	".text._ZN59_$LT$serde..de..format..Buf$u20$as$u20$core..fmt..Write$GT$9write_str17h088faf2c18489f46E","ax",@progbits
	.globl	_ZN59_$LT$serde..de..format..Buf$u20$as$u20$core..fmt..Write$GT$9write_str17h088faf2c18489f46E
	.p2align	1
	.type	_ZN59_$LT$serde..de..format..Buf$u20$as$u20$core..fmt..Write$GT$9write_str17h088faf2c18489f46E,@function
_ZN59_$LT$serde..de..format..Buf$u20$as$u20$core..fmt..Write$GT$9write_str17h088faf2c18489f46E:
.Lfunc_begin10:
	.loc	7 21 0
	.cfi_startproc
	addi	sp, sp, -16
	.cfi_def_cfa_offset 16
	sw	ra, 12(sp)
	sw	s0, 8(sp)
	sw	s1, 4(sp)
	sw	s2, 0(sp)
	.cfi_offset ra, -4
	.cfi_offset s0, -8
	.cfi_offset s1, -12
	.cfi_offset s2, -16
	mv	s1, a0
.Ltmp59:
	.loc	7 22 12 prologue_end
	lw	a0, 8(a0)
	.loc	7 22 36 is_stmt 0
	lw	s2, 4(s1)
	.loc	7 22 12
	add	s0, a0, a2
.Ltmp60:
	bltu	s2, s0, .LBB10_3
.Ltmp61:
	.loc	8 402 12 is_stmt 1
	bltu	s0, a0, .LBB10_4
.Ltmp62:
	.loc	7 25 13
	lw	a3, 0(s1)
.Ltmp63:
	.file	9 "/Users/steve/.rustup/toolchains/nightly-2024-02-01-aarch64-apple-darwin/lib/rustlib/src/rust/library/core/src/ptr" "mut_ptr.rs"
	.loc	9 1045 18
	add	a0, a0, a3
.Ltmp64:
	.file	10 "/Users/steve/.rustup/toolchains/nightly-2024-02-01-aarch64-apple-darwin/lib/rustlib/src/rust/library/core/src" "intrinsics.rs"
	.loc	10 2774 9
	call	memcpy@plt
.Ltmp65:
	.loc	7 26 13
	sw	s0, 8(s1)
.Ltmp66:
.LBB10_3:
	.loc	7 22 12
	sltu	a0, s2, s0
	.loc	7 29 6
	lw	ra, 12(sp)
	lw	s0, 8(sp)
	lw	s1, 4(sp)
.Ltmp67:
	lw	s2, 0(sp)
	.loc	7 29 6 epilogue_begin is_stmt 0
	addi	sp, sp, 16
	ret
.LBB10_4:
.Ltmp68:
	.loc	8 403 13 is_stmt 1
	lui	a1, %hi(.L__unnamed_9)
.Ltmp69:
	addi	a2, a1, %lo(.L__unnamed_9)
.Ltmp70:
	mv	a1, s0
	call	_ZN4core5slice5index22slice_index_order_fail17h940d5a7ad9f42007E
.Ltmp71:
.Lfunc_end10:
	.size	_ZN59_$LT$serde..de..format..Buf$u20$as$u20$core..fmt..Write$GT$9write_str17h088faf2c18489f46E, .Lfunc_end10-_ZN59_$LT$serde..de..format..Buf$u20$as$u20$core..fmt..Write$GT$9write_str17h088faf2c18489f46E
	.cfi_endproc
	.file	11 "/Users/steve/.rustup/toolchains/nightly-2024-02-01-aarch64-apple-darwin/lib/rustlib/src/rust/library/core/src/slice" "mod.rs"

	.section	".text._ZN73_$LT$serde..de..ignored_any..IgnoredAny$u20$as$u20$serde..de..Visitor$GT$9expecting17h942bddb75885937aE","ax",@progbits
	.globl	_ZN73_$LT$serde..de..ignored_any..IgnoredAny$u20$as$u20$serde..de..Visitor$GT$9expecting17h942bddb75885937aE
	.p2align	1
	.type	_ZN73_$LT$serde..de..ignored_any..IgnoredAny$u20$as$u20$serde..de..Visitor$GT$9expecting17h942bddb75885937aE,@function
_ZN73_$LT$serde..de..ignored_any..IgnoredAny$u20$as$u20$serde..de..Visitor$GT$9expecting17h942bddb75885937aE:
.Lfunc_begin11:
	.cfi_startproc
	.file	12 "/Users/steve/.cargo/registry/src/index.crates.io-6f17d22bba15001f/serde-1.0.205" "src/de/ignored_any.rs"
	.loc	12 117 9 prologue_end
	lui	a0, %hi(.L__unnamed_10)
.Ltmp72:
	addi	a3, a0, %lo(.L__unnamed_10)
	li	a2, 15
	mv	a0, a1
.Ltmp73:
	mv	a1, a3
	tail	_ZN4core3fmt9Formatter9write_str17h7b224d3eb3847887E
.Ltmp74:
.Lfunc_end11:
	.size	_ZN73_$LT$serde..de..ignored_any..IgnoredAny$u20$as$u20$serde..de..Visitor$GT$9expecting17h942bddb75885937aE, .Lfunc_end11-_ZN73_$LT$serde..de..ignored_any..IgnoredAny$u20$as$u20$serde..de..Visitor$GT$9expecting17h942bddb75885937aE
	.cfi_endproc

	.section	".text._ZN68_$LT$serde..de..impls..UnitVisitor$u20$as$u20$serde..de..Visitor$GT$9expecting17h5bb39d74107075f1E","ax",@progbits
	.globl	_ZN68_$LT$serde..de..impls..UnitVisitor$u20$as$u20$serde..de..Visitor$GT$9expecting17h5bb39d74107075f1E
	.p2align	1
	.type	_ZN68_$LT$serde..de..impls..UnitVisitor$u20$as$u20$serde..de..Visitor$GT$9expecting17h5bb39d74107075f1E,@function
_ZN68_$LT$serde..de..impls..UnitVisitor$u20$as$u20$serde..de..Visitor$GT$9expecting17h5bb39d74107075f1E:
.Lfunc_begin12:
	.cfi_startproc
	.loc	1 21 9 prologue_end
	lui	a0, %hi(.L__unnamed_11)
.Ltmp75:
	addi	a3, a0, %lo(.L__unnamed_11)
	li	a2, 4
	mv	a0, a1
.Ltmp76:
	mv	a1, a3
	tail	_ZN4core3fmt9Formatter9write_str17h7b224d3eb3847887E
.Ltmp77:
.Lfunc_end12:
	.size	_ZN68_$LT$serde..de..impls..UnitVisitor$u20$as$u20$serde..de..Visitor$GT$9expecting17h5bb39d74107075f1E, .Lfunc_end12-_ZN68_$LT$serde..de..impls..UnitVisitor$u20$as$u20$serde..de..Visitor$GT$9expecting17h5bb39d74107075f1E
	.cfi_endproc

	.section	".text._ZN68_$LT$serde..de..impls..BoolVisitor$u20$as$u20$serde..de..Visitor$GT$9expecting17h85f2b71f0bcfd159E","ax",@progbits
	.globl	_ZN68_$LT$serde..de..impls..BoolVisitor$u20$as$u20$serde..de..Visitor$GT$9expecting17h85f2b71f0bcfd159E
	.p2align	1
	.type	_ZN68_$LT$serde..de..impls..BoolVisitor$u20$as$u20$serde..de..Visitor$GT$9expecting17h85f2b71f0bcfd159E,@function
_ZN68_$LT$serde..de..impls..BoolVisitor$u20$as$u20$serde..de..Visitor$GT$9expecting17h85f2b71f0bcfd159E:
.Lfunc_begin13:
	.cfi_startproc
	.loc	1 60 9 prologue_end
	lui	a0, %hi(.L__unnamed_12)
.Ltmp78:
	addi	a3, a0, %lo(.L__unnamed_12)
	li	a2, 9
	mv	a0, a1
.Ltmp79:
	mv	a1, a3
	tail	_ZN4core3fmt9Formatter9write_str17h7b224d3eb3847887E
.Ltmp80:
.Lfunc_end13:
	.size	_ZN68_$LT$serde..de..impls..BoolVisitor$u20$as$u20$serde..de..Visitor$GT$9expecting17h85f2b71f0bcfd159E, .Lfunc_end13-_ZN68_$LT$serde..de..impls..BoolVisitor$u20$as$u20$serde..de..Visitor$GT$9expecting17h85f2b71f0bcfd159E
	.cfi_endproc

	.section	".text._ZN68_$LT$serde..de..impls..CharVisitor$u20$as$u20$serde..de..Visitor$GT$9expecting17h0781a53cb1ec64d3E","ax",@progbits
	.globl	_ZN68_$LT$serde..de..impls..CharVisitor$u20$as$u20$serde..de..Visitor$GT$9expecting17h0781a53cb1ec64d3E
	.p2align	1
	.type	_ZN68_$LT$serde..de..impls..CharVisitor$u20$as$u20$serde..de..Visitor$GT$9expecting17h0781a53cb1ec64d3E,@function
_ZN68_$LT$serde..de..impls..CharVisitor$u20$as$u20$serde..de..Visitor$GT$9expecting17h0781a53cb1ec64d3E:
.Lfunc_begin14:
	.cfi_startproc
	.loc	1 554 9 prologue_end
	lui	a0, %hi(.L__unnamed_13)
.Ltmp81:
	addi	a3, a0, %lo(.L__unnamed_13)
	li	a2, 11
	mv	a0, a1
.Ltmp82:
	mv	a1, a3
	tail	_ZN4core3fmt9Formatter9write_str17h7b224d3eb3847887E
.Ltmp83:
.Lfunc_end14:
	.size	_ZN68_$LT$serde..de..impls..CharVisitor$u20$as$u20$serde..de..Visitor$GT$9expecting17h0781a53cb1ec64d3E, .Lfunc_end14-_ZN68_$LT$serde..de..impls..CharVisitor$u20$as$u20$serde..de..Visitor$GT$9expecting17h0781a53cb1ec64d3E
	.cfi_endproc

	.section	".text._ZN70_$LT$serde..de..impls..StringVisitor$u20$as$u20$serde..de..Visitor$GT$9expecting17h24acefa1da42bf3cE","ax",@progbits
	.globl	_ZN70_$LT$serde..de..impls..StringVisitor$u20$as$u20$serde..de..Visitor$GT$9expecting17h24acefa1da42bf3cE
	.p2align	1
	.type	_ZN70_$LT$serde..de..impls..StringVisitor$u20$as$u20$serde..de..Visitor$GT$9expecting17h24acefa1da42bf3cE,@function
_ZN70_$LT$serde..de..impls..StringVisitor$u20$as$u20$serde..de..Visitor$GT$9expecting17h24acefa1da42bf3cE:
.Lfunc_begin15:
	.cfi_startproc
	.loc	1 600 9 prologue_end
	lui	a0, %hi(.L__unnamed_14)
.Ltmp84:
	addi	a3, a0, %lo(.L__unnamed_14)
	li	a2, 8
	mv	a0, a1
.Ltmp85:
	mv	a1, a3
	tail	_ZN4core3fmt9Formatter9write_str17h7b224d3eb3847887E
.Ltmp86:
.Lfunc_end15:
	.size	_ZN70_$LT$serde..de..impls..StringVisitor$u20$as$u20$serde..de..Visitor$GT$9expecting17h24acefa1da42bf3cE, .Lfunc_end15-_ZN70_$LT$serde..de..impls..StringVisitor$u20$as$u20$serde..de..Visitor$GT$9expecting17h24acefa1da42bf3cE
	.cfi_endproc

	.section	".text._ZN77_$LT$serde..de..impls..StringInPlaceVisitor$u20$as$u20$serde..de..Visitor$GT$9expecting17hb9b35ca6da1b44e8E","ax",@progbits
	.globl	_ZN77_$LT$serde..de..impls..StringInPlaceVisitor$u20$as$u20$serde..de..Visitor$GT$9expecting17hb9b35ca6da1b44e8E
	.p2align	1
	.type	_ZN77_$LT$serde..de..impls..StringInPlaceVisitor$u20$as$u20$serde..de..Visitor$GT$9expecting17hb9b35ca6da1b44e8E,@function
_ZN77_$LT$serde..de..impls..StringInPlaceVisitor$u20$as$u20$serde..de..Visitor$GT$9expecting17hb9b35ca6da1b44e8E:
.Lfunc_begin16:
	.cfi_startproc
	.loc	1 646 9 prologue_end
	lui	a0, %hi(.L__unnamed_14)
.Ltmp87:
	addi	a3, a0, %lo(.L__unnamed_14)
	li	a2, 8
	mv	a0, a1
.Ltmp88:
	mv	a1, a3
	tail	_ZN4core3fmt9Formatter9write_str17h7b224d3eb3847887E
.Ltmp89:
.Lfunc_end16:
	.size	_ZN77_$LT$serde..de..impls..StringInPlaceVisitor$u20$as$u20$serde..de..Visitor$GT$9expecting17hb9b35ca6da1b44e8E, .Lfunc_end16-_ZN77_$LT$serde..de..impls..StringInPlaceVisitor$u20$as$u20$serde..de..Visitor$GT$9expecting17hb9b35ca6da1b44e8E
	.cfi_endproc

	.section	".text._ZN67_$LT$serde..de..impls..StrVisitor$u20$as$u20$serde..de..Visitor$GT$9expecting17h2533761b30e409daE","ax",@progbits
	.globl	_ZN67_$LT$serde..de..impls..StrVisitor$u20$as$u20$serde..de..Visitor$GT$9expecting17h2533761b30e409daE
	.p2align	1
	.type	_ZN67_$LT$serde..de..impls..StrVisitor$u20$as$u20$serde..de..Visitor$GT$9expecting17h2533761b30e409daE,@function
_ZN67_$LT$serde..de..impls..StrVisitor$u20$as$u20$serde..de..Visitor$GT$9expecting17h2533761b30e409daE:
.Lfunc_begin17:
	.cfi_startproc
	.loc	1 723 9 prologue_end
	lui	a0, %hi(.L__unnamed_15)
.Ltmp90:
	addi	a3, a0, %lo(.L__unnamed_15)
	li	a2, 17
	mv	a0, a1
.Ltmp91:
	mv	a1, a3
	tail	_ZN4core3fmt9Formatter9write_str17h7b224d3eb3847887E
.Ltmp92:
.Lfunc_end17:
	.size	_ZN67_$LT$serde..de..impls..StrVisitor$u20$as$u20$serde..de..Visitor$GT$9expecting17h2533761b30e409daE, .Lfunc_end17-_ZN67_$LT$serde..de..impls..StrVisitor$u20$as$u20$serde..de..Visitor$GT$9expecting17h2533761b30e409daE
	.cfi_endproc

	.section	".text._ZN69_$LT$serde..de..impls..BytesVisitor$u20$as$u20$serde..de..Visitor$GT$9expecting17h57c7ce774cff599dE","ax",@progbits
	.globl	_ZN69_$LT$serde..de..impls..BytesVisitor$u20$as$u20$serde..de..Visitor$GT$9expecting17h57c7ce774cff599dE
	.p2align	1
	.type	_ZN69_$LT$serde..de..impls..BytesVisitor$u20$as$u20$serde..de..Visitor$GT$9expecting17h57c7ce774cff599dE,@function
_ZN69_$LT$serde..de..impls..BytesVisitor$u20$as$u20$serde..de..Visitor$GT$9expecting17h57c7ce774cff599dE:
.Lfunc_begin18:
	.cfi_startproc
	.loc	1 758 9 prologue_end
	lui	a0, %hi(.L__unnamed_16)
.Ltmp93:
	addi	a3, a0, %lo(.L__unnamed_16)
	li	a2, 21
	mv	a0, a1
.Ltmp94:
	mv	a1, a3
	tail	_ZN4core3fmt9Formatter9write_str17h7b224d3eb3847887E
.Ltmp95:
.Lfunc_end18:
	.size	_ZN69_$LT$serde..de..impls..BytesVisitor$u20$as$u20$serde..de..Visitor$GT$9expecting17h57c7ce774cff599dE, .Lfunc_end18-_ZN69_$LT$serde..de..impls..BytesVisitor$u20$as$u20$serde..de..Visitor$GT$9expecting17h57c7ce774cff599dE
	.cfi_endproc

	.section	".text._ZN71_$LT$serde..de..impls..CStringVisitor$u20$as$u20$serde..de..Visitor$GT$9expecting17h5431a7010b38969cE","ax",@progbits
	.globl	_ZN71_$LT$serde..de..impls..CStringVisitor$u20$as$u20$serde..de..Visitor$GT$9expecting17h5431a7010b38969cE
	.p2align	1
	.type	_ZN71_$LT$serde..de..impls..CStringVisitor$u20$as$u20$serde..de..Visitor$GT$9expecting17h5431a7010b38969cE,@function
_ZN71_$LT$serde..de..impls..CStringVisitor$u20$as$u20$serde..de..Visitor$GT$9expecting17h5431a7010b38969cE:
.Lfunc_begin19:
	.cfi_startproc
	.loc	1 795 9 prologue_end
	lui	a0, %hi(.L__unnamed_17)
.Ltmp96:
	addi	a3, a0, %lo(.L__unnamed_17)
	li	a2, 10
	mv	a0, a1
.Ltmp97:
	mv	a1, a3
	tail	_ZN4core3fmt9Formatter9write_str17h7b224d3eb3847887E
.Ltmp98:
.Lfunc_end19:
	.size	_ZN71_$LT$serde..de..impls..CStringVisitor$u20$as$u20$serde..de..Visitor$GT$9expecting17h5431a7010b38969cE, .Lfunc_end19-_ZN71_$LT$serde..de..impls..CStringVisitor$u20$as$u20$serde..de..Visitor$GT$9expecting17h5431a7010b38969cE
	.cfi_endproc

	.section	".text._ZN218_$LT$$LT$serde..de..impls..$LT$impl$u20$serde..de..Deserialize$u20$for$u20$core..time..Duration$GT$..deserialize..Field$u20$as$u20$serde..de..Deserialize$GT$..deserialize..FieldVisitor$u20$as$u20$serde..de..Visitor$GT$9expecting17h77c339fe0d2bde32E","ax",@progbits
	.globl	_ZN218_$LT$$LT$serde..de..impls..$LT$impl$u20$serde..de..Deserialize$u20$for$u20$core..time..Duration$GT$..deserialize..Field$u20$as$u20$serde..de..Deserialize$GT$..deserialize..FieldVisitor$u20$as$u20$serde..de..Visitor$GT$9expecting17h77c339fe0d2bde32E
	.p2align	1
	.type	_ZN218_$LT$$LT$serde..de..impls..$LT$impl$u20$serde..de..Deserialize$u20$for$u20$core..time..Duration$GT$..deserialize..Field$u20$as$u20$serde..de..Deserialize$GT$..deserialize..FieldVisitor$u20$as$u20$serde..de..Visitor$GT$9expecting17h77c339fe0d2bde32E,@function
_ZN218_$LT$$LT$serde..de..impls..$LT$impl$u20$serde..de..Deserialize$u20$for$u20$core..time..Duration$GT$..deserialize..Field$u20$as$u20$serde..de..Deserialize$GT$..deserialize..FieldVisitor$u20$as$u20$serde..de..Visitor$GT$9expecting17h77c339fe0d2bde32E:
.Lfunc_begin20:
	.cfi_startproc
	.loc	1 2179 25 prologue_end
	lui	a0, %hi(.L__unnamed_18)
.Ltmp99:
	addi	a3, a0, %lo(.L__unnamed_18)
	li	a2, 17
	mv	a0, a1
.Ltmp100:
	mv	a1, a3
	tail	_ZN4core3fmt9Formatter9write_str17h7b224d3eb3847887E
.Ltmp101:
.Lfunc_end20:
	.size	_ZN218_$LT$$LT$serde..de..impls..$LT$impl$u20$serde..de..Deserialize$u20$for$u20$core..time..Duration$GT$..deserialize..Field$u20$as$u20$serde..de..Deserialize$GT$..deserialize..FieldVisitor$u20$as$u20$serde..de..Visitor$GT$9expecting17h77c339fe0d2bde32E, .Lfunc_end20-_ZN218_$LT$$LT$serde..de..impls..$LT$impl$u20$serde..de..Deserialize$u20$for$u20$core..time..Duration$GT$..deserialize..Field$u20$as$u20$serde..de..Deserialize$GT$..deserialize..FieldVisitor$u20$as$u20$serde..de..Visitor$GT$9expecting17h77c339fe0d2bde32E
	.cfi_endproc

	.section	".text._ZN159_$LT$serde..de..impls..$LT$impl$u20$serde..de..Deserialize$u20$for$u20$core..time..Duration$GT$..deserialize..DurationVisitor$u20$as$u20$serde..de..Visitor$GT$9expecting17h418c5ed8b98632fdE","ax",@progbits
	.globl	_ZN159_$LT$serde..de..impls..$LT$impl$u20$serde..de..Deserialize$u20$for$u20$core..time..Duration$GT$..deserialize..DurationVisitor$u20$as$u20$serde..de..Visitor$GT$9expecting17h418c5ed8b98632fdE
	.p2align	1
	.type	_ZN159_$LT$serde..de..impls..$LT$impl$u20$serde..de..Deserialize$u20$for$u20$core..time..Duration$GT$..deserialize..DurationVisitor$u20$as$u20$serde..de..Visitor$GT$9expecting17h418c5ed8b98632fdE,@function
_ZN159_$LT$serde..de..impls..$LT$impl$u20$serde..de..Deserialize$u20$for$u20$core..time..Duration$GT$..deserialize..DurationVisitor$u20$as$u20$serde..de..Visitor$GT$9expecting17h418c5ed8b98632fdE:
.Lfunc_begin21:
	.cfi_startproc
	.loc	1 2229 17 prologue_end
	lui	a0, %hi(.L__unnamed_19)
.Ltmp102:
	addi	a3, a0, %lo(.L__unnamed_19)
	li	a2, 15
	mv	a0, a1
.Ltmp103:
	mv	a1, a3
	tail	_ZN4core3fmt9Formatter9write_str17h7b224d3eb3847887E
.Ltmp104:
.Lfunc_end21:
	.size	_ZN159_$LT$serde..de..impls..$LT$impl$u20$serde..de..Deserialize$u20$for$u20$core..time..Duration$GT$..deserialize..DurationVisitor$u20$as$u20$serde..de..Visitor$GT$9expecting17h418c5ed8b98632fdE, .Lfunc_end21-_ZN159_$LT$serde..de..impls..$LT$impl$u20$serde..de..Deserialize$u20$for$u20$core..time..Duration$GT$..deserialize..DurationVisitor$u20$as$u20$serde..de..Visitor$GT$9expecting17h418c5ed8b98632fdE
	.cfi_endproc

	.section	".text._ZN138_$LT$$LT$serde..de..impls..range..Field$u20$as$u20$serde..de..Deserialize$GT$..deserialize..FieldVisitor$u20$as$u20$serde..de..Visitor$GT$9expecting17h5591a6332d22cd74E","ax",@progbits
	.globl	_ZN138_$LT$$LT$serde..de..impls..range..Field$u20$as$u20$serde..de..Deserialize$GT$..deserialize..FieldVisitor$u20$as$u20$serde..de..Visitor$GT$9expecting17h5591a6332d22cd74E
	.p2align	1
	.type	_ZN138_$LT$$LT$serde..de..impls..range..Field$u20$as$u20$serde..de..Deserialize$GT$..deserialize..FieldVisitor$u20$as$u20$serde..de..Visitor$GT$9expecting17h5591a6332d22cd74E,@function
_ZN138_$LT$$LT$serde..de..impls..range..Field$u20$as$u20$serde..de..Deserialize$GT$..deserialize..FieldVisitor$u20$as$u20$serde..de..Visitor$GT$9expecting17h5591a6332d22cd74E:
.Lfunc_begin22:
	.cfi_startproc
	.loc	1 2519 21 prologue_end
	lui	a0, %hi(.L__unnamed_20)
.Ltmp105:
	addi	a3, a0, %lo(.L__unnamed_20)
	li	a2, 16
	mv	a0, a1
.Ltmp106:
	mv	a1, a3
	tail	_ZN4core3fmt9Formatter9write_str17h7b224d3eb3847887E
.Ltmp107:
.Lfunc_end22:
	.size	_ZN138_$LT$$LT$serde..de..impls..range..Field$u20$as$u20$serde..de..Deserialize$GT$..deserialize..FieldVisitor$u20$as$u20$serde..de..Visitor$GT$9expecting17h5591a6332d22cd74E, .Lfunc_end22-_ZN138_$LT$$LT$serde..de..impls..range..Field$u20$as$u20$serde..de..Deserialize$GT$..deserialize..FieldVisitor$u20$as$u20$serde..de..Visitor$GT$9expecting17h5591a6332d22cd74E
	.cfi_endproc

	.section	".text._ZN143_$LT$$LT$serde..de..impls..range_from..Field$u20$as$u20$serde..de..Deserialize$GT$..deserialize..FieldVisitor$u20$as$u20$serde..de..Visitor$GT$9expecting17h7b31036a5bcb901fE","ax",@progbits
	.globl	_ZN143_$LT$$LT$serde..de..impls..range_from..Field$u20$as$u20$serde..de..Deserialize$GT$..deserialize..FieldVisitor$u20$as$u20$serde..de..Visitor$GT$9expecting17h7b31036a5bcb901fE
	.p2align	1
	.type	_ZN143_$LT$$LT$serde..de..impls..range_from..Field$u20$as$u20$serde..de..Deserialize$GT$..deserialize..FieldVisitor$u20$as$u20$serde..de..Visitor$GT$9expecting17h7b31036a5bcb901fE,@function
_ZN143_$LT$$LT$serde..de..impls..range_from..Field$u20$as$u20$serde..de..Deserialize$GT$..deserialize..FieldVisitor$u20$as$u20$serde..de..Visitor$GT$9expecting17h7b31036a5bcb901fE:
.Lfunc_begin23:
	.cfi_startproc
	.loc	1 2676 21 prologue_end
	lui	a0, %hi(.L__unnamed_21)
.Ltmp108:
	addi	a3, a0, %lo(.L__unnamed_21)
	li	a2, 7
	mv	a0, a1
.Ltmp109:
	mv	a1, a3
	tail	_ZN4core3fmt9Formatter9write_str17h7b224d3eb3847887E
.Ltmp110:
.Lfunc_end23:
	.size	_ZN143_$LT$$LT$serde..de..impls..range_from..Field$u20$as$u20$serde..de..Deserialize$GT$..deserialize..FieldVisitor$u20$as$u20$serde..de..Visitor$GT$9expecting17h7b31036a5bcb901fE, .Lfunc_end23-_ZN143_$LT$$LT$serde..de..impls..range_from..Field$u20$as$u20$serde..de..Deserialize$GT$..deserialize..FieldVisitor$u20$as$u20$serde..de..Visitor$GT$9expecting17h7b31036a5bcb901fE
	.cfi_endproc

	.section	".text._ZN141_$LT$$LT$serde..de..impls..range_to..Field$u20$as$u20$serde..de..Deserialize$GT$..deserialize..FieldVisitor$u20$as$u20$serde..de..Visitor$GT$9expecting17hf35c9d81d1132a12E","ax",@progbits
	.globl	_ZN141_$LT$$LT$serde..de..impls..range_to..Field$u20$as$u20$serde..de..Deserialize$GT$..deserialize..FieldVisitor$u20$as$u20$serde..de..Visitor$GT$9expecting17hf35c9d81d1132a12E
	.p2align	1
	.type	_ZN141_$LT$$LT$serde..de..impls..range_to..Field$u20$as$u20$serde..de..Deserialize$GT$..deserialize..FieldVisitor$u20$as$u20$serde..de..Visitor$GT$9expecting17hf35c9d81d1132a12E,@function
_ZN141_$LT$$LT$serde..de..impls..range_to..Field$u20$as$u20$serde..de..Deserialize$GT$..deserialize..FieldVisitor$u20$as$u20$serde..de..Visitor$GT$9expecting17hf35c9d81d1132a12E:
.Lfunc_begin24:
	.cfi_startproc
	.loc	1 2814 21 prologue_end
	lui	a0, %hi(.L__unnamed_22)
.Ltmp111:
	addi	a3, a0, %lo(.L__unnamed_22)
	li	a2, 5
	mv	a0, a1
.Ltmp112:
	mv	a1, a3
	tail	_ZN4core3fmt9Formatter9write_str17h7b224d3eb3847887E
.Ltmp113:
.Lfunc_end24:
	.size	_ZN141_$LT$$LT$serde..de..impls..range_to..Field$u20$as$u20$serde..de..Deserialize$GT$..deserialize..FieldVisitor$u20$as$u20$serde..de..Visitor$GT$9expecting17hf35c9d81d1132a12E, .Lfunc_end24-_ZN141_$LT$$LT$serde..de..impls..range_to..Field$u20$as$u20$serde..de..Deserialize$GT$..deserialize..FieldVisitor$u20$as$u20$serde..de..Visitor$GT$9expecting17hf35c9d81d1132a12E
	.cfi_endproc

	.section	".text._ZN230_$LT$$LT$serde..de..impls..$LT$impl$u20$serde..de..Deserialize$u20$for$u20$core..ops..range..Bound$LT$T$GT$$GT$..deserialize..Field$u20$as$u20$serde..de..Deserialize$GT$..deserialize..FieldVisitor$u20$as$u20$serde..de..Visitor$GT$9expecting17hcbc27cf80ff9ef6dE","ax",@progbits
	.globl	_ZN230_$LT$$LT$serde..de..impls..$LT$impl$u20$serde..de..Deserialize$u20$for$u20$core..ops..range..Bound$LT$T$GT$$GT$..deserialize..Field$u20$as$u20$serde..de..Deserialize$GT$..deserialize..FieldVisitor$u20$as$u20$serde..de..Visitor$GT$9expecting17hcbc27cf80ff9ef6dE
	.p2align	1
	.type	_ZN230_$LT$$LT$serde..de..impls..$LT$impl$u20$serde..de..Deserialize$u20$for$u20$core..ops..range..Bound$LT$T$GT$$GT$..deserialize..Field$u20$as$u20$serde..de..Deserialize$GT$..deserialize..FieldVisitor$u20$as$u20$serde..de..Visitor$GT$9expecting17hcbc27cf80ff9ef6dE,@function
_ZN230_$LT$$LT$serde..de..impls..$LT$impl$u20$serde..de..Deserialize$u20$for$u20$core..ops..range..Bound$LT$T$GT$$GT$..deserialize..Field$u20$as$u20$serde..de..Deserialize$GT$..deserialize..FieldVisitor$u20$as$u20$serde..de..Visitor$GT$9expecting17hcbc27cf80ff9ef6dE:
.Lfunc_begin25:
	.cfi_startproc
	.loc	1 2925 25 prologue_end
	lui	a0, %hi(.L__unnamed_23)
.Ltmp114:
	addi	a3, a0, %lo(.L__unnamed_23)
	li	a2, 37
	mv	a0, a1
.Ltmp115:
	mv	a1, a3
	tail	_ZN4core3fmt9Formatter9write_str17h7b224d3eb3847887E
.Ltmp116:
.Lfunc_end25:
	.size	_ZN230_$LT$$LT$serde..de..impls..$LT$impl$u20$serde..de..Deserialize$u20$for$u20$core..ops..range..Bound$LT$T$GT$$GT$..deserialize..Field$u20$as$u20$serde..de..Deserialize$GT$..deserialize..FieldVisitor$u20$as$u20$serde..de..Visitor$GT$9expecting17hcbc27cf80ff9ef6dE, .Lfunc_end25-_ZN230_$LT$$LT$serde..de..impls..$LT$impl$u20$serde..de..Deserialize$u20$for$u20$core..ops..range..Bound$LT$T$GT$$GT$..deserialize..Field$u20$as$u20$serde..de..Deserialize$GT$..deserialize..FieldVisitor$u20$as$u20$serde..de..Visitor$GT$9expecting17hcbc27cf80ff9ef6dE
	.cfi_endproc

	.section	".text._ZN231_$LT$$LT$serde..de..impls..$LT$impl$u20$serde..de..Deserialize$u20$for$u20$core..result..Result$LT$T$C$E$GT$$GT$..deserialize..Field$u20$as$u20$serde..de..Deserialize$GT$..deserialize..FieldVisitor$u20$as$u20$serde..de..Visitor$GT$9expecting17hf87a5e9c4c1d8f10E","ax",@progbits
	.globl	_ZN231_$LT$$LT$serde..de..impls..$LT$impl$u20$serde..de..Deserialize$u20$for$u20$core..result..Result$LT$T$C$E$GT$$GT$..deserialize..Field$u20$as$u20$serde..de..Deserialize$GT$..deserialize..FieldVisitor$u20$as$u20$serde..de..Visitor$GT$9expecting17hf87a5e9c4c1d8f10E
	.p2align	1
	.type	_ZN231_$LT$$LT$serde..de..impls..$LT$impl$u20$serde..de..Deserialize$u20$for$u20$core..result..Result$LT$T$C$E$GT$$GT$..deserialize..Field$u20$as$u20$serde..de..Deserialize$GT$..deserialize..FieldVisitor$u20$as$u20$serde..de..Visitor$GT$9expecting17hf87a5e9c4c1d8f10E,@function
_ZN231_$LT$$LT$serde..de..impls..$LT$impl$u20$serde..de..Deserialize$u20$for$u20$core..result..Result$LT$T$C$E$GT$$GT$..deserialize..Field$u20$as$u20$serde..de..Deserialize$GT$..deserialize..FieldVisitor$u20$as$u20$serde..de..Visitor$GT$9expecting17hf87a5e9c4c1d8f10E:
.Lfunc_begin26:
	.cfi_startproc
	.loc	1 3036 25 prologue_end
	lui	a0, %hi(.L__unnamed_24)
.Ltmp117:
	addi	a3, a0, %lo(.L__unnamed_24)
	li	a2, 13
	mv	a0, a1
.Ltmp118:
	mv	a1, a3
	tail	_ZN4core3fmt9Formatter9write_str17h7b224d3eb3847887E
.Ltmp119:
.Lfunc_end26:
	.size	_ZN231_$LT$$LT$serde..de..impls..$LT$impl$u20$serde..de..Deserialize$u20$for$u20$core..result..Result$LT$T$C$E$GT$$GT$..deserialize..Field$u20$as$u20$serde..de..Deserialize$GT$..deserialize..FieldVisitor$u20$as$u20$serde..de..Visitor$GT$9expecting17hf87a5e9c4c1d8f10E, .Lfunc_end26-_ZN231_$LT$$LT$serde..de..impls..$LT$impl$u20$serde..de..Deserialize$u20$for$u20$core..result..Result$LT$T$C$E$GT$$GT$..deserialize..Field$u20$as$u20$serde..de..Deserialize$GT$..deserialize..FieldVisitor$u20$as$u20$serde..de..Visitor$GT$9expecting17hf87a5e9c4c1d8f10E
	.cfi_endproc

	.section	".text._ZN60_$LT$serde..de..Unexpected$u20$as$u20$core..fmt..Display$GT$3fmt17h8deee91cd8ac004bE","ax",@progbits
	.globl	_ZN60_$LT$serde..de..Unexpected$u20$as$u20$core..fmt..Display$GT$3fmt17h8deee91cd8ac004bE
	.p2align	1
	.type	_ZN60_$LT$serde..de..Unexpected$u20$as$u20$core..fmt..Display$GT$3fmt17h8deee91cd8ac004bE,@function
_ZN60_$LT$serde..de..Unexpected$u20$as$u20$core..fmt..Display$GT$3fmt17h8deee91cd8ac004bE:
.Lfunc_begin27:
	.file	13 "/Users/steve/.cargo/registry/src/index.crates.io-6f17d22bba15001f/serde-1.0.205" "src/de/mod.rs"
	.loc	13 399 0
	.cfi_startproc
	addi	sp, sp, -48
	.cfi_def_cfa_offset 48
	sw	ra, 44(sp)
	.cfi_offset ra, -4
	mv	a2, a0
.Ltmp120:
	.loc	13 401 15 prologue_end
	lbu	a0, 0(a0)
	slli	a0, a0, 2
	lui	a3, %hi(.LJTI27_0)
	addi	a3, a3, %lo(.LJTI27_0)
	add	a0, a0, a3
	lw	a3, 0(a0)
	mv	a0, a1
.Ltmp121:
	.loc	13 0 15 is_stmt 0
	jr	a3
.Ltmp122:
.LBB27_1:
	.loc	13 402 18 is_stmt 1
	lbu	a1, 1(a2)
	sb	a1, 0(sp)
	mv	a1, sp
.Ltmp123:
	.loc	13 402 24 is_stmt 0
	sw	a1, 32(sp)
	lui	a1, %hi(_ZN43_$LT$bool$u20$as$u20$core..fmt..Display$GT$3fmt17had5858ced759083cE)
	addi	a1, a1, %lo(_ZN43_$LT$bool$u20$as$u20$core..fmt..Display$GT$3fmt17had5858ced759083cE)
	sw	a1, 36(sp)
.Ltmp124:
	.loc	2 335 9 is_stmt 1
	lui	a1, %hi(.L__unnamed_25)
	addi	a1, a1, %lo(.L__unnamed_25)
.Ltmp125:
	.loc	2 0 9 is_stmt 0
	j	.LBB27_7
.Ltmp126:
.LBB27_2:
	.loc	13 403 22 is_stmt 1
	lw	a1, 8(a2)
	lw	a2, 12(a2)
.Ltmp127:
	sw	a1, 0(sp)
	sw	a2, 4(sp)
	mv	a1, sp
.Ltmp128:
	.loc	13 403 28 is_stmt 0
	sw	a1, 32(sp)
	lui	a1, %hi(_ZN4core3fmt3num3imp52_$LT$impl$u20$core..fmt..Display$u20$for$u20$u64$GT$3fmt17hfc27a333fe3549efE)
	addi	a1, a1, %lo(_ZN4core3fmt3num3imp52_$LT$impl$u20$core..fmt..Display$u20$for$u20$u64$GT$3fmt17hfc27a333fe3549efE)
	j	.LBB27_4
.Ltmp129:
.LBB27_3:
	.loc	13 404 20 is_stmt 1
	lw	a1, 8(a2)
	lw	a2, 12(a2)
.Ltmp130:
	sw	a1, 0(sp)
	sw	a2, 4(sp)
	mv	a1, sp
.Ltmp131:
	.loc	13 404 26 is_stmt 0
	sw	a1, 32(sp)
	lui	a1, %hi(_ZN4core3fmt3num3imp52_$LT$impl$u20$core..fmt..Display$u20$for$u20$i64$GT$3fmt17h2d924245d5536264E)
	addi	a1, a1, %lo(_ZN4core3fmt3num3imp52_$LT$impl$u20$core..fmt..Display$u20$for$u20$i64$GT$3fmt17h2d924245d5536264E)
.Ltmp132:
.LBB27_4:
	.loc	13 0 0
	sw	a1, 36(sp)
.Ltmp133:
	.loc	2 335 9 is_stmt 1
	lui	a1, %hi(.L__unnamed_26)
	addi	a1, a1, %lo(.L__unnamed_26)
.Ltmp134:
	.loc	2 0 9 is_stmt 0
	j	.LBB27_7
.Ltmp135:
.LBB27_5:
	.loc	13 405 19 is_stmt 1
	lw	a1, 12(a2)
.Ltmp136:
	lw	a2, 8(a2)
.Ltmp137:
	.loc	13 405 66 is_stmt 0
	sw	a1, 36(sp)
	sw	a2, 32(sp)
	addi	a1, sp, 32
	.loc	13 405 25
	sw	a1, 0(sp)
	lui	a1, %hi(_ZN66_$LT$serde..de..WithDecimalPoint$u20$as$u20$core..fmt..Display$GT$3fmt17hdb9a90141f8c173cE)
	addi	a1, a1, %lo(_ZN66_$LT$serde..de..WithDecimalPoint$u20$as$u20$core..fmt..Display$GT$3fmt17hdb9a90141f8c173cE)
	sw	a1, 4(sp)
.Ltmp138:
	.loc	2 335 9 is_stmt 1
	lui	a1, %hi(.L__unnamed_27)
	addi	a1, a1, %lo(.L__unnamed_27)
.Ltmp139:
	sw	a1, 8(sp)
	li	a1, 2
.Ltmp140:
	sw	a1, 12(sp)
	sw	zero, 24(sp)
	mv	a1, sp
	j	.LBB27_8
.Ltmp141:
.LBB27_6:
	.loc	13 406 18
	lw	a1, 4(a2)
	sw	a1, 0(sp)
	mv	a1, sp
.Ltmp142:
	.loc	13 406 24 is_stmt 0
	sw	a1, 32(sp)
	lui	a1, %hi(_ZN43_$LT$char$u20$as$u20$core..fmt..Display$GT$3fmt17h6a6e24a54884d804E)
	addi	a1, a1, %lo(_ZN43_$LT$char$u20$as$u20$core..fmt..Display$GT$3fmt17h6a6e24a54884d804E)
	sw	a1, 36(sp)
.Ltmp143:
	.loc	2 335 9 is_stmt 1
	lui	a1, %hi(.L__unnamed_28)
	addi	a1, a1, %lo(.L__unnamed_28)
.Ltmp144:
.LBB27_7:
	.loc	2 335 9 is_stmt 0
	sw	a1, 8(sp)
	li	a1, 2
	sw	a1, 12(sp)
	sw	zero, 24(sp)
	addi	a1, sp, 32
.Ltmp145:
.LBB27_8:
	sw	a1, 16(sp)
	li	a1, 1
.Ltmp146:
.LBB27_9:
	sw	a1, 20(sp)
.Ltmp147:
	.loc	13 0 0
	addi	a1, sp, 8
	call	_ZN4core3fmt9Formatter9write_fmt17hf1a4b1e0be961690E
.Ltmp148:
	.loc	13 421 6 is_stmt 1
	lw	ra, 44(sp)
	.loc	13 421 6 epilogue_begin is_stmt 0
	addi	sp, sp, 48
	ret
.LBB27_10:
.Ltmp149:
	.loc	13 407 17 is_stmt 1
	lw	a1, 4(a2)
	lw	a2, 8(a2)
.Ltmp150:
	sw	a1, 0(sp)
	sw	a2, 4(sp)
	mv	a1, sp
.Ltmp151:
	.loc	13 407 23 is_stmt 0
	sw	a1, 32(sp)
	lui	a1, %hi(_ZN42_$LT$$RF$T$u20$as$u20$core..fmt..Debug$GT$3fmt17h05789b1e5d7153a8E)
	addi	a1, a1, %lo(_ZN42_$LT$$RF$T$u20$as$u20$core..fmt..Debug$GT$3fmt17h05789b1e5d7153a8E)
	sw	a1, 36(sp)
.Ltmp152:
	.loc	2 335 9 is_stmt 1
	lui	a1, %hi(.L__unnamed_29)
	addi	a1, a1, %lo(.L__unnamed_29)
.Ltmp153:
	sw	a1, 8(sp)
	li	a1, 1
.Ltmp154:
	sw	a1, 12(sp)
	sw	zero, 24(sp)
	addi	a2, sp, 32
	sw	a2, 16(sp)
	j	.LBB27_9
.Ltmp155:
.LBB27_11:
	.loc	13 408 25
	lui	a1, %hi(.L__unnamed_17)
	addi	a1, a1, %lo(.L__unnamed_17)
	.loc	13 0 0 is_stmt 0
	li	a2, 10
.Ltmp156:
	lw	ra, 44(sp)
	addi	sp, sp, 48
	tail	_ZN4core3fmt9Formatter9write_str17h7b224d3eb3847887E
.Ltmp157:
.LBB27_12:
	.loc	13 409 21 is_stmt 1
	lui	a1, %hi(.L__unnamed_30)
	addi	a1, a1, %lo(.L__unnamed_30)
	.loc	13 0 0 is_stmt 0
	li	a2, 10
.Ltmp158:
	lw	ra, 44(sp)
	addi	sp, sp, 48
	tail	_ZN4core3fmt9Formatter9write_str17h7b224d3eb3847887E
.Ltmp159:
.LBB27_13:
	.loc	13 410 23 is_stmt 1
	lui	a1, %hi(.L__unnamed_31)
	addi	a1, a1, %lo(.L__unnamed_31)
	.loc	13 0 0 is_stmt 0
	li	a2, 12
.Ltmp160:
	lw	ra, 44(sp)
	addi	sp, sp, 48
	tail	_ZN4core3fmt9Formatter9write_str17h7b224d3eb3847887E
.Ltmp161:
.LBB27_14:
	.loc	13 411 30 is_stmt 1
	lui	a1, %hi(.L__unnamed_32)
	addi	a1, a1, %lo(.L__unnamed_32)
	.loc	13 0 0 is_stmt 0
	li	a2, 14
.Ltmp162:
	lw	ra, 44(sp)
	addi	sp, sp, 48
	tail	_ZN4core3fmt9Formatter9write_str17h7b224d3eb3847887E
.Ltmp163:
.LBB27_15:
	.loc	13 412 20 is_stmt 1
	lui	a1, %hi(.L__unnamed_33)
	addi	a1, a1, %lo(.L__unnamed_33)
	li	a2, 8
.Ltmp164:
	.loc	13 0 0 is_stmt 0
	lw	ra, 44(sp)
	addi	sp, sp, 48
	tail	_ZN4core3fmt9Formatter9write_str17h7b224d3eb3847887E
.Ltmp165:
.LBB27_16:
	.loc	13 413 20 is_stmt 1
	lui	a1, %hi(.L__unnamed_34)
	addi	a1, a1, %lo(.L__unnamed_34)
	li	a2, 3
.Ltmp166:
	.loc	13 0 0 is_stmt 0
	lw	ra, 44(sp)
	addi	sp, sp, 48
	tail	_ZN4core3fmt9Formatter9write_str17h7b224d3eb3847887E
.Ltmp167:
.LBB27_17:
	.loc	13 414 21 is_stmt 1
	lui	a1, %hi(.L__unnamed_35)
	addi	a1, a1, %lo(.L__unnamed_35)
	li	a2, 4
.Ltmp168:
	.loc	13 0 0 is_stmt 0
	lw	ra, 44(sp)
	addi	sp, sp, 48
	tail	_ZN4core3fmt9Formatter9write_str17h7b224d3eb3847887E
.Ltmp169:
.LBB27_18:
	.loc	13 415 28 is_stmt 1
	lui	a1, %hi(.L__unnamed_36)
	addi	a1, a1, %lo(.L__unnamed_36)
	.loc	13 0 0 is_stmt 0
	li	a2, 12
.Ltmp170:
	lw	ra, 44(sp)
	addi	sp, sp, 48
	tail	_ZN4core3fmt9Formatter9write_str17h7b224d3eb3847887E
.Ltmp171:
.LBB27_19:
	.loc	13 416 31 is_stmt 1
	lui	a1, %hi(.L__unnamed_37)
	addi	a1, a1, %lo(.L__unnamed_37)
	li	a2, 15
.Ltmp172:
	.loc	13 0 0 is_stmt 0
	lw	ra, 44(sp)
	addi	sp, sp, 48
	tail	_ZN4core3fmt9Formatter9write_str17h7b224d3eb3847887E
.Ltmp173:
.LBB27_20:
	.loc	13 417 29 is_stmt 1
	lui	a1, %hi(.L__unnamed_38)
	addi	a1, a1, %lo(.L__unnamed_38)
	li	a2, 13
.Ltmp174:
	.loc	13 0 0 is_stmt 0
	lw	ra, 44(sp)
	addi	sp, sp, 48
	tail	_ZN4core3fmt9Formatter9write_str17h7b224d3eb3847887E
.Ltmp175:
.LBB27_21:
	.loc	13 418 30 is_stmt 1
	lui	a1, %hi(.L__unnamed_39)
	addi	a1, a1, %lo(.L__unnamed_39)
	.loc	13 0 0 is_stmt 0
	li	a2, 14
.Ltmp176:
	lw	ra, 44(sp)
	addi	sp, sp, 48
	tail	_ZN4core3fmt9Formatter9write_str17h7b224d3eb3847887E
.Ltmp177:
.LBB27_22:
	.loc	13 419 19 is_stmt 1
	lw	a1, 4(a2)
	lw	a2, 8(a2)
.Ltmp178:
	.loc	13 0 0 is_stmt 0
	lw	ra, 44(sp)
	addi	sp, sp, 48
	tail	_ZN4core3fmt9Formatter9write_str17h7b224d3eb3847887E
.Ltmp179:
.Lfunc_end27:
	.size	_ZN60_$LT$serde..de..Unexpected$u20$as$u20$core..fmt..Display$GT$3fmt17h8deee91cd8ac004bE, .Lfunc_end27-_ZN60_$LT$serde..de..Unexpected$u20$as$u20$core..fmt..Display$GT$3fmt17h8deee91cd8ac004bE
	.cfi_endproc
	.section	".rodata._ZN60_$LT$serde..de..Unexpected$u20$as$u20$core..fmt..Display$GT$3fmt17h8deee91cd8ac004bE","a",@progbits
	.p2align	2, 0x0
.LJTI27_0:
	.word	.LBB27_1
	.word	.LBB27_2
	.word	.LBB27_3
	.word	.LBB27_5
	.word	.LBB27_6
	.word	.LBB27_10
	.word	.LBB27_11
	.word	.LBB27_12
	.word	.LBB27_13
	.word	.LBB27_14
	.word	.LBB27_15
	.word	.LBB27_16
	.word	.LBB27_17
	.word	.LBB27_18
	.word	.LBB27_19
	.word	.LBB27_20
	.word	.LBB27_21
	.word	.LBB27_22

	.section	".text._ZN47_$LT$$RF$str$u20$as$u20$serde..de..Expected$GT$3fmt17hb015eb2bd3dd7dfeE","ax",@progbits
	.globl	_ZN47_$LT$$RF$str$u20$as$u20$serde..de..Expected$GT$3fmt17hb015eb2bd3dd7dfeE
	.p2align	1
	.type	_ZN47_$LT$$RF$str$u20$as$u20$serde..de..Expected$GT$3fmt17hb015eb2bd3dd7dfeE,@function
_ZN47_$LT$$RF$str$u20$as$u20$serde..de..Expected$GT$3fmt17hb015eb2bd3dd7dfeE:
.Lfunc_begin28:
	.cfi_startproc
	.loc	13 492 29 prologue_end is_stmt 1
	lw	a3, 0(a0)
	lw	a2, 4(a0)
	mv	a0, a1
.Ltmp180:
	.loc	13 492 9 is_stmt 0
	mv	a1, a3
	tail	_ZN4core3fmt9Formatter9write_str17h7b224d3eb3847887E
.Ltmp181:
.Lfunc_end28:
	.size	_ZN47_$LT$$RF$str$u20$as$u20$serde..de..Expected$GT$3fmt17hb015eb2bd3dd7dfeE, .Lfunc_end28-_ZN47_$LT$$RF$str$u20$as$u20$serde..de..Expected$GT$3fmt17hb015eb2bd3dd7dfeE
	.cfi_endproc

	.section	".text._ZN66_$LT$dyn$u20$serde..de..Expected$u20$as$u20$core..fmt..Display$GT$3fmt17hd47bf3d07d4cf468E","ax",@progbits
	.globl	_ZN66_$LT$dyn$u20$serde..de..Expected$u20$as$u20$core..fmt..Display$GT$3fmt17hd47bf3d07d4cf468E
	.p2align	1
	.type	_ZN66_$LT$dyn$u20$serde..de..Expected$u20$as$u20$core..fmt..Display$GT$3fmt17hd47bf3d07d4cf468E,@function
_ZN66_$LT$dyn$u20$serde..de..Expected$u20$as$u20$core..fmt..Display$GT$3fmt17hd47bf3d07d4cf468E:
.Lfunc_begin29:
	.cfi_startproc
	.loc	13 498 9 prologue_end is_stmt 1
	lw	a5, 12(a1)
	mv	a1, a2
.Ltmp182:
	jr	a5
.Ltmp183:
.Lfunc_end29:
	.size	_ZN66_$LT$dyn$u20$serde..de..Expected$u20$as$u20$core..fmt..Display$GT$3fmt17hd47bf3d07d4cf468E, .Lfunc_end29-_ZN66_$LT$dyn$u20$serde..de..Expected$u20$as$u20$core..fmt..Display$GT$3fmt17hd47bf3d07d4cf468E
	.cfi_endproc

	.section	".text._ZN55_$LT$serde..de..OneOf$u20$as$u20$core..fmt..Display$GT$3fmt17hf5b140d1263ff45cE","ax",@progbits
	.globl	_ZN55_$LT$serde..de..OneOf$u20$as$u20$core..fmt..Display$GT$3fmt17hf5b140d1263ff45cE
	.p2align	1
	.type	_ZN55_$LT$serde..de..OneOf$u20$as$u20$core..fmt..Display$GT$3fmt17hf5b140d1263ff45cE,@function
_ZN55_$LT$serde..de..OneOf$u20$as$u20$core..fmt..Display$GT$3fmt17hf5b140d1263ff45cE:
.Lfunc_begin30:
	.loc	13 2282 0
	.cfi_startproc
	addi	sp, sp, -96
	.cfi_def_cfa_offset 96
.Ltmp184:
	.loc	13 2283 15 prologue_end
	sw	ra, 92(sp)
	sw	s0, 88(sp)
	sw	s1, 84(sp)
	sw	s2, 80(sp)
	sw	s3, 76(sp)
	sw	s4, 72(sp)
	sw	s5, 68(sp)
	sw	s6, 64(sp)
	sw	s7, 60(sp)
	sw	s8, 56(sp)
	sw	s9, 52(sp)
	.cfi_offset ra, -4
	.cfi_offset s0, -8
	.cfi_offset s1, -12
	.cfi_offset s2, -16
	.cfi_offset s3, -20
	.cfi_offset s4, -24
	.cfi_offset s5, -28
	.cfi_offset s6, -32
	.cfi_offset s7, -36
	.cfi_offset s8, -40
	.cfi_offset s9, -44
	lw	s0, 4(a0)
.Ltmp185:
	lw	s1, 0(a0)
	li	a0, 1
.Ltmp186:
	.loc	13 0 15 is_stmt 0
	mv	s8, a1
.Ltmp187:
	.loc	13 2283 9
	beq	s0, a0, .LBB30_6
.Ltmp188:
	.loc	13 0 9
	li	a0, 2
	.loc	13 2283 9
	beq	s0, a0, .LBB30_7
.Ltmp189:
	beqz	s0, .LBB30_14
.Ltmp190:
	.loc	13 2288 22 is_stmt 1
	lui	a0, %hi(.L__unnamed_40)
	addi	a1, a0, %lo(.L__unnamed_40)
	li	a2, 7
	mv	a0, s8
	call	_ZN4core3fmt9Formatter9write_str17h7b224d3eb3847887E
	mv	a1, a0
	li	a0, 1
	.loc	13 2288 17 is_stmt 0
	bnez	a1, .LBB30_9
.Ltmp191:
	.loc	13 2289 25 is_stmt 1
	sw	s1, 24(sp)
	addi	s2, sp, 24
.Ltmp192:
	.loc	13 2293 26
	sw	s2, 8(sp)
	lui	a0, %hi(_ZN44_$LT$$RF$T$u20$as$u20$core..fmt..Display$GT$3fmt17haf3bd33e0725d546E)
	addi	s3, a0, %lo(_ZN44_$LT$$RF$T$u20$as$u20$core..fmt..Display$GT$3fmt17haf3bd33e0725d546E)
	sw	s3, 12(sp)
.Ltmp193:
	.loc	2 335 9
	lui	a0, %hi(.L__unnamed_41)
	addi	s4, a0, %lo(.L__unnamed_41)
.Ltmp194:
	sw	s4, 28(sp)
	li	s5, 2
	sw	s5, 32(sp)
	sw	zero, 44(sp)
	addi	s6, sp, 8
	sw	s6, 36(sp)
	li	s7, 1
	sw	s7, 40(sp)
.Ltmp195:
	.loc	13 2293 26
	addi	a1, sp, 28
	mv	a0, s8
	call	_ZN4core3fmt9Formatter9write_fmt17hf1a4b1e0be961690E
	beqz	a0, .LBB30_10
.Ltmp196:
.LBB30_5:
	.loc	13 0 26 is_stmt 0
	li	a0, 1
	j	.LBB30_9
.Ltmp197:
.LBB30_6:
	.loc	13 2285 18 is_stmt 1
	sw	s1, 8(sp)
	lui	a1, %hi(_ZN44_$LT$$RF$T$u20$as$u20$core..fmt..Display$GT$3fmt17h52d87e945500df40E)
	addi	a1, a1, %lo(_ZN44_$LT$$RF$T$u20$as$u20$core..fmt..Display$GT$3fmt17h52d87e945500df40E)
	sw	a1, 12(sp)
.Ltmp198:
	.loc	2 335 9
	lui	a1, %hi(.L__unnamed_41)
	addi	a1, a1, %lo(.L__unnamed_41)
.Ltmp199:
	sw	a1, 28(sp)
	li	a1, 2
.Ltmp200:
	.loc	2 0 9 is_stmt 0
	j	.LBB30_8
.Ltmp201:
.LBB30_7:
	.loc	13 2286 18 is_stmt 1
	addi	a1, s1, 8
	sw	s1, 8(sp)
	lui	a2, %hi(_ZN44_$LT$$RF$T$u20$as$u20$core..fmt..Display$GT$3fmt17h52d87e945500df40E)
	addi	a2, a2, %lo(_ZN44_$LT$$RF$T$u20$as$u20$core..fmt..Display$GT$3fmt17h52d87e945500df40E)
	sw	a2, 12(sp)
	sw	a1, 16(sp)
	sw	a2, 20(sp)
.Ltmp202:
	.loc	2 335 9
	lui	a1, %hi(.L__unnamed_42)
	addi	a1, a1, %lo(.L__unnamed_42)
.Ltmp203:
	sw	a1, 28(sp)
	li	a1, 3
.Ltmp204:
.LBB30_8:
	.loc	2 335 9 is_stmt 0
	sw	a1, 32(sp)
	sw	zero, 44(sp)
	addi	a1, sp, 8
	sw	a1, 36(sp)
	sw	a0, 40(sp)
.Ltmp205:
	.loc	13 0 0
	addi	a1, sp, 28
	mv	a0, s8
	call	_ZN4core3fmt9Formatter9write_fmt17hf1a4b1e0be961690E
.Ltmp206:
.LBB30_9:
	.loc	13 2298 6 is_stmt 1
	lw	ra, 92(sp)
	lw	s0, 88(sp)
	lw	s1, 84(sp)
	lw	s2, 80(sp)
	lw	s3, 76(sp)
	lw	s4, 72(sp)
	lw	s5, 68(sp)
	lw	s6, 64(sp)
	lw	s7, 60(sp)
	lw	s8, 56(sp)
.Ltmp207:
	lw	s9, 52(sp)
	.loc	13 2298 6 epilogue_begin is_stmt 0
	addi	sp, sp, 96
	ret
.LBB30_10:
.Ltmp208:
	.file	14 "/Users/steve/.rustup/toolchains/nightly-2024-02-01-aarch64-apple-darwin/lib/rustlib/src/rust/library/core/src/ptr" "non_null.rs"
	.loc	14 623 37 is_stmt 1
	addi	s1, s1, 8
.Ltmp209:
	.file	15 "/Users/steve/.rustup/toolchains/nightly-2024-02-01-aarch64-apple-darwin/lib/rustlib/src/rust/library/core/src/slice/iter" "macros.rs"
	.loc	15 162 24
	slli	s0, s0, 3
	addi	s0, s0, -8
	lui	a0, %hi(.L__unnamed_43)
	addi	s9, a0, %lo(.L__unnamed_43)
.Ltmp210:
.LBB30_11:
	.loc	13 2289 25
	sw	s1, 24(sp)
.Ltmp211:
	.loc	13 2291 30
	li	a2, 2
	mv	a0, s8
	mv	a1, s9
	call	_ZN4core3fmt9Formatter9write_str17h7b224d3eb3847887E
	bnez	a0, .LBB30_5
.Ltmp212:
	.loc	13 2293 26
	sw	s2, 8(sp)
	sw	s3, 12(sp)
.Ltmp213:
	.loc	2 335 9
	sw	s4, 28(sp)
	sw	s5, 32(sp)
	sw	zero, 44(sp)
	sw	s6, 36(sp)
	sw	s7, 40(sp)
.Ltmp214:
	.loc	13 2293 26
	addi	a1, sp, 28
	mv	a0, s8
	call	_ZN4core3fmt9Formatter9write_fmt17hf1a4b1e0be961690E
	.loc	13 2293 21 is_stmt 0
	bnez	a0, .LBB30_5
.Ltmp215:
	.loc	14 1796 9 is_stmt 1
	addi	s0, s0, -8
.Ltmp216:
	.loc	13 0 0 is_stmt 0
	addi	s1, s1, 8
.Ltmp217:
	.loc	15 162 24 is_stmt 1
	bnez	s0, .LBB30_11
	j	.LBB30_9
.Ltmp218:
.LBB30_14:
	.loc	13 2284 18
	lui	a0, %hi(.L__unnamed_44)
	addi	a0, a0, %lo(.L__unnamed_44)
	lui	a1, %hi(.L__unnamed_45)
	addi	a2, a1, %lo(.L__unnamed_45)
	li	a1, 14
	call	_ZN4core9panicking5panic17hcc06d44c07847f12E
.Ltmp219:
.Lfunc_end30:
	.size	_ZN55_$LT$serde..de..OneOf$u20$as$u20$core..fmt..Display$GT$3fmt17hf5b140d1263ff45cE, .Lfunc_end30-_ZN55_$LT$serde..de..OneOf$u20$as$u20$core..fmt..Display$GT$3fmt17hf5b140d1263ff45cE
	.cfi_endproc
	.file	16 "/Users/steve/.rustup/toolchains/nightly-2024-02-01-aarch64-apple-darwin/lib/rustlib/src/rust/library/core/src/iter/adapters" "enumerate.rs"

	.section	".text._ZN66_$LT$serde..de..WithDecimalPoint$u20$as$u20$core..fmt..Display$GT$3fmt17hdb9a90141f8c173cE","ax",@progbits
	.globl	_ZN66_$LT$serde..de..WithDecimalPoint$u20$as$u20$core..fmt..Display$GT$3fmt17hdb9a90141f8c173cE
	.p2align	1
	.type	_ZN66_$LT$serde..de..WithDecimalPoint$u20$as$u20$core..fmt..Display$GT$3fmt17hdb9a90141f8c173cE,@function
_ZN66_$LT$serde..de..WithDecimalPoint$u20$as$u20$core..fmt..Display$GT$3fmt17hdb9a90141f8c173cE:
.Lfunc_begin31:
	.loc	13 2304 0
	.cfi_startproc
	addi	sp, sp, -64
	.cfi_def_cfa_offset 64
	sw	ra, 60(sp)
	sw	s0, 56(sp)
	sw	s1, 52(sp)
	.cfi_offset ra, -4
	.cfi_offset s0, -8
	.cfi_offset s1, -12
	mv	s1, a0
.Ltmp220:
	.loc	13 2322 12 prologue_end
	lw	a2, 4(a0)
.Ltmp221:
	lw	a0, 0(a0)
	mv	s0, a1
.Ltmp222:
	.file	17 "/Users/steve/.rustup/toolchains/nightly-2024-02-01-aarch64-apple-darwin/lib/rustlib/src/rust/library/core/src/num" "f64.rs"
	.loc	17 497 40
	slli	a1, a2, 1
	srli	a1, a1, 1
.Ltmp223:
	.loc	17 548 9
	lui	a3, 524032
	li	a2, 0
	call	__ltdf2@plt
.Ltmp224:
	.loc	13 2322 12
	bgez	a0, .LBB31_5
.Ltmp225:
	.loc	13 2323 30
	sw	s0, 12(sp)
	sb	zero, 16(sp)
.Ltmp226:
	.loc	13 2327 18
	sw	s1, 44(sp)
	lui	a0, %hi(_ZN4core3fmt5float52_$LT$impl$u20$core..fmt..Display$u20$for$u20$f64$GT$3fmt17he67ea32dbb1a7480E)
	addi	a0, a0, %lo(_ZN4core3fmt5float52_$LT$impl$u20$core..fmt..Display$u20$for$u20$f64$GT$3fmt17he67ea32dbb1a7480E)
	sw	a0, 48(sp)
.Ltmp227:
	.loc	2 335 9
	lui	a0, %hi(.L__unnamed_46)
	addi	a0, a0, %lo(.L__unnamed_46)
.Ltmp228:
	sw	a0, 20(sp)
	li	s1, 1
.Ltmp229:
	sw	s1, 24(sp)
	sw	zero, 36(sp)
	addi	a0, sp, 44
.Ltmp230:
	sw	a0, 28(sp)
	sw	s1, 32(sp)
.Ltmp231:
	.loc	2 211 17
	lui	a0, %hi(.L__unnamed_1)
	addi	a1, a0, %lo(.L__unnamed_1)
	addi	a0, sp, 12
	addi	a2, sp, 20
	call	_ZN4core3fmt5write17hec90542839f9b0f5E
.Ltmp232:
	.loc	13 2327 13
	bnez	a0, .LBB31_6
.Ltmp233:
	.loc	13 2328 17
	lbu	a0, 16(sp)
	bnez	a0, .LBB31_4
.Ltmp234:
	.loc	13 2329 22
	lui	a0, %hi(.L__unnamed_47)
	addi	a1, a0, %lo(.L__unnamed_47)
	li	a2, 2
	mv	a0, s0
	call	_ZN4core3fmt9Formatter9write_str17h7b224d3eb3847887E
	.loc	13 2329 17 is_stmt 0
	bnez	a0, .LBB31_6
.Ltmp235:
.LBB31_4:
	.loc	13 0 17
	li	s1, 0
	j	.LBB31_6
.Ltmp236:
.LBB31_5:
	.loc	13 2332 18 is_stmt 1
	sw	s1, 44(sp)
	lui	a0, %hi(_ZN4core3fmt5float52_$LT$impl$u20$core..fmt..Display$u20$for$u20$f64$GT$3fmt17he67ea32dbb1a7480E)
	addi	a0, a0, %lo(_ZN4core3fmt5float52_$LT$impl$u20$core..fmt..Display$u20$for$u20$f64$GT$3fmt17he67ea32dbb1a7480E)
	sw	a0, 48(sp)
.Ltmp237:
	.loc	2 335 9
	lui	a0, %hi(.L__unnamed_46)
	addi	a0, a0, %lo(.L__unnamed_46)
.Ltmp238:
	sw	a0, 20(sp)
	li	a0, 1
.Ltmp239:
	sw	a0, 24(sp)
	sw	zero, 36(sp)
	addi	a1, sp, 44
	sw	a1, 28(sp)
	sw	a0, 32(sp)
.Ltmp240:
	.loc	13 2332 18
	addi	a1, sp, 20
	mv	a0, s0
	call	_ZN4core3fmt9Formatter9write_fmt17hf1a4b1e0be961690E
	mv	s1, a0
.Ltmp241:
.LBB31_6:
	.loc	13 2335 6
	mv	a0, s1
	lw	ra, 60(sp)
	lw	s0, 56(sp)
.Ltmp242:
	lw	s1, 52(sp)
	.loc	13 2335 6 epilogue_begin is_stmt 0
	addi	sp, sp, 64
	ret
.Ltmp243:
.Lfunc_end31:
	.size	_ZN66_$LT$serde..de..WithDecimalPoint$u20$as$u20$core..fmt..Display$GT$3fmt17hdb9a90141f8c173cE, .Lfunc_end31-_ZN66_$LT$serde..de..WithDecimalPoint$u20$as$u20$core..fmt..Display$GT$3fmt17hdb9a90141f8c173cE
	.cfi_endproc
	.file	18 "/Users/steve/.rustup/toolchains/nightly-2024-02-01-aarch64-apple-darwin/lib/rustlib/src/rust/library/core/src/macros" "mod.rs"

	.section	".text._ZN128_$LT$$LT$serde..de..WithDecimalPoint$u20$as$u20$core..fmt..Display$GT$..fmt..LookForDecimalPoint$u20$as$u20$core..fmt..Write$GT$9write_str17h539949e1a9a76d8fE","ax",@progbits
	.globl	_ZN128_$LT$$LT$serde..de..WithDecimalPoint$u20$as$u20$core..fmt..Display$GT$..fmt..LookForDecimalPoint$u20$as$u20$core..fmt..Write$GT$9write_str17h539949e1a9a76d8fE
	.p2align	1
	.type	_ZN128_$LT$$LT$serde..de..WithDecimalPoint$u20$as$u20$core..fmt..Display$GT$..fmt..LookForDecimalPoint$u20$as$u20$core..fmt..Write$GT$9write_str17h539949e1a9a76d8fE,@function
_ZN128_$LT$$LT$serde..de..WithDecimalPoint$u20$as$u20$core..fmt..Display$GT$..fmt..LookForDecimalPoint$u20$as$u20$core..fmt..Write$GT$9write_str17h539949e1a9a76d8fE:
.Lfunc_begin32:
	.loc	13 2311 0 is_stmt 1
	.cfi_startproc
	addi	sp, sp, -16
	.cfi_def_cfa_offset 16
	sw	ra, 12(sp)
	sw	s0, 8(sp)
	sw	s1, 4(sp)
	sw	s2, 0(sp)
	.cfi_offset ra, -4
	.cfi_offset s0, -8
	.cfi_offset s1, -12
	.cfi_offset s2, -16
	li	a3, 8
	mv	s0, a2
.Ltmp244:
	mv	s2, a1
.Ltmp245:
	mv	s1, a0
.Ltmp246:
	.file	19 "/Users/steve/.rustup/toolchains/nightly-2024-02-01-aarch64-apple-darwin/lib/rustlib/src/rust/library/core/src/slice" "memchr.rs"
	.loc	19 29 8 prologue_end
	bgeu	a2, a3, .LBB32_4
.Ltmp247:
	.loc	19 42 11
	beqz	s0, .LBB32_5
.Ltmp248:
	.loc	19 43 12
	addi	a0, s0, -1
	mv	a2, s2
.Ltmp249:
.LBB32_3:
	lbu	a1, 0(a2)
	addi	a1, a1, -46
	seqz	a1, a1
	seqz	a3, a0
	or	a3, a3, a1
.Ltmp250:
	addi	a0, a0, -1
.Ltmp251:
	addi	a2, a2, 1
	beqz	a3, .LBB32_3
	j	.LBB32_6
.Ltmp252:
.LBB32_4:
	.loc	19 33 5
	li	a0, 46
	mv	a1, s2
	mv	a2, s0
	call	_ZN4core5slice6memchr14memchr_aligned17h89faedcaee705f81E
.Ltmp253:
	.file	20 "/Users/steve/.rustup/toolchains/nightly-2024-02-01-aarch64-apple-darwin/lib/rustlib/src/rust/library/core/src" "option.rs"
	.loc	20 606 9
	addi	a0, a0, -1
	seqz	a1, a0
	j	.LBB32_6
.Ltmp254:
.LBB32_5:
	.loc	20 0 9 is_stmt 0
	li	a1, 0
.Ltmp255:
.LBB32_6:
	.loc	13 2312 17 is_stmt 1
	lbu	a2, 4(s1)
	.loc	13 2313 17
	lw	a0, 0(s1)
	.loc	13 2312 17
	snez	a2, a2
	or	a1, a1, a2
	sb	a1, 4(s1)
	.loc	13 2313 17
	mv	a1, s2
	mv	a2, s0
	lw	ra, 12(sp)
	lw	s0, 8(sp)
.Ltmp256:
	lw	s1, 4(sp)
.Ltmp257:
	lw	s2, 0(sp)
.Ltmp258:
	.loc	13 2313 17 epilogue_begin is_stmt 0
	addi	sp, sp, 16
	tail	_ZN4core3fmt9Formatter9write_str17h7b224d3eb3847887E
.Ltmp259:
.Lfunc_end32:
	.size	_ZN128_$LT$$LT$serde..de..WithDecimalPoint$u20$as$u20$core..fmt..Display$GT$..fmt..LookForDecimalPoint$u20$as$u20$core..fmt..Write$GT$9write_str17h539949e1a9a76d8fE, .Lfunc_end32-_ZN128_$LT$$LT$serde..de..WithDecimalPoint$u20$as$u20$core..fmt..Display$GT$..fmt..LookForDecimalPoint$u20$as$u20$core..fmt..Write$GT$9write_str17h539949e1a9a76d8fE
	.cfi_endproc
	.file	21 "/Users/steve/.rustup/toolchains/nightly-2024-02-01-aarch64-apple-darwin/lib/rustlib/src/rust/library/core/src/slice" "cmp.rs"
	.file	22 "/Users/steve/.rustup/toolchains/nightly-2024-02-01-aarch64-apple-darwin/lib/rustlib/src/rust/library/core/src/str" "pattern.rs"
	.file	23 "/Users/steve/.rustup/toolchains/nightly-2024-02-01-aarch64-apple-darwin/lib/rustlib/src/rust/library/core/src/str" "mod.rs"

	.section	".text._ZN128_$LT$$LT$serde..de..WithDecimalPoint$u20$as$u20$core..fmt..Display$GT$..fmt..LookForDecimalPoint$u20$as$u20$core..fmt..Write$GT$10write_char17hf234726b2af5bd8dE","ax",@progbits
	.globl	_ZN128_$LT$$LT$serde..de..WithDecimalPoint$u20$as$u20$core..fmt..Display$GT$..fmt..LookForDecimalPoint$u20$as$u20$core..fmt..Write$GT$10write_char17hf234726b2af5bd8dE
	.p2align	1
	.type	_ZN128_$LT$$LT$serde..de..WithDecimalPoint$u20$as$u20$core..fmt..Display$GT$..fmt..LookForDecimalPoint$u20$as$u20$core..fmt..Write$GT$10write_char17hf234726b2af5bd8dE,@function
_ZN128_$LT$$LT$serde..de..WithDecimalPoint$u20$as$u20$core..fmt..Display$GT$..fmt..LookForDecimalPoint$u20$as$u20$core..fmt..Write$GT$10write_char17hf234726b2af5bd8dE:
.Lfunc_begin33:
	.cfi_startproc
	.loc	13 2317 17 prologue_end is_stmt 1
	lbu	a3, 4(a0)
	.loc	13 2317 43 is_stmt 0
	addi	a4, a1, -46
	.loc	13 2318 17 is_stmt 1
	lw	a2, 0(a0)
	.loc	13 2317 43
	seqz	a4, a4
	.loc	13 2317 17 is_stmt 0
	snez	a3, a3
	or	a3, a3, a4
	sb	a3, 4(a0)
	.loc	13 2318 17 is_stmt 1
	mv	a0, a2
.Ltmp260:
	tail	_ZN57_$LT$core..fmt..Formatter$u20$as$u20$core..fmt..Write$GT$10write_char17h062f0298cf026023E
.Ltmp261:
.Lfunc_end33:
	.size	_ZN128_$LT$$LT$serde..de..WithDecimalPoint$u20$as$u20$core..fmt..Display$GT$..fmt..LookForDecimalPoint$u20$as$u20$core..fmt..Write$GT$10write_char17hf234726b2af5bd8dE, .Lfunc_end33-_ZN128_$LT$$LT$serde..de..WithDecimalPoint$u20$as$u20$core..fmt..Display$GT$..fmt..LookForDecimalPoint$u20$as$u20$core..fmt..Write$GT$10write_char17hf234726b2af5bd8dE
	.cfi_endproc

	.section	".text._ZN5serde3ser3fmt85_$LT$impl$u20$serde..ser..Serializer$u20$for$u20$$RF$mut$u20$core..fmt..Formatter$GT$22serialize_unit_variant17hdca2ae013618ed3dE","ax",@progbits
	.globl	_ZN5serde3ser3fmt85_$LT$impl$u20$serde..ser..Serializer$u20$for$u20$$RF$mut$u20$core..fmt..Formatter$GT$22serialize_unit_variant17hdca2ae013618ed3dE
	.p2align	1
	.type	_ZN5serde3ser3fmt85_$LT$impl$u20$serde..ser..Serializer$u20$for$u20$$RF$mut$u20$core..fmt..Formatter$GT$22serialize_unit_variant17hdca2ae013618ed3dE,@function
_ZN5serde3ser3fmt85_$LT$impl$u20$serde..ser..Serializer$u20$for$u20$$RF$mut$u20$core..fmt..Formatter$GT$22serialize_unit_variant17hdca2ae013618ed3dE:
.Lfunc_begin34:
	.file	24 "/Users/steve/.cargo/registry/src/index.crates.io-6f17d22bba15001f/serde-1.0.205" "src/ser/fmt.rs"
	.loc	24 68 0
	.cfi_startproc
	mv	a1, a5
.Ltmp262:
	mv	a2, a0
.Ltmp263:
	.loc	24 74 9 prologue_end
	mv	a0, a4
.Ltmp264:
	tail	_ZN42_$LT$str$u20$as$u20$core..fmt..Display$GT$3fmt17h45c916f6fbc68766E
.Ltmp265:
.Lfunc_end34:
	.size	_ZN5serde3ser3fmt85_$LT$impl$u20$serde..ser..Serializer$u20$for$u20$$RF$mut$u20$core..fmt..Formatter$GT$22serialize_unit_variant17hdca2ae013618ed3dE, .Lfunc_end34-_ZN5serde3ser3fmt85_$LT$impl$u20$serde..ser..Serializer$u20$for$u20$$RF$mut$u20$core..fmt..Formatter$GT$22serialize_unit_variant17hdca2ae013618ed3dE
	.cfi_endproc

	.section	".text._ZN94_$LT$serde..__private..de..borrow_cow_bytes..CowBytesVisitor$u20$as$u20$serde..de..Visitor$GT$9expecting17he5fa947d3bb5003cE","ax",@progbits
	.globl	_ZN94_$LT$serde..__private..de..borrow_cow_bytes..CowBytesVisitor$u20$as$u20$serde..de..Visitor$GT$9expecting17he5fa947d3bb5003cE
	.p2align	1
	.type	_ZN94_$LT$serde..__private..de..borrow_cow_bytes..CowBytesVisitor$u20$as$u20$serde..de..Visitor$GT$9expecting17he5fa947d3bb5003cE,@function
_ZN94_$LT$serde..__private..de..borrow_cow_bytes..CowBytesVisitor$u20$as$u20$serde..de..Visitor$GT$9expecting17he5fa947d3bb5003cE:
.Lfunc_begin35:
	.cfi_startproc
	.file	25 "/Users/steve/.cargo/registry/src/index.crates.io-6f17d22bba15001f/serde-1.0.205" "src/private/de.rs"
	.loc	25 146 13 prologue_end
	lui	a0, %hi(.L__unnamed_48)
.Ltmp266:
	addi	a3, a0, %lo(.L__unnamed_48)
	li	a2, 12
	mv	a0, a1
.Ltmp267:
	mv	a1, a3
	tail	_ZN4core3fmt9Formatter9write_str17h7b224d3eb3847887E
.Ltmp268:
.Lfunc_end35:
	.size	_ZN94_$LT$serde..__private..de..borrow_cow_bytes..CowBytesVisitor$u20$as$u20$serde..de..Visitor$GT$9expecting17he5fa947d3bb5003cE, .Lfunc_end35-_ZN94_$LT$serde..__private..de..borrow_cow_bytes..CowBytesVisitor$u20$as$u20$serde..de..Visitor$GT$9expecting17he5fa947d3bb5003cE
	.cfi_endproc

	.section	.text._ZN5serde9__private2de7content7Content6as_str17hc3e7c1667f5ffb5eE,"ax",@progbits
	.globl	_ZN5serde9__private2de7content7Content6as_str17hc3e7c1667f5ffb5eE
	.p2align	1
	.type	_ZN5serde9__private2de7content7Content6as_str17hc3e7c1667f5ffb5eE,@function
_ZN5serde9__private2de7content7Content6as_str17hc3e7c1667f5ffb5eE:
.Lfunc_begin36:
	.cfi_startproc
	.loc	25 256 19 prologue_end
	lw	a1, 0(a0)
	lui	a3, 524288
	xor	a3, a3, a1
	li	a1, 21
	bltu	a3, a1, .LBB36_2
.Ltmp269:
	.loc	25 0 19 is_stmt 0
	li	a3, 21
.Ltmp270:
.LBB36_2:
	addi	sp, sp, -16
	.cfi_def_cfa_offset 16
	sw	ra, 12(sp)
	.cfi_offset ra, -4
	li	a1, 13
	li	a2, 0
	.loc	25 256 13
	blt	a1, a3, .LBB36_7
.Ltmp271:
	.loc	25 0 13
	li	a1, 12
	.loc	25 256 13
	beq	a3, a1, .LBB36_10
.Ltmp272:
	.loc	25 0 13
	li	a4, 13
	.loc	25 256 13
	bne	a3, a4, .LBB36_6
.Ltmp273:
	.loc	25 257 30 is_stmt 1
	lw	a2, 4(a0)
	lw	a1, 8(a0)
.Ltmp274:
.LBB36_6:
	.loc	25 263 10
	mv	a0, a2
.Ltmp275:
	lw	ra, 12(sp)
	.loc	25 263 10 epilogue_begin is_stmt 0
	addi	sp, sp, 16
	ret
.LBB36_7:
.Ltmp276:
	.loc	25 0 10
	li	a1, 14
	.loc	25 256 13 is_stmt 1
	beq	a3, a1, .LBB36_11
.Ltmp277:
	.loc	25 0 13 is_stmt 0
	li	a4, 15
	.loc	25 256 13
	bne	a3, a4, .LBB36_6
.Ltmp278:
	.loc	25 259 32 is_stmt 1
	lw	a1, 4(a0)
	lw	a2, 8(a0)
.Ltmp279:
	.loc	25 0 32 is_stmt 0
	j	.LBB36_12
.Ltmp280:
.LBB36_10:
	.file	26 "/Users/steve/.rustup/toolchains/nightly-2024-02-01-aarch64-apple-darwin/lib/rustlib/src/rust/library/alloc/src" "raw_vec.rs"
	.loc	26 239 9 is_stmt 1
	lw	a2, 8(a0)
.Ltmp281:
	.file	27 "/Users/steve/.rustup/toolchains/nightly-2024-02-01-aarch64-apple-darwin/lib/rustlib/src/rust/library/alloc/src/vec" "mod.rs"
	.loc	27 2706 55
	lw	a1, 12(a0)
.Ltmp282:
	.loc	25 263 10
	mv	a0, a2
.Ltmp283:
	lw	ra, 12(sp)
	.loc	25 263 10 epilogue_begin is_stmt 0
	addi	sp, sp, 16
	ret
.LBB36_11:
.Ltmp284:
	.loc	26 239 9 is_stmt 1
	lw	a1, 8(a0)
.Ltmp285:
	.loc	27 2706 55
	lw	a2, 12(a0)
.Ltmp286:
.LBB36_12:
	.loc	25 0 0 is_stmt 0
	mv	a0, sp
.Ltmp287:
	call	_ZN4core3str8converts9from_utf817ha99b467393d877c8E
.Ltmp288:
	.file	28 "/Users/steve/.rustup/toolchains/nightly-2024-02-01-aarch64-apple-darwin/lib/rustlib/src/rust/library/core/src" "result.rs"
	.loc	28 632 15 is_stmt 1
	lw	a0, 0(sp)
	.loc	28 632 9 is_stmt 0
	lw	a2, 4(sp)
	lw	a1, 8(sp)
	snez	a0, a0
	addi	a0, a0, -1
	and	a2, a2, a0
.Ltmp289:
	.loc	25 263 10 is_stmt 1
	mv	a0, a2
	lw	ra, 12(sp)
	.loc	25 263 10 epilogue_begin is_stmt 0
	addi	sp, sp, 16
	ret
.Ltmp290:
.Lfunc_end36:
	.size	_ZN5serde9__private2de7content7Content6as_str17hc3e7c1667f5ffb5eE, .Lfunc_end36-_ZN5serde9__private2de7content7Content6as_str17hc3e7c1667f5ffb5eE
	.cfi_endproc
	.file	29 "/Users/steve/.rustup/toolchains/nightly-2024-02-01-aarch64-apple-darwin/lib/rustlib/src/rust/library/alloc/src" "string.rs"

	.section	".text._ZN84_$LT$serde..__private..de..content..ContentVisitor$u20$as$u20$serde..de..Visitor$GT$9expecting17ha56ab8e5dd6a2a24E","ax",@progbits
	.globl	_ZN84_$LT$serde..__private..de..content..ContentVisitor$u20$as$u20$serde..de..Visitor$GT$9expecting17ha56ab8e5dd6a2a24E
	.p2align	1
	.type	_ZN84_$LT$serde..__private..de..content..ContentVisitor$u20$as$u20$serde..de..Visitor$GT$9expecting17ha56ab8e5dd6a2a24E,@function
_ZN84_$LT$serde..__private..de..content..ContentVisitor$u20$as$u20$serde..de..Visitor$GT$9expecting17ha56ab8e5dd6a2a24E:
.Lfunc_begin37:
	.cfi_startproc
	.loc	25 332 13 prologue_end is_stmt 1
	lui	a0, %hi(.L__unnamed_49)
.Ltmp291:
	addi	a3, a0, %lo(.L__unnamed_49)
	li	a2, 9
	mv	a0, a1
.Ltmp292:
	mv	a1, a3
	tail	_ZN4core3fmt9Formatter9write_str17h7b224d3eb3847887E
.Ltmp293:
.Lfunc_end37:
	.size	_ZN84_$LT$serde..__private..de..content..ContentVisitor$u20$as$u20$serde..de..Visitor$GT$9expecting17ha56ab8e5dd6a2a24E, .Lfunc_end37-_ZN84_$LT$serde..__private..de..content..ContentVisitor$u20$as$u20$serde..de..Visitor$GT$9expecting17ha56ab8e5dd6a2a24E
	.cfi_endproc

	.section	".text._ZN89_$LT$serde..__private..de..content..TagOrContentVisitor$u20$as$u20$serde..de..Visitor$GT$9expecting17h03be48f4002f885bE","ax",@progbits
	.globl	_ZN89_$LT$serde..__private..de..content..TagOrContentVisitor$u20$as$u20$serde..de..Visitor$GT$9expecting17h03be48f4002f885bE
	.p2align	1
	.type	_ZN89_$LT$serde..__private..de..content..TagOrContentVisitor$u20$as$u20$serde..de..Visitor$GT$9expecting17h03be48f4002f885bE,@function
_ZN89_$LT$serde..__private..de..content..TagOrContentVisitor$u20$as$u20$serde..de..Visitor$GT$9expecting17h03be48f4002f885bE:
.Lfunc_begin38:
	.loc	25 565 0
	.cfi_startproc
	addi	sp, sp, -48
	.cfi_def_cfa_offset 48
	sw	ra, 44(sp)
	.cfi_offset ra, -4
	mv	a2, a1
.Ltmp294:
	.loc	25 566 13 prologue_end
	sw	a0, 36(sp)
	lui	a0, %hi(_ZN44_$LT$$RF$T$u20$as$u20$core..fmt..Display$GT$3fmt17h52d87e945500df40E)
.Ltmp295:
	addi	a0, a0, %lo(_ZN44_$LT$$RF$T$u20$as$u20$core..fmt..Display$GT$3fmt17h52d87e945500df40E)
	sw	a0, 40(sp)
.Ltmp296:
	.loc	2 335 9
	lui	a0, %hi(.L__unnamed_50)
	addi	a0, a0, %lo(.L__unnamed_50)
.Ltmp297:
	sw	a0, 12(sp)
	li	a0, 2
.Ltmp298:
	sw	a0, 16(sp)
	sw	zero, 28(sp)
	addi	a0, sp, 36
	sw	a0, 20(sp)
	li	a0, 1
	sw	a0, 24(sp)
.Ltmp299:
	.loc	25 566 13
	addi	a1, sp, 12
	mv	a0, a2
.Ltmp300:
	call	_ZN4core3fmt9Formatter9write_fmt17hf1a4b1e0be961690E
.Ltmp301:
	.loc	25 567 10
	lw	ra, 44(sp)
	.loc	25 567 10 epilogue_begin is_stmt 0
	addi	sp, sp, 48
	ret
.Ltmp302:
.Lfunc_end38:
	.size	_ZN89_$LT$serde..__private..de..content..TagOrContentVisitor$u20$as$u20$serde..de..Visitor$GT$9expecting17h03be48f4002f885bE, .Lfunc_end38-_ZN89_$LT$serde..__private..de..content..TagOrContentVisitor$u20$as$u20$serde..de..Visitor$GT$9expecting17h03be48f4002f885bE
	.cfi_endproc

	.section	".text._ZN94_$LT$serde..__private..de..content..TagOrContentFieldVisitor$u20$as$u20$serde..de..Visitor$GT$9expecting17hf151217e737b83a3E","ax",@progbits
	.globl	_ZN94_$LT$serde..__private..de..content..TagOrContentFieldVisitor$u20$as$u20$serde..de..Visitor$GT$9expecting17hf151217e737b83a3E
	.p2align	1
	.type	_ZN94_$LT$serde..__private..de..content..TagOrContentFieldVisitor$u20$as$u20$serde..de..Visitor$GT$9expecting17hf151217e737b83a3E,@function
_ZN94_$LT$serde..__private..de..content..TagOrContentFieldVisitor$u20$as$u20$serde..de..Visitor$GT$9expecting17hf151217e737b83a3E:
.Lfunc_begin39:
	.loc	25 925 0 is_stmt 1
	.cfi_startproc
	addi	sp, sp, -48
	.cfi_def_cfa_offset 48
	sw	ra, 44(sp)
	.cfi_offset ra, -4
	mv	a2, a1
.Ltmp303:
	.loc	25 926 13 prologue_end
	addi	a1, a0, 8
	sw	a0, 28(sp)
	lui	a0, %hi(_ZN42_$LT$$RF$T$u20$as$u20$core..fmt..Debug$GT$3fmt17h05789b1e5d7153a8E)
.Ltmp304:
	addi	a0, a0, %lo(_ZN42_$LT$$RF$T$u20$as$u20$core..fmt..Debug$GT$3fmt17h05789b1e5d7153a8E)
	sw	a0, 32(sp)
	sw	a1, 36(sp)
	sw	a0, 40(sp)
.Ltmp305:
	.loc	2 335 9
	lui	a0, %hi(.L__unnamed_51)
	addi	a0, a0, %lo(.L__unnamed_51)
.Ltmp306:
	sw	a0, 4(sp)
	li	a0, 2
.Ltmp307:
	sw	a0, 8(sp)
	sw	zero, 20(sp)
	addi	a1, sp, 28
	sw	a1, 12(sp)
	sw	a0, 16(sp)
.Ltmp308:
	.loc	25 926 13
	addi	a1, sp, 4
	mv	a0, a2
.Ltmp309:
	call	_ZN4core3fmt9Formatter9write_fmt17hf1a4b1e0be961690E
.Ltmp310:
	.loc	25 927 10
	lw	ra, 44(sp)
	.loc	25 927 10 epilogue_begin is_stmt 0
	addi	sp, sp, 48
	ret
.Ltmp311:
.Lfunc_end39:
	.size	_ZN94_$LT$serde..__private..de..content..TagOrContentFieldVisitor$u20$as$u20$serde..de..Visitor$GT$9expecting17hf151217e737b83a3E, .Lfunc_end39-_ZN94_$LT$serde..__private..de..content..TagOrContentFieldVisitor$u20$as$u20$serde..de..Visitor$GT$9expecting17hf151217e737b83a3E
	.cfi_endproc

	.section	".text._ZN97_$LT$serde..__private..de..content..TagContentOtherFieldVisitor$u20$as$u20$serde..de..Visitor$GT$9expecting17hdcb40f197690ec85E","ax",@progbits
	.globl	_ZN97_$LT$serde..__private..de..content..TagContentOtherFieldVisitor$u20$as$u20$serde..de..Visitor$GT$9expecting17hdcb40f197690ec85E
	.p2align	1
	.type	_ZN97_$LT$serde..__private..de..content..TagContentOtherFieldVisitor$u20$as$u20$serde..de..Visitor$GT$9expecting17hdcb40f197690ec85E,@function
_ZN97_$LT$serde..__private..de..content..TagContentOtherFieldVisitor$u20$as$u20$serde..de..Visitor$GT$9expecting17hdcb40f197690ec85E:
.Lfunc_begin40:
	.loc	25 1000 0 is_stmt 1
	.cfi_startproc
	addi	sp, sp, -48
	.cfi_def_cfa_offset 48
	sw	ra, 44(sp)
	.cfi_offset ra, -4
	mv	a2, a1
.Ltmp312:
	.loc	25 1001 13 prologue_end
	addi	a1, a0, 8
	sw	a0, 28(sp)
	lui	a0, %hi(_ZN42_$LT$$RF$T$u20$as$u20$core..fmt..Debug$GT$3fmt17h05789b1e5d7153a8E)
.Ltmp313:
	addi	a0, a0, %lo(_ZN42_$LT$$RF$T$u20$as$u20$core..fmt..Debug$GT$3fmt17h05789b1e5d7153a8E)
	sw	a0, 32(sp)
	sw	a1, 36(sp)
	sw	a0, 40(sp)
.Ltmp314:
	.loc	2 335 9
	lui	a0, %hi(.L__unnamed_52)
	addi	a0, a0, %lo(.L__unnamed_52)
.Ltmp315:
	sw	a0, 4(sp)
	li	a0, 3
.Ltmp316:
	sw	a0, 8(sp)
	sw	zero, 20(sp)
	addi	a0, sp, 28
	sw	a0, 12(sp)
	li	a0, 2
	sw	a0, 16(sp)
.Ltmp317:
	.loc	25 1001 13
	addi	a1, sp, 4
	mv	a0, a2
.Ltmp318:
	call	_ZN4core3fmt9Formatter9write_fmt17hf1a4b1e0be961690E
.Ltmp319:
	.loc	25 1006 10
	lw	ra, 44(sp)
	.loc	25 1006 10 epilogue_begin is_stmt 0
	addi	sp, sp, 48
	ret
.Ltmp320:
.Lfunc_end40:
	.size	_ZN97_$LT$serde..__private..de..content..TagContentOtherFieldVisitor$u20$as$u20$serde..de..Visitor$GT$9expecting17hdcb40f197690ec85E, .Lfunc_end40-_ZN97_$LT$serde..__private..de..content..TagContentOtherFieldVisitor$u20$as$u20$serde..de..Visitor$GT$9expecting17hdcb40f197690ec85E
	.cfi_endproc

	.section	".text._ZN89_$LT$serde..__private..de..content..UntaggedUnitVisitor$u20$as$u20$serde..de..Visitor$GT$9expecting17h75154788b8218f3bE","ax",@progbits
	.globl	_ZN89_$LT$serde..__private..de..content..UntaggedUnitVisitor$u20$as$u20$serde..de..Visitor$GT$9expecting17h75154788b8218f3bE
	.p2align	1
	.type	_ZN89_$LT$serde..__private..de..content..UntaggedUnitVisitor$u20$as$u20$serde..de..Visitor$GT$9expecting17h75154788b8218f3bE,@function
_ZN89_$LT$serde..__private..de..content..UntaggedUnitVisitor$u20$as$u20$serde..de..Visitor$GT$9expecting17h75154788b8218f3bE:
.Lfunc_begin41:
	.loc	25 2441 0 is_stmt 1
	.cfi_startproc
	addi	sp, sp, -48
	.cfi_def_cfa_offset 48
	sw	ra, 44(sp)
	.cfi_offset ra, -4
	mv	a2, a1
.Ltmp321:
	.loc	25 2442 13 prologue_end
	addi	a1, a0, 8
	sw	a0, 28(sp)
	lui	a0, %hi(_ZN44_$LT$$RF$T$u20$as$u20$core..fmt..Display$GT$3fmt17h52d87e945500df40E)
.Ltmp322:
	addi	a0, a0, %lo(_ZN44_$LT$$RF$T$u20$as$u20$core..fmt..Display$GT$3fmt17h52d87e945500df40E)
	sw	a0, 32(sp)
	sw	a1, 36(sp)
	sw	a0, 40(sp)
.Ltmp323:
	.loc	2 335 9
	lui	a0, %hi(.L__unnamed_53)
	addi	a0, a0, %lo(.L__unnamed_53)
.Ltmp324:
	sw	a0, 4(sp)
	li	a0, 2
.Ltmp325:
	sw	a0, 8(sp)
	sw	zero, 20(sp)
	addi	a1, sp, 28
	sw	a1, 12(sp)
	sw	a0, 16(sp)
.Ltmp326:
	.loc	25 2442 13
	addi	a1, sp, 4
	mv	a0, a2
.Ltmp327:
	call	_ZN4core3fmt9Formatter9write_fmt17hf1a4b1e0be961690E
.Ltmp328:
	.loc	25 2447 10
	lw	ra, 44(sp)
	.loc	25 2447 10 epilogue_begin is_stmt 0
	addi	sp, sp, 48
	ret
.Ltmp329:
.Lfunc_end41:
	.size	_ZN89_$LT$serde..__private..de..content..UntaggedUnitVisitor$u20$as$u20$serde..de..Visitor$GT$9expecting17h75154788b8218f3bE, .Lfunc_end41-_ZN89_$LT$serde..__private..de..content..UntaggedUnitVisitor$u20$as$u20$serde..de..Visitor$GT$9expecting17h75154788b8218f3bE
	.cfi_endproc

	.section	.text._ZN5serde9__private2de19flat_map_take_entry17hfede601b01a3b04eE,"ax",@progbits
	.globl	_ZN5serde9__private2de19flat_map_take_entry17hfede601b01a3b04eE
	.p2align	1
	.type	_ZN5serde9__private2de19flat_map_take_entry17hfede601b01a3b04eE,@function
_ZN5serde9__private2de19flat_map_take_entry17hfede601b01a3b04eE:
.Lfunc_begin42:
	.loc	25 2830 0 is_stmt 1
	.cfi_startproc
	addi	sp, sp, -48
	.cfi_def_cfa_offset 48
.Ltmp330:
	.file	30 "/Users/steve/.rustup/toolchains/nightly-2024-02-01-aarch64-apple-darwin/lib/rustlib/src/rust/library/core/src/mem" "mod.rs"
	.loc	30 921 13 prologue_end
	sw	ra, 44(sp)
	sw	s0, 40(sp)
	sw	s1, 36(sp)
	sw	s2, 32(sp)
	sw	s3, 28(sp)
	sw	s4, 24(sp)
	sw	s5, 20(sp)
	sw	s6, 16(sp)
	.cfi_offset ra, -4
	.cfi_offset s0, -8
	.cfi_offset s1, -12
	.cfi_offset s2, -16
	.cfi_offset s3, -20
	.cfi_offset s4, -24
	.cfi_offset s5, -28
	.cfi_offset s6, -32
.Ltmp331:
	.loc	30 0 13 is_stmt 0
	mv	s0, a1
.Ltmp332:
	.loc	25 2837 31 is_stmt 1
	lw	a1, 0(a1)
	lui	a4, 524288
	addi	s6, a4, 21
.Ltmp333:
	.loc	25 0 31 is_stmt 0
	mv	s4, a0
.Ltmp334:
	.loc	25 2837 25
	bne	a1, s6, .LBB42_3
.Ltmp335:
.LBB42_1:
	.loc	25 0 25
	mv	s0, s4
.Ltmp336:
.LBB42_2:
	sw	s6, 0(s0)
.Ltmp337:
	.loc	25 2847 2 is_stmt 1
	lw	ra, 44(sp)
	lw	s0, 40(sp)
	lw	s1, 36(sp)
	lw	s2, 32(sp)
	lw	s3, 28(sp)
	lw	s4, 24(sp)
	lw	s5, 20(sp)
	lw	s6, 16(sp)
	.loc	25 2847 2 epilogue_begin is_stmt 0
	addi	sp, sp, 48
	ret
.LBB42_3:
.Ltmp338:
	.loc	25 0 2
	mv	s2, a3
.Ltmp339:
	mv	s3, a2
.Ltmp340:
	.loc	25 256 19 is_stmt 1
	xor	a0, a1, a4
	li	a1, 21
	bltu	a0, a1, .LBB42_5
.Ltmp341:
	.loc	25 0 19 is_stmt 0
	li	a0, 21
.Ltmp342:
.LBB42_5:
	li	a1, 13
	.loc	25 256 13
	blt	a1, a0, .LBB42_9
.Ltmp343:
	.loc	25 0 13
	li	a1, 12
	.loc	25 256 13
	beq	a0, a1, .LBB42_12
.Ltmp344:
	.loc	25 0 13
	li	a1, 13
	.loc	25 256 13
	bne	a0, a1, .LBB42_1
.Ltmp345:
	.loc	25 257 30 is_stmt 1
	lw	s5, 4(s0)
	lw	s1, 8(s0)
.Ltmp346:
	.loc	25 0 30 is_stmt 0
	bnez	s2, .LBB42_15
	j	.LBB42_1
.Ltmp347:
.LBB42_9:
	li	a1, 14
	.loc	25 256 13 is_stmt 1
	beq	a0, a1, .LBB42_13
.Ltmp348:
	.loc	25 0 13 is_stmt 0
	li	a1, 15
	.loc	25 256 13
	bne	a0, a1, .LBB42_1
.Ltmp349:
	.loc	25 259 32 is_stmt 1
	lw	a1, 4(s0)
	lw	a2, 8(s0)
.Ltmp350:
	.loc	25 259 38 is_stmt 0
	addi	a0, sp, 4
	call	_ZN4core3str8converts9from_utf817ha99b467393d877c8E
.Ltmp351:
	.loc	28 632 15 is_stmt 1
	lw	a0, 4(sp)
.Ltmp352:
	.loc	25 259 0
	bnez	a0, .LBB42_1
	j	.LBB42_14
.Ltmp353:
.LBB42_12:
	.loc	26 239 9
	lw	s5, 8(s0)
.Ltmp354:
	.loc	27 2706 55
	lw	s1, 12(s0)
.Ltmp355:
	.loc	27 0 55 is_stmt 0
	bnez	s2, .LBB42_15
	j	.LBB42_1
.Ltmp356:
.LBB42_13:
	.loc	26 239 9 is_stmt 1
	lw	a1, 8(s0)
.Ltmp357:
	.loc	27 2706 55
	lw	a2, 12(s0)
.Ltmp358:
	.loc	25 260 44
	addi	a0, sp, 4
	call	_ZN4core3str8converts9from_utf817ha99b467393d877c8E
.Ltmp359:
	.loc	28 632 15
	lw	a0, 4(sp)
.Ltmp360:
	.loc	25 260 0
	bnez	a0, .LBB42_1
.Ltmp361:
.LBB42_14:
	.loc	25 0 0 is_stmt 0
	lw	s5, 8(sp)
	lw	s1, 12(sp)
.Ltmp362:
	.loc	15 162 24 is_stmt 1
	beqz	s2, .LBB42_1
.Ltmp363:
.LBB42_15:
	.loc	21 84 12
	addi	s3, s3, 4
.Ltmp364:
	slli	s2, s2, 3
.Ltmp365:
	.loc	21 0 12 is_stmt 0
	j	.LBB42_17
.Ltmp366:
.LBB42_16:
	.loc	14 1796 9 is_stmt 1
	addi	s2, s2, -8
	addi	s3, s3, 8
.Ltmp367:
	.loc	15 162 24
	beqz	s2, .LBB42_1
.Ltmp368:
.LBB42_17:
	.loc	15 285 24
	lw	a0, 0(s3)
.Ltmp369:
	.loc	21 84 12
	bne	a0, s1, .LBB42_16
.Ltmp370:
	.loc	15 285 24
	lw	a0, -4(s3)
.Ltmp371:
	.loc	21 92 13
	mv	a1, s5
	mv	a2, s1
	call	memcmp@plt
.Ltmp372:
	.loc	15 285 24
	bnez	a0, .LBB42_16
.Ltmp373:
	.loc	3 1215 9
	lw	a0, 28(s0)
	lw	a1, 24(s0)
	lw	a2, 20(s0)
	lw	a3, 16(s0)
	sw	a0, 28(s4)
	sw	a1, 24(s4)
	sw	a2, 20(s4)
	sw	a3, 16(s4)
	lw	a0, 12(s0)
	lw	a1, 8(s0)
	lw	a2, 4(s0)
	lw	a3, 0(s0)
	sw	a0, 12(s4)
	sw	a1, 8(s4)
	sw	a2, 4(s4)
	sw	a3, 0(s4)
	j	.LBB42_2
.Ltmp374:
.Lfunc_end42:
	.size	_ZN5serde9__private2de19flat_map_take_entry17hfede601b01a3b04eE, .Lfunc_end42-_ZN5serde9__private2de19flat_map_take_entry17hfede601b01a3b04eE
	.cfi_endproc
	.file	31 "/Users/steve/.rustup/toolchains/nightly-2024-02-01-aarch64-apple-darwin/lib/rustlib/src/rust/library/core/src" "cmp.rs"
	.file	32 "/Users/steve/.rustup/toolchains/nightly-2024-02-01-aarch64-apple-darwin/lib/rustlib/src/rust/library/core/src/str" "traits.rs"

	.section	".text._ZN73_$LT$serde..__private..ser..Unsupported$u20$as$u20$core..fmt..Display$GT$3fmt17h608bbb6d5ac2c167E","ax",@progbits
	.globl	_ZN73_$LT$serde..__private..ser..Unsupported$u20$as$u20$core..fmt..Display$GT$3fmt17h608bbb6d5ac2c167E
	.p2align	1
	.type	_ZN73_$LT$serde..__private..ser..Unsupported$u20$as$u20$core..fmt..Display$GT$3fmt17h608bbb6d5ac2c167E,@function
_ZN73_$LT$serde..__private..ser..Unsupported$u20$as$u20$core..fmt..Display$GT$3fmt17h608bbb6d5ac2c167E:
.Lfunc_begin43:
	.cfi_startproc
	.file	33 "/Users/steve/.cargo/registry/src/index.crates.io-6f17d22bba15001f/serde-1.0.205" "src/private/ser.rs"
	.loc	33 64 15 prologue_end
	lbu	a0, 0(a0)
.Ltmp375:
	.loc	33 0 15 is_stmt 0
	slli	a0, a0, 2
	lui	a2, %hi(.LJTI43_0)
	addi	a2, a2, %lo(.LJTI43_0)
	add	a0, a0, a2
	lw	a0, 0(a0)
	jr	a0
.Ltmp376:
.LBB43_1:
	.loc	33 65 37 is_stmt 1
	lui	a0, %hi(.L__unnamed_12)
	addi	a3, a0, %lo(.L__unnamed_12)
	li	a2, 9
	.loc	33 0 0 is_stmt 0
	mv	a0, a1
	mv	a1, a3
.Ltmp377:
	tail	_ZN4core3fmt9Formatter9write_str17h7b224d3eb3847887E
.LBB43_2:
.Ltmp378:
	.loc	33 66 37 is_stmt 1
	lui	a0, %hi(.L__unnamed_54)
	addi	a3, a0, %lo(.L__unnamed_54)
	.loc	33 0 0 is_stmt 0
	li	a2, 10
	mv	a0, a1
	mv	a1, a3
.Ltmp379:
	tail	_ZN4core3fmt9Formatter9write_str17h7b224d3eb3847887E
.LBB43_3:
.Ltmp380:
	.loc	33 67 35 is_stmt 1
	lui	a0, %hi(.L__unnamed_55)
	addi	a3, a0, %lo(.L__unnamed_55)
	.loc	33 0 0 is_stmt 0
	li	a2, 7
	mv	a0, a1
	mv	a1, a3
.Ltmp381:
	tail	_ZN4core3fmt9Formatter9write_str17h7b224d3eb3847887E
.LBB43_4:
.Ltmp382:
	.loc	33 68 34 is_stmt 1
	lui	a0, %hi(.L__unnamed_56)
	addi	a3, a0, %lo(.L__unnamed_56)
	li	a2, 6
	.loc	33 0 0 is_stmt 0
	mv	a0, a1
	mv	a1, a3
.Ltmp383:
	tail	_ZN4core3fmt9Formatter9write_str17h7b224d3eb3847887E
.LBB43_5:
.Ltmp384:
	.loc	33 69 36 is_stmt 1
	lui	a0, %hi(.L__unnamed_14)
	addi	a3, a0, %lo(.L__unnamed_14)
	li	a2, 8
	.loc	33 0 0 is_stmt 0
	mv	a0, a1
	mv	a1, a3
.Ltmp385:
	tail	_ZN4core3fmt9Formatter9write_str17h7b224d3eb3847887E
.LBB43_6:
.Ltmp386:
	.loc	33 70 39 is_stmt 1
	lui	a0, %hi(.L__unnamed_48)
	addi	a3, a0, %lo(.L__unnamed_48)
	li	a2, 12
	.loc	33 0 0 is_stmt 0
	mv	a0, a1
	mv	a1, a3
.Ltmp387:
	tail	_ZN4core3fmt9Formatter9write_str17h7b224d3eb3847887E
.LBB43_7:
.Ltmp388:
	.loc	33 71 38 is_stmt 1
	lui	a0, %hi(.L__unnamed_57)
	addi	a3, a0, %lo(.L__unnamed_57)
	.loc	33 0 0 is_stmt 0
	li	a2, 11
	mv	a0, a1
	mv	a1, a3
.Ltmp389:
	tail	_ZN4core3fmt9Formatter9write_str17h7b224d3eb3847887E
.LBB43_8:
.Ltmp390:
	.loc	33 73 40 is_stmt 1
	lui	a0, %hi(.L__unnamed_58)
	addi	a3, a0, %lo(.L__unnamed_58)
	.loc	33 0 0 is_stmt 0
	li	a2, 11
	mv	a0, a1
	mv	a1, a3
.Ltmp391:
	tail	_ZN4core3fmt9Formatter9write_str17h7b224d3eb3847887E
.LBB43_9:
.Ltmp392:
	.loc	33 74 38 is_stmt 1
	lui	a0, %hi(.L__unnamed_59)
	addi	a3, a0, %lo(.L__unnamed_59)
	.loc	33 0 0 is_stmt 0
	li	a2, 10
	mv	a0, a1
	mv	a1, a3
.Ltmp393:
	tail	_ZN4core3fmt9Formatter9write_str17h7b224d3eb3847887E
.LBB43_10:
.Ltmp394:
	.loc	33 75 35 is_stmt 1
	lui	a0, %hi(.L__unnamed_60)
	addi	a3, a0, %lo(.L__unnamed_60)
	.loc	33 0 0 is_stmt 0
	li	a2, 7
	mv	a0, a1
	mv	a1, a3
.Ltmp395:
	tail	_ZN4core3fmt9Formatter9write_str17h7b224d3eb3847887E
.LBB43_11:
.Ltmp396:
	.loc	33 76 41 is_stmt 1
	lui	a0, %hi(.L__unnamed_61)
	addi	a3, a0, %lo(.L__unnamed_61)
	li	a2, 14
	.loc	33 0 0 is_stmt 0
	mv	a0, a1
	mv	a1, a3
.Ltmp397:
	tail	_ZN4core3fmt9Formatter9write_str17h7b224d3eb3847887E
.LBB43_12:
.Ltmp398:
	.loc	33 77 34 is_stmt 1
	lui	a0, %hi(.L__unnamed_62)
	addi	a3, a0, %lo(.L__unnamed_62)
	.loc	33 0 0 is_stmt 0
	li	a2, 7
	mv	a0, a1
	mv	a1, a3
.Ltmp399:
	tail	_ZN4core3fmt9Formatter9write_str17h7b224d3eb3847887E
.Ltmp400:
.Lfunc_end43:
	.size	_ZN73_$LT$serde..__private..ser..Unsupported$u20$as$u20$core..fmt..Display$GT$3fmt17h608bbb6d5ac2c167E, .Lfunc_end43-_ZN73_$LT$serde..__private..ser..Unsupported$u20$as$u20$core..fmt..Display$GT$3fmt17h608bbb6d5ac2c167E
	.cfi_endproc
	.section	".rodata._ZN73_$LT$serde..__private..ser..Unsupported$u20$as$u20$core..fmt..Display$GT$3fmt17h608bbb6d5ac2c167E","a",@progbits
	.p2align	2, 0x0
.LJTI43_0:
	.word	.LBB43_1
	.word	.LBB43_2
	.word	.LBB43_3
	.word	.LBB43_4
	.word	.LBB43_5
	.word	.LBB43_6
	.word	.LBB43_7
	.word	.LBB43_8
	.word	.LBB43_9
	.word	.LBB43_10
	.word	.LBB43_11
	.word	.LBB43_12

	.section	".text._ZN67_$LT$serde..__private..doc..Error$u20$as$u20$core..fmt..Display$GT$3fmt17ha430912a44d4e96fE","ax",@progbits
	.globl	_ZN67_$LT$serde..__private..doc..Error$u20$as$u20$core..fmt..Display$GT$3fmt17ha430912a44d4e96fE
	.p2align	1
	.type	_ZN67_$LT$serde..__private..doc..Error$u20$as$u20$core..fmt..Display$GT$3fmt17ha430912a44d4e96fE,@function
_ZN67_$LT$serde..__private..doc..Error$u20$as$u20$core..fmt..Display$GT$3fmt17ha430912a44d4e96fE:
.Lfunc_begin44:
	.cfi_startproc
	.cfi_def_cfa_offset 0
	.file	34 "/Users/steve/.cargo/registry/src/index.crates.io-6f17d22bba15001f/serde-1.0.205" "src/private/doc.rs"
	.loc	34 29 9 prologue_end is_stmt 1
	lui	a0, %hi(.L__unnamed_63)
.Ltmp401:
	addi	a0, a0, %lo(.L__unnamed_63)
	lui	a1, %hi(.L__unnamed_64)
.Ltmp402:
	addi	a2, a1, %lo(.L__unnamed_64)
	li	a1, 15
	call	_ZN4core9panicking5panic17hcc06d44c07847f12E
.Ltmp403:
.Lfunc_end44:
	.size	_ZN67_$LT$serde..__private..doc..Error$u20$as$u20$core..fmt..Display$GT$3fmt17ha430912a44d4e96fE, .Lfunc_end44-_ZN67_$LT$serde..__private..doc..Error$u20$as$u20$core..fmt..Display$GT$3fmt17ha430912a44d4e96fE
	.cfi_endproc

	.section	.text._ZN5serde9__private6string15from_utf8_lossy17h864d6a557c4f9d88E,"ax",@progbits
	.globl	_ZN5serde9__private6string15from_utf8_lossy17h864d6a557c4f9d88E
	.p2align	1
	.type	_ZN5serde9__private6string15from_utf8_lossy17h864d6a557c4f9d88E,@function
_ZN5serde9__private6string15from_utf8_lossy17h864d6a557c4f9d88E:
.Lfunc_begin45:
	.file	35 "/Users/steve/.cargo/registry/src/index.crates.io-6f17d22bba15001f/serde-1.0.205" "src/private/mod.rs"
	.loc	35 30 0
	.cfi_startproc
	addi	sp, sp, -16
	.cfi_def_cfa_offset 16
.Ltmp404:
	.loc	35 31 9 prologue_end
	sw	ra, 12(sp)
	.cfi_offset ra, -4
	call	_ZN5alloc6string6String15from_utf8_lossy17h5c16508202988427E
.Ltmp405:
	.loc	35 32 6
	lw	ra, 12(sp)
	.loc	35 32 6 epilogue_begin is_stmt 0
	addi	sp, sp, 16
	ret
.Ltmp406:
.Lfunc_end45:
	.size	_ZN5serde9__private6string15from_utf8_lossy17h864d6a557c4f9d88E, .Lfunc_end45-_ZN5serde9__private6string15from_utf8_lossy17h864d6a557c4f9d88E
	.cfi_endproc

	.section	".text._ZN175_$LT$serde..de..impls..$LT$impl$u20$serde..de..Deserialize$u20$for$u20$core..num..nonzero..NonZero$LT$i8$GT$$GT$..deserialize..NonZeroVisitor$u20$as$u20$serde..de..Visitor$GT$9expecting17h7cbb3339419430d8E","ax",@progbits
	.globl	_ZN175_$LT$serde..de..impls..$LT$impl$u20$serde..de..Deserialize$u20$for$u20$core..num..nonzero..NonZero$LT$i8$GT$$GT$..deserialize..NonZeroVisitor$u20$as$u20$serde..de..Visitor$GT$9expecting17h7cbb3339419430d8E
	.p2align	1
	.type	_ZN175_$LT$serde..de..impls..$LT$impl$u20$serde..de..Deserialize$u20$for$u20$core..num..nonzero..NonZero$LT$i8$GT$$GT$..deserialize..NonZeroVisitor$u20$as$u20$serde..de..Visitor$GT$9expecting17h7cbb3339419430d8E,@function
_ZN175_$LT$serde..de..impls..$LT$impl$u20$serde..de..Deserialize$u20$for$u20$core..num..nonzero..NonZero$LT$i8$GT$$GT$..deserialize..NonZeroVisitor$u20$as$u20$serde..de..Visitor$GT$9expecting17h7cbb3339419430d8E:
.Lfunc_begin46:
	.cfi_startproc
	.loc	1 98 25 prologue_end is_stmt 1
	lui	a0, %hi(.L__unnamed_65)
.Ltmp407:
	addi	a3, a0, %lo(.L__unnamed_65)
	li	a2, 12
	mv	a0, a1
.Ltmp408:
	mv	a1, a3
	tail	_ZN4core3fmt9Formatter9write_str17h7b224d3eb3847887E
.Ltmp409:
.Lfunc_end46:
	.size	_ZN175_$LT$serde..de..impls..$LT$impl$u20$serde..de..Deserialize$u20$for$u20$core..num..nonzero..NonZero$LT$i8$GT$$GT$..deserialize..NonZeroVisitor$u20$as$u20$serde..de..Visitor$GT$9expecting17h7cbb3339419430d8E, .Lfunc_end46-_ZN175_$LT$serde..de..impls..$LT$impl$u20$serde..de..Deserialize$u20$for$u20$core..num..nonzero..NonZero$LT$i8$GT$$GT$..deserialize..NonZeroVisitor$u20$as$u20$serde..de..Visitor$GT$9expecting17h7cbb3339419430d8E
	.cfi_endproc

	.section	".text._ZN184_$LT$serde..de..impls..$LT$impl$u20$serde..de..Deserialize$u20$for$u20$core..num..saturating..Saturating$LT$i8$GT$$GT$..deserialize..SaturatingVisitor$u20$as$u20$serde..de..Visitor$GT$9expecting17hc67c67c44b8b5517E","ax",@progbits
	.globl	_ZN184_$LT$serde..de..impls..$LT$impl$u20$serde..de..Deserialize$u20$for$u20$core..num..saturating..Saturating$LT$i8$GT$$GT$..deserialize..SaturatingVisitor$u20$as$u20$serde..de..Visitor$GT$9expecting17hc67c67c44b8b5517E
	.p2align	1
	.type	_ZN184_$LT$serde..de..impls..$LT$impl$u20$serde..de..Deserialize$u20$for$u20$core..num..saturating..Saturating$LT$i8$GT$$GT$..deserialize..SaturatingVisitor$u20$as$u20$serde..de..Visitor$GT$9expecting17hc67c67c44b8b5517E,@function
_ZN184_$LT$serde..de..impls..$LT$impl$u20$serde..de..Deserialize$u20$for$u20$core..num..saturating..Saturating$LT$i8$GT$$GT$..deserialize..SaturatingVisitor$u20$as$u20$serde..de..Visitor$GT$9expecting17hc67c67c44b8b5517E:
.Lfunc_begin47:
	.cfi_startproc
	.loc	1 120 25 prologue_end
	lui	a0, %hi(.L__unnamed_66)
.Ltmp410:
	addi	a3, a0, %lo(.L__unnamed_66)
	li	a2, 45
	mv	a0, a1
.Ltmp411:
	mv	a1, a3
	tail	_ZN4core3fmt9Formatter9write_str17h7b224d3eb3847887E
.Ltmp412:
.Lfunc_end47:
	.size	_ZN184_$LT$serde..de..impls..$LT$impl$u20$serde..de..Deserialize$u20$for$u20$core..num..saturating..Saturating$LT$i8$GT$$GT$..deserialize..SaturatingVisitor$u20$as$u20$serde..de..Visitor$GT$9expecting17hc67c67c44b8b5517E, .Lfunc_end47-_ZN184_$LT$serde..de..impls..$LT$impl$u20$serde..de..Deserialize$u20$for$u20$core..num..saturating..Saturating$LT$i8$GT$$GT$..deserialize..SaturatingVisitor$u20$as$u20$serde..de..Visitor$GT$9expecting17hc67c67c44b8b5517E
	.cfi_endproc

	.section	".text._ZN142_$LT$serde..de..impls..$LT$impl$u20$serde..de..Deserialize$u20$for$u20$i8$GT$..deserialize..PrimitiveVisitor$u20$as$u20$serde..de..Visitor$GT$9expecting17h6d5a673768299d8dE","ax",@progbits
	.globl	_ZN142_$LT$serde..de..impls..$LT$impl$u20$serde..de..Deserialize$u20$for$u20$i8$GT$..deserialize..PrimitiveVisitor$u20$as$u20$serde..de..Visitor$GT$9expecting17h6d5a673768299d8dE
	.p2align	1
	.type	_ZN142_$LT$serde..de..impls..$LT$impl$u20$serde..de..Deserialize$u20$for$u20$i8$GT$..deserialize..PrimitiveVisitor$u20$as$u20$serde..de..Visitor$GT$9expecting17h6d5a673768299d8dE,@function
_ZN142_$LT$serde..de..impls..$LT$impl$u20$serde..de..Deserialize$u20$for$u20$i8$GT$..deserialize..PrimitiveVisitor$u20$as$u20$serde..de..Visitor$GT$9expecting17h6d5a673768299d8dE:
.Lfunc_begin48:
	.cfi_startproc
	.loc	1 144 25 prologue_end
	lui	a0, %hi(.L__unnamed_67)
.Ltmp413:
	addi	a3, a0, %lo(.L__unnamed_67)
	li	a2, 2
	mv	a0, a1
.Ltmp414:
	mv	a1, a3
	tail	_ZN4core3fmt9Formatter9write_str17h7b224d3eb3847887E
.Ltmp415:
.Lfunc_end48:
	.size	_ZN142_$LT$serde..de..impls..$LT$impl$u20$serde..de..Deserialize$u20$for$u20$i8$GT$..deserialize..PrimitiveVisitor$u20$as$u20$serde..de..Visitor$GT$9expecting17h6d5a673768299d8dE, .Lfunc_end48-_ZN142_$LT$serde..de..impls..$LT$impl$u20$serde..de..Deserialize$u20$for$u20$i8$GT$..deserialize..PrimitiveVisitor$u20$as$u20$serde..de..Visitor$GT$9expecting17h6d5a673768299d8dE
	.cfi_endproc

	.section	".text._ZN176_$LT$serde..de..impls..$LT$impl$u20$serde..de..Deserialize$u20$for$u20$core..num..nonzero..NonZero$LT$i16$GT$$GT$..deserialize..NonZeroVisitor$u20$as$u20$serde..de..Visitor$GT$9expecting17h36d94c0567932f75E","ax",@progbits
	.globl	_ZN176_$LT$serde..de..impls..$LT$impl$u20$serde..de..Deserialize$u20$for$u20$core..num..nonzero..NonZero$LT$i16$GT$$GT$..deserialize..NonZeroVisitor$u20$as$u20$serde..de..Visitor$GT$9expecting17h36d94c0567932f75E
	.p2align	1
	.type	_ZN176_$LT$serde..de..impls..$LT$impl$u20$serde..de..Deserialize$u20$for$u20$core..num..nonzero..NonZero$LT$i16$GT$$GT$..deserialize..NonZeroVisitor$u20$as$u20$serde..de..Visitor$GT$9expecting17h36d94c0567932f75E,@function
_ZN176_$LT$serde..de..impls..$LT$impl$u20$serde..de..Deserialize$u20$for$u20$core..num..nonzero..NonZero$LT$i16$GT$$GT$..deserialize..NonZeroVisitor$u20$as$u20$serde..de..Visitor$GT$9expecting17h36d94c0567932f75E:
.Lfunc_begin49:
	.cfi_startproc
	.loc	1 98 25 prologue_end
	lui	a0, %hi(.L__unnamed_68)
.Ltmp416:
	addi	a3, a0, %lo(.L__unnamed_68)
	li	a2, 13
	mv	a0, a1
.Ltmp417:
	mv	a1, a3
	tail	_ZN4core3fmt9Formatter9write_str17h7b224d3eb3847887E
.Ltmp418:
.Lfunc_end49:
	.size	_ZN176_$LT$serde..de..impls..$LT$impl$u20$serde..de..Deserialize$u20$for$u20$core..num..nonzero..NonZero$LT$i16$GT$$GT$..deserialize..NonZeroVisitor$u20$as$u20$serde..de..Visitor$GT$9expecting17h36d94c0567932f75E, .Lfunc_end49-_ZN176_$LT$serde..de..impls..$LT$impl$u20$serde..de..Deserialize$u20$for$u20$core..num..nonzero..NonZero$LT$i16$GT$$GT$..deserialize..NonZeroVisitor$u20$as$u20$serde..de..Visitor$GT$9expecting17h36d94c0567932f75E
	.cfi_endproc

	.section	".text._ZN143_$LT$serde..de..impls..$LT$impl$u20$serde..de..Deserialize$u20$for$u20$i16$GT$..deserialize..PrimitiveVisitor$u20$as$u20$serde..de..Visitor$GT$9expecting17h9f44fd55c688769eE","ax",@progbits
	.globl	_ZN143_$LT$serde..de..impls..$LT$impl$u20$serde..de..Deserialize$u20$for$u20$i16$GT$..deserialize..PrimitiveVisitor$u20$as$u20$serde..de..Visitor$GT$9expecting17h9f44fd55c688769eE
	.p2align	1
	.type	_ZN143_$LT$serde..de..impls..$LT$impl$u20$serde..de..Deserialize$u20$for$u20$i16$GT$..deserialize..PrimitiveVisitor$u20$as$u20$serde..de..Visitor$GT$9expecting17h9f44fd55c688769eE,@function
_ZN143_$LT$serde..de..impls..$LT$impl$u20$serde..de..Deserialize$u20$for$u20$i16$GT$..deserialize..PrimitiveVisitor$u20$as$u20$serde..de..Visitor$GT$9expecting17h9f44fd55c688769eE:
.Lfunc_begin50:
	.cfi_startproc
	.loc	1 144 25 prologue_end
	lui	a0, %hi(.L__unnamed_69)
.Ltmp419:
	addi	a3, a0, %lo(.L__unnamed_69)
	li	a2, 3
	mv	a0, a1
.Ltmp420:
	mv	a1, a3
	tail	_ZN4core3fmt9Formatter9write_str17h7b224d3eb3847887E
.Ltmp421:
.Lfunc_end50:
	.size	_ZN143_$LT$serde..de..impls..$LT$impl$u20$serde..de..Deserialize$u20$for$u20$i16$GT$..deserialize..PrimitiveVisitor$u20$as$u20$serde..de..Visitor$GT$9expecting17h9f44fd55c688769eE, .Lfunc_end50-_ZN143_$LT$serde..de..impls..$LT$impl$u20$serde..de..Deserialize$u20$for$u20$i16$GT$..deserialize..PrimitiveVisitor$u20$as$u20$serde..de..Visitor$GT$9expecting17h9f44fd55c688769eE
	.cfi_endproc

	.section	".text._ZN176_$LT$serde..de..impls..$LT$impl$u20$serde..de..Deserialize$u20$for$u20$core..num..nonzero..NonZero$LT$i32$GT$$GT$..deserialize..NonZeroVisitor$u20$as$u20$serde..de..Visitor$GT$9expecting17hd4ae568a9c9d610cE","ax",@progbits
	.globl	_ZN176_$LT$serde..de..impls..$LT$impl$u20$serde..de..Deserialize$u20$for$u20$core..num..nonzero..NonZero$LT$i32$GT$$GT$..deserialize..NonZeroVisitor$u20$as$u20$serde..de..Visitor$GT$9expecting17hd4ae568a9c9d610cE
	.p2align	1
	.type	_ZN176_$LT$serde..de..impls..$LT$impl$u20$serde..de..Deserialize$u20$for$u20$core..num..nonzero..NonZero$LT$i32$GT$$GT$..deserialize..NonZeroVisitor$u20$as$u20$serde..de..Visitor$GT$9expecting17hd4ae568a9c9d610cE,@function
_ZN176_$LT$serde..de..impls..$LT$impl$u20$serde..de..Deserialize$u20$for$u20$core..num..nonzero..NonZero$LT$i32$GT$$GT$..deserialize..NonZeroVisitor$u20$as$u20$serde..de..Visitor$GT$9expecting17hd4ae568a9c9d610cE:
.Lfunc_begin51:
	.cfi_startproc
	.loc	1 98 25 prologue_end
	lui	a0, %hi(.L__unnamed_70)
.Ltmp422:
	addi	a3, a0, %lo(.L__unnamed_70)
	li	a2, 13
	mv	a0, a1
.Ltmp423:
	mv	a1, a3
	tail	_ZN4core3fmt9Formatter9write_str17h7b224d3eb3847887E
.Ltmp424:
.Lfunc_end51:
	.size	_ZN176_$LT$serde..de..impls..$LT$impl$u20$serde..de..Deserialize$u20$for$u20$core..num..nonzero..NonZero$LT$i32$GT$$GT$..deserialize..NonZeroVisitor$u20$as$u20$serde..de..Visitor$GT$9expecting17hd4ae568a9c9d610cE, .Lfunc_end51-_ZN176_$LT$serde..de..impls..$LT$impl$u20$serde..de..Deserialize$u20$for$u20$core..num..nonzero..NonZero$LT$i32$GT$$GT$..deserialize..NonZeroVisitor$u20$as$u20$serde..de..Visitor$GT$9expecting17hd4ae568a9c9d610cE
	.cfi_endproc

	.section	".text._ZN143_$LT$serde..de..impls..$LT$impl$u20$serde..de..Deserialize$u20$for$u20$i32$GT$..deserialize..PrimitiveVisitor$u20$as$u20$serde..de..Visitor$GT$9expecting17h9d9cec7438467340E","ax",@progbits
	.globl	_ZN143_$LT$serde..de..impls..$LT$impl$u20$serde..de..Deserialize$u20$for$u20$i32$GT$..deserialize..PrimitiveVisitor$u20$as$u20$serde..de..Visitor$GT$9expecting17h9d9cec7438467340E
	.p2align	1
	.type	_ZN143_$LT$serde..de..impls..$LT$impl$u20$serde..de..Deserialize$u20$for$u20$i32$GT$..deserialize..PrimitiveVisitor$u20$as$u20$serde..de..Visitor$GT$9expecting17h9d9cec7438467340E,@function
_ZN143_$LT$serde..de..impls..$LT$impl$u20$serde..de..Deserialize$u20$for$u20$i32$GT$..deserialize..PrimitiveVisitor$u20$as$u20$serde..de..Visitor$GT$9expecting17h9d9cec7438467340E:
.Lfunc_begin52:
	.cfi_startproc
	.loc	1 144 25 prologue_end
	lui	a0, %hi(.L__unnamed_71)
.Ltmp425:
	addi	a3, a0, %lo(.L__unnamed_71)
	li	a2, 3
	mv	a0, a1
.Ltmp426:
	mv	a1, a3
	tail	_ZN4core3fmt9Formatter9write_str17h7b224d3eb3847887E
.Ltmp427:
.Lfunc_end52:
	.size	_ZN143_$LT$serde..de..impls..$LT$impl$u20$serde..de..Deserialize$u20$for$u20$i32$GT$..deserialize..PrimitiveVisitor$u20$as$u20$serde..de..Visitor$GT$9expecting17h9d9cec7438467340E, .Lfunc_end52-_ZN143_$LT$serde..de..impls..$LT$impl$u20$serde..de..Deserialize$u20$for$u20$i32$GT$..deserialize..PrimitiveVisitor$u20$as$u20$serde..de..Visitor$GT$9expecting17h9d9cec7438467340E
	.cfi_endproc

	.section	".text._ZN176_$LT$serde..de..impls..$LT$impl$u20$serde..de..Deserialize$u20$for$u20$core..num..nonzero..NonZero$LT$i64$GT$$GT$..deserialize..NonZeroVisitor$u20$as$u20$serde..de..Visitor$GT$9expecting17hb61e39598623c316E","ax",@progbits
	.globl	_ZN176_$LT$serde..de..impls..$LT$impl$u20$serde..de..Deserialize$u20$for$u20$core..num..nonzero..NonZero$LT$i64$GT$$GT$..deserialize..NonZeroVisitor$u20$as$u20$serde..de..Visitor$GT$9expecting17hb61e39598623c316E
	.p2align	1
	.type	_ZN176_$LT$serde..de..impls..$LT$impl$u20$serde..de..Deserialize$u20$for$u20$core..num..nonzero..NonZero$LT$i64$GT$$GT$..deserialize..NonZeroVisitor$u20$as$u20$serde..de..Visitor$GT$9expecting17hb61e39598623c316E,@function
_ZN176_$LT$serde..de..impls..$LT$impl$u20$serde..de..Deserialize$u20$for$u20$core..num..nonzero..NonZero$LT$i64$GT$$GT$..deserialize..NonZeroVisitor$u20$as$u20$serde..de..Visitor$GT$9expecting17hb61e39598623c316E:
.Lfunc_begin53:
	.cfi_startproc
	.loc	1 98 25 prologue_end
	lui	a0, %hi(.L__unnamed_72)
.Ltmp428:
	addi	a3, a0, %lo(.L__unnamed_72)
	li	a2, 13
	mv	a0, a1
.Ltmp429:
	mv	a1, a3
	tail	_ZN4core3fmt9Formatter9write_str17h7b224d3eb3847887E
.Ltmp430:
.Lfunc_end53:
	.size	_ZN176_$LT$serde..de..impls..$LT$impl$u20$serde..de..Deserialize$u20$for$u20$core..num..nonzero..NonZero$LT$i64$GT$$GT$..deserialize..NonZeroVisitor$u20$as$u20$serde..de..Visitor$GT$9expecting17hb61e39598623c316E, .Lfunc_end53-_ZN176_$LT$serde..de..impls..$LT$impl$u20$serde..de..Deserialize$u20$for$u20$core..num..nonzero..NonZero$LT$i64$GT$$GT$..deserialize..NonZeroVisitor$u20$as$u20$serde..de..Visitor$GT$9expecting17hb61e39598623c316E
	.cfi_endproc

	.section	".text._ZN143_$LT$serde..de..impls..$LT$impl$u20$serde..de..Deserialize$u20$for$u20$i64$GT$..deserialize..PrimitiveVisitor$u20$as$u20$serde..de..Visitor$GT$9expecting17hb6249ff3838186e3E","ax",@progbits
	.globl	_ZN143_$LT$serde..de..impls..$LT$impl$u20$serde..de..Deserialize$u20$for$u20$i64$GT$..deserialize..PrimitiveVisitor$u20$as$u20$serde..de..Visitor$GT$9expecting17hb6249ff3838186e3E
	.p2align	1
	.type	_ZN143_$LT$serde..de..impls..$LT$impl$u20$serde..de..Deserialize$u20$for$u20$i64$GT$..deserialize..PrimitiveVisitor$u20$as$u20$serde..de..Visitor$GT$9expecting17hb6249ff3838186e3E,@function
_ZN143_$LT$serde..de..impls..$LT$impl$u20$serde..de..Deserialize$u20$for$u20$i64$GT$..deserialize..PrimitiveVisitor$u20$as$u20$serde..de..Visitor$GT$9expecting17hb6249ff3838186e3E:
.Lfunc_begin54:
	.cfi_startproc
	.loc	1 144 25 prologue_end
	lui	a0, %hi(.L__unnamed_73)
.Ltmp431:
	addi	a3, a0, %lo(.L__unnamed_73)
	li	a2, 3
	mv	a0, a1
.Ltmp432:
	mv	a1, a3
	tail	_ZN4core3fmt9Formatter9write_str17h7b224d3eb3847887E
.Ltmp433:
.Lfunc_end54:
	.size	_ZN143_$LT$serde..de..impls..$LT$impl$u20$serde..de..Deserialize$u20$for$u20$i64$GT$..deserialize..PrimitiveVisitor$u20$as$u20$serde..de..Visitor$GT$9expecting17hb6249ff3838186e3E, .Lfunc_end54-_ZN143_$LT$serde..de..impls..$LT$impl$u20$serde..de..Deserialize$u20$for$u20$i64$GT$..deserialize..PrimitiveVisitor$u20$as$u20$serde..de..Visitor$GT$9expecting17hb6249ff3838186e3E
	.cfi_endproc

	.section	".text._ZN178_$LT$serde..de..impls..$LT$impl$u20$serde..de..Deserialize$u20$for$u20$core..num..nonzero..NonZero$LT$isize$GT$$GT$..deserialize..NonZeroVisitor$u20$as$u20$serde..de..Visitor$GT$9expecting17hd712b1b97e83ce1aE","ax",@progbits
	.globl	_ZN178_$LT$serde..de..impls..$LT$impl$u20$serde..de..Deserialize$u20$for$u20$core..num..nonzero..NonZero$LT$isize$GT$$GT$..deserialize..NonZeroVisitor$u20$as$u20$serde..de..Visitor$GT$9expecting17hd712b1b97e83ce1aE
	.p2align	1
	.type	_ZN178_$LT$serde..de..impls..$LT$impl$u20$serde..de..Deserialize$u20$for$u20$core..num..nonzero..NonZero$LT$isize$GT$$GT$..deserialize..NonZeroVisitor$u20$as$u20$serde..de..Visitor$GT$9expecting17hd712b1b97e83ce1aE,@function
_ZN178_$LT$serde..de..impls..$LT$impl$u20$serde..de..Deserialize$u20$for$u20$core..num..nonzero..NonZero$LT$isize$GT$$GT$..deserialize..NonZeroVisitor$u20$as$u20$serde..de..Visitor$GT$9expecting17hd712b1b97e83ce1aE:
.Lfunc_begin55:
	.cfi_startproc
	.loc	1 98 25 prologue_end
	lui	a0, %hi(.L__unnamed_74)
.Ltmp434:
	addi	a3, a0, %lo(.L__unnamed_74)
	li	a2, 15
	mv	a0, a1
.Ltmp435:
	mv	a1, a3
	tail	_ZN4core3fmt9Formatter9write_str17h7b224d3eb3847887E
.Ltmp436:
.Lfunc_end55:
	.size	_ZN178_$LT$serde..de..impls..$LT$impl$u20$serde..de..Deserialize$u20$for$u20$core..num..nonzero..NonZero$LT$isize$GT$$GT$..deserialize..NonZeroVisitor$u20$as$u20$serde..de..Visitor$GT$9expecting17hd712b1b97e83ce1aE, .Lfunc_end55-_ZN178_$LT$serde..de..impls..$LT$impl$u20$serde..de..Deserialize$u20$for$u20$core..num..nonzero..NonZero$LT$isize$GT$$GT$..deserialize..NonZeroVisitor$u20$as$u20$serde..de..Visitor$GT$9expecting17hd712b1b97e83ce1aE
	.cfi_endproc

	.section	".text._ZN145_$LT$serde..de..impls..$LT$impl$u20$serde..de..Deserialize$u20$for$u20$isize$GT$..deserialize..PrimitiveVisitor$u20$as$u20$serde..de..Visitor$GT$9expecting17h3693a4a99fb9d19cE","ax",@progbits
	.globl	_ZN145_$LT$serde..de..impls..$LT$impl$u20$serde..de..Deserialize$u20$for$u20$isize$GT$..deserialize..PrimitiveVisitor$u20$as$u20$serde..de..Visitor$GT$9expecting17h3693a4a99fb9d19cE
	.p2align	1
	.type	_ZN145_$LT$serde..de..impls..$LT$impl$u20$serde..de..Deserialize$u20$for$u20$isize$GT$..deserialize..PrimitiveVisitor$u20$as$u20$serde..de..Visitor$GT$9expecting17h3693a4a99fb9d19cE,@function
_ZN145_$LT$serde..de..impls..$LT$impl$u20$serde..de..Deserialize$u20$for$u20$isize$GT$..deserialize..PrimitiveVisitor$u20$as$u20$serde..de..Visitor$GT$9expecting17h3693a4a99fb9d19cE:
.Lfunc_begin56:
	.cfi_startproc
	.loc	1 144 25 prologue_end
	lui	a0, %hi(.L__unnamed_75)
.Ltmp437:
	addi	a3, a0, %lo(.L__unnamed_75)
	li	a2, 5
	mv	a0, a1
.Ltmp438:
	mv	a1, a3
	tail	_ZN4core3fmt9Formatter9write_str17h7b224d3eb3847887E
.Ltmp439:
.Lfunc_end56:
	.size	_ZN145_$LT$serde..de..impls..$LT$impl$u20$serde..de..Deserialize$u20$for$u20$isize$GT$..deserialize..PrimitiveVisitor$u20$as$u20$serde..de..Visitor$GT$9expecting17h3693a4a99fb9d19cE, .Lfunc_end56-_ZN145_$LT$serde..de..impls..$LT$impl$u20$serde..de..Deserialize$u20$for$u20$isize$GT$..deserialize..PrimitiveVisitor$u20$as$u20$serde..de..Visitor$GT$9expecting17h3693a4a99fb9d19cE
	.cfi_endproc

	.section	".text._ZN175_$LT$serde..de..impls..$LT$impl$u20$serde..de..Deserialize$u20$for$u20$core..num..nonzero..NonZero$LT$u8$GT$$GT$..deserialize..NonZeroVisitor$u20$as$u20$serde..de..Visitor$GT$9expecting17h2f20b7bb91e4d37bE","ax",@progbits
	.globl	_ZN175_$LT$serde..de..impls..$LT$impl$u20$serde..de..Deserialize$u20$for$u20$core..num..nonzero..NonZero$LT$u8$GT$$GT$..deserialize..NonZeroVisitor$u20$as$u20$serde..de..Visitor$GT$9expecting17h2f20b7bb91e4d37bE
	.p2align	1
	.type	_ZN175_$LT$serde..de..impls..$LT$impl$u20$serde..de..Deserialize$u20$for$u20$core..num..nonzero..NonZero$LT$u8$GT$$GT$..deserialize..NonZeroVisitor$u20$as$u20$serde..de..Visitor$GT$9expecting17h2f20b7bb91e4d37bE,@function
_ZN175_$LT$serde..de..impls..$LT$impl$u20$serde..de..Deserialize$u20$for$u20$core..num..nonzero..NonZero$LT$u8$GT$$GT$..deserialize..NonZeroVisitor$u20$as$u20$serde..de..Visitor$GT$9expecting17h2f20b7bb91e4d37bE:
.Lfunc_begin57:
	.cfi_startproc
	.loc	1 98 25 prologue_end
	lui	a0, %hi(.L__unnamed_76)
.Ltmp440:
	addi	a3, a0, %lo(.L__unnamed_76)
	li	a2, 12
	mv	a0, a1
.Ltmp441:
	mv	a1, a3
	tail	_ZN4core3fmt9Formatter9write_str17h7b224d3eb3847887E
.Ltmp442:
.Lfunc_end57:
	.size	_ZN175_$LT$serde..de..impls..$LT$impl$u20$serde..de..Deserialize$u20$for$u20$core..num..nonzero..NonZero$LT$u8$GT$$GT$..deserialize..NonZeroVisitor$u20$as$u20$serde..de..Visitor$GT$9expecting17h2f20b7bb91e4d37bE, .Lfunc_end57-_ZN175_$LT$serde..de..impls..$LT$impl$u20$serde..de..Deserialize$u20$for$u20$core..num..nonzero..NonZero$LT$u8$GT$$GT$..deserialize..NonZeroVisitor$u20$as$u20$serde..de..Visitor$GT$9expecting17h2f20b7bb91e4d37bE
	.cfi_endproc

	.section	".text._ZN142_$LT$serde..de..impls..$LT$impl$u20$serde..de..Deserialize$u20$for$u20$u8$GT$..deserialize..PrimitiveVisitor$u20$as$u20$serde..de..Visitor$GT$9expecting17hc4bfa9aa8fdf16c1E","ax",@progbits
	.globl	_ZN142_$LT$serde..de..impls..$LT$impl$u20$serde..de..Deserialize$u20$for$u20$u8$GT$..deserialize..PrimitiveVisitor$u20$as$u20$serde..de..Visitor$GT$9expecting17hc4bfa9aa8fdf16c1E
	.p2align	1
	.type	_ZN142_$LT$serde..de..impls..$LT$impl$u20$serde..de..Deserialize$u20$for$u20$u8$GT$..deserialize..PrimitiveVisitor$u20$as$u20$serde..de..Visitor$GT$9expecting17hc4bfa9aa8fdf16c1E,@function
_ZN142_$LT$serde..de..impls..$LT$impl$u20$serde..de..Deserialize$u20$for$u20$u8$GT$..deserialize..PrimitiveVisitor$u20$as$u20$serde..de..Visitor$GT$9expecting17hc4bfa9aa8fdf16c1E:
.Lfunc_begin58:
	.cfi_startproc
	.loc	1 144 25 prologue_end
	lui	a0, %hi(.L__unnamed_77)
.Ltmp443:
	addi	a3, a0, %lo(.L__unnamed_77)
	li	a2, 2
	mv	a0, a1
.Ltmp444:
	mv	a1, a3
	tail	_ZN4core3fmt9Formatter9write_str17h7b224d3eb3847887E
.Ltmp445:
.Lfunc_end58:
	.size	_ZN142_$LT$serde..de..impls..$LT$impl$u20$serde..de..Deserialize$u20$for$u20$u8$GT$..deserialize..PrimitiveVisitor$u20$as$u20$serde..de..Visitor$GT$9expecting17hc4bfa9aa8fdf16c1E, .Lfunc_end58-_ZN142_$LT$serde..de..impls..$LT$impl$u20$serde..de..Deserialize$u20$for$u20$u8$GT$..deserialize..PrimitiveVisitor$u20$as$u20$serde..de..Visitor$GT$9expecting17hc4bfa9aa8fdf16c1E
	.cfi_endproc

	.section	".text._ZN176_$LT$serde..de..impls..$LT$impl$u20$serde..de..Deserialize$u20$for$u20$core..num..nonzero..NonZero$LT$u16$GT$$GT$..deserialize..NonZeroVisitor$u20$as$u20$serde..de..Visitor$GT$9expecting17h8e6bd6c851a51439E","ax",@progbits
	.globl	_ZN176_$LT$serde..de..impls..$LT$impl$u20$serde..de..Deserialize$u20$for$u20$core..num..nonzero..NonZero$LT$u16$GT$$GT$..deserialize..NonZeroVisitor$u20$as$u20$serde..de..Visitor$GT$9expecting17h8e6bd6c851a51439E
	.p2align	1
	.type	_ZN176_$LT$serde..de..impls..$LT$impl$u20$serde..de..Deserialize$u20$for$u20$core..num..nonzero..NonZero$LT$u16$GT$$GT$..deserialize..NonZeroVisitor$u20$as$u20$serde..de..Visitor$GT$9expecting17h8e6bd6c851a51439E,@function
_ZN176_$LT$serde..de..impls..$LT$impl$u20$serde..de..Deserialize$u20$for$u20$core..num..nonzero..NonZero$LT$u16$GT$$GT$..deserialize..NonZeroVisitor$u20$as$u20$serde..de..Visitor$GT$9expecting17h8e6bd6c851a51439E:
.Lfunc_begin59:
	.cfi_startproc
	.loc	1 98 25 prologue_end
	lui	a0, %hi(.L__unnamed_78)
.Ltmp446:
	addi	a3, a0, %lo(.L__unnamed_78)
	li	a2, 13
	mv	a0, a1
.Ltmp447:
	mv	a1, a3
	tail	_ZN4core3fmt9Formatter9write_str17h7b224d3eb3847887E
.Ltmp448:
.Lfunc_end59:
	.size	_ZN176_$LT$serde..de..impls..$LT$impl$u20$serde..de..Deserialize$u20$for$u20$core..num..nonzero..NonZero$LT$u16$GT$$GT$..deserialize..NonZeroVisitor$u20$as$u20$serde..de..Visitor$GT$9expecting17h8e6bd6c851a51439E, .Lfunc_end59-_ZN176_$LT$serde..de..impls..$LT$impl$u20$serde..de..Deserialize$u20$for$u20$core..num..nonzero..NonZero$LT$u16$GT$$GT$..deserialize..NonZeroVisitor$u20$as$u20$serde..de..Visitor$GT$9expecting17h8e6bd6c851a51439E
	.cfi_endproc

	.section	".text._ZN143_$LT$serde..de..impls..$LT$impl$u20$serde..de..Deserialize$u20$for$u20$u16$GT$..deserialize..PrimitiveVisitor$u20$as$u20$serde..de..Visitor$GT$9expecting17h15b1a1b917a3a049E","ax",@progbits
	.globl	_ZN143_$LT$serde..de..impls..$LT$impl$u20$serde..de..Deserialize$u20$for$u20$u16$GT$..deserialize..PrimitiveVisitor$u20$as$u20$serde..de..Visitor$GT$9expecting17h15b1a1b917a3a049E
	.p2align	1
	.type	_ZN143_$LT$serde..de..impls..$LT$impl$u20$serde..de..Deserialize$u20$for$u20$u16$GT$..deserialize..PrimitiveVisitor$u20$as$u20$serde..de..Visitor$GT$9expecting17h15b1a1b917a3a049E,@function
_ZN143_$LT$serde..de..impls..$LT$impl$u20$serde..de..Deserialize$u20$for$u20$u16$GT$..deserialize..PrimitiveVisitor$u20$as$u20$serde..de..Visitor$GT$9expecting17h15b1a1b917a3a049E:
.Lfunc_begin60:
	.cfi_startproc
	.loc	1 144 25 prologue_end
	lui	a0, %hi(.L__unnamed_79)
.Ltmp449:
	addi	a3, a0, %lo(.L__unnamed_79)
	li	a2, 3
	mv	a0, a1
.Ltmp450:
	mv	a1, a3
	tail	_ZN4core3fmt9Formatter9write_str17h7b224d3eb3847887E
.Ltmp451:
.Lfunc_end60:
	.size	_ZN143_$LT$serde..de..impls..$LT$impl$u20$serde..de..Deserialize$u20$for$u20$u16$GT$..deserialize..PrimitiveVisitor$u20$as$u20$serde..de..Visitor$GT$9expecting17h15b1a1b917a3a049E, .Lfunc_end60-_ZN143_$LT$serde..de..impls..$LT$impl$u20$serde..de..Deserialize$u20$for$u20$u16$GT$..deserialize..PrimitiveVisitor$u20$as$u20$serde..de..Visitor$GT$9expecting17h15b1a1b917a3a049E
	.cfi_endproc

	.section	".text._ZN176_$LT$serde..de..impls..$LT$impl$u20$serde..de..Deserialize$u20$for$u20$core..num..nonzero..NonZero$LT$u32$GT$$GT$..deserialize..NonZeroVisitor$u20$as$u20$serde..de..Visitor$GT$9expecting17h7d7656d421cc08daE","ax",@progbits
	.globl	_ZN176_$LT$serde..de..impls..$LT$impl$u20$serde..de..Deserialize$u20$for$u20$core..num..nonzero..NonZero$LT$u32$GT$$GT$..deserialize..NonZeroVisitor$u20$as$u20$serde..de..Visitor$GT$9expecting17h7d7656d421cc08daE
	.p2align	1
	.type	_ZN176_$LT$serde..de..impls..$LT$impl$u20$serde..de..Deserialize$u20$for$u20$core..num..nonzero..NonZero$LT$u32$GT$$GT$..deserialize..NonZeroVisitor$u20$as$u20$serde..de..Visitor$GT$9expecting17h7d7656d421cc08daE,@function
_ZN176_$LT$serde..de..impls..$LT$impl$u20$serde..de..Deserialize$u20$for$u20$core..num..nonzero..NonZero$LT$u32$GT$$GT$..deserialize..NonZeroVisitor$u20$as$u20$serde..de..Visitor$GT$9expecting17h7d7656d421cc08daE:
.Lfunc_begin61:
	.cfi_startproc
	.loc	1 98 25 prologue_end
	lui	a0, %hi(.L__unnamed_80)
.Ltmp452:
	addi	a3, a0, %lo(.L__unnamed_80)
	li	a2, 13
	mv	a0, a1
.Ltmp453:
	mv	a1, a3
	tail	_ZN4core3fmt9Formatter9write_str17h7b224d3eb3847887E
.Ltmp454:
.Lfunc_end61:
	.size	_ZN176_$LT$serde..de..impls..$LT$impl$u20$serde..de..Deserialize$u20$for$u20$core..num..nonzero..NonZero$LT$u32$GT$$GT$..deserialize..NonZeroVisitor$u20$as$u20$serde..de..Visitor$GT$9expecting17h7d7656d421cc08daE, .Lfunc_end61-_ZN176_$LT$serde..de..impls..$LT$impl$u20$serde..de..Deserialize$u20$for$u20$core..num..nonzero..NonZero$LT$u32$GT$$GT$..deserialize..NonZeroVisitor$u20$as$u20$serde..de..Visitor$GT$9expecting17h7d7656d421cc08daE
	.cfi_endproc

	.section	".text._ZN143_$LT$serde..de..impls..$LT$impl$u20$serde..de..Deserialize$u20$for$u20$u32$GT$..deserialize..PrimitiveVisitor$u20$as$u20$serde..de..Visitor$GT$9expecting17h8cbb772d6fcbb7ceE","ax",@progbits
	.globl	_ZN143_$LT$serde..de..impls..$LT$impl$u20$serde..de..Deserialize$u20$for$u20$u32$GT$..deserialize..PrimitiveVisitor$u20$as$u20$serde..de..Visitor$GT$9expecting17h8cbb772d6fcbb7ceE
	.p2align	1
	.type	_ZN143_$LT$serde..de..impls..$LT$impl$u20$serde..de..Deserialize$u20$for$u20$u32$GT$..deserialize..PrimitiveVisitor$u20$as$u20$serde..de..Visitor$GT$9expecting17h8cbb772d6fcbb7ceE,@function
_ZN143_$LT$serde..de..impls..$LT$impl$u20$serde..de..Deserialize$u20$for$u20$u32$GT$..deserialize..PrimitiveVisitor$u20$as$u20$serde..de..Visitor$GT$9expecting17h8cbb772d6fcbb7ceE:
.Lfunc_begin62:
	.cfi_startproc
	.loc	1 144 25 prologue_end
	lui	a0, %hi(.L__unnamed_81)
.Ltmp455:
	addi	a3, a0, %lo(.L__unnamed_81)
	li	a2, 3
	mv	a0, a1
.Ltmp456:
	mv	a1, a3
	tail	_ZN4core3fmt9Formatter9write_str17h7b224d3eb3847887E
.Ltmp457:
.Lfunc_end62:
	.size	_ZN143_$LT$serde..de..impls..$LT$impl$u20$serde..de..Deserialize$u20$for$u20$u32$GT$..deserialize..PrimitiveVisitor$u20$as$u20$serde..de..Visitor$GT$9expecting17h8cbb772d6fcbb7ceE, .Lfunc_end62-_ZN143_$LT$serde..de..impls..$LT$impl$u20$serde..de..Deserialize$u20$for$u20$u32$GT$..deserialize..PrimitiveVisitor$u20$as$u20$serde..de..Visitor$GT$9expecting17h8cbb772d6fcbb7ceE
	.cfi_endproc

	.section	".text._ZN176_$LT$serde..de..impls..$LT$impl$u20$serde..de..Deserialize$u20$for$u20$core..num..nonzero..NonZero$LT$u64$GT$$GT$..deserialize..NonZeroVisitor$u20$as$u20$serde..de..Visitor$GT$9expecting17h5c1d9ddce0956526E","ax",@progbits
	.globl	_ZN176_$LT$serde..de..impls..$LT$impl$u20$serde..de..Deserialize$u20$for$u20$core..num..nonzero..NonZero$LT$u64$GT$$GT$..deserialize..NonZeroVisitor$u20$as$u20$serde..de..Visitor$GT$9expecting17h5c1d9ddce0956526E
	.p2align	1
	.type	_ZN176_$LT$serde..de..impls..$LT$impl$u20$serde..de..Deserialize$u20$for$u20$core..num..nonzero..NonZero$LT$u64$GT$$GT$..deserialize..NonZeroVisitor$u20$as$u20$serde..de..Visitor$GT$9expecting17h5c1d9ddce0956526E,@function
_ZN176_$LT$serde..de..impls..$LT$impl$u20$serde..de..Deserialize$u20$for$u20$core..num..nonzero..NonZero$LT$u64$GT$$GT$..deserialize..NonZeroVisitor$u20$as$u20$serde..de..Visitor$GT$9expecting17h5c1d9ddce0956526E:
.Lfunc_begin63:
	.cfi_startproc
	.loc	1 98 25 prologue_end
	lui	a0, %hi(.L__unnamed_82)
.Ltmp458:
	addi	a3, a0, %lo(.L__unnamed_82)
	li	a2, 13
	mv	a0, a1
.Ltmp459:
	mv	a1, a3
	tail	_ZN4core3fmt9Formatter9write_str17h7b224d3eb3847887E
.Ltmp460:
.Lfunc_end63:
	.size	_ZN176_$LT$serde..de..impls..$LT$impl$u20$serde..de..Deserialize$u20$for$u20$core..num..nonzero..NonZero$LT$u64$GT$$GT$..deserialize..NonZeroVisitor$u20$as$u20$serde..de..Visitor$GT$9expecting17h5c1d9ddce0956526E, .Lfunc_end63-_ZN176_$LT$serde..de..impls..$LT$impl$u20$serde..de..Deserialize$u20$for$u20$core..num..nonzero..NonZero$LT$u64$GT$$GT$..deserialize..NonZeroVisitor$u20$as$u20$serde..de..Visitor$GT$9expecting17h5c1d9ddce0956526E
	.cfi_endproc

	.section	".text._ZN143_$LT$serde..de..impls..$LT$impl$u20$serde..de..Deserialize$u20$for$u20$u64$GT$..deserialize..PrimitiveVisitor$u20$as$u20$serde..de..Visitor$GT$9expecting17h38e0d96ac66d8cf1E","ax",@progbits
	.globl	_ZN143_$LT$serde..de..impls..$LT$impl$u20$serde..de..Deserialize$u20$for$u20$u64$GT$..deserialize..PrimitiveVisitor$u20$as$u20$serde..de..Visitor$GT$9expecting17h38e0d96ac66d8cf1E
	.p2align	1
	.type	_ZN143_$LT$serde..de..impls..$LT$impl$u20$serde..de..Deserialize$u20$for$u20$u64$GT$..deserialize..PrimitiveVisitor$u20$as$u20$serde..de..Visitor$GT$9expecting17h38e0d96ac66d8cf1E,@function
_ZN143_$LT$serde..de..impls..$LT$impl$u20$serde..de..Deserialize$u20$for$u20$u64$GT$..deserialize..PrimitiveVisitor$u20$as$u20$serde..de..Visitor$GT$9expecting17h38e0d96ac66d8cf1E:
.Lfunc_begin64:
	.cfi_startproc
	.loc	1 144 25 prologue_end
	lui	a0, %hi(.L__unnamed_83)
.Ltmp461:
	addi	a3, a0, %lo(.L__unnamed_83)
	li	a2, 3
	mv	a0, a1
.Ltmp462:
	mv	a1, a3
	tail	_ZN4core3fmt9Formatter9write_str17h7b224d3eb3847887E
.Ltmp463:
.Lfunc_end64:
	.size	_ZN143_$LT$serde..de..impls..$LT$impl$u20$serde..de..Deserialize$u20$for$u20$u64$GT$..deserialize..PrimitiveVisitor$u20$as$u20$serde..de..Visitor$GT$9expecting17h38e0d96ac66d8cf1E, .Lfunc_end64-_ZN143_$LT$serde..de..impls..$LT$impl$u20$serde..de..Deserialize$u20$for$u20$u64$GT$..deserialize..PrimitiveVisitor$u20$as$u20$serde..de..Visitor$GT$9expecting17h38e0d96ac66d8cf1E
	.cfi_endproc

	.section	".text._ZN178_$LT$serde..de..impls..$LT$impl$u20$serde..de..Deserialize$u20$for$u20$core..num..nonzero..NonZero$LT$usize$GT$$GT$..deserialize..NonZeroVisitor$u20$as$u20$serde..de..Visitor$GT$9expecting17hcd5455a273d47eb2E","ax",@progbits
	.globl	_ZN178_$LT$serde..de..impls..$LT$impl$u20$serde..de..Deserialize$u20$for$u20$core..num..nonzero..NonZero$LT$usize$GT$$GT$..deserialize..NonZeroVisitor$u20$as$u20$serde..de..Visitor$GT$9expecting17hcd5455a273d47eb2E
	.p2align	1
	.type	_ZN178_$LT$serde..de..impls..$LT$impl$u20$serde..de..Deserialize$u20$for$u20$core..num..nonzero..NonZero$LT$usize$GT$$GT$..deserialize..NonZeroVisitor$u20$as$u20$serde..de..Visitor$GT$9expecting17hcd5455a273d47eb2E,@function
_ZN178_$LT$serde..de..impls..$LT$impl$u20$serde..de..Deserialize$u20$for$u20$core..num..nonzero..NonZero$LT$usize$GT$$GT$..deserialize..NonZeroVisitor$u20$as$u20$serde..de..Visitor$GT$9expecting17hcd5455a273d47eb2E:
.Lfunc_begin65:
	.cfi_startproc
	.loc	1 98 25 prologue_end
	lui	a0, %hi(.L__unnamed_84)
.Ltmp464:
	addi	a3, a0, %lo(.L__unnamed_84)
	li	a2, 15
	mv	a0, a1
.Ltmp465:
	mv	a1, a3
	tail	_ZN4core3fmt9Formatter9write_str17h7b224d3eb3847887E
.Ltmp466:
.Lfunc_end65:
	.size	_ZN178_$LT$serde..de..impls..$LT$impl$u20$serde..de..Deserialize$u20$for$u20$core..num..nonzero..NonZero$LT$usize$GT$$GT$..deserialize..NonZeroVisitor$u20$as$u20$serde..de..Visitor$GT$9expecting17hcd5455a273d47eb2E, .Lfunc_end65-_ZN178_$LT$serde..de..impls..$LT$impl$u20$serde..de..Deserialize$u20$for$u20$core..num..nonzero..NonZero$LT$usize$GT$$GT$..deserialize..NonZeroVisitor$u20$as$u20$serde..de..Visitor$GT$9expecting17hcd5455a273d47eb2E
	.cfi_endproc

	.section	".text._ZN145_$LT$serde..de..impls..$LT$impl$u20$serde..de..Deserialize$u20$for$u20$usize$GT$..deserialize..PrimitiveVisitor$u20$as$u20$serde..de..Visitor$GT$9expecting17h7b1a7a511973a5d3E","ax",@progbits
	.globl	_ZN145_$LT$serde..de..impls..$LT$impl$u20$serde..de..Deserialize$u20$for$u20$usize$GT$..deserialize..PrimitiveVisitor$u20$as$u20$serde..de..Visitor$GT$9expecting17h7b1a7a511973a5d3E
	.p2align	1
	.type	_ZN145_$LT$serde..de..impls..$LT$impl$u20$serde..de..Deserialize$u20$for$u20$usize$GT$..deserialize..PrimitiveVisitor$u20$as$u20$serde..de..Visitor$GT$9expecting17h7b1a7a511973a5d3E,@function
_ZN145_$LT$serde..de..impls..$LT$impl$u20$serde..de..Deserialize$u20$for$u20$usize$GT$..deserialize..PrimitiveVisitor$u20$as$u20$serde..de..Visitor$GT$9expecting17h7b1a7a511973a5d3E:
.Lfunc_begin66:
	.cfi_startproc
	.loc	1 144 25 prologue_end
	lui	a0, %hi(.L__unnamed_85)
.Ltmp467:
	addi	a3, a0, %lo(.L__unnamed_85)
	li	a2, 5
	mv	a0, a1
.Ltmp468:
	mv	a1, a3
	tail	_ZN4core3fmt9Formatter9write_str17h7b224d3eb3847887E
.Ltmp469:
.Lfunc_end66:
	.size	_ZN145_$LT$serde..de..impls..$LT$impl$u20$serde..de..Deserialize$u20$for$u20$usize$GT$..deserialize..PrimitiveVisitor$u20$as$u20$serde..de..Visitor$GT$9expecting17h7b1a7a511973a5d3E, .Lfunc_end66-_ZN145_$LT$serde..de..impls..$LT$impl$u20$serde..de..Deserialize$u20$for$u20$usize$GT$..deserialize..PrimitiveVisitor$u20$as$u20$serde..de..Visitor$GT$9expecting17h7b1a7a511973a5d3E
	.cfi_endproc

	.section	".text._ZN143_$LT$serde..de..impls..$LT$impl$u20$serde..de..Deserialize$u20$for$u20$f32$GT$..deserialize..PrimitiveVisitor$u20$as$u20$serde..de..Visitor$GT$9expecting17hed132776b4f9b805E","ax",@progbits
	.globl	_ZN143_$LT$serde..de..impls..$LT$impl$u20$serde..de..Deserialize$u20$for$u20$f32$GT$..deserialize..PrimitiveVisitor$u20$as$u20$serde..de..Visitor$GT$9expecting17hed132776b4f9b805E
	.p2align	1
	.type	_ZN143_$LT$serde..de..impls..$LT$impl$u20$serde..de..Deserialize$u20$for$u20$f32$GT$..deserialize..PrimitiveVisitor$u20$as$u20$serde..de..Visitor$GT$9expecting17hed132776b4f9b805E,@function
_ZN143_$LT$serde..de..impls..$LT$impl$u20$serde..de..Deserialize$u20$for$u20$f32$GT$..deserialize..PrimitiveVisitor$u20$as$u20$serde..de..Visitor$GT$9expecting17hed132776b4f9b805E:
.Lfunc_begin67:
	.cfi_startproc
	.loc	1 144 25 prologue_end
	lui	a0, %hi(.L__unnamed_86)
.Ltmp470:
	addi	a3, a0, %lo(.L__unnamed_86)
	li	a2, 3
	mv	a0, a1
.Ltmp471:
	mv	a1, a3
	tail	_ZN4core3fmt9Formatter9write_str17h7b224d3eb3847887E
.Ltmp472:
.Lfunc_end67:
	.size	_ZN143_$LT$serde..de..impls..$LT$impl$u20$serde..de..Deserialize$u20$for$u20$f32$GT$..deserialize..PrimitiveVisitor$u20$as$u20$serde..de..Visitor$GT$9expecting17hed132776b4f9b805E, .Lfunc_end67-_ZN143_$LT$serde..de..impls..$LT$impl$u20$serde..de..Deserialize$u20$for$u20$f32$GT$..deserialize..PrimitiveVisitor$u20$as$u20$serde..de..Visitor$GT$9expecting17hed132776b4f9b805E
	.cfi_endproc

	.section	".text._ZN143_$LT$serde..de..impls..$LT$impl$u20$serde..de..Deserialize$u20$for$u20$f64$GT$..deserialize..PrimitiveVisitor$u20$as$u20$serde..de..Visitor$GT$9expecting17hbe82e8a3656b2ff9E","ax",@progbits
	.globl	_ZN143_$LT$serde..de..impls..$LT$impl$u20$serde..de..Deserialize$u20$for$u20$f64$GT$..deserialize..PrimitiveVisitor$u20$as$u20$serde..de..Visitor$GT$9expecting17hbe82e8a3656b2ff9E
	.p2align	1
	.type	_ZN143_$LT$serde..de..impls..$LT$impl$u20$serde..de..Deserialize$u20$for$u20$f64$GT$..deserialize..PrimitiveVisitor$u20$as$u20$serde..de..Visitor$GT$9expecting17hbe82e8a3656b2ff9E,@function
_ZN143_$LT$serde..de..impls..$LT$impl$u20$serde..de..Deserialize$u20$for$u20$f64$GT$..deserialize..PrimitiveVisitor$u20$as$u20$serde..de..Visitor$GT$9expecting17hbe82e8a3656b2ff9E:
.Lfunc_begin68:
	.cfi_startproc
	.loc	1 144 25 prologue_end
	lui	a0, %hi(.L__unnamed_87)
.Ltmp473:
	addi	a3, a0, %lo(.L__unnamed_87)
	li	a2, 3
	mv	a0, a1
.Ltmp474:
	mv	a1, a3
	tail	_ZN4core3fmt9Formatter9write_str17h7b224d3eb3847887E
.Ltmp475:
.Lfunc_end68:
	.size	_ZN143_$LT$serde..de..impls..$LT$impl$u20$serde..de..Deserialize$u20$for$u20$f64$GT$..deserialize..PrimitiveVisitor$u20$as$u20$serde..de..Visitor$GT$9expecting17hbe82e8a3656b2ff9E, .Lfunc_end68-_ZN143_$LT$serde..de..impls..$LT$impl$u20$serde..de..Deserialize$u20$for$u20$f64$GT$..deserialize..PrimitiveVisitor$u20$as$u20$serde..de..Visitor$GT$9expecting17hbe82e8a3656b2ff9E
	.cfi_endproc

	.section	".text._ZN177_$LT$serde..de..impls..$LT$impl$u20$serde..de..Deserialize$u20$for$u20$core..num..nonzero..NonZero$LT$i128$GT$$GT$..deserialize..NonZeroVisitor$u20$as$u20$serde..de..Visitor$GT$9expecting17h66b370c3c57a07f4E","ax",@progbits
	.globl	_ZN177_$LT$serde..de..impls..$LT$impl$u20$serde..de..Deserialize$u20$for$u20$core..num..nonzero..NonZero$LT$i128$GT$$GT$..deserialize..NonZeroVisitor$u20$as$u20$serde..de..Visitor$GT$9expecting17h66b370c3c57a07f4E
	.p2align	1
	.type	_ZN177_$LT$serde..de..impls..$LT$impl$u20$serde..de..Deserialize$u20$for$u20$core..num..nonzero..NonZero$LT$i128$GT$$GT$..deserialize..NonZeroVisitor$u20$as$u20$serde..de..Visitor$GT$9expecting17h66b370c3c57a07f4E,@function
_ZN177_$LT$serde..de..impls..$LT$impl$u20$serde..de..Deserialize$u20$for$u20$core..num..nonzero..NonZero$LT$i128$GT$$GT$..deserialize..NonZeroVisitor$u20$as$u20$serde..de..Visitor$GT$9expecting17h66b370c3c57a07f4E:
.Lfunc_begin69:
	.cfi_startproc
	.loc	1 98 25 prologue_end
	lui	a0, %hi(.L__unnamed_88)
.Ltmp476:
	addi	a3, a0, %lo(.L__unnamed_88)
	li	a2, 14
	mv	a0, a1
.Ltmp477:
	mv	a1, a3
	tail	_ZN4core3fmt9Formatter9write_str17h7b224d3eb3847887E
.Ltmp478:
.Lfunc_end69:
	.size	_ZN177_$LT$serde..de..impls..$LT$impl$u20$serde..de..Deserialize$u20$for$u20$core..num..nonzero..NonZero$LT$i128$GT$$GT$..deserialize..NonZeroVisitor$u20$as$u20$serde..de..Visitor$GT$9expecting17h66b370c3c57a07f4E, .Lfunc_end69-_ZN177_$LT$serde..de..impls..$LT$impl$u20$serde..de..Deserialize$u20$for$u20$core..num..nonzero..NonZero$LT$i128$GT$$GT$..deserialize..NonZeroVisitor$u20$as$u20$serde..de..Visitor$GT$9expecting17h66b370c3c57a07f4E
	.cfi_endproc

	.section	".text._ZN144_$LT$serde..de..impls..$LT$impl$u20$serde..de..Deserialize$u20$for$u20$i128$GT$..deserialize..PrimitiveVisitor$u20$as$u20$serde..de..Visitor$GT$9expecting17h5ee0d7d34ed198f4E","ax",@progbits
	.globl	_ZN144_$LT$serde..de..impls..$LT$impl$u20$serde..de..Deserialize$u20$for$u20$i128$GT$..deserialize..PrimitiveVisitor$u20$as$u20$serde..de..Visitor$GT$9expecting17h5ee0d7d34ed198f4E
	.p2align	1
	.type	_ZN144_$LT$serde..de..impls..$LT$impl$u20$serde..de..Deserialize$u20$for$u20$i128$GT$..deserialize..PrimitiveVisitor$u20$as$u20$serde..de..Visitor$GT$9expecting17h5ee0d7d34ed198f4E,@function
_ZN144_$LT$serde..de..impls..$LT$impl$u20$serde..de..Deserialize$u20$for$u20$i128$GT$..deserialize..PrimitiveVisitor$u20$as$u20$serde..de..Visitor$GT$9expecting17h5ee0d7d34ed198f4E:
.Lfunc_begin70:
	.cfi_startproc
	.loc	1 144 25 prologue_end
	lui	a0, %hi(.L__unnamed_89)
.Ltmp479:
	addi	a3, a0, %lo(.L__unnamed_89)
	li	a2, 4
	mv	a0, a1
.Ltmp480:
	mv	a1, a3
	tail	_ZN4core3fmt9Formatter9write_str17h7b224d3eb3847887E
.Ltmp481:
.Lfunc_end70:
	.size	_ZN144_$LT$serde..de..impls..$LT$impl$u20$serde..de..Deserialize$u20$for$u20$i128$GT$..deserialize..PrimitiveVisitor$u20$as$u20$serde..de..Visitor$GT$9expecting17h5ee0d7d34ed198f4E, .Lfunc_end70-_ZN144_$LT$serde..de..impls..$LT$impl$u20$serde..de..Deserialize$u20$for$u20$i128$GT$..deserialize..PrimitiveVisitor$u20$as$u20$serde..de..Visitor$GT$9expecting17h5ee0d7d34ed198f4E
	.cfi_endproc

	.section	".text._ZN177_$LT$serde..de..impls..$LT$impl$u20$serde..de..Deserialize$u20$for$u20$core..num..nonzero..NonZero$LT$u128$GT$$GT$..deserialize..NonZeroVisitor$u20$as$u20$serde..de..Visitor$GT$9expecting17h24f83fd10a739494E","ax",@progbits
	.globl	_ZN177_$LT$serde..de..impls..$LT$impl$u20$serde..de..Deserialize$u20$for$u20$core..num..nonzero..NonZero$LT$u128$GT$$GT$..deserialize..NonZeroVisitor$u20$as$u20$serde..de..Visitor$GT$9expecting17h24f83fd10a739494E
	.p2align	1
	.type	_ZN177_$LT$serde..de..impls..$LT$impl$u20$serde..de..Deserialize$u20$for$u20$core..num..nonzero..NonZero$LT$u128$GT$$GT$..deserialize..NonZeroVisitor$u20$as$u20$serde..de..Visitor$GT$9expecting17h24f83fd10a739494E,@function
_ZN177_$LT$serde..de..impls..$LT$impl$u20$serde..de..Deserialize$u20$for$u20$core..num..nonzero..NonZero$LT$u128$GT$$GT$..deserialize..NonZeroVisitor$u20$as$u20$serde..de..Visitor$GT$9expecting17h24f83fd10a739494E:
.Lfunc_begin71:
	.cfi_startproc
	.loc	1 98 25 prologue_end
	lui	a0, %hi(.L__unnamed_90)
.Ltmp482:
	addi	a3, a0, %lo(.L__unnamed_90)
	li	a2, 14
	mv	a0, a1
.Ltmp483:
	mv	a1, a3
	tail	_ZN4core3fmt9Formatter9write_str17h7b224d3eb3847887E
.Ltmp484:
.Lfunc_end71:
	.size	_ZN177_$LT$serde..de..impls..$LT$impl$u20$serde..de..Deserialize$u20$for$u20$core..num..nonzero..NonZero$LT$u128$GT$$GT$..deserialize..NonZeroVisitor$u20$as$u20$serde..de..Visitor$GT$9expecting17h24f83fd10a739494E, .Lfunc_end71-_ZN177_$LT$serde..de..impls..$LT$impl$u20$serde..de..Deserialize$u20$for$u20$core..num..nonzero..NonZero$LT$u128$GT$$GT$..deserialize..NonZeroVisitor$u20$as$u20$serde..de..Visitor$GT$9expecting17h24f83fd10a739494E
	.cfi_endproc

	.section	".text._ZN144_$LT$serde..de..impls..$LT$impl$u20$serde..de..Deserialize$u20$for$u20$u128$GT$..deserialize..PrimitiveVisitor$u20$as$u20$serde..de..Visitor$GT$9expecting17h7db4c8f3e8942f91E","ax",@progbits
	.globl	_ZN144_$LT$serde..de..impls..$LT$impl$u20$serde..de..Deserialize$u20$for$u20$u128$GT$..deserialize..PrimitiveVisitor$u20$as$u20$serde..de..Visitor$GT$9expecting17h7db4c8f3e8942f91E
	.p2align	1
	.type	_ZN144_$LT$serde..de..impls..$LT$impl$u20$serde..de..Deserialize$u20$for$u20$u128$GT$..deserialize..PrimitiveVisitor$u20$as$u20$serde..de..Visitor$GT$9expecting17h7db4c8f3e8942f91E,@function
_ZN144_$LT$serde..de..impls..$LT$impl$u20$serde..de..Deserialize$u20$for$u20$u128$GT$..deserialize..PrimitiveVisitor$u20$as$u20$serde..de..Visitor$GT$9expecting17h7db4c8f3e8942f91E:
.Lfunc_begin72:
	.cfi_startproc
	.loc	1 144 25 prologue_end
	lui	a0, %hi(.L__unnamed_91)
.Ltmp485:
	addi	a3, a0, %lo(.L__unnamed_91)
	li	a2, 4
	mv	a0, a1
.Ltmp486:
	mv	a1, a3
	tail	_ZN4core3fmt9Formatter9write_str17h7b224d3eb3847887E
.Ltmp487:
.Lfunc_end72:
	.size	_ZN144_$LT$serde..de..impls..$LT$impl$u20$serde..de..Deserialize$u20$for$u20$u128$GT$..deserialize..PrimitiveVisitor$u20$as$u20$serde..de..Visitor$GT$9expecting17h7db4c8f3e8942f91E, .Lfunc_end72-_ZN144_$LT$serde..de..impls..$LT$impl$u20$serde..de..Deserialize$u20$for$u20$u128$GT$..deserialize..PrimitiveVisitor$u20$as$u20$serde..de..Visitor$GT$9expecting17h7db4c8f3e8942f91E
	.cfi_endproc

	.section	".text._ZN5serde3ser3fmt85_$LT$impl$u20$serde..ser..Serializer$u20$for$u20$$RF$mut$u20$core..fmt..Formatter$GT$14serialize_bool17hcb6c0aca31dbb9bdE","ax",@progbits
	.globl	_ZN5serde3ser3fmt85_$LT$impl$u20$serde..ser..Serializer$u20$for$u20$$RF$mut$u20$core..fmt..Formatter$GT$14serialize_bool17hcb6c0aca31dbb9bdE
	.p2align	1
	.type	_ZN5serde3ser3fmt85_$LT$impl$u20$serde..ser..Serializer$u20$for$u20$$RF$mut$u20$core..fmt..Formatter$GT$14serialize_bool17hcb6c0aca31dbb9bdE,@function
_ZN5serde3ser3fmt85_$LT$impl$u20$serde..ser..Serializer$u20$for$u20$$RF$mut$u20$core..fmt..Formatter$GT$14serialize_bool17hcb6c0aca31dbb9bdE:
.Lfunc_begin73:
	.loc	24 13 0
	.cfi_startproc
	addi	sp, sp, -16
	.cfi_def_cfa_offset 16
	sw	ra, 12(sp)
	.cfi_offset ra, -4
	mv	a2, a0
.Ltmp488:
	sb	a1, 11(sp)
.Ltmp489:
	.loc	24 14 17 prologue_end
	addi	a0, sp, 11
	mv	a1, a2
.Ltmp490:
	call	_ZN43_$LT$bool$u20$as$u20$core..fmt..Display$GT$3fmt17had5858ced759083cE
.Ltmp491:
	.loc	24 15 14
	lw	ra, 12(sp)
	.loc	24 15 14 epilogue_begin is_stmt 0
	addi	sp, sp, 16
	ret
.Ltmp492:
.Lfunc_end73:
	.size	_ZN5serde3ser3fmt85_$LT$impl$u20$serde..ser..Serializer$u20$for$u20$$RF$mut$u20$core..fmt..Formatter$GT$14serialize_bool17hcb6c0aca31dbb9bdE, .Lfunc_end73-_ZN5serde3ser3fmt85_$LT$impl$u20$serde..ser..Serializer$u20$for$u20$$RF$mut$u20$core..fmt..Formatter$GT$14serialize_bool17hcb6c0aca31dbb9bdE
	.cfi_endproc

	.section	".text._ZN5serde3ser3fmt85_$LT$impl$u20$serde..ser..Serializer$u20$for$u20$$RF$mut$u20$core..fmt..Formatter$GT$12serialize_i817h945430c322a8afddE","ax",@progbits
	.globl	_ZN5serde3ser3fmt85_$LT$impl$u20$serde..ser..Serializer$u20$for$u20$$RF$mut$u20$core..fmt..Formatter$GT$12serialize_i817h945430c322a8afddE
	.p2align	1
	.type	_ZN5serde3ser3fmt85_$LT$impl$u20$serde..ser..Serializer$u20$for$u20$$RF$mut$u20$core..fmt..Formatter$GT$12serialize_i817h945430c322a8afddE,@function
_ZN5serde3ser3fmt85_$LT$impl$u20$serde..ser..Serializer$u20$for$u20$$RF$mut$u20$core..fmt..Formatter$GT$12serialize_i817h945430c322a8afddE:
.Lfunc_begin74:
	.loc	24 13 0 is_stmt 1
	.cfi_startproc
	addi	sp, sp, -16
	.cfi_def_cfa_offset 16
	sw	ra, 12(sp)
	.cfi_offset ra, -4
	mv	a2, a0
.Ltmp493:
	sb	a1, 11(sp)
.Ltmp494:
	.loc	24 14 17 prologue_end
	addi	a0, sp, 11
	mv	a1, a2
.Ltmp495:
	call	_ZN4core3fmt3num3imp51_$LT$impl$u20$core..fmt..Display$u20$for$u20$i8$GT$3fmt17he49e23ee436c5228E
.Ltmp496:
	.loc	24 15 14
	lw	ra, 12(sp)
	.loc	24 15 14 epilogue_begin is_stmt 0
	addi	sp, sp, 16
	ret
.Ltmp497:
.Lfunc_end74:
	.size	_ZN5serde3ser3fmt85_$LT$impl$u20$serde..ser..Serializer$u20$for$u20$$RF$mut$u20$core..fmt..Formatter$GT$12serialize_i817h945430c322a8afddE, .Lfunc_end74-_ZN5serde3ser3fmt85_$LT$impl$u20$serde..ser..Serializer$u20$for$u20$$RF$mut$u20$core..fmt..Formatter$GT$12serialize_i817h945430c322a8afddE
	.cfi_endproc

	.section	".text._ZN5serde3ser3fmt85_$LT$impl$u20$serde..ser..Serializer$u20$for$u20$$RF$mut$u20$core..fmt..Formatter$GT$13serialize_i1617h7b8ca8d7aa736d0eE","ax",@progbits
	.globl	_ZN5serde3ser3fmt85_$LT$impl$u20$serde..ser..Serializer$u20$for$u20$$RF$mut$u20$core..fmt..Formatter$GT$13serialize_i1617h7b8ca8d7aa736d0eE
	.p2align	1
	.type	_ZN5serde3ser3fmt85_$LT$impl$u20$serde..ser..Serializer$u20$for$u20$$RF$mut$u20$core..fmt..Formatter$GT$13serialize_i1617h7b8ca8d7aa736d0eE,@function
_ZN5serde3ser3fmt85_$LT$impl$u20$serde..ser..Serializer$u20$for$u20$$RF$mut$u20$core..fmt..Formatter$GT$13serialize_i1617h7b8ca8d7aa736d0eE:
.Lfunc_begin75:
	.loc	24 13 0 is_stmt 1
	.cfi_startproc
	addi	sp, sp, -16
	.cfi_def_cfa_offset 16
	sw	ra, 12(sp)
	.cfi_offset ra, -4
	mv	a2, a0
.Ltmp498:
	sh	a1, 10(sp)
.Ltmp499:
	.loc	24 14 17 prologue_end
	addi	a0, sp, 10
	mv	a1, a2
.Ltmp500:
	call	_ZN4core3fmt3num3imp52_$LT$impl$u20$core..fmt..Display$u20$for$u20$i16$GT$3fmt17h983c428396167e55E
.Ltmp501:
	.loc	24 15 14
	lw	ra, 12(sp)
	.loc	24 15 14 epilogue_begin is_stmt 0
	addi	sp, sp, 16
	ret
.Ltmp502:
.Lfunc_end75:
	.size	_ZN5serde3ser3fmt85_$LT$impl$u20$serde..ser..Serializer$u20$for$u20$$RF$mut$u20$core..fmt..Formatter$GT$13serialize_i1617h7b8ca8d7aa736d0eE, .Lfunc_end75-_ZN5serde3ser3fmt85_$LT$impl$u20$serde..ser..Serializer$u20$for$u20$$RF$mut$u20$core..fmt..Formatter$GT$13serialize_i1617h7b8ca8d7aa736d0eE
	.cfi_endproc

	.section	".text._ZN5serde3ser3fmt85_$LT$impl$u20$serde..ser..Serializer$u20$for$u20$$RF$mut$u20$core..fmt..Formatter$GT$13serialize_i3217h56e04c1b46b8d5ecE","ax",@progbits
	.globl	_ZN5serde3ser3fmt85_$LT$impl$u20$serde..ser..Serializer$u20$for$u20$$RF$mut$u20$core..fmt..Formatter$GT$13serialize_i3217h56e04c1b46b8d5ecE
	.p2align	1
	.type	_ZN5serde3ser3fmt85_$LT$impl$u20$serde..ser..Serializer$u20$for$u20$$RF$mut$u20$core..fmt..Formatter$GT$13serialize_i3217h56e04c1b46b8d5ecE,@function
_ZN5serde3ser3fmt85_$LT$impl$u20$serde..ser..Serializer$u20$for$u20$$RF$mut$u20$core..fmt..Formatter$GT$13serialize_i3217h56e04c1b46b8d5ecE:
.Lfunc_begin76:
	.loc	24 13 0 is_stmt 1
	.cfi_startproc
	addi	sp, sp, -16
	.cfi_def_cfa_offset 16
	sw	ra, 12(sp)
	.cfi_offset ra, -4
	mv	a2, a0
.Ltmp503:
	sw	a1, 8(sp)
.Ltmp504:
	.loc	24 14 17 prologue_end
	addi	a0, sp, 8
	mv	a1, a2
.Ltmp505:
	call	_ZN4core3fmt3num3imp52_$LT$impl$u20$core..fmt..Display$u20$for$u20$i32$GT$3fmt17ha6ef4563c6d1b087E
.Ltmp506:
	.loc	24 15 14
	lw	ra, 12(sp)
	.loc	24 15 14 epilogue_begin is_stmt 0
	addi	sp, sp, 16
	ret
.Ltmp507:
.Lfunc_end76:
	.size	_ZN5serde3ser3fmt85_$LT$impl$u20$serde..ser..Serializer$u20$for$u20$$RF$mut$u20$core..fmt..Formatter$GT$13serialize_i3217h56e04c1b46b8d5ecE, .Lfunc_end76-_ZN5serde3ser3fmt85_$LT$impl$u20$serde..ser..Serializer$u20$for$u20$$RF$mut$u20$core..fmt..Formatter$GT$13serialize_i3217h56e04c1b46b8d5ecE
	.cfi_endproc

	.section	".text._ZN5serde3ser3fmt85_$LT$impl$u20$serde..ser..Serializer$u20$for$u20$$RF$mut$u20$core..fmt..Formatter$GT$13serialize_i6417hd1f8ef4639e05280E","ax",@progbits
	.globl	_ZN5serde3ser3fmt85_$LT$impl$u20$serde..ser..Serializer$u20$for$u20$$RF$mut$u20$core..fmt..Formatter$GT$13serialize_i6417hd1f8ef4639e05280E
	.p2align	1
	.type	_ZN5serde3ser3fmt85_$LT$impl$u20$serde..ser..Serializer$u20$for$u20$$RF$mut$u20$core..fmt..Formatter$GT$13serialize_i6417hd1f8ef4639e05280E,@function
_ZN5serde3ser3fmt85_$LT$impl$u20$serde..ser..Serializer$u20$for$u20$$RF$mut$u20$core..fmt..Formatter$GT$13serialize_i6417hd1f8ef4639e05280E:
.Lfunc_begin77:
	.loc	24 13 0 is_stmt 1
	.cfi_startproc
	addi	sp, sp, -16
	.cfi_def_cfa_offset 16
	sw	ra, 12(sp)
	.cfi_offset ra, -4
	mv	a3, a0
.Ltmp508:
	sw	a2, 4(sp)
	sw	a1, 0(sp)
.Ltmp509:
	.loc	24 14 17 prologue_end
	mv	a0, sp
	mv	a1, a3
.Ltmp510:
	call	_ZN4core3fmt3num3imp52_$LT$impl$u20$core..fmt..Display$u20$for$u20$i64$GT$3fmt17h2d924245d5536264E
.Ltmp511:
	.loc	24 15 14
	lw	ra, 12(sp)
	.loc	24 15 14 epilogue_begin is_stmt 0
	addi	sp, sp, 16
	ret
.Ltmp512:
.Lfunc_end77:
	.size	_ZN5serde3ser3fmt85_$LT$impl$u20$serde..ser..Serializer$u20$for$u20$$RF$mut$u20$core..fmt..Formatter$GT$13serialize_i6417hd1f8ef4639e05280E, .Lfunc_end77-_ZN5serde3ser3fmt85_$LT$impl$u20$serde..ser..Serializer$u20$for$u20$$RF$mut$u20$core..fmt..Formatter$GT$13serialize_i6417hd1f8ef4639e05280E
	.cfi_endproc

	.section	".text._ZN5serde3ser3fmt85_$LT$impl$u20$serde..ser..Serializer$u20$for$u20$$RF$mut$u20$core..fmt..Formatter$GT$14serialize_i12817h685065edfd6c2f20E","ax",@progbits
	.globl	_ZN5serde3ser3fmt85_$LT$impl$u20$serde..ser..Serializer$u20$for$u20$$RF$mut$u20$core..fmt..Formatter$GT$14serialize_i12817h685065edfd6c2f20E
	.p2align	1
	.type	_ZN5serde3ser3fmt85_$LT$impl$u20$serde..ser..Serializer$u20$for$u20$$RF$mut$u20$core..fmt..Formatter$GT$14serialize_i12817h685065edfd6c2f20E,@function
_ZN5serde3ser3fmt85_$LT$impl$u20$serde..ser..Serializer$u20$for$u20$$RF$mut$u20$core..fmt..Formatter$GT$14serialize_i12817h685065edfd6c2f20E:
.Lfunc_begin78:
	.loc	24 13 0 is_stmt 1
	.cfi_startproc
	addi	sp, sp, -32
	.cfi_def_cfa_offset 32
	sw	ra, 28(sp)
	.cfi_offset ra, -4
	mv	a2, a0
.Ltmp513:
	lw	a0, 12(a1)
	lw	a3, 8(a1)
	lw	a4, 4(a1)
	lw	a1, 0(a1)
	sw	a0, 20(sp)
	sw	a3, 16(sp)
	sw	a4, 12(sp)
	sw	a1, 8(sp)
.Ltmp514:
	.loc	24 14 17 prologue_end
	addi	a0, sp, 8
	mv	a1, a2
.Ltmp515:
	call	_ZN4core3fmt3num53_$LT$impl$u20$core..fmt..Display$u20$for$u20$i128$GT$3fmt17h6ba3f9d6c38c5adbE
.Ltmp516:
	.loc	24 15 14
	lw	ra, 28(sp)
	.loc	24 15 14 epilogue_begin is_stmt 0
	addi	sp, sp, 32
	ret
.Ltmp517:
.Lfunc_end78:
	.size	_ZN5serde3ser3fmt85_$LT$impl$u20$serde..ser..Serializer$u20$for$u20$$RF$mut$u20$core..fmt..Formatter$GT$14serialize_i12817h685065edfd6c2f20E, .Lfunc_end78-_ZN5serde3ser3fmt85_$LT$impl$u20$serde..ser..Serializer$u20$for$u20$$RF$mut$u20$core..fmt..Formatter$GT$14serialize_i12817h685065edfd6c2f20E
	.cfi_endproc

	.section	".text._ZN5serde3ser3fmt85_$LT$impl$u20$serde..ser..Serializer$u20$for$u20$$RF$mut$u20$core..fmt..Formatter$GT$12serialize_u817hd5f32a41a1632b9bE","ax",@progbits
	.globl	_ZN5serde3ser3fmt85_$LT$impl$u20$serde..ser..Serializer$u20$for$u20$$RF$mut$u20$core..fmt..Formatter$GT$12serialize_u817hd5f32a41a1632b9bE
	.p2align	1
	.type	_ZN5serde3ser3fmt85_$LT$impl$u20$serde..ser..Serializer$u20$for$u20$$RF$mut$u20$core..fmt..Formatter$GT$12serialize_u817hd5f32a41a1632b9bE,@function
_ZN5serde3ser3fmt85_$LT$impl$u20$serde..ser..Serializer$u20$for$u20$$RF$mut$u20$core..fmt..Formatter$GT$12serialize_u817hd5f32a41a1632b9bE:
.Lfunc_begin79:
	.loc	24 13 0 is_stmt 1
	.cfi_startproc
	addi	sp, sp, -16
	.cfi_def_cfa_offset 16
	sw	ra, 12(sp)
	.cfi_offset ra, -4
	mv	a2, a0
.Ltmp518:
	sb	a1, 11(sp)
.Ltmp519:
	.loc	24 14 17 prologue_end
	addi	a0, sp, 11
	mv	a1, a2
.Ltmp520:
	call	_ZN4core3fmt3num3imp51_$LT$impl$u20$core..fmt..Display$u20$for$u20$u8$GT$3fmt17h7a6d07f09e254474E
.Ltmp521:
	.loc	24 15 14
	lw	ra, 12(sp)
	.loc	24 15 14 epilogue_begin is_stmt 0
	addi	sp, sp, 16
	ret
.Ltmp522:
.Lfunc_end79:
	.size	_ZN5serde3ser3fmt85_$LT$impl$u20$serde..ser..Serializer$u20$for$u20$$RF$mut$u20$core..fmt..Formatter$GT$12serialize_u817hd5f32a41a1632b9bE, .Lfunc_end79-_ZN5serde3ser3fmt85_$LT$impl$u20$serde..ser..Serializer$u20$for$u20$$RF$mut$u20$core..fmt..Formatter$GT$12serialize_u817hd5f32a41a1632b9bE
	.cfi_endproc

	.section	".text._ZN5serde3ser3fmt85_$LT$impl$u20$serde..ser..Serializer$u20$for$u20$$RF$mut$u20$core..fmt..Formatter$GT$13serialize_u1617h2ac3a3725fffa065E","ax",@progbits
	.globl	_ZN5serde3ser3fmt85_$LT$impl$u20$serde..ser..Serializer$u20$for$u20$$RF$mut$u20$core..fmt..Formatter$GT$13serialize_u1617h2ac3a3725fffa065E
	.p2align	1
	.type	_ZN5serde3ser3fmt85_$LT$impl$u20$serde..ser..Serializer$u20$for$u20$$RF$mut$u20$core..fmt..Formatter$GT$13serialize_u1617h2ac3a3725fffa065E,@function
_ZN5serde3ser3fmt85_$LT$impl$u20$serde..ser..Serializer$u20$for$u20$$RF$mut$u20$core..fmt..Formatter$GT$13serialize_u1617h2ac3a3725fffa065E:
.Lfunc_begin80:
	.loc	24 13 0 is_stmt 1
	.cfi_startproc
	addi	sp, sp, -16
	.cfi_def_cfa_offset 16
	sw	ra, 12(sp)
	.cfi_offset ra, -4
	mv	a2, a0
.Ltmp523:
	sh	a1, 10(sp)
.Ltmp524:
	.loc	24 14 17 prologue_end
	addi	a0, sp, 10
	mv	a1, a2
.Ltmp525:
	call	_ZN4core3fmt3num3imp52_$LT$impl$u20$core..fmt..Display$u20$for$u20$u16$GT$3fmt17hd05f90cbf25034a3E
.Ltmp526:
	.loc	24 15 14
	lw	ra, 12(sp)
	.loc	24 15 14 epilogue_begin is_stmt 0
	addi	sp, sp, 16
	ret
.Ltmp527:
.Lfunc_end80:
	.size	_ZN5serde3ser3fmt85_$LT$impl$u20$serde..ser..Serializer$u20$for$u20$$RF$mut$u20$core..fmt..Formatter$GT$13serialize_u1617h2ac3a3725fffa065E, .Lfunc_end80-_ZN5serde3ser3fmt85_$LT$impl$u20$serde..ser..Serializer$u20$for$u20$$RF$mut$u20$core..fmt..Formatter$GT$13serialize_u1617h2ac3a3725fffa065E
	.cfi_endproc

	.section	".text._ZN5serde3ser3fmt85_$LT$impl$u20$serde..ser..Serializer$u20$for$u20$$RF$mut$u20$core..fmt..Formatter$GT$13serialize_u3217h80075d138e7a6ebcE","ax",@progbits
	.globl	_ZN5serde3ser3fmt85_$LT$impl$u20$serde..ser..Serializer$u20$for$u20$$RF$mut$u20$core..fmt..Formatter$GT$13serialize_u3217h80075d138e7a6ebcE
	.p2align	1
	.type	_ZN5serde3ser3fmt85_$LT$impl$u20$serde..ser..Serializer$u20$for$u20$$RF$mut$u20$core..fmt..Formatter$GT$13serialize_u3217h80075d138e7a6ebcE,@function
_ZN5serde3ser3fmt85_$LT$impl$u20$serde..ser..Serializer$u20$for$u20$$RF$mut$u20$core..fmt..Formatter$GT$13serialize_u3217h80075d138e7a6ebcE:
.Lfunc_begin81:
	.loc	24 13 0 is_stmt 1
	.cfi_startproc
	addi	sp, sp, -16
	.cfi_def_cfa_offset 16
	sw	ra, 12(sp)
	.cfi_offset ra, -4
	mv	a2, a0
.Ltmp528:
	sw	a1, 8(sp)
.Ltmp529:
	.loc	24 14 17 prologue_end
	addi	a0, sp, 8
	mv	a1, a2
.Ltmp530:
	call	_ZN4core3fmt3num3imp52_$LT$impl$u20$core..fmt..Display$u20$for$u20$u32$GT$3fmt17hb6e8ccf6885142aeE
.Ltmp531:
	.loc	24 15 14
	lw	ra, 12(sp)
	.loc	24 15 14 epilogue_begin is_stmt 0
	addi	sp, sp, 16
	ret
.Ltmp532:
.Lfunc_end81:
	.size	_ZN5serde3ser3fmt85_$LT$impl$u20$serde..ser..Serializer$u20$for$u20$$RF$mut$u20$core..fmt..Formatter$GT$13serialize_u3217h80075d138e7a6ebcE, .Lfunc_end81-_ZN5serde3ser3fmt85_$LT$impl$u20$serde..ser..Serializer$u20$for$u20$$RF$mut$u20$core..fmt..Formatter$GT$13serialize_u3217h80075d138e7a6ebcE
	.cfi_endproc

	.section	".text._ZN5serde3ser3fmt85_$LT$impl$u20$serde..ser..Serializer$u20$for$u20$$RF$mut$u20$core..fmt..Formatter$GT$13serialize_u6417hdf41adf50e76fa73E","ax",@progbits
	.globl	_ZN5serde3ser3fmt85_$LT$impl$u20$serde..ser..Serializer$u20$for$u20$$RF$mut$u20$core..fmt..Formatter$GT$13serialize_u6417hdf41adf50e76fa73E
	.p2align	1
	.type	_ZN5serde3ser3fmt85_$LT$impl$u20$serde..ser..Serializer$u20$for$u20$$RF$mut$u20$core..fmt..Formatter$GT$13serialize_u6417hdf41adf50e76fa73E,@function
_ZN5serde3ser3fmt85_$LT$impl$u20$serde..ser..Serializer$u20$for$u20$$RF$mut$u20$core..fmt..Formatter$GT$13serialize_u6417hdf41adf50e76fa73E:
.Lfunc_begin82:
	.loc	24 13 0 is_stmt 1
	.cfi_startproc
	addi	sp, sp, -16
	.cfi_def_cfa_offset 16
	sw	ra, 12(sp)
	.cfi_offset ra, -4
	mv	a3, a0
.Ltmp533:
	sw	a2, 4(sp)
	sw	a1, 0(sp)
.Ltmp534:
	.loc	24 14 17 prologue_end
	mv	a0, sp
	mv	a1, a3
.Ltmp535:
	call	_ZN4core3fmt3num3imp52_$LT$impl$u20$core..fmt..Display$u20$for$u20$u64$GT$3fmt17hfc27a333fe3549efE
.Ltmp536:
	.loc	24 15 14
	lw	ra, 12(sp)
	.loc	24 15 14 epilogue_begin is_stmt 0
	addi	sp, sp, 16
	ret
.Ltmp537:
.Lfunc_end82:
	.size	_ZN5serde3ser3fmt85_$LT$impl$u20$serde..ser..Serializer$u20$for$u20$$RF$mut$u20$core..fmt..Formatter$GT$13serialize_u6417hdf41adf50e76fa73E, .Lfunc_end82-_ZN5serde3ser3fmt85_$LT$impl$u20$serde..ser..Serializer$u20$for$u20$$RF$mut$u20$core..fmt..Formatter$GT$13serialize_u6417hdf41adf50e76fa73E
	.cfi_endproc

	.section	".text._ZN5serde3ser3fmt85_$LT$impl$u20$serde..ser..Serializer$u20$for$u20$$RF$mut$u20$core..fmt..Formatter$GT$14serialize_u12817h84b6df8b5dbdf29aE","ax",@progbits
	.globl	_ZN5serde3ser3fmt85_$LT$impl$u20$serde..ser..Serializer$u20$for$u20$$RF$mut$u20$core..fmt..Formatter$GT$14serialize_u12817h84b6df8b5dbdf29aE
	.p2align	1
	.type	_ZN5serde3ser3fmt85_$LT$impl$u20$serde..ser..Serializer$u20$for$u20$$RF$mut$u20$core..fmt..Formatter$GT$14serialize_u12817h84b6df8b5dbdf29aE,@function
_ZN5serde3ser3fmt85_$LT$impl$u20$serde..ser..Serializer$u20$for$u20$$RF$mut$u20$core..fmt..Formatter$GT$14serialize_u12817h84b6df8b5dbdf29aE:
.Lfunc_begin83:
	.loc	24 13 0 is_stmt 1
	.cfi_startproc
	addi	sp, sp, -32
	.cfi_def_cfa_offset 32
	sw	ra, 28(sp)
	.cfi_offset ra, -4
	mv	a2, a0
.Ltmp538:
	lw	a0, 12(a1)
	lw	a3, 8(a1)
	lw	a4, 4(a1)
	lw	a1, 0(a1)
	sw	a0, 20(sp)
	sw	a3, 16(sp)
	sw	a4, 12(sp)
	sw	a1, 8(sp)
.Ltmp539:
	.loc	24 14 17 prologue_end
	addi	a0, sp, 8
	mv	a1, a2
.Ltmp540:
	call	_ZN4core3fmt3num53_$LT$impl$u20$core..fmt..Display$u20$for$u20$u128$GT$3fmt17h0caf64371363b5adE
.Ltmp541:
	.loc	24 15 14
	lw	ra, 28(sp)
	.loc	24 15 14 epilogue_begin is_stmt 0
	addi	sp, sp, 32
	ret
.Ltmp542:
.Lfunc_end83:
	.size	_ZN5serde3ser3fmt85_$LT$impl$u20$serde..ser..Serializer$u20$for$u20$$RF$mut$u20$core..fmt..Formatter$GT$14serialize_u12817h84b6df8b5dbdf29aE, .Lfunc_end83-_ZN5serde3ser3fmt85_$LT$impl$u20$serde..ser..Serializer$u20$for$u20$$RF$mut$u20$core..fmt..Formatter$GT$14serialize_u12817h84b6df8b5dbdf29aE
	.cfi_endproc

	.section	".text._ZN5serde3ser3fmt85_$LT$impl$u20$serde..ser..Serializer$u20$for$u20$$RF$mut$u20$core..fmt..Formatter$GT$13serialize_f3217he30b0a6bf608ec5fE","ax",@progbits
	.globl	_ZN5serde3ser3fmt85_$LT$impl$u20$serde..ser..Serializer$u20$for$u20$$RF$mut$u20$core..fmt..Formatter$GT$13serialize_f3217he30b0a6bf608ec5fE
	.p2align	1
	.type	_ZN5serde3ser3fmt85_$LT$impl$u20$serde..ser..Serializer$u20$for$u20$$RF$mut$u20$core..fmt..Formatter$GT$13serialize_f3217he30b0a6bf608ec5fE,@function
_ZN5serde3ser3fmt85_$LT$impl$u20$serde..ser..Serializer$u20$for$u20$$RF$mut$u20$core..fmt..Formatter$GT$13serialize_f3217he30b0a6bf608ec5fE:
.Lfunc_begin84:
	.loc	24 13 0 is_stmt 1
	.cfi_startproc
	addi	sp, sp, -16
	.cfi_def_cfa_offset 16
	sw	ra, 12(sp)
	.cfi_offset ra, -4
	mv	a2, a0
.Ltmp543:
	sw	a1, 8(sp)
.Ltmp544:
	.loc	24 14 17 prologue_end
	addi	a0, sp, 8
	mv	a1, a2
.Ltmp545:
	call	_ZN4core3fmt5float52_$LT$impl$u20$core..fmt..Display$u20$for$u20$f32$GT$3fmt17h312c0d157667aab2E
.Ltmp546:
	.loc	24 15 14
	lw	ra, 12(sp)
	.loc	24 15 14 epilogue_begin is_stmt 0
	addi	sp, sp, 16
	ret
.Ltmp547:
.Lfunc_end84:
	.size	_ZN5serde3ser3fmt85_$LT$impl$u20$serde..ser..Serializer$u20$for$u20$$RF$mut$u20$core..fmt..Formatter$GT$13serialize_f3217he30b0a6bf608ec5fE, .Lfunc_end84-_ZN5serde3ser3fmt85_$LT$impl$u20$serde..ser..Serializer$u20$for$u20$$RF$mut$u20$core..fmt..Formatter$GT$13serialize_f3217he30b0a6bf608ec5fE
	.cfi_endproc

	.section	".text._ZN5serde3ser3fmt85_$LT$impl$u20$serde..ser..Serializer$u20$for$u20$$RF$mut$u20$core..fmt..Formatter$GT$13serialize_f6417hac27d48b61d91dcdE","ax",@progbits
	.globl	_ZN5serde3ser3fmt85_$LT$impl$u20$serde..ser..Serializer$u20$for$u20$$RF$mut$u20$core..fmt..Formatter$GT$13serialize_f6417hac27d48b61d91dcdE
	.p2align	1
	.type	_ZN5serde3ser3fmt85_$LT$impl$u20$serde..ser..Serializer$u20$for$u20$$RF$mut$u20$core..fmt..Formatter$GT$13serialize_f6417hac27d48b61d91dcdE,@function
_ZN5serde3ser3fmt85_$LT$impl$u20$serde..ser..Serializer$u20$for$u20$$RF$mut$u20$core..fmt..Formatter$GT$13serialize_f6417hac27d48b61d91dcdE:
.Lfunc_begin85:
	.loc	24 13 0 is_stmt 1
	.cfi_startproc
	addi	sp, sp, -16
	.cfi_def_cfa_offset 16
	sw	ra, 12(sp)
	.cfi_offset ra, -4
	mv	a3, a0
.Ltmp548:
	sw	a2, 4(sp)
	sw	a1, 0(sp)
.Ltmp549:
	.loc	24 14 17 prologue_end
	mv	a0, sp
	mv	a1, a3
.Ltmp550:
	call	_ZN4core3fmt5float52_$LT$impl$u20$core..fmt..Display$u20$for$u20$f64$GT$3fmt17he67ea32dbb1a7480E
.Ltmp551:
	.loc	24 15 14
	lw	ra, 12(sp)
	.loc	24 15 14 epilogue_begin is_stmt 0
	addi	sp, sp, 16
	ret
.Ltmp552:
.Lfunc_end85:
	.size	_ZN5serde3ser3fmt85_$LT$impl$u20$serde..ser..Serializer$u20$for$u20$$RF$mut$u20$core..fmt..Formatter$GT$13serialize_f6417hac27d48b61d91dcdE, .Lfunc_end85-_ZN5serde3ser3fmt85_$LT$impl$u20$serde..ser..Serializer$u20$for$u20$$RF$mut$u20$core..fmt..Formatter$GT$13serialize_f6417hac27d48b61d91dcdE
	.cfi_endproc

	.section	".text._ZN5serde3ser3fmt85_$LT$impl$u20$serde..ser..Serializer$u20$for$u20$$RF$mut$u20$core..fmt..Formatter$GT$14serialize_char17hc390e3945cb67773E","ax",@progbits
	.globl	_ZN5serde3ser3fmt85_$LT$impl$u20$serde..ser..Serializer$u20$for$u20$$RF$mut$u20$core..fmt..Formatter$GT$14serialize_char17hc390e3945cb67773E
	.p2align	1
	.type	_ZN5serde3ser3fmt85_$LT$impl$u20$serde..ser..Serializer$u20$for$u20$$RF$mut$u20$core..fmt..Formatter$GT$14serialize_char17hc390e3945cb67773E,@function
_ZN5serde3ser3fmt85_$LT$impl$u20$serde..ser..Serializer$u20$for$u20$$RF$mut$u20$core..fmt..Formatter$GT$14serialize_char17hc390e3945cb67773E:
.Lfunc_begin86:
	.loc	24 13 0 is_stmt 1
	.cfi_startproc
	addi	sp, sp, -16
	.cfi_def_cfa_offset 16
	sw	ra, 12(sp)
	.cfi_offset ra, -4
	mv	a2, a0
.Ltmp553:
	sw	a1, 8(sp)
.Ltmp554:
	.loc	24 14 17 prologue_end
	addi	a0, sp, 8
	mv	a1, a2
.Ltmp555:
	call	_ZN43_$LT$char$u20$as$u20$core..fmt..Display$GT$3fmt17h6a6e24a54884d804E
.Ltmp556:
	.loc	24 15 14
	lw	ra, 12(sp)
	.loc	24 15 14 epilogue_begin is_stmt 0
	addi	sp, sp, 16
	ret
.Ltmp557:
.Lfunc_end86:
	.size	_ZN5serde3ser3fmt85_$LT$impl$u20$serde..ser..Serializer$u20$for$u20$$RF$mut$u20$core..fmt..Formatter$GT$14serialize_char17hc390e3945cb67773E, .Lfunc_end86-_ZN5serde3ser3fmt85_$LT$impl$u20$serde..ser..Serializer$u20$for$u20$$RF$mut$u20$core..fmt..Formatter$GT$14serialize_char17hc390e3945cb67773E
	.cfi_endproc

	.section	".text._ZN5serde3ser3fmt85_$LT$impl$u20$serde..ser..Serializer$u20$for$u20$$RF$mut$u20$core..fmt..Formatter$GT$13serialize_str17h1eca8e85bbcdb1b2E","ax",@progbits
	.globl	_ZN5serde3ser3fmt85_$LT$impl$u20$serde..ser..Serializer$u20$for$u20$$RF$mut$u20$core..fmt..Formatter$GT$13serialize_str17h1eca8e85bbcdb1b2E
	.p2align	1
	.type	_ZN5serde3ser3fmt85_$LT$impl$u20$serde..ser..Serializer$u20$for$u20$$RF$mut$u20$core..fmt..Formatter$GT$13serialize_str17h1eca8e85bbcdb1b2E,@function
_ZN5serde3ser3fmt85_$LT$impl$u20$serde..ser..Serializer$u20$for$u20$$RF$mut$u20$core..fmt..Formatter$GT$13serialize_str17h1eca8e85bbcdb1b2E:
.Lfunc_begin87:
	.loc	24 13 0 is_stmt 1
	.cfi_startproc
	mv	a3, a0
.Ltmp558:
	.loc	2 2304 1 prologue_end
	mv	a0, a1
.Ltmp559:
	mv	a1, a2
.Ltmp560:
	mv	a2, a3
.Ltmp561:
	tail	_ZN42_$LT$str$u20$as$u20$core..fmt..Display$GT$3fmt17h45c916f6fbc68766E
.Ltmp562:
.Lfunc_end87:
	.size	_ZN5serde3ser3fmt85_$LT$impl$u20$serde..ser..Serializer$u20$for$u20$$RF$mut$u20$core..fmt..Formatter$GT$13serialize_str17h1eca8e85bbcdb1b2E, .Lfunc_end87-_ZN5serde3ser3fmt85_$LT$impl$u20$serde..ser..Serializer$u20$for$u20$$RF$mut$u20$core..fmt..Formatter$GT$13serialize_str17h1eca8e85bbcdb1b2E
	.cfi_endproc

	.type	.L__unnamed_92,@object
	.section	.rodata..L__unnamed_92,"a",@progbits
	.p2align	2, 0x0
.L__unnamed_92:
	.size	.L__unnamed_92, 0

	.type	.L__unnamed_1,@object
	.section	.rodata..L__unnamed_1,"a",@progbits
	.p2align	2, 0x0
.L__unnamed_1:
	.word	_ZN4core3ptr112drop_in_place$LT$$LT$serde..de..WithDecimalPoint$u20$as$u20$core..fmt..Display$GT$..fmt..LookForDecimalPoint$GT$17h6b1b6b7a4b0201e6E
	.asciz	"\b\000\000\000\004\000\000"
	.word	_ZN128_$LT$$LT$serde..de..WithDecimalPoint$u20$as$u20$core..fmt..Display$GT$..fmt..LookForDecimalPoint$u20$as$u20$core..fmt..Write$GT$9write_str17h539949e1a9a76d8fE
	.word	_ZN128_$LT$$LT$serde..de..WithDecimalPoint$u20$as$u20$core..fmt..Display$GT$..fmt..LookForDecimalPoint$u20$as$u20$core..fmt..Write$GT$10write_char17hf234726b2af5bd8dE
	.word	_ZN4core3fmt5Write9write_fmt17h132f4e0197a0a7caE
	.size	.L__unnamed_1, 24

	.type	.L__unnamed_3,@object
	.section	.rodata..L__unnamed_3,"a",@progbits
.L__unnamed_3:
	.ascii	"Error"
	.size	.L__unnamed_3, 5

	.type	.L__unnamed_2,@object
	.section	.rodata..L__unnamed_2,"a",@progbits
	.p2align	2, 0x0
.L__unnamed_2:
	.word	_ZN4core3ptr49drop_in_place$LT$alloc..boxed..Box$LT$str$GT$$GT$17h7530d9b8deb0b070E
	.asciz	"\b\000\000\000\004\000\000"
	.word	_ZN42_$LT$$RF$T$u20$as$u20$core..fmt..Debug$GT$3fmt17h05789b1e5d7153a8E
	.size	.L__unnamed_2, 16

	.type	.L__unnamed_4,@object
	.section	.rodata..L__unnamed_4,"a",@progbits
.L__unnamed_4:
	.ascii	"1 element in sequence"
	.size	.L__unnamed_4, 21

	.type	.L__unnamed_93,@object
	.section	.rodata..L__unnamed_93,"a",@progbits
.L__unnamed_93:
	.ascii	" elements in sequence"
	.size	.L__unnamed_93, 21

	.type	.L__unnamed_5,@object
	.section	.rodata..L__unnamed_5,"a",@progbits
	.p2align	2, 0x0
.L__unnamed_5:
	.word	.L__unnamed_92
	.zero	4
	.word	.L__unnamed_93
	.asciz	"\025\000\000"
	.size	.L__unnamed_5, 16

	.type	.L__unnamed_6,@object
	.section	.rodata.cst16,"aM",@progbits,16
.L__unnamed_6:
	.ascii	"1 element in map"
	.size	.L__unnamed_6, 16

	.type	.L__unnamed_94,@object
.L__unnamed_94:
	.ascii	" elements in map"
	.size	.L__unnamed_94, 16

	.type	.L__unnamed_7,@object
	.section	.rodata..L__unnamed_7,"a",@progbits
	.p2align	2, 0x0
.L__unnamed_7:
	.word	.L__unnamed_92
	.zero	4
	.word	.L__unnamed_94
	.asciz	"\020\000\000"
	.size	.L__unnamed_7, 16

	.type	.L__unnamed_95,@object
	.section	.rodata..L__unnamed_95,"a",@progbits
.L__unnamed_95:
	.ascii	"/Users/steve/.cargo/registry/src/index.crates.io-6f17d22bba15001f/serde-1.0.205/src/de/format.rs"
	.size	.L__unnamed_95, 96

	.type	.L__unnamed_8,@object
	.section	.rodata..L__unnamed_8,"a",@progbits
	.p2align	2, 0x0
.L__unnamed_8:
	.word	.L__unnamed_95
	.asciz	"`\000\000\000\017\000\000\000 \000\000"
	.size	.L__unnamed_8, 16

	.type	.L__unnamed_9,@object
	.section	.rodata..L__unnamed_9,"a",@progbits
	.p2align	2, 0x0
.L__unnamed_9:
	.word	.L__unnamed_95
	.asciz	"`\000\000\000\031\000\000\000\027\000\000"
	.size	.L__unnamed_9, 16

	.type	.L__unnamed_10,@object
	.section	.rodata..L__unnamed_10,"a",@progbits
.L__unnamed_10:
	.ascii	"anything at all"
	.size	.L__unnamed_10, 15

	.type	.L__unnamed_11,@object
	.section	.rodata.cst4,"aM",@progbits,4
.L__unnamed_11:
	.ascii	"unit"
	.size	.L__unnamed_11, 4

	.type	.L__unnamed_12,@object
	.section	.rodata..L__unnamed_12,"a",@progbits
.L__unnamed_12:
	.ascii	"a boolean"
	.size	.L__unnamed_12, 9

	.type	.L__unnamed_13,@object
	.section	.rodata..L__unnamed_13,"a",@progbits
.L__unnamed_13:
	.ascii	"a character"
	.size	.L__unnamed_13, 11

	.type	.L__unnamed_14,@object
	.section	.rodata.cst8,"aM",@progbits,8
.L__unnamed_14:
	.ascii	"a string"
	.size	.L__unnamed_14, 8

	.type	.L__unnamed_15,@object
	.section	.rodata..L__unnamed_15,"a",@progbits
.L__unnamed_15:
	.ascii	"a borrowed string"
	.size	.L__unnamed_15, 17

	.type	.L__unnamed_16,@object
	.section	.rodata..L__unnamed_16,"a",@progbits
.L__unnamed_16:
	.ascii	"a borrowed byte array"
	.size	.L__unnamed_16, 21

	.type	.L__unnamed_17,@object
	.section	.rodata..L__unnamed_17,"a",@progbits
.L__unnamed_17:
	.ascii	"byte array"
	.size	.L__unnamed_17, 10

	.type	.L__unnamed_18,@object
	.section	.rodata..L__unnamed_18,"a",@progbits
.L__unnamed_18:
	.ascii	"`secs` or `nanos`"
	.size	.L__unnamed_18, 17

	.type	_ZN5serde2de5impls73_$LT$impl$u20$serde..de..Deserialize$u20$for$u20$core..time..Duration$GT$11deserialize14check_overflow13NANOS_PER_SEC17he1dd315f7878ee6cE,@object
	.section	".rodata._ZN5serde2de5impls73_$LT$impl$u20$serde..de..Deserialize$u20$for$u20$core..time..Duration$GT$11deserialize14check_overflow13NANOS_PER_SEC17he1dd315f7878ee6cE","a",@progbits
	.globl	_ZN5serde2de5impls73_$LT$impl$u20$serde..de..Deserialize$u20$for$u20$core..time..Duration$GT$11deserialize14check_overflow13NANOS_PER_SEC17he1dd315f7878ee6cE
	.p2align	2, 0x0
_ZN5serde2de5impls73_$LT$impl$u20$serde..de..Deserialize$u20$for$u20$core..time..Duration$GT$11deserialize14check_overflow13NANOS_PER_SEC17he1dd315f7878ee6cE:
	.ascii	"\000\312\232;"
	.size	_ZN5serde2de5impls73_$LT$impl$u20$serde..de..Deserialize$u20$for$u20$core..time..Duration$GT$11deserialize14check_overflow13NANOS_PER_SEC17he1dd315f7878ee6cE, 4

	.type	.L__unnamed_19,@object
	.section	.rodata..L__unnamed_19,"a",@progbits
.L__unnamed_19:
	.ascii	"struct Duration"
	.size	.L__unnamed_19, 15

	.type	.L__unnamed_20,@object
	.section	.rodata.cst16,"aM",@progbits,16
.L__unnamed_20:
	.ascii	"`start` or `end`"
	.size	.L__unnamed_20, 16

	.type	.L__unnamed_21,@object
	.section	.rodata..L__unnamed_21,"a",@progbits
.L__unnamed_21:
	.ascii	"`start`"
	.size	.L__unnamed_21, 7

	.type	.L__unnamed_22,@object
	.section	.rodata..L__unnamed_22,"a",@progbits
.L__unnamed_22:
	.ascii	"`end`"
	.size	.L__unnamed_22, 5

	.type	.L__unnamed_23,@object
	.section	.rodata..L__unnamed_23,"a",@progbits
.L__unnamed_23:
	.ascii	"`Unbounded`, `Included` or `Excluded`"
	.size	.L__unnamed_23, 37

	.type	.L__unnamed_24,@object
	.section	.rodata..L__unnamed_24,"a",@progbits
.L__unnamed_24:
	.ascii	"`Ok` or `Err`"
	.size	.L__unnamed_24, 13

	.type	.L__unnamed_96,@object
	.section	.rodata..L__unnamed_96,"a",@progbits
.L__unnamed_96:
	.ascii	"boolean `"
	.size	.L__unnamed_96, 9

	.type	.L__unnamed_97,@object
	.section	.rodata..L__unnamed_97,"a",@progbits
.L__unnamed_97:
	.byte	96
	.size	.L__unnamed_97, 1

	.type	.L__unnamed_25,@object
	.section	.rodata..L__unnamed_25,"a",@progbits
	.p2align	2, 0x0
.L__unnamed_25:
	.word	.L__unnamed_96
	.asciz	"\t\000\000"
	.word	.L__unnamed_97
	.asciz	"\001\000\000"
	.size	.L__unnamed_25, 16

	.type	.L__unnamed_98,@object
	.section	.rodata..L__unnamed_98,"a",@progbits
.L__unnamed_98:
	.ascii	"integer `"
	.size	.L__unnamed_98, 9

	.type	.L__unnamed_26,@object
	.section	.rodata..L__unnamed_26,"a",@progbits
	.p2align	2, 0x0
.L__unnamed_26:
	.word	.L__unnamed_98
	.asciz	"\t\000\000"
	.word	.L__unnamed_97
	.asciz	"\001\000\000"
	.size	.L__unnamed_26, 16

	.type	.L__unnamed_99,@object
	.section	.rodata.cst16,"aM",@progbits,16
.L__unnamed_99:
	.ascii	"floating point `"
	.size	.L__unnamed_99, 16

	.type	.L__unnamed_27,@object
	.section	.rodata..L__unnamed_27,"a",@progbits
	.p2align	2, 0x0
.L__unnamed_27:
	.word	.L__unnamed_99
	.asciz	"\020\000\000"
	.word	.L__unnamed_97
	.asciz	"\001\000\000"
	.size	.L__unnamed_27, 16

	.type	.L__unnamed_100,@object
	.section	.rodata..L__unnamed_100,"a",@progbits
.L__unnamed_100:
	.ascii	"character `"
	.size	.L__unnamed_100, 11

	.type	.L__unnamed_28,@object
	.section	.rodata..L__unnamed_28,"a",@progbits
	.p2align	2, 0x0
.L__unnamed_28:
	.word	.L__unnamed_100
	.asciz	"\013\000\000"
	.word	.L__unnamed_97
	.asciz	"\001\000\000"
	.size	.L__unnamed_28, 16

	.type	.L__unnamed_101,@object
	.section	.rodata..L__unnamed_101,"a",@progbits
.L__unnamed_101:
	.ascii	"string "
	.size	.L__unnamed_101, 7

	.type	.L__unnamed_29,@object
	.section	.rodata..L__unnamed_29,"a",@progbits
	.p2align	2, 0x0
.L__unnamed_29:
	.word	.L__unnamed_101
	.asciz	"\007\000\000"
	.size	.L__unnamed_29, 8

	.type	.L__unnamed_30,@object
	.section	.rodata..L__unnamed_30,"a",@progbits
.L__unnamed_30:
	.ascii	"unit value"
	.size	.L__unnamed_30, 10

	.type	.L__unnamed_31,@object
	.section	.rodata..L__unnamed_31,"a",@progbits
.L__unnamed_31:
	.ascii	"Option value"
	.size	.L__unnamed_31, 12

	.type	.L__unnamed_32,@object
	.section	.rodata..L__unnamed_32,"a",@progbits
.L__unnamed_32:
	.ascii	"newtype struct"
	.size	.L__unnamed_32, 14

	.type	.L__unnamed_33,@object
	.section	.rodata.cst8,"aM",@progbits,8
.L__unnamed_33:
	.ascii	"sequence"
	.size	.L__unnamed_33, 8

	.type	.L__unnamed_34,@object
	.section	.rodata..L__unnamed_34,"a",@progbits
.L__unnamed_34:
	.ascii	"map"
	.size	.L__unnamed_34, 3

	.type	.L__unnamed_35,@object
	.section	.rodata.cst4,"aM",@progbits,4
.L__unnamed_35:
	.ascii	"enum"
	.size	.L__unnamed_35, 4

	.type	.L__unnamed_36,@object
	.section	.rodata..L__unnamed_36,"a",@progbits
.L__unnamed_36:
	.ascii	"unit variant"
	.size	.L__unnamed_36, 12

	.type	.L__unnamed_37,@object
	.section	.rodata..L__unnamed_37,"a",@progbits
.L__unnamed_37:
	.ascii	"newtype variant"
	.size	.L__unnamed_37, 15

	.type	.L__unnamed_38,@object
	.section	.rodata..L__unnamed_38,"a",@progbits
.L__unnamed_38:
	.ascii	"tuple variant"
	.size	.L__unnamed_38, 13

	.type	.L__unnamed_39,@object
	.section	.rodata..L__unnamed_39,"a",@progbits
.L__unnamed_39:
	.ascii	"struct variant"
	.size	.L__unnamed_39, 14

	.type	.L__unnamed_44,@object
	.section	.rodata..L__unnamed_44,"a",@progbits
.L__unnamed_44:
	.ascii	"explicit panic"
	.size	.L__unnamed_44, 14

	.type	.L__unnamed_102,@object
	.section	.rodata..L__unnamed_102,"a",@progbits
.L__unnamed_102:
	.ascii	"/Users/steve/.cargo/registry/src/index.crates.io-6f17d22bba15001f/serde-1.0.205/src/de/mod.rs"
	.size	.L__unnamed_102, 93

	.type	.L__unnamed_45,@object
	.section	.rodata..L__unnamed_45,"a",@progbits
	.p2align	2, 0x0
.L__unnamed_45:
	.word	.L__unnamed_102
	.asciz	"]\000\000\000\354\b\000\000\022\000\000"
	.size	.L__unnamed_45, 16

	.type	.L__unnamed_41,@object
	.section	.rodata..L__unnamed_41,"a",@progbits
	.p2align	2, 0x0
.L__unnamed_41:
	.word	.L__unnamed_97
	.asciz	"\001\000\000"
	.word	.L__unnamed_97
	.asciz	"\001\000\000"
	.size	.L__unnamed_41, 16

	.type	.L__unnamed_103,@object
	.section	.rodata..L__unnamed_103,"a",@progbits
.L__unnamed_103:
	.ascii	"` or `"
	.size	.L__unnamed_103, 6

	.type	.L__unnamed_42,@object
	.section	.rodata..L__unnamed_42,"a",@progbits
	.p2align	2, 0x0
.L__unnamed_42:
	.word	.L__unnamed_97
	.asciz	"\001\000\000"
	.word	.L__unnamed_103
	.asciz	"\006\000\000"
	.word	.L__unnamed_97
	.asciz	"\001\000\000"
	.size	.L__unnamed_42, 24

	.type	.L__unnamed_40,@object
	.section	.rodata..L__unnamed_40,"a",@progbits
.L__unnamed_40:
	.ascii	"one of "
	.size	.L__unnamed_40, 7

	.type	.L__unnamed_43,@object
	.section	.rodata..L__unnamed_43,"a",@progbits
.L__unnamed_43:
	.ascii	", "
	.size	.L__unnamed_43, 2

	.type	.L__unnamed_46,@object
	.section	.rodata..L__unnamed_46,"a",@progbits
	.p2align	2, 0x0
.L__unnamed_46:
	.word	.L__unnamed_92
	.zero	4
	.size	.L__unnamed_46, 8

	.type	.L__unnamed_47,@object
	.section	.rodata..L__unnamed_47,"a",@progbits
.L__unnamed_47:
	.ascii	".0"
	.size	.L__unnamed_47, 2

	.type	.L__unnamed_48,@object
	.section	.rodata..L__unnamed_48,"a",@progbits
.L__unnamed_48:
	.ascii	"a byte array"
	.size	.L__unnamed_48, 12

	.type	.L__unnamed_49,@object
	.section	.rodata..L__unnamed_49,"a",@progbits
.L__unnamed_49:
	.ascii	"any value"
	.size	.L__unnamed_49, 9

	.type	.L__unnamed_104,@object
	.section	.rodata..L__unnamed_104,"a",@progbits
.L__unnamed_104:
	.ascii	"a type tag `"
	.size	.L__unnamed_104, 12

	.type	.L__unnamed_105,@object
	.section	.rodata..L__unnamed_105,"a",@progbits
.L__unnamed_105:
	.ascii	"` or any other value"
	.size	.L__unnamed_105, 20

	.type	.L__unnamed_50,@object
	.section	.rodata..L__unnamed_50,"a",@progbits
	.p2align	2, 0x0
.L__unnamed_50:
	.word	.L__unnamed_104
	.asciz	"\f\000\000"
	.word	.L__unnamed_105
	.asciz	"\024\000\000"
	.size	.L__unnamed_50, 16

	.type	.L__unnamed_106,@object
	.section	.rodata.cst4,"aM",@progbits,4
.L__unnamed_106:
	.ascii	" or "
	.size	.L__unnamed_106, 4

	.type	.L__unnamed_51,@object
	.section	.rodata..L__unnamed_51,"a",@progbits
	.p2align	2, 0x0
.L__unnamed_51:
	.word	.L__unnamed_92
	.zero	4
	.word	.L__unnamed_106
	.asciz	"\004\000\000"
	.size	.L__unnamed_51, 16

	.type	.L__unnamed_107,@object
	.section	.rodata..L__unnamed_107,"a",@progbits
.L__unnamed_107:
	.ascii	", or other ignored fields"
	.size	.L__unnamed_107, 25

	.type	.L__unnamed_52,@object
	.section	.rodata..L__unnamed_52,"a",@progbits
	.p2align	2, 0x0
.L__unnamed_52:
	.word	.L__unnamed_92
	.zero	4
	.word	.L__unnamed_43
	.asciz	"\002\000\000"
	.word	.L__unnamed_107
	.asciz	"\031\000\000"
	.size	.L__unnamed_52, 24

	.type	.L__unnamed_108,@object
	.section	.rodata..L__unnamed_108,"a",@progbits
.L__unnamed_108:
	.ascii	"unit variant "
	.size	.L__unnamed_108, 13

	.type	.L__unnamed_109,@object
	.section	.rodata..L__unnamed_109,"a",@progbits
.L__unnamed_109:
	.zero	2,58
	.size	.L__unnamed_109, 2

	.type	.L__unnamed_53,@object
	.section	.rodata..L__unnamed_53,"a",@progbits
	.p2align	2, 0x0
.L__unnamed_53:
	.word	.L__unnamed_108
	.asciz	"\r\000\000"
	.word	.L__unnamed_109
	.asciz	"\002\000\000"
	.size	.L__unnamed_53, 16

	.type	.L__unnamed_54,@object
	.section	.rodata..L__unnamed_54,"a",@progbits
.L__unnamed_54:
	.ascii	"an integer"
	.size	.L__unnamed_54, 10

	.type	.L__unnamed_55,@object
	.section	.rodata..L__unnamed_55,"a",@progbits
.L__unnamed_55:
	.ascii	"a float"
	.size	.L__unnamed_55, 7

	.type	.L__unnamed_56,@object
	.section	.rodata..L__unnamed_56,"a",@progbits
.L__unnamed_56:
	.ascii	"a char"
	.size	.L__unnamed_56, 6

	.type	.L__unnamed_57,@object
	.section	.rodata..L__unnamed_57,"a",@progbits
.L__unnamed_57:
	.ascii	"an optional"
	.size	.L__unnamed_57, 11

	.type	.L__unnamed_58,@object
	.section	.rodata..L__unnamed_58,"a",@progbits
.L__unnamed_58:
	.ascii	"unit struct"
	.size	.L__unnamed_58, 11

	.type	.L__unnamed_59,@object
	.section	.rodata..L__unnamed_59,"a",@progbits
.L__unnamed_59:
	.ascii	"a sequence"
	.size	.L__unnamed_59, 10

	.type	.L__unnamed_60,@object
	.section	.rodata..L__unnamed_60,"a",@progbits
.L__unnamed_60:
	.ascii	"a tuple"
	.size	.L__unnamed_60, 7

	.type	.L__unnamed_61,@object
	.section	.rodata..L__unnamed_61,"a",@progbits
.L__unnamed_61:
	.ascii	"a tuple struct"
	.size	.L__unnamed_61, 14

	.type	.L__unnamed_62,@object
	.section	.rodata..L__unnamed_62,"a",@progbits
.L__unnamed_62:
	.ascii	"an enum"
	.size	.L__unnamed_62, 7

	.type	.L__unnamed_63,@object
	.section	.rodata..L__unnamed_63,"a",@progbits
.L__unnamed_63:
	.ascii	"not implemented"
	.size	.L__unnamed_63, 15

	.type	.L__unnamed_110,@object
	.section	.rodata..L__unnamed_110,"a",@progbits
.L__unnamed_110:
	.ascii	"/Users/steve/.cargo/registry/src/index.crates.io-6f17d22bba15001f/serde-1.0.205/src/private/doc.rs"
	.size	.L__unnamed_110, 98

	.type	.L__unnamed_64,@object
	.section	.rodata..L__unnamed_64,"a",@progbits
	.p2align	2, 0x0
.L__unnamed_64:
	.word	.L__unnamed_110
	.asciz	"b\000\000\000\035\000\000\000\t\000\000"
	.size	.L__unnamed_64, 16

	.type	.L__unnamed_65,@object
	.section	.rodata..L__unnamed_65,"a",@progbits
.L__unnamed_65:
	.ascii	"a nonzero i8"
	.size	.L__unnamed_65, 12

	.type	.L__unnamed_66,@object
	.section	.rodata..L__unnamed_66,"a",@progbits
.L__unnamed_66:
	.ascii	"integer with support for saturating semantics"
	.size	.L__unnamed_66, 45

	.type	.L__unnamed_67,@object
	.section	.rodata..L__unnamed_67,"a",@progbits
.L__unnamed_67:
	.ascii	"i8"
	.size	.L__unnamed_67, 2

	.type	.L__unnamed_68,@object
	.section	.rodata..L__unnamed_68,"a",@progbits
.L__unnamed_68:
	.ascii	"a nonzero i16"
	.size	.L__unnamed_68, 13

	.type	.L__unnamed_69,@object
	.section	.rodata..L__unnamed_69,"a",@progbits
.L__unnamed_69:
	.ascii	"i16"
	.size	.L__unnamed_69, 3

	.type	.L__unnamed_70,@object
	.section	.rodata..L__unnamed_70,"a",@progbits
.L__unnamed_70:
	.ascii	"a nonzero i32"
	.size	.L__unnamed_70, 13

	.type	.L__unnamed_71,@object
	.section	.rodata..L__unnamed_71,"a",@progbits
.L__unnamed_71:
	.ascii	"i32"
	.size	.L__unnamed_71, 3

	.type	.L__unnamed_72,@object
	.section	.rodata..L__unnamed_72,"a",@progbits
.L__unnamed_72:
	.ascii	"a nonzero i64"
	.size	.L__unnamed_72, 13

	.type	.L__unnamed_73,@object
	.section	.rodata..L__unnamed_73,"a",@progbits
.L__unnamed_73:
	.ascii	"i64"
	.size	.L__unnamed_73, 3

	.type	.L__unnamed_74,@object
	.section	.rodata..L__unnamed_74,"a",@progbits
.L__unnamed_74:
	.ascii	"a nonzero isize"
	.size	.L__unnamed_74, 15

	.type	.L__unnamed_75,@object
	.section	.rodata..L__unnamed_75,"a",@progbits
.L__unnamed_75:
	.ascii	"isize"
	.size	.L__unnamed_75, 5

	.type	.L__unnamed_76,@object
	.section	.rodata..L__unnamed_76,"a",@progbits
.L__unnamed_76:
	.ascii	"a nonzero u8"
	.size	.L__unnamed_76, 12

	.type	.L__unnamed_77,@object
	.section	.rodata..L__unnamed_77,"a",@progbits
.L__unnamed_77:
	.ascii	"u8"
	.size	.L__unnamed_77, 2

	.type	.L__unnamed_78,@object
	.section	.rodata..L__unnamed_78,"a",@progbits
.L__unnamed_78:
	.ascii	"a nonzero u16"
	.size	.L__unnamed_78, 13

	.type	.L__unnamed_79,@object
	.section	.rodata..L__unnamed_79,"a",@progbits
.L__unnamed_79:
	.ascii	"u16"
	.size	.L__unnamed_79, 3

	.type	.L__unnamed_80,@object
	.section	.rodata..L__unnamed_80,"a",@progbits
.L__unnamed_80:
	.ascii	"a nonzero u32"
	.size	.L__unnamed_80, 13

	.type	.L__unnamed_81,@object
	.section	.rodata..L__unnamed_81,"a",@progbits
.L__unnamed_81:
	.ascii	"u32"
	.size	.L__unnamed_81, 3

	.type	.L__unnamed_82,@object
	.section	.rodata..L__unnamed_82,"a",@progbits
.L__unnamed_82:
	.ascii	"a nonzero u64"
	.size	.L__unnamed_82, 13

	.type	.L__unnamed_83,@object
	.section	.rodata..L__unnamed_83,"a",@progbits
.L__unnamed_83:
	.ascii	"u64"
	.size	.L__unnamed_83, 3

	.type	.L__unnamed_84,@object
	.section	.rodata..L__unnamed_84,"a",@progbits
.L__unnamed_84:
	.ascii	"a nonzero usize"
	.size	.L__unnamed_84, 15

	.type	.L__unnamed_85,@object
	.section	.rodata..L__unnamed_85,"a",@progbits
.L__unnamed_85:
	.ascii	"usize"
	.size	.L__unnamed_85, 5

	.type	.L__unnamed_86,@object
	.section	.rodata..L__unnamed_86,"a",@progbits
.L__unnamed_86:
	.ascii	"f32"
	.size	.L__unnamed_86, 3

	.type	.L__unnamed_87,@object
	.section	.rodata..L__unnamed_87,"a",@progbits
.L__unnamed_87:
	.ascii	"f64"
	.size	.L__unnamed_87, 3

	.type	.L__unnamed_88,@object
	.section	.rodata..L__unnamed_88,"a",@progbits
.L__unnamed_88:
	.ascii	"a nonzero i128"
	.size	.L__unnamed_88, 14

	.type	.L__unnamed_89,@object
	.section	.rodata.cst4,"aM",@progbits,4
.L__unnamed_89:
	.ascii	"i128"
	.size	.L__unnamed_89, 4

	.type	.L__unnamed_90,@object
	.section	.rodata..L__unnamed_90,"a",@progbits
.L__unnamed_90:
	.ascii	"a nonzero u128"
	.size	.L__unnamed_90, 14

	.type	.L__unnamed_91,@object
	.section	.rodata.cst4,"aM",@progbits,4
.L__unnamed_91:
	.ascii	"u128"
	.size	.L__unnamed_91, 4

	.section	.rodata..L__unnamed_1,"a",@progbits
.Lsec_end0:
	.section	.rodata..L__unnamed_2,"a",@progbits
.Lsec_end1:
	.section	".rodata._ZN5serde2de5impls73_$LT$impl$u20$serde..de..Deserialize$u20$for$u20$core..time..Duration$GT$11deserialize14check_overflow13NANOS_PER_SEC17he1dd315f7878ee6cE","a",@progbits
.Lsec_end2:
	.section	".text._ZN42_$LT$$RF$T$u20$as$u20$core..fmt..Debug$GT$3fmt17h05789b1e5d7153a8E","ax",@progbits
.Lsec_end3:
	.section	".text._ZN44_$LT$$RF$T$u20$as$u20$core..fmt..Display$GT$3fmt17h52d87e945500df40E","ax",@progbits
.Lsec_end4:
	.section	".text._ZN44_$LT$$RF$T$u20$as$u20$core..fmt..Display$GT$3fmt17haf3bd33e0725d546E","ax",@progbits
.Lsec_end5:
	.section	.text._ZN4core3fmt5Write9write_fmt17h132f4e0197a0a7caE,"ax",@progbits
.Lsec_end6:
	.section	".text._ZN4core3ptr112drop_in_place$LT$$LT$serde..de..WithDecimalPoint$u20$as$u20$core..fmt..Display$GT$..fmt..LookForDecimalPoint$GT$17h6b1b6b7a4b0201e6E","ax",@progbits
.Lsec_end7:
	.section	".text._ZN4core3ptr49drop_in_place$LT$alloc..boxed..Box$LT$str$GT$$GT$17h7530d9b8deb0b070E","ax",@progbits
.Lsec_end8:
	.section	".text._ZN60_$LT$serde..de..value..Error$u20$as$u20$core..fmt..Debug$GT$3fmt17h82c066d61dfee745E","ax",@progbits
.Lsec_end9:
	.section	".text._ZN71_$LT$serde..de..value..ExpectedInSeq$u20$as$u20$serde..de..Expected$GT$3fmt17h62388717c2a5a9d3E","ax",@progbits
.Lsec_end10:
	.section	".text._ZN71_$LT$serde..de..value..ExpectedInMap$u20$as$u20$serde..de..Expected$GT$3fmt17hdf9e2bfaf98c34bfE","ax",@progbits
.Lsec_end11:
	.section	.text._ZN5serde2de6format3Buf6as_str17h17ecb2354f4eed7cE,"ax",@progbits
.Lsec_end12:
	.section	".text._ZN59_$LT$serde..de..format..Buf$u20$as$u20$core..fmt..Write$GT$9write_str17h088faf2c18489f46E","ax",@progbits
.Lsec_end13:
	.section	".text._ZN73_$LT$serde..de..ignored_any..IgnoredAny$u20$as$u20$serde..de..Visitor$GT$9expecting17h942bddb75885937aE","ax",@progbits
.Lsec_end14:
	.section	".text._ZN68_$LT$serde..de..impls..UnitVisitor$u20$as$u20$serde..de..Visitor$GT$9expecting17h5bb39d74107075f1E","ax",@progbits
.Lsec_end15:
	.section	".text._ZN68_$LT$serde..de..impls..BoolVisitor$u20$as$u20$serde..de..Visitor$GT$9expecting17h85f2b71f0bcfd159E","ax",@progbits
.Lsec_end16:
	.section	".text._ZN68_$LT$serde..de..impls..CharVisitor$u20$as$u20$serde..de..Visitor$GT$9expecting17h0781a53cb1ec64d3E","ax",@progbits
.Lsec_end17:
	.section	".text._ZN70_$LT$serde..de..impls..StringVisitor$u20$as$u20$serde..de..Visitor$GT$9expecting17h24acefa1da42bf3cE","ax",@progbits
.Lsec_end18:
	.section	".text._ZN77_$LT$serde..de..impls..StringInPlaceVisitor$u20$as$u20$serde..de..Visitor$GT$9expecting17hb9b35ca6da1b44e8E","ax",@progbits
.Lsec_end19:
	.section	".text._ZN67_$LT$serde..de..impls..StrVisitor$u20$as$u20$serde..de..Visitor$GT$9expecting17h2533761b30e409daE","ax",@progbits
.Lsec_end20:
	.section	".text._ZN69_$LT$serde..de..impls..BytesVisitor$u20$as$u20$serde..de..Visitor$GT$9expecting17h57c7ce774cff599dE","ax",@progbits
.Lsec_end21:
	.section	".text._ZN71_$LT$serde..de..impls..CStringVisitor$u20$as$u20$serde..de..Visitor$GT$9expecting17h5431a7010b38969cE","ax",@progbits
.Lsec_end22:
	.section	".text._ZN218_$LT$$LT$serde..de..impls..$LT$impl$u20$serde..de..Deserialize$u20$for$u20$core..time..Duration$GT$..deserialize..Field$u20$as$u20$serde..de..Deserialize$GT$..deserialize..FieldVisitor$u20$as$u20$serde..de..Visitor$GT$9expecting17h77c339fe0d2bde32E","ax",@progbits
.Lsec_end23:
	.section	".text._ZN159_$LT$serde..de..impls..$LT$impl$u20$serde..de..Deserialize$u20$for$u20$core..time..Duration$GT$..deserialize..DurationVisitor$u20$as$u20$serde..de..Visitor$GT$9expecting17h418c5ed8b98632fdE","ax",@progbits
.Lsec_end24:
	.section	".text._ZN138_$LT$$LT$serde..de..impls..range..Field$u20$as$u20$serde..de..Deserialize$GT$..deserialize..FieldVisitor$u20$as$u20$serde..de..Visitor$GT$9expecting17h5591a6332d22cd74E","ax",@progbits
.Lsec_end25:
	.section	".text._ZN143_$LT$$LT$serde..de..impls..range_from..Field$u20$as$u20$serde..de..Deserialize$GT$..deserialize..FieldVisitor$u20$as$u20$serde..de..Visitor$GT$9expecting17h7b31036a5bcb901fE","ax",@progbits
.Lsec_end26:
	.section	".text._ZN141_$LT$$LT$serde..de..impls..range_to..Field$u20$as$u20$serde..de..Deserialize$GT$..deserialize..FieldVisitor$u20$as$u20$serde..de..Visitor$GT$9expecting17hf35c9d81d1132a12E","ax",@progbits
.Lsec_end27:
	.section	".text._ZN230_$LT$$LT$serde..de..impls..$LT$impl$u20$serde..de..Deserialize$u20$for$u20$core..ops..range..Bound$LT$T$GT$$GT$..deserialize..Field$u20$as$u20$serde..de..Deserialize$GT$..deserialize..FieldVisitor$u20$as$u20$serde..de..Visitor$GT$9expecting17hcbc27cf80ff9ef6dE","ax",@progbits
.Lsec_end28:
	.section	".text._ZN231_$LT$$LT$serde..de..impls..$LT$impl$u20$serde..de..Deserialize$u20$for$u20$core..result..Result$LT$T$C$E$GT$$GT$..deserialize..Field$u20$as$u20$serde..de..Deserialize$GT$..deserialize..FieldVisitor$u20$as$u20$serde..de..Visitor$GT$9expecting17hf87a5e9c4c1d8f10E","ax",@progbits
.Lsec_end29:
	.section	".text._ZN60_$LT$serde..de..Unexpected$u20$as$u20$core..fmt..Display$GT$3fmt17h8deee91cd8ac004bE","ax",@progbits
.Lsec_end30:
	.section	".text._ZN47_$LT$$RF$str$u20$as$u20$serde..de..Expected$GT$3fmt17hb015eb2bd3dd7dfeE","ax",@progbits
.Lsec_end31:
	.section	".text._ZN66_$LT$dyn$u20$serde..de..Expected$u20$as$u20$core..fmt..Display$GT$3fmt17hd47bf3d07d4cf468E","ax",@progbits
.Lsec_end32:
	.section	".text._ZN55_$LT$serde..de..OneOf$u20$as$u20$core..fmt..Display$GT$3fmt17hf5b140d1263ff45cE","ax",@progbits
.Lsec_end33:
	.section	".text._ZN66_$LT$serde..de..WithDecimalPoint$u20$as$u20$core..fmt..Display$GT$3fmt17hdb9a90141f8c173cE","ax",@progbits
.Lsec_end34:
	.section	".text._ZN128_$LT$$LT$serde..de..WithDecimalPoint$u20$as$u20$core..fmt..Display$GT$..fmt..LookForDecimalPoint$u20$as$u20$core..fmt..Write$GT$9write_str17h539949e1a9a76d8fE","ax",@progbits
.Lsec_end35:
	.section	".text._ZN128_$LT$$LT$serde..de..WithDecimalPoint$u20$as$u20$core..fmt..Display$GT$..fmt..LookForDecimalPoint$u20$as$u20$core..fmt..Write$GT$10write_char17hf234726b2af5bd8dE","ax",@progbits
.Lsec_end36:
	.section	".text._ZN5serde3ser3fmt85_$LT$impl$u20$serde..ser..Serializer$u20$for$u20$$RF$mut$u20$core..fmt..Formatter$GT$22serialize_unit_variant17hdca2ae013618ed3dE","ax",@progbits
.Lsec_end37:
	.section	".text._ZN94_$LT$serde..__private..de..borrow_cow_bytes..CowBytesVisitor$u20$as$u20$serde..de..Visitor$GT$9expecting17he5fa947d3bb5003cE","ax",@progbits
.Lsec_end38:
	.section	.text._ZN5serde9__private2de7content7Content6as_str17hc3e7c1667f5ffb5eE,"ax",@progbits
.Lsec_end39:
	.section	".text._ZN84_$LT$serde..__private..de..content..ContentVisitor$u20$as$u20$serde..de..Visitor$GT$9expecting17ha56ab8e5dd6a2a24E","ax",@progbits
.Lsec_end40:
	.section	".text._ZN89_$LT$serde..__private..de..content..TagOrContentVisitor$u20$as$u20$serde..de..Visitor$GT$9expecting17h03be48f4002f885bE","ax",@progbits
.Lsec_end41:
	.section	".text._ZN94_$LT$serde..__private..de..content..TagOrContentFieldVisitor$u20$as$u20$serde..de..Visitor$GT$9expecting17hf151217e737b83a3E","ax",@progbits
.Lsec_end42:
	.section	".text._ZN97_$LT$serde..__private..de..content..TagContentOtherFieldVisitor$u20$as$u20$serde..de..Visitor$GT$9expecting17hdcb40f197690ec85E","ax",@progbits
.Lsec_end43:
	.section	".text._ZN89_$LT$serde..__private..de..content..UntaggedUnitVisitor$u20$as$u20$serde..de..Visitor$GT$9expecting17h75154788b8218f3bE","ax",@progbits
.Lsec_end44:
	.section	.text._ZN5serde9__private2de19flat_map_take_entry17hfede601b01a3b04eE,"ax",@progbits
.Lsec_end45:
	.section	".text._ZN73_$LT$serde..__private..ser..Unsupported$u20$as$u20$core..fmt..Display$GT$3fmt17h608bbb6d5ac2c167E","ax",@progbits
.Lsec_end46:
	.section	".text._ZN67_$LT$serde..__private..doc..Error$u20$as$u20$core..fmt..Display$GT$3fmt17ha430912a44d4e96fE","ax",@progbits
.Lsec_end47:
	.section	.text._ZN5serde9__private6string15from_utf8_lossy17h864d6a557c4f9d88E,"ax",@progbits
.Lsec_end48:
	.section	".text._ZN175_$LT$serde..de..impls..$LT$impl$u20$serde..de..Deserialize$u20$for$u20$core..num..nonzero..NonZero$LT$i8$GT$$GT$..deserialize..NonZeroVisitor$u20$as$u20$serde..de..Visitor$GT$9expecting17h7cbb3339419430d8E","ax",@progbits
.Lsec_end49:
	.section	".text._ZN184_$LT$serde..de..impls..$LT$impl$u20$serde..de..Deserialize$u20$for$u20$core..num..saturating..Saturating$LT$i8$GT$$GT$..deserialize..SaturatingVisitor$u20$as$u20$serde..de..Visitor$GT$9expecting17hc67c67c44b8b5517E","ax",@progbits
.Lsec_end50:
	.section	".text._ZN142_$LT$serde..de..impls..$LT$impl$u20$serde..de..Deserialize$u20$for$u20$i8$GT$..deserialize..PrimitiveVisitor$u20$as$u20$serde..de..Visitor$GT$9expecting17h6d5a673768299d8dE","ax",@progbits
.Lsec_end51:
	.section	".text._ZN176_$LT$serde..de..impls..$LT$impl$u20$serde..de..Deserialize$u20$for$u20$core..num..nonzero..NonZero$LT$i16$GT$$GT$..deserialize..NonZeroVisitor$u20$as$u20$serde..de..Visitor$GT$9expecting17h36d94c0567932f75E","ax",@progbits
.Lsec_end52:
	.section	".text._ZN143_$LT$serde..de..impls..$LT$impl$u20$serde..de..Deserialize$u20$for$u20$i16$GT$..deserialize..PrimitiveVisitor$u20$as$u20$serde..de..Visitor$GT$9expecting17h9f44fd55c688769eE","ax",@progbits
.Lsec_end53:
	.section	".text._ZN176_$LT$serde..de..impls..$LT$impl$u20$serde..de..Deserialize$u20$for$u20$core..num..nonzero..NonZero$LT$i32$GT$$GT$..deserialize..NonZeroVisitor$u20$as$u20$serde..de..Visitor$GT$9expecting17hd4ae568a9c9d610cE","ax",@progbits
.Lsec_end54:
	.section	".text._ZN143_$LT$serde..de..impls..$LT$impl$u20$serde..de..Deserialize$u20$for$u20$i32$GT$..deserialize..PrimitiveVisitor$u20$as$u20$serde..de..Visitor$GT$9expecting17h9d9cec7438467340E","ax",@progbits
.Lsec_end55:
	.section	".text._ZN176_$LT$serde..de..impls..$LT$impl$u20$serde..de..Deserialize$u20$for$u20$core..num..nonzero..NonZero$LT$i64$GT$$GT$..deserialize..NonZeroVisitor$u20$as$u20$serde..de..Visitor$GT$9expecting17hb61e39598623c316E","ax",@progbits
.Lsec_end56:
	.section	".text._ZN143_$LT$serde..de..impls..$LT$impl$u20$serde..de..Deserialize$u20$for$u20$i64$GT$..deserialize..PrimitiveVisitor$u20$as$u20$serde..de..Visitor$GT$9expecting17hb6249ff3838186e3E","ax",@progbits
.Lsec_end57:
	.section	".text._ZN178_$LT$serde..de..impls..$LT$impl$u20$serde..de..Deserialize$u20$for$u20$core..num..nonzero..NonZero$LT$isize$GT$$GT$..deserialize..NonZeroVisitor$u20$as$u20$serde..de..Visitor$GT$9expecting17hd712b1b97e83ce1aE","ax",@progbits
.Lsec_end58:
	.section	".text._ZN145_$LT$serde..de..impls..$LT$impl$u20$serde..de..Deserialize$u20$for$u20$isize$GT$..deserialize..PrimitiveVisitor$u20$as$u20$serde..de..Visitor$GT$9expecting17h3693a4a99fb9d19cE","ax",@progbits
.Lsec_end59:
	.section	".text._ZN175_$LT$serde..de..impls..$LT$impl$u20$serde..de..Deserialize$u20$for$u20$core..num..nonzero..NonZero$LT$u8$GT$$GT$..deserialize..NonZeroVisitor$u20$as$u20$serde..de..Visitor$GT$9expecting17h2f20b7bb91e4d37bE","ax",@progbits
.Lsec_end60:
	.section	".text._ZN142_$LT$serde..de..impls..$LT$impl$u20$serde..de..Deserialize$u20$for$u20$u8$GT$..deserialize..PrimitiveVisitor$u20$as$u20$serde..de..Visitor$GT$9expecting17hc4bfa9aa8fdf16c1E","ax",@progbits
.Lsec_end61:
	.section	".text._ZN176_$LT$serde..de..impls..$LT$impl$u20$serde..de..Deserialize$u20$for$u20$core..num..nonzero..NonZero$LT$u16$GT$$GT$..deserialize..NonZeroVisitor$u20$as$u20$serde..de..Visitor$GT$9expecting17h8e6bd6c851a51439E","ax",@progbits
.Lsec_end62:
	.section	".text._ZN143_$LT$serde..de..impls..$LT$impl$u20$serde..de..Deserialize$u20$for$u20$u16$GT$..deserialize..PrimitiveVisitor$u20$as$u20$serde..de..Visitor$GT$9expecting17h15b1a1b917a3a049E","ax",@progbits
.Lsec_end63:
	.section	".text._ZN176_$LT$serde..de..impls..$LT$impl$u20$serde..de..Deserialize$u20$for$u20$core..num..nonzero..NonZero$LT$u32$GT$$GT$..deserialize..NonZeroVisitor$u20$as$u20$serde..de..Visitor$GT$9expecting17h7d7656d421cc08daE","ax",@progbits
.Lsec_end64:
	.section	".text._ZN143_$LT$serde..de..impls..$LT$impl$u20$serde..de..Deserialize$u20$for$u20$u32$GT$..deserialize..PrimitiveVisitor$u20$as$u20$serde..de..Visitor$GT$9expecting17h8cbb772d6fcbb7ceE","ax",@progbits
.Lsec_end65:
	.section	".text._ZN176_$LT$serde..de..impls..$LT$impl$u20$serde..de..Deserialize$u20$for$u20$core..num..nonzero..NonZero$LT$u64$GT$$GT$..deserialize..NonZeroVisitor$u20$as$u20$serde..de..Visitor$GT$9expecting17h5c1d9ddce0956526E","ax",@progbits
.Lsec_end66:
	.section	".text._ZN143_$LT$serde..de..impls..$LT$impl$u20$serde..de..Deserialize$u20$for$u20$u64$GT$..deserialize..PrimitiveVisitor$u20$as$u20$serde..de..Visitor$GT$9expecting17h38e0d96ac66d8cf1E","ax",@progbits
.Lsec_end67:
	.section	".text._ZN178_$LT$serde..de..impls..$LT$impl$u20$serde..de..Deserialize$u20$for$u20$core..num..nonzero..NonZero$LT$usize$GT$$GT$..deserialize..NonZeroVisitor$u20$as$u20$serde..de..Visitor$GT$9expecting17hcd5455a273d47eb2E","ax",@progbits
.Lsec_end68:
	.section	".text._ZN145_$LT$serde..de..impls..$LT$impl$u20$serde..de..Deserialize$u20$for$u20$usize$GT$..deserialize..PrimitiveVisitor$u20$as$u20$serde..de..Visitor$GT$9expecting17h7b1a7a511973a5d3E","ax",@progbits
.Lsec_end69:
	.section	".text._ZN143_$LT$serde..de..impls..$LT$impl$u20$serde..de..Deserialize$u20$for$u20$f32$GT$..deserialize..PrimitiveVisitor$u20$as$u20$serde..de..Visitor$GT$9expecting17hed132776b4f9b805E","ax",@progbits
.Lsec_end70:
	.section	".text._ZN143_$LT$serde..de..impls..$LT$impl$u20$serde..de..Deserialize$u20$for$u20$f64$GT$..deserialize..PrimitiveVisitor$u20$as$u20$serde..de..Visitor$GT$9expecting17hbe82e8a3656b2ff9E","ax",@progbits
.Lsec_end71:
	.section	".text._ZN177_$LT$serde..de..impls..$LT$impl$u20$serde..de..Deserialize$u20$for$u20$core..num..nonzero..NonZero$LT$i128$GT$$GT$..deserialize..NonZeroVisitor$u20$as$u20$serde..de..Visitor$GT$9expecting17h66b370c3c57a07f4E","ax",@progbits
.Lsec_end72:
	.section	".text._ZN144_$LT$serde..de..impls..$LT$impl$u20$serde..de..Deserialize$u20$for$u20$i128$GT$..deserialize..PrimitiveVisitor$u20$as$u20$serde..de..Visitor$GT$9expecting17h5ee0d7d34ed198f4E","ax",@progbits
.Lsec_end73:
	.section	".text._ZN177_$LT$serde..de..impls..$LT$impl$u20$serde..de..Deserialize$u20$for$u20$core..num..nonzero..NonZero$LT$u128$GT$$GT$..deserialize..NonZeroVisitor$u20$as$u20$serde..de..Visitor$GT$9expecting17h24f83fd10a739494E","ax",@progbits
.Lsec_end74:
	.section	".text._ZN144_$LT$serde..de..impls..$LT$impl$u20$serde..de..Deserialize$u20$for$u20$u128$GT$..deserialize..PrimitiveVisitor$u20$as$u20$serde..de..Visitor$GT$9expecting17h7db4c8f3e8942f91E","ax",@progbits
.Lsec_end75:
	.section	".text._ZN5serde3ser3fmt85_$LT$impl$u20$serde..ser..Serializer$u20$for$u20$$RF$mut$u20$core..fmt..Formatter$GT$14serialize_bool17hcb6c0aca31dbb9bdE","ax",@progbits
.Lsec_end76:
	.section	".text._ZN5serde3ser3fmt85_$LT$impl$u20$serde..ser..Serializer$u20$for$u20$$RF$mut$u20$core..fmt..Formatter$GT$12serialize_i817h945430c322a8afddE","ax",@progbits
.Lsec_end77:
	.section	".text._ZN5serde3ser3fmt85_$LT$impl$u20$serde..ser..Serializer$u20$for$u20$$RF$mut$u20$core..fmt..Formatter$GT$13serialize_i1617h7b8ca8d7aa736d0eE","ax",@progbits
.Lsec_end78:
	.section	".text._ZN5serde3ser3fmt85_$LT$impl$u20$serde..ser..Serializer$u20$for$u20$$RF$mut$u20$core..fmt..Formatter$GT$13serialize_i3217h56e04c1b46b8d5ecE","ax",@progbits
.Lsec_end79:
	.section	".text._ZN5serde3ser3fmt85_$LT$impl$u20$serde..ser..Serializer$u20$for$u20$$RF$mut$u20$core..fmt..Formatter$GT$13serialize_i6417hd1f8ef4639e05280E","ax",@progbits
.Lsec_end80:
	.section	".text._ZN5serde3ser3fmt85_$LT$impl$u20$serde..ser..Serializer$u20$for$u20$$RF$mut$u20$core..fmt..Formatter$GT$14serialize_i12817h685065edfd6c2f20E","ax",@progbits
.Lsec_end81:
	.section	".text._ZN5serde3ser3fmt85_$LT$impl$u20$serde..ser..Serializer$u20$for$u20$$RF$mut$u20$core..fmt..Formatter$GT$12serialize_u817hd5f32a41a1632b9bE","ax",@progbits
.Lsec_end82:
	.section	".text._ZN5serde3ser3fmt85_$LT$impl$u20$serde..ser..Serializer$u20$for$u20$$RF$mut$u20$core..fmt..Formatter$GT$13serialize_u1617h2ac3a3725fffa065E","ax",@progbits
.Lsec_end83:
	.section	".text._ZN5serde3ser3fmt85_$LT$impl$u20$serde..ser..Serializer$u20$for$u20$$RF$mut$u20$core..fmt..Formatter$GT$13serialize_u3217h80075d138e7a6ebcE","ax",@progbits
.Lsec_end84:
	.section	".text._ZN5serde3ser3fmt85_$LT$impl$u20$serde..ser..Serializer$u20$for$u20$$RF$mut$u20$core..fmt..Formatter$GT$13serialize_u6417hdf41adf50e76fa73E","ax",@progbits
.Lsec_end85:
	.section	".text._ZN5serde3ser3fmt85_$LT$impl$u20$serde..ser..Serializer$u20$for$u20$$RF$mut$u20$core..fmt..Formatter$GT$14serialize_u12817h84b6df8b5dbdf29aE","ax",@progbits
.Lsec_end86:
	.section	".text._ZN5serde3ser3fmt85_$LT$impl$u20$serde..ser..Serializer$u20$for$u20$$RF$mut$u20$core..fmt..Formatter$GT$13serialize_f3217he30b0a6bf608ec5fE","ax",@progbits
.Lsec_end87:
	.section	".text._ZN5serde3ser3fmt85_$LT$impl$u20$serde..ser..Serializer$u20$for$u20$$RF$mut$u20$core..fmt..Formatter$GT$13serialize_f6417hac27d48b61d91dcdE","ax",@progbits
.Lsec_end88:
	.section	".text._ZN5serde3ser3fmt85_$LT$impl$u20$serde..ser..Serializer$u20$for$u20$$RF$mut$u20$core..fmt..Formatter$GT$14serialize_char17hc390e3945cb67773E","ax",@progbits
.Lsec_end89:
	.section	".text._ZN5serde3ser3fmt85_$LT$impl$u20$serde..ser..Serializer$u20$for$u20$$RF$mut$u20$core..fmt..Formatter$GT$13serialize_str17h1eca8e85bbcdb1b2E","ax",@progbits
.Lsec_end90:
	.section	".note.GNU-stack","",@progbits