	.text
	.attribute	4, 16
	.attribute	5, "rv32i2p1_m2p0_a2p1_c2p0"
	.file	"alloc.4e19765cd76ebeef-cgu.0"
	.section	".text._ZN42_$LT$$RF$T$u20$as$u20$core..fmt..Debug$GT$3fmt17hbab089aed5054d36E","ax",@progbits
	.p2align	1
	.type	_ZN42_$LT$$RF$T$u20$as$u20$core..fmt..Debug$GT$3fmt17hbab089aed5054d36E,@function
_ZN42_$LT$$RF$T$u20$as$u20$core..fmt..Debug$GT$3fmt17hbab089aed5054d36E:
.Lfunc_begin0:
	.cfi_sections .debug_frame
	.cfi_startproc
	.file	1 "/Users/steve/.rustup/toolchains/nightly-2024-02-01-aarch64-apple-darwin/lib/rustlib/src/rust/library/core/src/fmt" "mod.rs"
	.loc	1 2294 71 prologue_end
	lw	a2, 0(a0)
	lw	a3, 4(a0)
	mv	a4, a1
.Ltmp0:
	.loc	1 2294 62 is_stmt 0
	mv	a0, a2
.Ltmp1:
	mv	a1, a3
	mv	a2, a4
.Ltmp2:
	tail	_ZN40_$LT$str$u20$as$u20$core..fmt..Debug$GT$3fmt17h697fa99633e9ffccE
.Ltmp3:
.Lfunc_end0:
	.size	_ZN42_$LT$$RF$T$u20$as$u20$core..fmt..Debug$GT$3fmt17hbab089aed5054d36E, .Lfunc_end0-_ZN42_$LT$$RF$T$u20$as$u20$core..fmt..Debug$GT$3fmt17hbab089aed5054d36E
	.cfi_endproc

	.section	.text._ZN4core3fmt5Write9write_fmt17h7c4a0db3a6ae49a1E,"ax",@progbits
	.p2align	1
	.type	_ZN4core3fmt5Write9write_fmt17h7c4a0db3a6ae49a1E,@function
_ZN4core3fmt5Write9write_fmt17h7c4a0db3a6ae49a1E:
.Lfunc_begin1:
	.cfi_startproc
	.loc	1 211 17 prologue_end is_stmt 1
	lui	a2, %hi(.L__unnamed_1)
	addi	a2, a2, %lo(.L__unnamed_1)
	mv	a3, a1
.Ltmp4:
	mv	a1, a2
	mv	a2, a3
.Ltmp5:
	tail	_ZN4core3fmt5write17hec90542839f9b0f5E
.Ltmp6:
.Lfunc_end1:
	.size	_ZN4core3fmt5Write9write_fmt17h7c4a0db3a6ae49a1E, .Lfunc_end1-_ZN4core3fmt5Write9write_fmt17h7c4a0db3a6ae49a1E
	.cfi_endproc

	.section	".text._ZN4core3ptr205drop_in_place$LT$$LT$alloc..boxed..Box$LT$dyn$u20$core..error..Error$u2b$core..marker..Send$u2b$core..marker..Sync$GT$$u20$as$u20$core..convert..From$LT$alloc..string..String$GT$$GT$..from..StringError$GT$17hbf8a24bdef5c59f9E","ax",@progbits
	.p2align	1
	.type	_ZN4core3ptr205drop_in_place$LT$$LT$alloc..boxed..Box$LT$dyn$u20$core..error..Error$u2b$core..marker..Send$u2b$core..marker..Sync$GT$$u20$as$u20$core..convert..From$LT$alloc..string..String$GT$$GT$..from..StringError$GT$17hbf8a24bdef5c59f9E,@function
_ZN4core3ptr205drop_in_place$LT$$LT$alloc..boxed..Box$LT$dyn$u20$core..error..Error$u2b$core..marker..Send$u2b$core..marker..Sync$GT$$u20$as$u20$core..convert..From$LT$alloc..string..String$GT$$GT$..from..StringError$GT$17hbf8a24bdef5c59f9E:
.Lfunc_begin2:
	.cfi_startproc
	.file	2 "/Users/steve/.rustup/toolchains/nightly-2024-02-01-aarch64-apple-darwin/lib/rustlib/src/rust/library/core/src/ptr" "mod.rs"
	.loc	2 507 1 prologue_end
	lw	a1, 0(a0)
.Ltmp7:
	.file	3 "/Users/steve/.rustup/toolchains/nightly-2024-02-01-aarch64-apple-darwin/lib/rustlib/src/rust/library/alloc" "src/raw_vec.rs"
	.loc	3 256 25
	beqz	a1, .LBB2_2
.Ltmp8:
	.loc	2 507 1
	lw	a0, 4(a0)
.Ltmp9:
	.file	4 "/Users/steve/.rustup/toolchains/nightly-2024-02-01-aarch64-apple-darwin/lib/rustlib/src/rust/library/alloc" "src/alloc.rs"
	.loc	4 117 14
	li	a2, 1
	tail	__rust_dealloc
.Ltmp10:
.LBB2_2:
	.loc	2 507 1
	ret
.Ltmp11:
.Lfunc_end2:
	.size	_ZN4core3ptr205drop_in_place$LT$$LT$alloc..boxed..Box$LT$dyn$u20$core..error..Error$u2b$core..marker..Send$u2b$core..marker..Sync$GT$$u20$as$u20$core..convert..From$LT$alloc..string..String$GT$$GT$..from..StringError$GT$17hbf8a24bdef5c59f9E, .Lfunc_end2-_ZN4core3ptr205drop_in_place$LT$$LT$alloc..boxed..Box$LT$dyn$u20$core..error..Error$u2b$core..marker..Send$u2b$core..marker..Sync$GT$$u20$as$u20$core..convert..From$LT$alloc..string..String$GT$$GT$..from..StringError$GT$17hbf8a24bdef5c59f9E
	.cfi_endproc

	.section	".text._ZN4core3ptr28drop_in_place$LT$$RF$str$GT$17hc99e7692f072f94aE","ax",@progbits
	.p2align	1
	.type	_ZN4core3ptr28drop_in_place$LT$$RF$str$GT$17hc99e7692f072f94aE,@function
_ZN4core3ptr28drop_in_place$LT$$RF$str$GT$17hc99e7692f072f94aE:
.Lfunc_begin3:
	.cfi_startproc
	.loc	2 507 1 prologue_end
	ret
.Ltmp12:
.Lfunc_end3:
	.size	_ZN4core3ptr28drop_in_place$LT$$RF$str$GT$17hc99e7692f072f94aE, .Lfunc_end3-_ZN4core3ptr28drop_in_place$LT$$RF$str$GT$17hc99e7692f072f94aE
	.cfi_endproc

	.section	".text._ZN4core3ptr37drop_in_place$LT$core..fmt..Error$GT$17h65b6ec18f3f41e6dE","ax",@progbits
	.p2align	1
	.type	_ZN4core3ptr37drop_in_place$LT$core..fmt..Error$GT$17h65b6ec18f3f41e6dE,@function
_ZN4core3ptr37drop_in_place$LT$core..fmt..Error$GT$17h65b6ec18f3f41e6dE:
.Lfunc_begin4:
	.cfi_startproc
	.loc	2 507 1 prologue_end
	ret
.Ltmp13:
.Lfunc_end4:
	.size	_ZN4core3ptr37drop_in_place$LT$core..fmt..Error$GT$17h65b6ec18f3f41e6dE, .Lfunc_end4-_ZN4core3ptr37drop_in_place$LT$core..fmt..Error$GT$17h65b6ec18f3f41e6dE
	.cfi_endproc

	.section	".text._ZN4core3ptr42drop_in_place$LT$alloc..string..String$GT$17hc5cddcaae402bb86E","ax",@progbits
	.p2align	1
	.type	_ZN4core3ptr42drop_in_place$LT$alloc..string..String$GT$17hc5cddcaae402bb86E,@function
_ZN4core3ptr42drop_in_place$LT$alloc..string..String$GT$17hc5cddcaae402bb86E:
.Lfunc_begin5:
	.cfi_startproc
	.loc	2 507 1 prologue_end
	lw	a1, 0(a0)
.Ltmp14:
	.loc	3 256 25
	beqz	a1, .LBB5_2
.Ltmp15:
	.loc	2 507 1
	lw	a0, 4(a0)
.Ltmp16:
	.loc	4 117 14
	li	a2, 1
	tail	__rust_dealloc
.Ltmp17:
.LBB5_2:
	.loc	2 507 1
	ret
.Ltmp18:
.Lfunc_end5:
	.size	_ZN4core3ptr42drop_in_place$LT$alloc..string..String$GT$17hc5cddcaae402bb86E, .Lfunc_end5-_ZN4core3ptr42drop_in_place$LT$alloc..string..String$GT$17hc5cddcaae402bb86E
	.cfi_endproc

	.section	.text._ZN4core5error5Error5cause17h97a727bac207c093E,"ax",@progbits
	.p2align	1
	.type	_ZN4core5error5Error5cause17h97a727bac207c093E,@function
_ZN4core5error5Error5cause17h97a727bac207c093E:
.Lfunc_begin6:
	.cfi_startproc
	.file	5 "/Users/steve/.rustup/toolchains/nightly-2024-02-01-aarch64-apple-darwin/lib/rustlib/src/rust/library/core/src" "error.rs"
	.loc	5 122 6 prologue_end
	li	a0, 0
	ret
.Ltmp19:
.Lfunc_end6:
	.size	_ZN4core5error5Error5cause17h97a727bac207c093E, .Lfunc_end6-_ZN4core5error5Error5cause17h97a727bac207c093E
	.cfi_endproc

	.section	.text._ZN4core5error5Error7provide17h0b047484edad6256E,"ax",@progbits
	.p2align	1
	.type	_ZN4core5error5Error7provide17h0b047484edad6256E,@function
_ZN4core5error5Error7provide17h0b047484edad6256E:
.Lfunc_begin7:
	.cfi_startproc
	.loc	5 184 59 prologue_end
	ret
.Ltmp20:
.Lfunc_end7:
	.size	_ZN4core5error5Error7provide17h0b047484edad6256E, .Lfunc_end7-_ZN4core5error5Error7provide17h0b047484edad6256E
	.cfi_endproc

	.section	.text._ZN4core5error5Error7type_id17hbe953f10a051fae8E,"ax",@progbits
	.p2align	1
	.type	_ZN4core5error5Error7type_id17hbe953f10a051fae8E,@function
_ZN4core5error5Error7type_id17hbe953f10a051fae8E:
.Lfunc_begin8:
	.loc	5 95 0
	.cfi_startproc
	lui	a1, 540511
	addi	a1, a1, 1485
.Ltmp21:
	.loc	5 100 6 prologue_end
	sw	a1, 12(a0)
	lui	a1, 962149
	addi	a1, a1, 540
	sw	a1, 8(a0)
	lui	a1, 765156
	addi	a1, a1, -1528
	sw	a1, 4(a0)
	lui	a1, 391396
	addi	a1, a1, -7
	sw	a1, 0(a0)
	ret
.Ltmp22:
.Lfunc_end8:
	.size	_ZN4core5error5Error7type_id17hbe953f10a051fae8E, .Lfunc_end8-_ZN4core5error5Error7type_id17hbe953f10a051fae8E
	.cfi_endproc

	.section	".text._ZN53_$LT$core..fmt..Error$u20$as$u20$core..fmt..Debug$GT$3fmt17h1974c3d28fb9bde4E","ax",@progbits
	.p2align	1
	.type	_ZN53_$LT$core..fmt..Error$u20$as$u20$core..fmt..Debug$GT$3fmt17h1974c3d28fb9bde4E,@function
_ZN53_$LT$core..fmt..Error$u20$as$u20$core..fmt..Debug$GT$3fmt17h1974c3d28fb9bde4E:
.Lfunc_begin9:
	.cfi_startproc
	.loc	1 96 23 prologue_end
	lui	a0, %hi(.L__unnamed_6)
	addi	a3, a0, %lo(.L__unnamed_6)
	li	a2, 5
	mv	a0, a1
.Ltmp23:
	mv	a1, a3
	tail	_ZN4core3fmt9Formatter9write_str17h7b224d3eb3847887E
.Ltmp24:
.Lfunc_end9:
	.size	_ZN53_$LT$core..fmt..Error$u20$as$u20$core..fmt..Debug$GT$3fmt17h1974c3d28fb9bde4E, .Lfunc_end9-_ZN53_$LT$core..fmt..Error$u20$as$u20$core..fmt..Debug$GT$3fmt17h1974c3d28fb9bde4E
	.cfi_endproc

	.section	".text._ZN69_$LT$core..alloc..layout..LayoutError$u20$as$u20$core..fmt..Debug$GT$3fmt17h806efe3627ef4742E","ax",@progbits
	.p2align	1
	.type	_ZN69_$LT$core..alloc..layout..LayoutError$u20$as$u20$core..fmt..Debug$GT$3fmt17h806efe3627ef4742E,@function
_ZN69_$LT$core..alloc..layout..LayoutError$u20$as$u20$core..fmt..Debug$GT$3fmt17h806efe3627ef4742E:
.Lfunc_begin10:
	.cfi_startproc
	.file	6 "/Users/steve/.rustup/toolchains/nightly-2024-02-01-aarch64-apple-darwin/lib/rustlib/src/rust/library/core/src/alloc" "layout.rs"
	.loc	6 480 32 prologue_end
	lui	a0, %hi(.L__unnamed_7)
	addi	a3, a0, %lo(.L__unnamed_7)
	li	a2, 11
	mv	a0, a1
.Ltmp25:
	mv	a1, a3
	tail	_ZN4core3fmt9Formatter9write_str17h7b224d3eb3847887E
.Ltmp26:
.Lfunc_end10:
	.size	_ZN69_$LT$core..alloc..layout..LayoutError$u20$as$u20$core..fmt..Debug$GT$3fmt17h806efe3627ef4742E, .Lfunc_end10-_ZN69_$LT$core..alloc..layout..LayoutError$u20$as$u20$core..fmt..Debug$GT$3fmt17h806efe3627ef4742E
	.cfi_endproc

	.section	".text.unlikely._ZN5alloc7raw_vec19RawVec$LT$T$C$A$GT$7reserve21do_reserve_and_handle17h943e2436917d6bc7E","ax",@progbits
	.p2align	1
	.type	_ZN5alloc7raw_vec19RawVec$LT$T$C$A$GT$7reserve21do_reserve_and_handle17h943e2436917d6bc7E,@function
_ZN5alloc7raw_vec19RawVec$LT$T$C$A$GT$7reserve21do_reserve_and_handle17h943e2436917d6bc7E:
.Lfunc_begin11:
	.loc	3 300 0
	.cfi_startproc
	addi	sp, sp, -48
	.cfi_def_cfa_offset 48
.Ltmp27:
	.file	7 "/Users/steve/.rustup/toolchains/nightly-2024-02-01-aarch64-apple-darwin/lib/rustlib/src/rust/library/core/src/num" "mod.rs"
	.loc	7 1256 5 prologue_end
	sw	ra, 44(sp)
	sw	s0, 40(sp)
	sw	s1, 36(sp)
	.cfi_offset ra, -4
	.cfi_offset s0, -8
	.cfi_offset s1, -12
	add	a2, a2, a1
.Ltmp28:
	.loc	3 423 28
	bltu	a2, a1, .LBB11_11
.Ltmp29:
	.loc	3 0 28 is_stmt 0
	mv	s0, a0
.Ltmp30:
	.loc	3 427 28 is_stmt 1
	lw	a0, 0(a0)
	slli	s1, a0, 1
.Ltmp31:
	.file	8 "/Users/steve/.rustup/toolchains/nightly-2024-02-01-aarch64-apple-darwin/lib/rustlib/src/rust/library/core/src" "cmp.rs"
	.loc	8 0 0 is_stmt 0
	bgeu	a2, s1, .LBB11_5
.Ltmp32:
	li	a1, 8
.Ltmp33:
	bgeu	a1, s1, .LBB11_6
.Ltmp34:
.LBB11_3:
	.loc	6 449 37 is_stmt 1
	not	a1, s1
	srli	a1, a1, 31
.Ltmp35:
	.loc	3 256 25
	beqz	a0, .LBB11_7
.Ltmp36:
.LBB11_4:
	.loc	3 433 43
	lw	a2, 4(s0)
.Ltmp37:
	.loc	3 268 17
	sw	a2, 24(sp)
	li	a2, 1
	sw	a2, 28(sp)
	sw	a0, 32(sp)
	j	.LBB11_8
.Ltmp38:
.LBB11_5:
	.loc	3 0 17 is_stmt 0
	mv	s1, a2
	li	a1, 8
.Ltmp39:
	bltu	a1, a2, .LBB11_3
.Ltmp40:
.LBB11_6:
	li	s1, 8
.Ltmp41:
	.loc	6 449 37 is_stmt 1
	not	a1, s1
	srli	a1, a1, 31
.Ltmp42:
	.loc	3 256 25
	bnez	a0, .LBB11_4
.Ltmp43:
.LBB11_7:
	.loc	3 257 13
	sw	zero, 28(sp)
.Ltmp44:
.LBB11_8:
	.loc	3 433 19
	addi	a0, sp, 12
	addi	a3, sp, 24
	mv	a2, s1
	call	_ZN5alloc7raw_vec11finish_grow17h9be2ff0fdf9e157eE
.Ltmp45:
	.file	9 "/Users/steve/.rustup/toolchains/nightly-2024-02-01-aarch64-apple-darwin/lib/rustlib/src/rust/library/core/src" "result.rs"
	.loc	9 1946 15
	lw	a1, 12(sp)
	.loc	9 1946 9 is_stmt 0
	lw	a0, 16(sp)
.Ltmp46:
	.loc	3 433 19 is_stmt 1
	beqz	a1, .LBB11_12
.Ltmp47:
	.loc	3 0 19 is_stmt 0
	lui	a1, 524288
	addi	a1, a1, 1
.Ltmp48:
	.loc	3 540 5 is_stmt 1
	beq	a0, a1, .LBB11_13
.Ltmp49:
	bnez	a0, .LBB11_14
.Ltmp50:
.LBB11_11:
	.loc	3 541 34
	call	_ZN5alloc7raw_vec17capacity_overflow17h6deb98aaf45da7a0E
.Ltmp51:
.LBB11_12:
	.loc	3 401 9
	sw	a0, 4(s0)
	.loc	3 402 9
	sw	s1, 0(s0)
.Ltmp52:
.LBB11_13:
	.loc	3 306 10
	lw	ra, 44(sp)
	lw	s0, 40(sp)
.Ltmp53:
	lw	s1, 36(sp)
	.loc	3 306 10 epilogue_begin is_stmt 0
	addi	sp, sp, 48
	ret
.LBB11_14:
.Ltmp54:
	.loc	3 305 0 is_stmt 1
	lw	a1, 20(sp)
.Ltmp55:
	.loc	3 542 43
	call	_ZN5alloc5alloc18handle_alloc_error17h7e3d1e4e5e7ceb74E
.Ltmp56:
.Lfunc_end11:
	.size	_ZN5alloc7raw_vec19RawVec$LT$T$C$A$GT$7reserve21do_reserve_and_handle17h943e2436917d6bc7E, .Lfunc_end11-_ZN5alloc7raw_vec19RawVec$LT$T$C$A$GT$7reserve21do_reserve_and_handle17h943e2436917d6bc7E
	.cfi_endproc
	.file	10 "/Users/steve/.rustup/toolchains/nightly-2024-02-01-aarch64-apple-darwin/lib/rustlib/src/rust/library/core/src/num" "uint_macros.rs"

	.section	".text._ZN5alloc7raw_vec19RawVec$LT$T$C$A$GT$16reserve_for_push17hd330d0d5c0992dd6E","ax",@progbits
	.p2align	1
	.type	_ZN5alloc7raw_vec19RawVec$LT$T$C$A$GT$16reserve_for_push17hd330d0d5c0992dd6E,@function
_ZN5alloc7raw_vec19RawVec$LT$T$C$A$GT$16reserve_for_push17hd330d0d5c0992dd6E:
.Lfunc_begin12:
	.loc	3 317 0
	.cfi_startproc
	addi	sp, sp, -48
	.cfi_def_cfa_offset 48
.Ltmp57:
	.loc	7 1256 5 prologue_end
	sw	ra, 44(sp)
	sw	s0, 40(sp)
	sw	s1, 36(sp)
	.cfi_offset ra, -4
	.cfi_offset s0, -8
	.cfi_offset s1, -12
	addi	a1, a1, 1
.Ltmp58:
	.loc	3 423 28
	beqz	a1, .LBB12_11
.Ltmp59:
	.loc	3 0 28 is_stmt 0
	mv	s0, a0
.Ltmp60:
	.loc	3 427 28 is_stmt 1
	lw	a0, 0(a0)
	slli	s1, a0, 1
.Ltmp61:
	.loc	8 0 0 is_stmt 0
	bgeu	a1, s1, .LBB12_5
.Ltmp62:
	li	a1, 8
.Ltmp63:
	bgeu	a1, s1, .LBB12_6
.Ltmp64:
.LBB12_3:
	.loc	6 449 37 is_stmt 1
	not	a1, s1
	srli	a1, a1, 31
.Ltmp65:
	.loc	3 256 25
	beqz	a0, .LBB12_7
.Ltmp66:
.LBB12_4:
	.loc	3 433 43
	lw	a2, 4(s0)
.Ltmp67:
	.loc	3 268 17
	sw	a2, 24(sp)
	li	a2, 1
	sw	a2, 28(sp)
	sw	a0, 32(sp)
	j	.LBB12_8
.Ltmp68:
.LBB12_5:
	.loc	3 0 17 is_stmt 0
	mv	s1, a1
.Ltmp69:
	li	a1, 8
.Ltmp70:
	bltu	a1, s1, .LBB12_3
.Ltmp71:
.LBB12_6:
	li	s1, 8
.Ltmp72:
	.loc	6 449 37 is_stmt 1
	not	a1, s1
	srli	a1, a1, 31
.Ltmp73:
	.loc	3 256 25
	bnez	a0, .LBB12_4
.Ltmp74:
.LBB12_7:
	.loc	3 257 13
	sw	zero, 28(sp)
.Ltmp75:
.LBB12_8:
	.loc	3 433 19
	addi	a0, sp, 12
	addi	a3, sp, 24
	mv	a2, s1
	call	_ZN5alloc7raw_vec11finish_grow17h9be2ff0fdf9e157eE
.Ltmp76:
	.loc	9 1946 15
	lw	a1, 12(sp)
	.loc	9 1946 9 is_stmt 0
	lw	a0, 16(sp)
.Ltmp77:
	.loc	3 433 19 is_stmt 1
	beqz	a1, .LBB12_12
.Ltmp78:
	.loc	3 0 19 is_stmt 0
	lui	a1, 524288
	addi	a1, a1, 1
.Ltmp79:
	.loc	3 540 5 is_stmt 1
	beq	a0, a1, .LBB12_13
.Ltmp80:
	bnez	a0, .LBB12_14
.Ltmp81:
.LBB12_11:
	.loc	3 541 34
	call	_ZN5alloc7raw_vec17capacity_overflow17h6deb98aaf45da7a0E
.Ltmp82:
.LBB12_12:
	.loc	3 401 9
	sw	a0, 4(s0)
	.loc	3 402 9
	sw	s1, 0(s0)
.Ltmp83:
.LBB12_13:
	.loc	3 319 6
	lw	ra, 44(sp)
	lw	s0, 40(sp)
.Ltmp84:
	lw	s1, 36(sp)
	.loc	3 319 6 epilogue_begin is_stmt 0
	addi	sp, sp, 48
	ret
.LBB12_14:
.Ltmp85:
	.loc	3 318 0 is_stmt 1
	lw	a1, 20(sp)
.Ltmp86:
	.loc	3 542 43
	call	_ZN5alloc5alloc18handle_alloc_error17h7e3d1e4e5e7ceb74E
.Ltmp87:
.Lfunc_end12:
	.size	_ZN5alloc7raw_vec19RawVec$LT$T$C$A$GT$16reserve_for_push17hd330d0d5c0992dd6E, .Lfunc_end12-_ZN5alloc7raw_vec19RawVec$LT$T$C$A$GT$16reserve_for_push17hd330d0d5c0992dd6E
	.cfi_endproc

	.section	.text._ZN5alloc7raw_vec11finish_grow17h9be2ff0fdf9e157eE,"ax",@progbits
	.p2align	1
	.type	_ZN5alloc7raw_vec11finish_grow17h9be2ff0fdf9e157eE,@function
_ZN5alloc7raw_vec11finish_grow17h9be2ff0fdf9e157eE:
.Lfunc_begin13:
	.loc	3 500 0
	.cfi_startproc
	addi	sp, sp, -16
	.cfi_def_cfa_offset 16
	sw	ra, 12(sp)
	sw	s0, 8(sp)
	sw	s1, 4(sp)
	.cfi_offset ra, -4
	.cfi_offset s0, -8
	.cfi_offset s1, -12
	mv	s1, a2
.Ltmp88:
	mv	s0, a0
.Ltmp89:
	.loc	9 827 9 prologue_end
	beqz	a1, .LBB13_5
.Ltmp90:
	.loc	3 511 5
	bltz	s1, .LBB13_9
.Ltmp91:
	.loc	3 513 25
	lw	a0, 4(a3)
	beqz	a0, .LBB13_6
.Ltmp92:
	.loc	3 513 36 is_stmt 0
	lw	a1, 8(a3)
.Ltmp93:
	.loc	4 202 9 is_stmt 1
	beqz	a1, .LBB13_6
.Ltmp94:
	.loc	3 0 0 is_stmt 0
	lw	a0, 0(a3)
.Ltmp95:
	.loc	4 136 14 is_stmt 1
	li	a2, 1
	mv	a3, s1
.Ltmp96:
	call	__rust_realloc
.Ltmp97:
	.loc	9 827 9
	bnez	a0, .LBB13_11
	j	.LBB13_8
.Ltmp98:
.LBB13_5:
	.loc	9 1959 23
	sw	zero, 4(s0)
	sw	s1, 8(s0)
	li	a1, 1
.Ltmp99:
	.loc	9 0 23 is_stmt 0
	j	.LBB13_13
.Ltmp100:
.LBB13_6:
	beqz	s1, .LBB13_10
.Ltmp101:
	lui	a0, %hi(__rust_no_alloc_shim_is_unstable)
	lbu	a0, %lo(__rust_no_alloc_shim_is_unstable)(a0)
	li	a1, 1
	mv	a0, s1
	call	__rust_alloc
.Ltmp102:
	.loc	9 827 9 is_stmt 1
	bnez	a0, .LBB13_11
.Ltmp103:
.LBB13_8:
	.loc	9 0 9 is_stmt 0
	li	a1, 1
.Ltmp104:
	.loc	9 829 23 is_stmt 1
	sw	a1, 4(s0)
	j	.LBB13_12
.Ltmp105:
.LBB13_9:
	.loc	9 1959 23
	sw	zero, 4(s0)
	li	a1, 1
.Ltmp106:
	.loc	9 0 23 is_stmt 0
	j	.LBB13_13
.Ltmp107:
.LBB13_10:
	li	a0, 1
.Ltmp108:
.LBB13_11:
	li	a1, 0
.Ltmp109:
	.loc	9 828 22 is_stmt 1
	sw	a0, 4(s0)
.Ltmp110:
.LBB13_12:
	.loc	9 0 0 is_stmt 0
	sw	s1, 8(s0)
.Ltmp111:
.LBB13_13:
	sw	a1, 0(s0)
	.loc	3 525 2 is_stmt 1
	lw	ra, 12(sp)
	lw	s0, 8(sp)
	lw	s1, 4(sp)
.Ltmp112:
	.loc	3 525 2 epilogue_begin is_stmt 0
	addi	sp, sp, 16
	ret
.Ltmp113:
.Lfunc_end13:
	.size	_ZN5alloc7raw_vec11finish_grow17h9be2ff0fdf9e157eE, .Lfunc_end13-_ZN5alloc7raw_vec11finish_grow17h9be2ff0fdf9e157eE
	.cfi_endproc

	.section	.text._ZN5alloc7raw_vec17capacity_overflow17h6deb98aaf45da7a0E,"ax",@progbits
	.globl	_ZN5alloc7raw_vec17capacity_overflow17h6deb98aaf45da7a0E
	.p2align	1
	.type	_ZN5alloc7raw_vec17capacity_overflow17h6deb98aaf45da7a0E,@function
_ZN5alloc7raw_vec17capacity_overflow17h6deb98aaf45da7a0E:
.Lfunc_begin14:
	.loc	3 569 0 is_stmt 1
	.cfi_startproc
	addi	sp, sp, -32
	.cfi_def_cfa_offset 32
.Ltmp114:
	.loc	1 325 9 prologue_end
	lui	a0, %hi(.L__unnamed_8)
	addi	a0, a0, %lo(.L__unnamed_8)
.Ltmp115:
	sw	a0, 8(sp)
	li	a0, 1
.Ltmp116:
	sw	a0, 12(sp)
	sw	zero, 24(sp)
	lui	a0, %hi(.L__unnamed_9)
	addi	a0, a0, %lo(.L__unnamed_9)
	sw	a0, 16(sp)
	sw	zero, 20(sp)
.Ltmp117:
	.loc	3 570 5
	lui	a0, %hi(.L__unnamed_10)
	addi	a1, a0, %lo(.L__unnamed_10)
	addi	a0, sp, 8
	call	_ZN4core9panicking9panic_fmt17h0079632a8b35876aE
.Ltmp118:
.Lfunc_end14:
	.size	_ZN5alloc7raw_vec17capacity_overflow17h6deb98aaf45da7a0E, .Lfunc_end14-_ZN5alloc7raw_vec17capacity_overflow17h6deb98aaf45da7a0E
	.cfi_endproc
	.file	11 "/Users/steve/.rustup/toolchains/nightly-2024-02-01-aarch64-apple-darwin/lib/rustlib/src/rust/library/core/src" "panic.rs"

	.section	.text.unlikely._ZN5alloc5alloc18handle_alloc_error17h7e3d1e4e5e7ceb74E,"ax",@progbits
	.globl	_ZN5alloc5alloc18handle_alloc_error17h7e3d1e4e5e7ceb74E
	.p2align	1
	.type	_ZN5alloc5alloc18handle_alloc_error17h7e3d1e4e5e7ceb74E,@function
_ZN5alloc5alloc18handle_alloc_error17h7e3d1e4e5e7ceb74E:
.Lfunc_begin15:
	.loc	4 375 0
	.cfi_startproc
	.cfi_def_cfa_offset 0
	mv	a2, a0
.Ltmp119:
	.loc	4 383 13 prologue_end
	mv	a0, a1
.Ltmp120:
	mv	a1, a2
.Ltmp121:
	call	__rust_alloc_error_handler
.Ltmp122:
.Lfunc_end15:
	.size	_ZN5alloc5alloc18handle_alloc_error17h7e3d1e4e5e7ceb74E, .Lfunc_end15-_ZN5alloc5alloc18handle_alloc_error17h7e3d1e4e5e7ceb74E
	.cfi_endproc

	.section	.text._ZN5alloc5alloc18handle_alloc_error8ct_error17h918f9d7aeeb1c115E,"ax",@progbits
	.globl	_ZN5alloc5alloc18handle_alloc_error8ct_error17h918f9d7aeeb1c115E
	.p2align	1
	.type	_ZN5alloc5alloc18handle_alloc_error8ct_error17h918f9d7aeeb1c115E,@function
_ZN5alloc5alloc18handle_alloc_error8ct_error17h918f9d7aeeb1c115E:
.Lfunc_begin16:
	.loc	4 376 0
	.cfi_startproc
	addi	sp, sp, -32
	.cfi_def_cfa_offset 32
.Ltmp123:
	.loc	1 325 9 prologue_end
	lui	a0, %hi(.L__unnamed_11)
.Ltmp124:
	addi	a0, a0, %lo(.L__unnamed_11)
.Ltmp125:
	sw	a0, 8(sp)
	li	a0, 1
.Ltmp126:
	sw	a0, 12(sp)
	sw	zero, 24(sp)
	lui	a0, %hi(.L__unnamed_9)
	addi	a0, a0, %lo(.L__unnamed_9)
	sw	a0, 16(sp)
	sw	zero, 20(sp)
.Ltmp127:
	.loc	4 377 9
	lui	a0, %hi(.L__unnamed_12)
	addi	a1, a0, %lo(.L__unnamed_12)
.Ltmp128:
	addi	a0, sp, 8
	call	_ZN4core9panicking9panic_fmt17h0079632a8b35876aE
.Ltmp129:
.Lfunc_end16:
	.size	_ZN5alloc5alloc18handle_alloc_error8ct_error17h918f9d7aeeb1c115E, .Lfunc_end16-_ZN5alloc5alloc18handle_alloc_error8ct_error17h918f9d7aeeb1c115E
	.cfi_endproc

	.section	.text.__rdl_oom,"ax",@progbits
	.globl	__rdl_oom
	.p2align	1
	.type	__rdl_oom,@function
__rdl_oom:
.Lfunc_begin17:
	.loc	4 408 0
	.cfi_startproc
	addi	sp, sp, -48
	.cfi_def_cfa_offset 48
.Ltmp130:
	.loc	4 415 21 prologue_end
	lui	a1, %hi(__rust_alloc_error_handler_should_panic)
.Ltmp131:
	lbu	a1, %lo(__rust_alloc_error_handler_should_panic)(a1)
	sw	a0, 12(sp)
	addi	a0, sp, 12
.Ltmp132:
	.loc	4 415 12 is_stmt 0
	bnez	a1, .LBB17_2
.Ltmp133:
	.loc	4 419 17 is_stmt 1
	sw	a0, 40(sp)
	lui	a0, %hi(_ZN4core3fmt3num3imp54_$LT$impl$u20$core..fmt..Display$u20$for$u20$usize$GT$3fmt17h234c5c82398ec9b3E)
	addi	a0, a0, %lo(_ZN4core3fmt3num3imp54_$LT$impl$u20$core..fmt..Display$u20$for$u20$usize$GT$3fmt17h234c5c82398ec9b3E)
	sw	a0, 44(sp)
.Ltmp134:
	.loc	1 335 9
	lui	a0, %hi(.L__unnamed_13)
	addi	a0, a0, %lo(.L__unnamed_13)
	sw	a0, 16(sp)
	li	a0, 2
	sw	a0, 20(sp)
	sw	zero, 32(sp)
	addi	a0, sp, 40
	sw	a0, 24(sp)
	li	a0, 1
	sw	a0, 28(sp)
.Ltmp135:
	.loc	4 418 13
	lui	a0, %hi(.L__unnamed_14)
	addi	a2, a0, %lo(.L__unnamed_14)
	addi	a0, sp, 16
	call	_ZN4core9panicking18panic_nounwind_fmt17h1b4889d3cded4149E
.Ltmp136:
.LBB17_2:
	.loc	4 416 13
	sw	a0, 40(sp)
	lui	a0, %hi(_ZN4core3fmt3num3imp54_$LT$impl$u20$core..fmt..Display$u20$for$u20$usize$GT$3fmt17h234c5c82398ec9b3E)
	addi	a0, a0, %lo(_ZN4core3fmt3num3imp54_$LT$impl$u20$core..fmt..Display$u20$for$u20$usize$GT$3fmt17h234c5c82398ec9b3E)
	sw	a0, 44(sp)
.Ltmp137:
	.loc	1 335 9
	lui	a0, %hi(.L__unnamed_13)
	addi	a0, a0, %lo(.L__unnamed_13)
	sw	a0, 16(sp)
	li	a0, 2
	sw	a0, 20(sp)
	sw	zero, 32(sp)
	addi	a0, sp, 40
	sw	a0, 24(sp)
	li	a0, 1
	sw	a0, 28(sp)
.Ltmp138:
	.loc	4 416 13
	lui	a0, %hi(.L__unnamed_15)
	addi	a1, a0, %lo(.L__unnamed_15)
	addi	a0, sp, 16
	call	_ZN4core9panicking9panic_fmt17h0079632a8b35876aE
.Ltmp139:
.Lfunc_end17:
	.size	__rdl_oom, .Lfunc_end17-__rdl_oom
	.cfi_endproc

	.section	".text._ZN67_$LT$alloc..boxed..Box$LT$str$GT$$u20$as$u20$core..clone..Clone$GT$5clone17hd3192b0fac15fda3E","ax",@progbits
	.globl	_ZN67_$LT$alloc..boxed..Box$LT$str$GT$$u20$as$u20$core..clone..Clone$GT$5clone17hd3192b0fac15fda3E
	.p2align	1
	.type	_ZN67_$LT$alloc..boxed..Box$LT$str$GT$$u20$as$u20$core..clone..Clone$GT$5clone17hd3192b0fac15fda3E,@function
_ZN67_$LT$alloc..boxed..Box$LT$str$GT$$u20$as$u20$core..clone..Clone$GT$5clone17hd3192b0fac15fda3E:
.Lfunc_begin18:
	.file	12 "/Users/steve/.rustup/toolchains/nightly-2024-02-01-aarch64-apple-darwin/lib/rustlib/src/rust/library/alloc" "src/boxed.rs"
	.loc	12 1336 0
	.cfi_startproc
	addi	sp, sp, -16
	.cfi_def_cfa_offset 16
.Ltmp140:
	.loc	12 1338 30 prologue_end
	sw	ra, 12(sp)
	sw	s0, 8(sp)
	sw	s1, 4(sp)
	sw	s2, 0(sp)
	.cfi_offset ra, -4
	.cfi_offset s0, -8
	.cfi_offset s1, -12
	.cfi_offset s2, -16
	lw	s0, 4(a0)
.Ltmp141:
	lw	s2, 0(a0)
.Ltmp142:
	.loc	3 185 25
	beqz	s0, .LBB18_4
.Ltmp143:
	.loc	3 190 26
	bltz	s0, .LBB18_6
.Ltmp144:
	.loc	2 1583 9
	lui	a0, %hi(__rust_no_alloc_shim_is_unstable)
.Ltmp145:
	lbu	a0, %lo(__rust_no_alloc_shim_is_unstable)(a0)
.Ltmp146:
	.loc	4 98 9
	li	a1, 1
	mv	a0, s0
	call	__rust_alloc
	mv	s1, a0
.Ltmp147:
	.loc	3 202 23
	bnez	a0, .LBB18_5
.Ltmp148:
	.loc	3 204 27
	li	a0, 1
	mv	a1, s0
	call	_ZN5alloc5alloc18handle_alloc_error17h7e3d1e4e5e7ceb74E
.Ltmp149:
.LBB18_4:
	.loc	3 0 27 is_stmt 0
	li	s1, 1
.Ltmp150:
.LBB18_5:
	.file	13 "/Users/steve/.rustup/toolchains/nightly-2024-02-01-aarch64-apple-darwin/lib/rustlib/src/rust/library/core/src" "intrinsics.rs"
	.loc	13 2774 9 is_stmt 1
	mv	a0, s1
	mv	a1, s2
	mv	a2, s0
	call	memcpy@plt
.Ltmp151:
	.loc	12 1340 6
	mv	a0, s1
	mv	a1, s0
	lw	ra, 12(sp)
	lw	s0, 8(sp)
.Ltmp152:
	lw	s1, 4(sp)
.Ltmp153:
	lw	s2, 0(sp)
.Ltmp154:
	.loc	12 1340 6 epilogue_begin is_stmt 0
	addi	sp, sp, 16
	ret
.Ltmp155:
.LBB18_6:
	.loc	3 192 27 is_stmt 1
	call	_ZN5alloc7raw_vec17capacity_overflow17h6deb98aaf45da7a0E
.Ltmp156:
.Lfunc_end18:
	.size	_ZN67_$LT$alloc..boxed..Box$LT$str$GT$$u20$as$u20$core..clone..Clone$GT$5clone17hd3192b0fac15fda3E, .Lfunc_end18-_ZN67_$LT$alloc..boxed..Box$LT$str$GT$$u20$as$u20$core..clone..Clone$GT$5clone17hd3192b0fac15fda3E
	.cfi_endproc
	.file	14 "/Users/steve/.rustup/toolchains/nightly-2024-02-01-aarch64-apple-darwin/lib/rustlib/src/rust/library/core/src/convert" "mod.rs"

	.section	".text._ZN223_$LT$$LT$alloc..boxed..Box$LT$dyn$u20$core..error..Error$u2b$core..marker..Send$u2b$core..marker..Sync$GT$$u20$as$u20$core..convert..From$LT$alloc..string..String$GT$$GT$..from..StringError$u20$as$u20$core..error..Error$GT$11description17h385ad93db5f29c4aE","ax",@progbits
	.p2align	1
	.type	_ZN223_$LT$$LT$alloc..boxed..Box$LT$dyn$u20$core..error..Error$u2b$core..marker..Send$u2b$core..marker..Sync$GT$$u20$as$u20$core..convert..From$LT$alloc..string..String$GT$$GT$..from..StringError$u20$as$u20$core..error..Error$GT$11description17h385ad93db5f29c4aE,@function
_ZN223_$LT$$LT$alloc..boxed..Box$LT$dyn$u20$core..error..Error$u2b$core..marker..Send$u2b$core..marker..Sync$GT$$u20$as$u20$core..convert..From$LT$alloc..string..String$GT$$GT$..from..StringError$u20$as$u20$core..error..Error$GT$11description17h385ad93db5f29c4aE:
.Lfunc_begin19:
	.cfi_startproc
	.loc	3 239 9 prologue_end
	lw	a2, 4(a0)
.Ltmp157:
	.file	15 "/Users/steve/.rustup/toolchains/nightly-2024-02-01-aarch64-apple-darwin/lib/rustlib/src/rust/library/alloc" "src/vec/mod.rs"
	.loc	15 2706 55
	lw	a1, 8(a0)
.Ltmp158:
	.loc	12 2309 14
	mv	a0, a2
.Ltmp159:
	ret
.Ltmp160:
.Lfunc_end19:
	.size	_ZN223_$LT$$LT$alloc..boxed..Box$LT$dyn$u20$core..error..Error$u2b$core..marker..Send$u2b$core..marker..Sync$GT$$u20$as$u20$core..convert..From$LT$alloc..string..String$GT$$GT$..from..StringError$u20$as$u20$core..error..Error$GT$11description17h385ad93db5f29c4aE, .Lfunc_end19-_ZN223_$LT$$LT$alloc..boxed..Box$LT$dyn$u20$core..error..Error$u2b$core..marker..Send$u2b$core..marker..Sync$GT$$u20$as$u20$core..convert..From$LT$alloc..string..String$GT$$GT$..from..StringError$u20$as$u20$core..error..Error$GT$11description17h385ad93db5f29c4aE
	.cfi_endproc
	.file	16 "/Users/steve/.rustup/toolchains/nightly-2024-02-01-aarch64-apple-darwin/lib/rustlib/src/rust/library/alloc" "src/string.rs"

	.section	".text._ZN223_$LT$$LT$alloc..boxed..Box$LT$dyn$u20$core..error..Error$u2b$core..marker..Send$u2b$core..marker..Sync$GT$$u20$as$u20$core..convert..From$LT$alloc..string..String$GT$$GT$..from..StringError$u20$as$u20$core..fmt..Display$GT$3fmt17hc5e7e6e66e0dfb1aE","ax",@progbits
	.globl	_ZN223_$LT$$LT$alloc..boxed..Box$LT$dyn$u20$core..error..Error$u2b$core..marker..Send$u2b$core..marker..Sync$GT$$u20$as$u20$core..convert..From$LT$alloc..string..String$GT$$GT$..from..StringError$u20$as$u20$core..fmt..Display$GT$3fmt17hc5e7e6e66e0dfb1aE
	.p2align	1
	.type	_ZN223_$LT$$LT$alloc..boxed..Box$LT$dyn$u20$core..error..Error$u2b$core..marker..Send$u2b$core..marker..Sync$GT$$u20$as$u20$core..convert..From$LT$alloc..string..String$GT$$GT$..from..StringError$u20$as$u20$core..fmt..Display$GT$3fmt17hc5e7e6e66e0dfb1aE,@function
_ZN223_$LT$$LT$alloc..boxed..Box$LT$dyn$u20$core..error..Error$u2b$core..marker..Send$u2b$core..marker..Sync$GT$$u20$as$u20$core..convert..From$LT$alloc..string..String$GT$$GT$..from..StringError$u20$as$u20$core..fmt..Display$GT$3fmt17hc5e7e6e66e0dfb1aE:
.Lfunc_begin20:
	.cfi_startproc
	.loc	3 239 9 prologue_end
	lw	a2, 4(a0)
.Ltmp161:
	.loc	15 2706 55
	lw	a3, 8(a0)
	mv	a4, a1
.Ltmp162:
	.loc	16 2350 9
	mv	a0, a2
.Ltmp163:
	mv	a1, a3
	mv	a2, a4
.Ltmp164:
	tail	_ZN42_$LT$str$u20$as$u20$core..fmt..Display$GT$3fmt17h45c916f6fbc68766E
.Ltmp165:
.Lfunc_end20:
	.size	_ZN223_$LT$$LT$alloc..boxed..Box$LT$dyn$u20$core..error..Error$u2b$core..marker..Send$u2b$core..marker..Sync$GT$$u20$as$u20$core..convert..From$LT$alloc..string..String$GT$$GT$..from..StringError$u20$as$u20$core..fmt..Display$GT$3fmt17hc5e7e6e66e0dfb1aE, .Lfunc_end20-_ZN223_$LT$$LT$alloc..boxed..Box$LT$dyn$u20$core..error..Error$u2b$core..marker..Send$u2b$core..marker..Sync$GT$$u20$as$u20$core..convert..From$LT$alloc..string..String$GT$$GT$..from..StringError$u20$as$u20$core..fmt..Display$GT$3fmt17hc5e7e6e66e0dfb1aE
	.cfi_endproc

	.section	".text._ZN221_$LT$$LT$alloc..boxed..Box$LT$dyn$u20$core..error..Error$u2b$core..marker..Send$u2b$core..marker..Sync$GT$$u20$as$u20$core..convert..From$LT$alloc..string..String$GT$$GT$..from..StringError$u20$as$u20$core..fmt..Debug$GT$3fmt17h29ed7b679ec308b1E","ax",@progbits
	.globl	_ZN221_$LT$$LT$alloc..boxed..Box$LT$dyn$u20$core..error..Error$u2b$core..marker..Send$u2b$core..marker..Sync$GT$$u20$as$u20$core..convert..From$LT$alloc..string..String$GT$$GT$..from..StringError$u20$as$u20$core..fmt..Debug$GT$3fmt17h29ed7b679ec308b1E
	.p2align	1
	.type	_ZN221_$LT$$LT$alloc..boxed..Box$LT$dyn$u20$core..error..Error$u2b$core..marker..Send$u2b$core..marker..Sync$GT$$u20$as$u20$core..convert..From$LT$alloc..string..String$GT$$GT$..from..StringError$u20$as$u20$core..fmt..Debug$GT$3fmt17h29ed7b679ec308b1E,@function
_ZN221_$LT$$LT$alloc..boxed..Box$LT$dyn$u20$core..error..Error$u2b$core..marker..Send$u2b$core..marker..Sync$GT$$u20$as$u20$core..convert..From$LT$alloc..string..String$GT$$GT$..from..StringError$u20$as$u20$core..fmt..Debug$GT$3fmt17h29ed7b679ec308b1E:
.Lfunc_begin21:
	.cfi_startproc
	.loc	3 239 9 prologue_end
	lw	a2, 4(a0)
.Ltmp166:
	.loc	15 2706 55
	lw	a3, 8(a0)
	mv	a4, a1
.Ltmp167:
	.loc	16 2358 9
	mv	a0, a2
.Ltmp168:
	mv	a1, a3
	mv	a2, a4
.Ltmp169:
	tail	_ZN40_$LT$str$u20$as$u20$core..fmt..Debug$GT$3fmt17h697fa99633e9ffccE
.Ltmp170:
.Lfunc_end21:
	.size	_ZN221_$LT$$LT$alloc..boxed..Box$LT$dyn$u20$core..error..Error$u2b$core..marker..Send$u2b$core..marker..Sync$GT$$u20$as$u20$core..convert..From$LT$alloc..string..String$GT$$GT$..from..StringError$u20$as$u20$core..fmt..Debug$GT$3fmt17h29ed7b679ec308b1E, .Lfunc_end21-_ZN221_$LT$$LT$alloc..boxed..Box$LT$dyn$u20$core..error..Error$u2b$core..marker..Send$u2b$core..marker..Sync$GT$$u20$as$u20$core..convert..From$LT$alloc..string..String$GT$$GT$..from..StringError$u20$as$u20$core..fmt..Debug$GT$3fmt17h29ed7b679ec308b1E
	.cfi_endproc

	.section	".text._ZN120_$LT$alloc..boxed..Box$LT$dyn$u20$core..error..Error$GT$$u20$as$u20$core..convert..From$LT$alloc..string..String$GT$$GT$4from17h4dc71b30614125e8E","ax",@progbits
	.globl	_ZN120_$LT$alloc..boxed..Box$LT$dyn$u20$core..error..Error$GT$$u20$as$u20$core..convert..From$LT$alloc..string..String$GT$$GT$4from17h4dc71b30614125e8E
	.p2align	1
	.type	_ZN120_$LT$alloc..boxed..Box$LT$dyn$u20$core..error..Error$GT$$u20$as$u20$core..convert..From$LT$alloc..string..String$GT$$GT$4from17h4dc71b30614125e8E,@function
_ZN120_$LT$alloc..boxed..Box$LT$dyn$u20$core..error..Error$GT$$u20$as$u20$core..convert..From$LT$alloc..string..String$GT$$GT$4from17h4dc71b30614125e8E:
.Lfunc_begin22:
	.loc	12 2344 0
	.cfi_startproc
	addi	sp, sp, -16
	.cfi_def_cfa_offset 16
.Ltmp171:
	.loc	2 1583 9 prologue_end
	sw	ra, 12(sp)
	sw	s0, 8(sp)
	.cfi_offset ra, -4
	.cfi_offset s0, -8
	lui	a1, %hi(__rust_no_alloc_shim_is_unstable)
	lbu	a1, %lo(__rust_no_alloc_shim_is_unstable)(a1)
.Ltmp172:
	.loc	2 0 9 is_stmt 0
	mv	s0, a0
.Ltmp173:
	.loc	4 98 9 is_stmt 1
	li	a0, 12
	li	a1, 4
	call	__rust_alloc
.Ltmp174:
	.loc	4 330 5
	beqz	a0, .LBB22_2
.Ltmp175:
	.loc	12 217 18
	lw	a1, 8(s0)
	lw	a2, 4(s0)
	sw	a1, 8(a0)
	lw	a3, 0(s0)
	sw	a2, 4(a0)
.Ltmp176:
	.loc	12 2348 6
	lui	a1, %hi(.L__unnamed_2)
	addi	a1, a1, %lo(.L__unnamed_2)
.Ltmp177:
	.loc	12 217 18
	sw	a3, 0(a0)
.Ltmp178:
	.loc	12 2348 6
	lw	ra, 12(sp)
	lw	s0, 8(sp)
.Ltmp179:
	.loc	12 2348 6 epilogue_begin is_stmt 0
	addi	sp, sp, 16
	ret
.LBB22_2:
.Ltmp180:
	.loc	4 332 19 is_stmt 1
	li	a0, 4
	li	a1, 12
	call	_ZN5alloc5alloc18handle_alloc_error17h7e3d1e4e5e7ceb74E
.Ltmp181:
.Lfunc_end22:
	.size	_ZN120_$LT$alloc..boxed..Box$LT$dyn$u20$core..error..Error$GT$$u20$as$u20$core..convert..From$LT$alloc..string..String$GT$$GT$4from17h4dc71b30614125e8E, .Lfunc_end22-_ZN120_$LT$alloc..boxed..Box$LT$dyn$u20$core..error..Error$GT$$u20$as$u20$core..convert..From$LT$alloc..string..String$GT$$GT$4from17h4dc71b30614125e8E
	.cfi_endproc

	.section	".text._ZN106_$LT$alloc..boxed..Box$LT$dyn$u20$core..error..Error$GT$$u20$as$u20$core..convert..From$LT$$RF$str$GT$$GT$4from17ha772c606e80c20f5E","ax",@progbits
	.globl	_ZN106_$LT$alloc..boxed..Box$LT$dyn$u20$core..error..Error$GT$$u20$as$u20$core..convert..From$LT$$RF$str$GT$$GT$4from17ha772c606e80c20f5E
	.p2align	1
	.type	_ZN106_$LT$alloc..boxed..Box$LT$dyn$u20$core..error..Error$GT$$u20$as$u20$core..convert..From$LT$$RF$str$GT$$GT$4from17ha772c606e80c20f5E,@function
_ZN106_$LT$alloc..boxed..Box$LT$dyn$u20$core..error..Error$GT$$u20$as$u20$core..convert..From$LT$$RF$str$GT$$GT$4from17ha772c606e80c20f5E:
.Lfunc_begin23:
	.loc	12 2392 0
	.cfi_startproc
	addi	sp, sp, -16
	.cfi_def_cfa_offset 16
	sw	ra, 12(sp)
	sw	s0, 8(sp)
	sw	s1, 4(sp)
	sw	s2, 0(sp)
	.cfi_offset ra, -4
	.cfi_offset s0, -8
	.cfi_offset s1, -12
	.cfi_offset s2, -16
	mv	s0, a1
.Ltmp182:
	mv	s2, a0
.Ltmp183:
	.loc	3 185 25 prologue_end
	beqz	a1, .LBB23_4
.Ltmp184:
	.loc	3 190 26
	bltz	s0, .LBB23_8
.Ltmp185:
	.loc	2 1583 9
	lui	a0, %hi(__rust_no_alloc_shim_is_unstable)
	lbu	a0, %lo(__rust_no_alloc_shim_is_unstable)(a0)
.Ltmp186:
	.loc	4 98 9
	li	a1, 1
	mv	a0, s0
	call	__rust_alloc
	mv	s1, a0
.Ltmp187:
	.loc	3 202 23
	bnez	a0, .LBB23_5
.Ltmp188:
	.loc	3 204 27
	li	a0, 1
	mv	a1, s0
	call	_ZN5alloc5alloc18handle_alloc_error17h7e3d1e4e5e7ceb74E
.Ltmp189:
.LBB23_4:
	.loc	3 0 27 is_stmt 0
	li	s1, 1
.Ltmp190:
.LBB23_5:
	.loc	13 2774 9 is_stmt 1
	mv	a0, s1
	mv	a1, s2
	mv	a2, s0
	call	memcpy@plt
.Ltmp191:
	.loc	2 1583 9
	lui	a0, %hi(__rust_no_alloc_shim_is_unstable)
	lbu	a0, %lo(__rust_no_alloc_shim_is_unstable)(a0)
.Ltmp192:
	.loc	4 98 9
	li	a0, 12
	li	a1, 4
	call	__rust_alloc
.Ltmp193:
	.loc	4 330 5
	beqz	a0, .LBB23_7
.Ltmp194:
	.loc	12 217 18
	sw	s0, 0(a0)
	sw	s1, 4(a0)
.Ltmp195:
	.loc	12 2348 6
	lui	a1, %hi(.L__unnamed_2)
	addi	a1, a1, %lo(.L__unnamed_2)
.Ltmp196:
	.loc	12 217 18
	sw	s0, 8(a0)
.Ltmp197:
	.loc	12 2394 6
	lw	ra, 12(sp)
	lw	s0, 8(sp)
.Ltmp198:
	lw	s1, 4(sp)
.Ltmp199:
	lw	s2, 0(sp)
.Ltmp200:
	.loc	12 2394 6 epilogue_begin is_stmt 0
	addi	sp, sp, 16
	ret
.LBB23_7:
.Ltmp201:
	.loc	4 332 19 is_stmt 1
	li	a0, 4
	li	a1, 12
	call	_ZN5alloc5alloc18handle_alloc_error17h7e3d1e4e5e7ceb74E
.Ltmp202:
.LBB23_8:
	.loc	3 192 27
	call	_ZN5alloc7raw_vec17capacity_overflow17h6deb98aaf45da7a0E
.Ltmp203:
.Lfunc_end23:
	.size	_ZN106_$LT$alloc..boxed..Box$LT$dyn$u20$core..error..Error$GT$$u20$as$u20$core..convert..From$LT$$RF$str$GT$$GT$4from17ha772c606e80c20f5E, .Lfunc_end23-_ZN106_$LT$alloc..boxed..Box$LT$dyn$u20$core..error..Error$GT$$u20$as$u20$core..convert..From$LT$$RF$str$GT$$GT$4from17ha772c606e80c20f5E
	.cfi_endproc
	.file	17 "/Users/steve/.rustup/toolchains/nightly-2024-02-01-aarch64-apple-darwin/lib/rustlib/src/rust/library/alloc" "src/slice.rs"
	.file	18 "/Users/steve/.rustup/toolchains/nightly-2024-02-01-aarch64-apple-darwin/lib/rustlib/src/rust/library/alloc" "src/str.rs"
	.file	19 "/Users/steve/.rustup/toolchains/nightly-2024-02-01-aarch64-apple-darwin/lib/rustlib/src/rust/library/core/src/ptr" "const_ptr.rs"

	.section	".text._ZN174_$LT$alloc..boxed..Box$LT$dyn$u20$core..error..Error$u2b$core..marker..Send$u2b$core..marker..Sync$GT$$u20$as$u20$core..convert..From$LT$alloc..borrow..Cow$LT$str$GT$$GT$$GT$4from17h182ac2660072b920E","ax",@progbits
	.globl	_ZN174_$LT$alloc..boxed..Box$LT$dyn$u20$core..error..Error$u2b$core..marker..Send$u2b$core..marker..Sync$GT$$u20$as$u20$core..convert..From$LT$alloc..borrow..Cow$LT$str$GT$$GT$$GT$4from17h182ac2660072b920E
	.p2align	1
	.type	_ZN174_$LT$alloc..boxed..Box$LT$dyn$u20$core..error..Error$u2b$core..marker..Send$u2b$core..marker..Sync$GT$$u20$as$u20$core..convert..From$LT$alloc..borrow..Cow$LT$str$GT$$GT$$GT$4from17h182ac2660072b920E,@function
_ZN174_$LT$alloc..boxed..Box$LT$dyn$u20$core..error..Error$u2b$core..marker..Send$u2b$core..marker..Sync$GT$$u20$as$u20$core..convert..From$LT$alloc..borrow..Cow$LT$str$GT$$GT$$GT$4from17h182ac2660072b920E:
.Lfunc_begin24:
	.loc	12 2414 0
	.cfi_startproc
	addi	sp, sp, -32
	.cfi_def_cfa_offset 32
.Ltmp204:
	.file	20 "/Users/steve/.rustup/toolchains/nightly-2024-02-01-aarch64-apple-darwin/lib/rustlib/src/rust/library/alloc" "src/borrow.rs"
	.loc	20 324 15 prologue_end
	sw	ra, 28(sp)
	sw	s0, 24(sp)
	sw	s1, 20(sp)
	sw	s2, 16(sp)
	sw	s3, 12(sp)
	.cfi_offset ra, -4
	.cfi_offset s0, -8
	.cfi_offset s1, -12
	.cfi_offset s2, -16
	.cfi_offset s3, -20
	lw	s0, 0(a0)
	lui	a1, 524288
	.loc	20 324 9 is_stmt 0
	bne	s0, a1, .LBB24_5
.Ltmp205:
	.loc	20 325 22 is_stmt 1
	lw	s1, 8(a0)
.Ltmp206:
	lw	s2, 4(a0)
.Ltmp207:
	.loc	3 185 25
	beqz	s1, .LBB24_6
.Ltmp208:
	.loc	3 190 26
	bltz	s1, .LBB24_11
.Ltmp209:
	.loc	2 1583 9
	lui	a0, %hi(__rust_no_alloc_shim_is_unstable)
.Ltmp210:
	lbu	a0, %lo(__rust_no_alloc_shim_is_unstable)(a0)
.Ltmp211:
	.loc	4 98 9
	li	a1, 1
	mv	a0, s1
	call	__rust_alloc
	mv	s3, a0
.Ltmp212:
	.loc	3 202 23
	bnez	a0, .LBB24_7
.Ltmp213:
	.loc	3 204 27
	li	a0, 1
	mv	a1, s1
	call	_ZN5alloc5alloc18handle_alloc_error17h7e3d1e4e5e7ceb74E
.Ltmp214:
.LBB24_5:
	.loc	20 326 29
	lw	s3, 4(a0)
	lw	s1, 8(a0)
	j	.LBB24_8
.Ltmp215:
.LBB24_6:
	.loc	20 0 29 is_stmt 0
	li	s3, 1
.Ltmp216:
.LBB24_7:
	.loc	13 2774 9 is_stmt 1
	mv	a0, s3
	mv	a1, s2
	mv	a2, s1
	call	memcpy@plt
.Ltmp217:
	.loc	13 0 9 is_stmt 0
	mv	s0, s1
.Ltmp218:
.LBB24_8:
	.loc	2 1583 9 is_stmt 1
	lui	a0, %hi(__rust_no_alloc_shim_is_unstable)
	lbu	a0, %lo(__rust_no_alloc_shim_is_unstable)(a0)
.Ltmp219:
	.loc	4 98 9
	li	a0, 12
	li	a1, 4
	call	__rust_alloc
.Ltmp220:
	.loc	4 330 5
	beqz	a0, .LBB24_10
.Ltmp221:
	.loc	12 217 18
	sw	s0, 0(a0)
	sw	s3, 4(a0)
.Ltmp222:
	.loc	12 2416 6
	lui	a1, %hi(.L__unnamed_2)
	addi	a1, a1, %lo(.L__unnamed_2)
.Ltmp223:
	.loc	12 217 18
	sw	s1, 8(a0)
.Ltmp224:
	.loc	12 2416 6
	lw	ra, 28(sp)
	lw	s0, 24(sp)
.Ltmp225:
	lw	s1, 20(sp)
.Ltmp226:
	lw	s2, 16(sp)
	lw	s3, 12(sp)
.Ltmp227:
	.loc	12 2416 6 epilogue_begin is_stmt 0
	addi	sp, sp, 32
	ret
.LBB24_10:
.Ltmp228:
	.loc	4 332 19 is_stmt 1
	li	a0, 4
	li	a1, 12
	call	_ZN5alloc5alloc18handle_alloc_error17h7e3d1e4e5e7ceb74E
.Ltmp229:
.LBB24_11:
	.loc	3 192 27
	call	_ZN5alloc7raw_vec17capacity_overflow17h6deb98aaf45da7a0E
.Ltmp230:
.Lfunc_end24:
	.size	_ZN174_$LT$alloc..boxed..Box$LT$dyn$u20$core..error..Error$u2b$core..marker..Send$u2b$core..marker..Sync$GT$$u20$as$u20$core..convert..From$LT$alloc..borrow..Cow$LT$str$GT$$GT$$GT$4from17h182ac2660072b920E, .Lfunc_end24-_ZN174_$LT$alloc..boxed..Box$LT$dyn$u20$core..error..Error$u2b$core..marker..Send$u2b$core..marker..Sync$GT$$u20$as$u20$core..convert..From$LT$alloc..borrow..Cow$LT$str$GT$$GT$$GT$4from17h182ac2660072b920E
	.cfi_endproc

	.section	".text._ZN128_$LT$alloc..boxed..Box$LT$dyn$u20$core..error..Error$GT$$u20$as$u20$core..convert..From$LT$alloc..borrow..Cow$LT$str$GT$$GT$$GT$4from17hafd667f27cb310b3E","ax",@progbits
	.globl	_ZN128_$LT$alloc..boxed..Box$LT$dyn$u20$core..error..Error$GT$$u20$as$u20$core..convert..From$LT$alloc..borrow..Cow$LT$str$GT$$GT$$GT$4from17hafd667f27cb310b3E
	.p2align	1
	.type	_ZN128_$LT$alloc..boxed..Box$LT$dyn$u20$core..error..Error$GT$$u20$as$u20$core..convert..From$LT$alloc..borrow..Cow$LT$str$GT$$GT$$GT$4from17hafd667f27cb310b3E,@function
_ZN128_$LT$alloc..boxed..Box$LT$dyn$u20$core..error..Error$GT$$u20$as$u20$core..convert..From$LT$alloc..borrow..Cow$LT$str$GT$$GT$$GT$4from17hafd667f27cb310b3E:
.Lfunc_begin25:
	.loc	12 2435 0
	.cfi_startproc
	addi	sp, sp, -32
	.cfi_def_cfa_offset 32
.Ltmp231:
	.loc	20 324 15 prologue_end
	sw	ra, 28(sp)
	sw	s0, 24(sp)
	sw	s1, 20(sp)
	sw	s2, 16(sp)
	sw	s3, 12(sp)
	.cfi_offset ra, -4
	.cfi_offset s0, -8
	.cfi_offset s1, -12
	.cfi_offset s2, -16
	.cfi_offset s3, -20
	lw	s0, 0(a0)
	lui	a1, 524288
	.loc	20 324 9 is_stmt 0
	bne	s0, a1, .LBB25_5
.Ltmp232:
	.loc	20 325 22 is_stmt 1
	lw	s1, 8(a0)
.Ltmp233:
	lw	s2, 4(a0)
.Ltmp234:
	.loc	3 185 25
	beqz	s1, .LBB25_6
.Ltmp235:
	.loc	3 190 26
	bltz	s1, .LBB25_11
.Ltmp236:
	.loc	2 1583 9
	lui	a0, %hi(__rust_no_alloc_shim_is_unstable)
.Ltmp237:
	lbu	a0, %lo(__rust_no_alloc_shim_is_unstable)(a0)
.Ltmp238:
	.loc	4 98 9
	li	a1, 1
	mv	a0, s1
	call	__rust_alloc
	mv	s3, a0
.Ltmp239:
	.loc	3 202 23
	bnez	a0, .LBB25_7
.Ltmp240:
	.loc	3 204 27
	li	a0, 1
	mv	a1, s1
	call	_ZN5alloc5alloc18handle_alloc_error17h7e3d1e4e5e7ceb74E
.Ltmp241:
.LBB25_5:
	.loc	20 326 29
	lw	s3, 4(a0)
	lw	s1, 8(a0)
	j	.LBB25_8
.Ltmp242:
.LBB25_6:
	.loc	20 0 29 is_stmt 0
	li	s3, 1
.Ltmp243:
.LBB25_7:
	.loc	13 2774 9 is_stmt 1
	mv	a0, s3
	mv	a1, s2
	mv	a2, s1
	call	memcpy@plt
.Ltmp244:
	.loc	13 0 9 is_stmt 0
	mv	s0, s1
.Ltmp245:
.LBB25_8:
	.loc	2 1583 9 is_stmt 1
	lui	a0, %hi(__rust_no_alloc_shim_is_unstable)
	lbu	a0, %lo(__rust_no_alloc_shim_is_unstable)(a0)
.Ltmp246:
	.loc	4 98 9
	li	a0, 12
	li	a1, 4
	call	__rust_alloc
.Ltmp247:
	.loc	4 330 5
	beqz	a0, .LBB25_10
.Ltmp248:
	.loc	12 217 18
	sw	s0, 0(a0)
	sw	s3, 4(a0)
.Ltmp249:
	.loc	12 2348 6
	lui	a1, %hi(.L__unnamed_2)
	addi	a1, a1, %lo(.L__unnamed_2)
.Ltmp250:
	.loc	12 217 18
	sw	s1, 8(a0)
.Ltmp251:
	.loc	12 2437 6
	lw	ra, 28(sp)
	lw	s0, 24(sp)
.Ltmp252:
	lw	s1, 20(sp)
.Ltmp253:
	lw	s2, 16(sp)
	lw	s3, 12(sp)
.Ltmp254:
	.loc	12 2437 6 epilogue_begin is_stmt 0
	addi	sp, sp, 32
	ret
.LBB25_10:
.Ltmp255:
	.loc	4 332 19 is_stmt 1
	li	a0, 4
	li	a1, 12
	call	_ZN5alloc5alloc18handle_alloc_error17h7e3d1e4e5e7ceb74E
.Ltmp256:
.LBB25_11:
	.loc	3 192 27
	call	_ZN5alloc7raw_vec17capacity_overflow17h6deb98aaf45da7a0E
.Ltmp257:
.Lfunc_end25:
	.size	_ZN128_$LT$alloc..boxed..Box$LT$dyn$u20$core..error..Error$GT$$u20$as$u20$core..convert..From$LT$alloc..borrow..Cow$LT$str$GT$$GT$$GT$4from17hafd667f27cb310b3E, .Lfunc_end25-_ZN128_$LT$alloc..boxed..Box$LT$dyn$u20$core..error..Error$GT$$u20$as$u20$core..convert..From$LT$alloc..borrow..Cow$LT$str$GT$$GT$$GT$4from17hafd667f27cb310b3E
	.cfi_endproc

	.section	".text._ZN92_$LT$alloc..borrow..Cow$LT$str$GT$$u20$as$u20$core..ops..arith..AddAssign$LT$$RF$str$GT$$GT$10add_assign17hcc72e36b3d967550E","ax",@progbits
	.globl	_ZN92_$LT$alloc..borrow..Cow$LT$str$GT$$u20$as$u20$core..ops..arith..AddAssign$LT$$RF$str$GT$$GT$10add_assign17hcc72e36b3d967550E
	.p2align	1
	.type	_ZN92_$LT$alloc..borrow..Cow$LT$str$GT$$u20$as$u20$core..ops..arith..AddAssign$LT$$RF$str$GT$$GT$10add_assign17hcc72e36b3d967550E,@function
_ZN92_$LT$alloc..borrow..Cow$LT$str$GT$$u20$as$u20$core..ops..arith..AddAssign$LT$$RF$str$GT$$GT$10add_assign17hcc72e36b3d967550E:
.Lfunc_begin26:
	.loc	20 465 0
	.cfi_startproc
	addi	sp, sp, -48
	.cfi_def_cfa_offset 48
	sw	ra, 44(sp)
	sw	s0, 40(sp)
	sw	s1, 36(sp)
	sw	s2, 32(sp)
	sw	s3, 28(sp)
	sw	s4, 24(sp)
	sw	s5, 20(sp)
	sw	s6, 16(sp)
	.cfi_offset ra, -4
	.cfi_offset s0, -8
	.cfi_offset s1, -12
	.cfi_offset s2, -16
	.cfi_offset s3, -20
	.cfi_offset s4, -24
	.cfi_offset s5, -28
	.cfi_offset s6, -32
	mv	s0, a0
.Ltmp258:
	.loc	20 0 0 is_stmt 0
	lw	s1, 8(a0)
	lw	s4, 4(a0)
	mv	s3, a2
.Ltmp259:
	mv	s2, a1
.Ltmp260:
	.loc	20 466 12 prologue_end is_stmt 1
	beqz	s1, .LBB26_7
.Ltmp261:
	.loc	20 468 20
	beqz	s3, .LBB26_22
.Ltmp262:
	.loc	20 469 20
	lw	a0, 0(s0)
	lui	a1, 524288
	bne	a0, a1, .LBB26_19
.Ltmp263:
	.loc	20 470 51
	add	s5, s1, s3
.Ltmp264:
	.loc	3 185 25
	beqz	s5, .LBB26_10
.Ltmp265:
	.loc	3 190 26
	bltz	s5, .LBB26_25
.Ltmp266:
	.loc	2 1583 9
	lui	a0, %hi(__rust_no_alloc_shim_is_unstable)
	lbu	a0, %lo(__rust_no_alloc_shim_is_unstable)(a0)
.Ltmp267:
	.loc	4 98 9
	li	a1, 1
	mv	a0, s5
	call	__rust_alloc
.Ltmp268:
	.loc	3 202 23
	bnez	a0, .LBB26_11
.Ltmp269:
	.loc	3 204 27
	li	a0, 1
.Ltmp270:
	mv	a1, s5
	call	_ZN5alloc5alloc18handle_alloc_error17h7e3d1e4e5e7ceb74E
.Ltmp271:
.LBB26_7:
	.loc	20 467 13
	lw	a1, 0(s0)
	lui	s1, 524288
.Ltmp272:
	.loc	2 507 1
	or	a0, a1, s1
	beq	a0, s1, .LBB26_9
.Ltmp273:
	.loc	4 117 14
	li	a2, 1
	mv	a0, s4
	call	__rust_dealloc
.Ltmp274:
.LBB26_9:
	.loc	20 467 13
	sw	s1, 0(s0)
	sw	s2, 4(s0)
	j	.LBB26_21
.Ltmp275:
.LBB26_10:
	.loc	20 0 13 is_stmt 0
	li	a0, 1
.Ltmp276:
.LBB26_11:
	li	s6, 0
.Ltmp277:
	.loc	16 492 9 is_stmt 1
	sw	s5, 4(sp)
	sw	a0, 8(sp)
	sw	zero, 12(sp)
.Ltmp278:
	.loc	3 308 12
	bltu	s5, s1, .LBB26_24
.Ltmp279:
.LBB26_12:
	.file	21 "/Users/steve/.rustup/toolchains/nightly-2024-02-01-aarch64-apple-darwin/lib/rustlib/src/rust/library/core/src/ptr" "mut_ptr.rs"
	.loc	21 1045 18
	add	a0, a0, s6
.Ltmp280:
	.loc	13 2774 9
	mv	a1, s4
	mv	a2, s1
	call	memcpy@plt
.Ltmp281:
	.loc	15 2038 9
	add	s1, s1, s6
.Ltmp282:
	sw	s1, 12(sp)
.Ltmp283:
	.loc	20 472 17
	lw	a0, 4(sp)
	sw	a0, 0(s0)
	lw	a1, 8(sp)
	sw	s1, 8(s0)
.Ltmp284:
	.loc	20 276 15
	lw	a0, 0(s0)
.Ltmp285:
	.loc	15 911 26
	lw	s1, 8(s0)
	lui	a2, 524288
.Ltmp286:
	.loc	20 472 17
	sw	a1, 4(s0)
.Ltmp287:
	.loc	20 276 9
	bne	a0, a2, .LBB26_19
.Ltmp288:
	.loc	20 277 22
	lw	s4, 4(s0)
.Ltmp289:
	.loc	3 185 25
	beqz	s1, .LBB26_17
.Ltmp290:
	.loc	3 190 26
	bltz	s1, .LBB26_25
.Ltmp291:
	.loc	2 1583 9
	lui	a0, %hi(__rust_no_alloc_shim_is_unstable)
	lbu	a0, %lo(__rust_no_alloc_shim_is_unstable)(a0)
.Ltmp292:
	.loc	4 98 9
	li	a1, 1
	mv	a0, s1
	call	__rust_alloc
	mv	s5, a0
.Ltmp293:
	.loc	3 202 23
	bnez	a0, .LBB26_18
.Ltmp294:
	.loc	3 204 27
	li	a0, 1
	mv	a1, s1
	call	_ZN5alloc5alloc18handle_alloc_error17h7e3d1e4e5e7ceb74E
.Ltmp295:
.LBB26_17:
	.loc	3 0 27 is_stmt 0
	li	s5, 1
.Ltmp296:
.LBB26_18:
	.loc	13 2774 9 is_stmt 1
	mv	a0, s5
	mv	a1, s4
	mv	a2, s1
	call	memcpy@plt
.Ltmp297:
	.loc	20 278 17
	sw	s1, 0(s0)
	sw	s5, 4(s0)
	mv	a0, s1
.Ltmp298:
.LBB26_19:
	.loc	7 1256 5
	sub	a0, a0, s1
.Ltmp299:
	.loc	3 308 12
	bltu	a0, s3, .LBB26_23
.Ltmp300:
.LBB26_20:
	.loc	3 239 9
	lw	a0, 4(s0)
.Ltmp301:
	.loc	21 1045 18
	add	a0, a0, s1
.Ltmp302:
	.loc	13 2774 9
	mv	a1, s2
	mv	a2, s3
	call	memcpy@plt
.Ltmp303:
	.loc	15 2038 9
	add	s3, s3, s1
.Ltmp304:
.LBB26_21:
	.loc	20 0 0 is_stmt 0
	sw	s3, 8(s0)
.Ltmp305:
.LBB26_22:
	.loc	20 476 6 is_stmt 1
	lw	ra, 44(sp)
	lw	s0, 40(sp)
.Ltmp306:
	lw	s1, 36(sp)
	lw	s2, 32(sp)
.Ltmp307:
	lw	s3, 28(sp)
	lw	s4, 24(sp)
	lw	s5, 20(sp)
	lw	s6, 16(sp)
	.loc	20 476 6 epilogue_begin is_stmt 0
	addi	sp, sp, 48
	ret
.LBB26_23:
.Ltmp308:
	.loc	3 309 13 is_stmt 1
	mv	a0, s0
	mv	a1, s1
	mv	a2, s3
	call	_ZN5alloc7raw_vec19RawVec$LT$T$C$A$GT$7reserve21do_reserve_and_handle17h943e2436917d6bc7E
.Ltmp309:
	.loc	15 2145 9
	lw	s1, 8(s0)
.Ltmp310:
	.loc	15 0 9 is_stmt 0
	j	.LBB26_20
.Ltmp311:
.LBB26_24:
	.loc	3 309 13 is_stmt 1
	addi	a0, sp, 4
	li	a1, 0
	mv	a2, s1
	call	_ZN5alloc7raw_vec19RawVec$LT$T$C$A$GT$7reserve21do_reserve_and_handle17h943e2436917d6bc7E
.Ltmp312:
	.loc	15 2145 9
	lw	s6, 12(sp)
.Ltmp313:
	.loc	3 239 9
	lw	a0, 8(sp)
	j	.LBB26_12
.Ltmp314:
.LBB26_25:
	.loc	20 0 0 is_stmt 0
	call	_ZN5alloc7raw_vec17capacity_overflow17h6deb98aaf45da7a0E
.Ltmp315:
.Lfunc_end26:
	.size	_ZN92_$LT$alloc..borrow..Cow$LT$str$GT$$u20$as$u20$core..ops..arith..AddAssign$LT$$RF$str$GT$$GT$10add_assign17hcc72e36b3d967550E, .Lfunc_end26-_ZN92_$LT$alloc..borrow..Cow$LT$str$GT$$u20$as$u20$core..ops..arith..AddAssign$LT$$RF$str$GT$$GT$10add_assign17hcc72e36b3d967550E
	.cfi_endproc
	.file	22 "/Users/steve/.rustup/toolchains/nightly-2024-02-01-aarch64-apple-darwin/lib/rustlib/src/rust/library/alloc" "src/vec/spec_extend.rs"

	.section	".text._ZN77_$LT$alloc..borrow..Cow$LT$str$GT$$u20$as$u20$core..ops..arith..AddAssign$GT$10add_assign17hcdce112fc67a3026E","ax",@progbits
	.globl	_ZN77_$LT$alloc..borrow..Cow$LT$str$GT$$u20$as$u20$core..ops..arith..AddAssign$GT$10add_assign17hcdce112fc67a3026E
	.p2align	1
	.type	_ZN77_$LT$alloc..borrow..Cow$LT$str$GT$$u20$as$u20$core..ops..arith..AddAssign$GT$10add_assign17hcdce112fc67a3026E,@function
_ZN77_$LT$alloc..borrow..Cow$LT$str$GT$$u20$as$u20$core..ops..arith..AddAssign$GT$10add_assign17hcdce112fc67a3026E:
.Lfunc_begin27:
	.loc	20 482 0 is_stmt 1
	.cfi_startproc
	addi	sp, sp, -48
	.cfi_def_cfa_offset 48
	sw	ra, 44(sp)
	sw	s0, 40(sp)
	sw	s1, 36(sp)
	sw	s2, 32(sp)
	sw	s3, 28(sp)
	sw	s4, 24(sp)
	sw	s5, 20(sp)
	sw	s6, 16(sp)
	sw	s7, 12(sp)
	.cfi_offset ra, -4
	.cfi_offset s0, -8
	.cfi_offset s1, -12
	.cfi_offset s2, -16
	.cfi_offset s3, -20
	.cfi_offset s4, -24
	.cfi_offset s5, -28
	.cfi_offset s6, -32
	.cfi_offset s7, -36
	mv	s1, a0
.Ltmp316:
	.loc	20 0 0 is_stmt 0
	lw	s0, 8(a0)
	lw	s5, 4(a0)
	mv	s3, a1
.Ltmp317:
	.loc	20 483 12 prologue_end is_stmt 1
	beqz	s0, .LBB27_7
.Ltmp318:
	.loc	20 0 0 is_stmt 0
	lw	s2, 8(s3)
.Ltmp319:
	.loc	20 485 20 is_stmt 1
	beqz	s2, .LBB27_21
.Ltmp320:
	.loc	20 486 20
	lw	a0, 0(s1)
.Ltmp321:
	.loc	20 0 0 is_stmt 0
	lw	s4, 4(s3)
	lui	a1, 524288
.Ltmp322:
	.loc	20 486 20
	bne	a0, a1, .LBB27_19
.Ltmp323:
	.loc	20 487 51 is_stmt 1
	add	s6, s2, s0
.Ltmp324:
	.loc	3 185 25
	beqz	s6, .LBB27_10
.Ltmp325:
	.loc	3 190 26
	bltz	s6, .LBB27_26
.Ltmp326:
	.loc	2 1583 9
	lui	a0, %hi(__rust_no_alloc_shim_is_unstable)
	lbu	a0, %lo(__rust_no_alloc_shim_is_unstable)(a0)
.Ltmp327:
	.loc	4 98 9
	li	a1, 1
	mv	a0, s6
	call	__rust_alloc
.Ltmp328:
	.loc	3 202 23
	bnez	a0, .LBB27_11
.Ltmp329:
	.loc	3 204 27
	li	a0, 1
.Ltmp330:
	mv	a1, s6
	call	_ZN5alloc5alloc18handle_alloc_error17h7e3d1e4e5e7ceb74E
.Ltmp331:
.LBB27_7:
	.loc	20 484 13
	lw	a1, 0(s1)
	lui	a0, 524288
.Ltmp332:
	.loc	2 507 1
	or	a2, a1, a0
	beq	a2, a0, .LBB27_9
.Ltmp333:
	.loc	4 117 14
	li	a2, 1
	mv	a0, s5
	call	__rust_dealloc
.Ltmp334:
.LBB27_9:
	.loc	20 484 13
	lw	a0, 8(s3)
	lw	a1, 4(s3)
	lw	a2, 0(s3)
	sw	a0, 8(s1)
	sw	a1, 4(s1)
	sw	a2, 0(s1)
	j	.LBB27_22
.Ltmp335:
.LBB27_10:
	.loc	20 0 13 is_stmt 0
	li	a0, 1
.Ltmp336:
.LBB27_11:
	li	s7, 0
.Ltmp337:
	.loc	16 492 9 is_stmt 1
	sw	s6, 0(sp)
	sw	a0, 4(sp)
	sw	zero, 8(sp)
.Ltmp338:
	.loc	3 308 12
	bltu	s6, s0, .LBB27_25
.Ltmp339:
.LBB27_12:
	.loc	21 1045 18
	add	a0, a0, s7
.Ltmp340:
	.loc	13 2774 9
	mv	a1, s5
	mv	a2, s0
	call	memcpy@plt
.Ltmp341:
	.loc	15 2038 9
	add	s0, s0, s7
.Ltmp342:
	sw	s0, 8(sp)
.Ltmp343:
	.loc	20 489 17
	lw	a0, 0(sp)
	sw	a0, 0(s1)
	lw	a1, 4(sp)
	sw	s0, 8(s1)
.Ltmp344:
	.loc	20 276 15
	lw	a0, 0(s1)
.Ltmp345:
	.loc	15 911 26
	lw	s0, 8(s1)
	lui	a2, 524288
.Ltmp346:
	.loc	20 489 17
	sw	a1, 4(s1)
.Ltmp347:
	.loc	20 276 9
	bne	a0, a2, .LBB27_19
.Ltmp348:
	.loc	20 277 22
	lw	s5, 4(s1)
.Ltmp349:
	.loc	3 185 25
	beqz	s0, .LBB27_17
.Ltmp350:
	.loc	3 190 26
	bltz	s0, .LBB27_26
.Ltmp351:
	.loc	2 1583 9
	lui	a0, %hi(__rust_no_alloc_shim_is_unstable)
	lbu	a0, %lo(__rust_no_alloc_shim_is_unstable)(a0)
.Ltmp352:
	.loc	4 98 9
	li	a1, 1
	mv	a0, s0
	call	__rust_alloc
	mv	s6, a0
.Ltmp353:
	.loc	3 202 23
	bnez	a0, .LBB27_18
.Ltmp354:
	.loc	3 204 27
	li	a0, 1
	mv	a1, s0
	call	_ZN5alloc5alloc18handle_alloc_error17h7e3d1e4e5e7ceb74E
.Ltmp355:
.LBB27_17:
	.loc	3 0 27 is_stmt 0
	li	s6, 1
.Ltmp356:
.LBB27_18:
	.loc	13 2774 9 is_stmt 1
	mv	a0, s6
	mv	a1, s5
	mv	a2, s0
	call	memcpy@plt
.Ltmp357:
	.loc	20 278 17
	sw	s0, 0(s1)
	sw	s6, 4(s1)
	mv	a0, s0
.Ltmp358:
.LBB27_19:
	.loc	7 1256 5
	sub	a0, a0, s0
.Ltmp359:
	.loc	3 308 12
	bltu	a0, s2, .LBB27_24
.Ltmp360:
.LBB27_20:
	.loc	3 239 9
	lw	a0, 4(s1)
.Ltmp361:
	.loc	21 1045 18
	add	a0, a0, s0
.Ltmp362:
	.loc	13 2774 9
	mv	a1, s4
	mv	a2, s2
	call	memcpy@plt
.Ltmp363:
	.loc	15 2038 9
	add	s0, s0, s2
.Ltmp364:
	sw	s0, 8(s1)
.Ltmp365:
.LBB27_21:
	.loc	20 493 5
	lw	a1, 0(s3)
	lui	a0, 524288
.Ltmp366:
	.loc	2 507 1
	or	a2, a1, a0
	bne	a2, a0, .LBB27_23
.Ltmp367:
.LBB27_22:
	.loc	20 493 6
	lw	ra, 44(sp)
	lw	s0, 40(sp)
	lw	s1, 36(sp)
.Ltmp368:
	lw	s2, 32(sp)
	lw	s3, 28(sp)
.Ltmp369:
	lw	s4, 24(sp)
	lw	s5, 20(sp)
	lw	s6, 16(sp)
	lw	s7, 12(sp)
	.loc	20 493 6 epilogue_begin is_stmt 0
	addi	sp, sp, 48
	ret
.LBB27_23:
.Ltmp370:
	.loc	20 493 5
	lw	a0, 4(s3)
.Ltmp371:
	.loc	4 117 14 is_stmt 1
	li	a2, 1
	lw	ra, 44(sp)
	lw	s0, 40(sp)
	lw	s1, 36(sp)
.Ltmp372:
	lw	s2, 32(sp)
	lw	s3, 28(sp)
.Ltmp373:
	lw	s4, 24(sp)
	lw	s5, 20(sp)
	lw	s6, 16(sp)
	lw	s7, 12(sp)
	.loc	4 117 14 epilogue_begin is_stmt 0
	addi	sp, sp, 48
	tail	__rust_dealloc
.Ltmp374:
.LBB27_24:
	.loc	3 309 13 is_stmt 1
	mv	a0, s1
	mv	a1, s0
	mv	a2, s2
	call	_ZN5alloc7raw_vec19RawVec$LT$T$C$A$GT$7reserve21do_reserve_and_handle17h943e2436917d6bc7E
.Ltmp375:
	.loc	15 2145 9
	lw	s0, 8(s1)
.Ltmp376:
	.loc	15 0 9 is_stmt 0
	j	.LBB27_20
.Ltmp377:
.LBB27_25:
	.loc	3 309 13 is_stmt 1
	mv	a0, sp
	li	a1, 0
	mv	a2, s0
	call	_ZN5alloc7raw_vec19RawVec$LT$T$C$A$GT$7reserve21do_reserve_and_handle17h943e2436917d6bc7E
.Ltmp378:
	.loc	15 2145 9
	lw	s7, 8(sp)
.Ltmp379:
	.loc	3 239 9
	lw	a0, 4(sp)
	j	.LBB27_12
.Ltmp380:
.LBB27_26:
	.loc	20 0 0 is_stmt 0
	call	_ZN5alloc7raw_vec17capacity_overflow17h6deb98aaf45da7a0E
.Ltmp381:
.Lfunc_end27:
	.size	_ZN77_$LT$alloc..borrow..Cow$LT$str$GT$$u20$as$u20$core..ops..arith..AddAssign$GT$10add_assign17hcdce112fc67a3026E, .Lfunc_end27-_ZN77_$LT$alloc..borrow..Cow$LT$str$GT$$u20$as$u20$core..ops..arith..AddAssign$GT$10add_assign17hcdce112fc67a3026E
	.cfi_endproc

	.section	".text._ZN88_$LT$alloc..collections..btree..map..UnorderedKeyError$u20$as$u20$core..fmt..Display$GT$3fmt17h66047798732a1366E","ax",@progbits
	.globl	_ZN88_$LT$alloc..collections..btree..map..UnorderedKeyError$u20$as$u20$core..fmt..Display$GT$3fmt17h66047798732a1366E
	.p2align	1
	.type	_ZN88_$LT$alloc..collections..btree..map..UnorderedKeyError$u20$as$u20$core..fmt..Display$GT$3fmt17h66047798732a1366E,@function
_ZN88_$LT$alloc..collections..btree..map..UnorderedKeyError$u20$as$u20$core..fmt..Display$GT$3fmt17h66047798732a1366E:
.Lfunc_begin28:
	.file	23 "/Users/steve/.rustup/toolchains/nightly-2024-02-01-aarch64-apple-darwin/lib/rustlib/src/rust/library/alloc" "src/collections/btree/map.rs"
	.loc	23 3342 0 is_stmt 1
	.cfi_startproc
	addi	sp, sp, -32
	.cfi_def_cfa_offset 32
	sw	ra, 28(sp)
	.cfi_offset ra, -4
	mv	a0, a1
.Ltmp382:
	.loc	1 325 9 prologue_end
	lui	a1, %hi(.L__unnamed_16)
	addi	a1, a1, %lo(.L__unnamed_16)
.Ltmp383:
	sw	a1, 4(sp)
	li	a1, 1
.Ltmp384:
	sw	a1, 8(sp)
	sw	zero, 20(sp)
	lui	a1, %hi(.L__unnamed_9)
	addi	a1, a1, %lo(.L__unnamed_9)
	sw	a1, 12(sp)
	sw	zero, 16(sp)
.Ltmp385:
	.loc	23 3343 9
	addi	a1, sp, 4
	call	_ZN4core3fmt9Formatter9write_fmt17hf1a4b1e0be961690E
.Ltmp386:
	.loc	23 3344 6
	lw	ra, 28(sp)
	.loc	23 3344 6 epilogue_begin is_stmt 0
	addi	sp, sp, 32
	ret
.Ltmp387:
.Lfunc_end28:
	.size	_ZN88_$LT$alloc..collections..btree..map..UnorderedKeyError$u20$as$u20$core..fmt..Display$GT$3fmt17h66047798732a1366E, .Lfunc_end28-_ZN88_$LT$alloc..collections..btree..map..UnorderedKeyError$u20$as$u20$core..fmt..Display$GT$3fmt17h66047798732a1366E
	.cfi_endproc
	.file	24 "/Users/steve/.rustup/toolchains/nightly-2024-02-01-aarch64-apple-darwin/lib/rustlib/src/rust/library/core/src/macros" "mod.rs"

	.section	".text._ZN93_$LT$alloc..collections..btree..mem..replace..PanicGuard$u20$as$u20$core..ops..drop..Drop$GT$4drop17h6cf124c78e68baa2E","ax",@progbits
	.globl	_ZN93_$LT$alloc..collections..btree..mem..replace..PanicGuard$u20$as$u20$core..ops..drop..Drop$GT$4drop17h6cf124c78e68baa2E
	.p2align	1
	.type	_ZN93_$LT$alloc..collections..btree..mem..replace..PanicGuard$u20$as$u20$core..ops..drop..Drop$GT$4drop17h6cf124c78e68baa2E,@function
_ZN93_$LT$alloc..collections..btree..mem..replace..PanicGuard$u20$as$u20$core..ops..drop..Drop$GT$4drop17h6cf124c78e68baa2E:
.Lfunc_begin29:
	.cfi_startproc
	.file	25 "/Users/steve/.rustup/toolchains/nightly-2024-02-01-aarch64-apple-darwin/lib/rustlib/src/rust/library/alloc" "src/collections/btree/mem.rs"
	.loc	25 24 13 prologue_end is_stmt 1
	unimp
.Ltmp388:
.Lfunc_end29:
	.size	_ZN93_$LT$alloc..collections..btree..mem..replace..PanicGuard$u20$as$u20$core..ops..drop..Drop$GT$4drop17h6cf124c78e68baa2E, .Lfunc_end29-_ZN93_$LT$alloc..collections..btree..mem..replace..PanicGuard$u20$as$u20$core..ops..drop..Drop$GT$4drop17h6cf124c78e68baa2E
	.cfi_endproc

	.section	".text._ZN74_$LT$alloc..collections..TryReserveError$u20$as$u20$core..fmt..Display$GT$3fmt17h85592ba8b1f791c8E","ax",@progbits
	.globl	_ZN74_$LT$alloc..collections..TryReserveError$u20$as$u20$core..fmt..Display$GT$3fmt17h85592ba8b1f791c8E
	.p2align	1
	.type	_ZN74_$LT$alloc..collections..TryReserveError$u20$as$u20$core..fmt..Display$GT$3fmt17h85592ba8b1f791c8E,@function
_ZN74_$LT$alloc..collections..TryReserveError$u20$as$u20$core..fmt..Display$GT$3fmt17h85592ba8b1f791c8E:
.Lfunc_begin30:
	.file	26 "/Users/steve/.rustup/toolchains/nightly-2024-02-01-aarch64-apple-darwin/lib/rustlib/src/rust/library/alloc" "src/collections/mod.rs"
	.loc	26 132 0
	.cfi_startproc
	addi	sp, sp, -16
	.cfi_def_cfa_offset 16
	sw	ra, 12(sp)
	sw	s0, 8(sp)
	sw	s1, 4(sp)
	.cfi_offset ra, -4
	.cfi_offset s0, -8
	.cfi_offset s1, -12
	mv	s0, a1
.Ltmp389:
	mv	s1, a0
.Ltmp390:
	.loc	26 136 9 prologue_end
	lui	a0, %hi(.L__unnamed_17)
	addi	a1, a0, %lo(.L__unnamed_17)
	li	a2, 24
	mv	a0, s0
	call	_ZN4core3fmt9Formatter9write_str17h7b224d3eb3847887E
	beqz	a0, .LBB30_2
.Ltmp391:
	.loc	26 146 6
	li	a0, 1
	lw	ra, 12(sp)
	lw	s0, 8(sp)
.Ltmp392:
	lw	s1, 4(sp)
.Ltmp393:
	.loc	26 146 6 epilogue_begin is_stmt 0
	addi	sp, sp, 16
	ret
.LBB30_2:
.Ltmp394:
	.loc	26 137 28 is_stmt 1
	lw	a0, 0(s1)
	.loc	26 0 0 is_stmt 0
	beqz	a0, .LBB30_4
.Ltmp395:
	lui	a0, %hi(.L__unnamed_18)
	addi	a1, a0, %lo(.L__unnamed_18)
	li	a2, 47
	j	.LBB30_5
.Ltmp396:
.LBB30_4:
	lui	a0, %hi(.L__unnamed_19)
	addi	a1, a0, %lo(.L__unnamed_19)
	li	a2, 64
.Ltmp397:
.LBB30_5:
	.loc	26 145 9 is_stmt 1
	mv	a0, s0
	lw	ra, 12(sp)
	lw	s0, 8(sp)
.Ltmp398:
	lw	s1, 4(sp)
.Ltmp399:
	.loc	26 145 9 epilogue_begin is_stmt 0
	addi	sp, sp, 16
	tail	_ZN4core3fmt9Formatter9write_str17h7b224d3eb3847887E
.Ltmp400:
.Lfunc_end30:
	.size	_ZN74_$LT$alloc..collections..TryReserveError$u20$as$u20$core..fmt..Display$GT$3fmt17h85592ba8b1f791c8E, .Lfunc_end30-_ZN74_$LT$alloc..collections..TryReserveError$u20$as$u20$core..fmt..Display$GT$3fmt17h85592ba8b1f791c8E
	.cfi_endproc

	.section	".text._ZN72_$LT$$RF$str$u20$as$u20$alloc..ffi..c_str..CString..new..SpecNewImpl$GT$13spec_new_impl17h2f7ad187a9fe2de8E","ax",@progbits
	.globl	_ZN72_$LT$$RF$str$u20$as$u20$alloc..ffi..c_str..CString..new..SpecNewImpl$GT$13spec_new_impl17h2f7ad187a9fe2de8E
	.p2align	1
	.type	_ZN72_$LT$$RF$str$u20$as$u20$alloc..ffi..c_str..CString..new..SpecNewImpl$GT$13spec_new_impl17h2f7ad187a9fe2de8E,@function
_ZN72_$LT$$RF$str$u20$as$u20$alloc..ffi..c_str..CString..new..SpecNewImpl$GT$13spec_new_impl17h2f7ad187a9fe2de8E:
.Lfunc_begin31:
	.file	27 "/Users/steve/.rustup/toolchains/nightly-2024-02-01-aarch64-apple-darwin/lib/rustlib/src/rust/library/alloc" "src/ffi/c_str.rs"
	.loc	27 305 0 is_stmt 1
	.cfi_startproc
	addi	sp, sp, -48
	.cfi_def_cfa_offset 48
.Ltmp401:
	.loc	7 1256 5 prologue_end
	sw	ra, 44(sp)
	sw	s0, 40(sp)
	sw	s1, 36(sp)
	sw	s2, 32(sp)
	sw	s3, 28(sp)
	sw	s4, 24(sp)
	.cfi_offset ra, -4
	.cfi_offset s0, -8
	.cfi_offset s1, -12
	.cfi_offset s2, -16
	.cfi_offset s3, -20
	.cfi_offset s4, -24
	addi	s4, a2, 1
.Ltmp402:
	.file	28 "/Users/steve/.rustup/toolchains/nightly-2024-02-01-aarch64-apple-darwin/lib/rustlib/src/rust/library/core/src" "option.rs"
	.loc	28 929 9
	beqz	s4, .LBB31_14
.Ltmp403:
	.loc	3 190 26
	bltz	s4, .LBB31_15
.Ltmp404:
	.loc	3 0 26 is_stmt 0
	mv	s1, a2
.Ltmp405:
	mv	s0, a1
.Ltmp406:
	mv	s2, a0
.Ltmp407:
	.loc	2 1583 9 is_stmt 1
	lui	a0, %hi(__rust_no_alloc_shim_is_unstable)
	lbu	a0, %lo(__rust_no_alloc_shim_is_unstable)(a0)
.Ltmp408:
	.loc	4 98 9
	li	a1, 1
	mv	a0, s4
	call	__rust_alloc
.Ltmp409:
	.loc	3 202 23
	beqz	a0, .LBB31_16
.Ltmp410:
	.loc	27 0 0 is_stmt 0
	mv	s3, a0
.Ltmp411:
	.loc	13 2774 9 is_stmt 1
	mv	a1, s0
	mv	a2, s1
	call	memcpy@plt
	li	a0, 8
.Ltmp412:
	.file	29 "/Users/steve/.rustup/toolchains/nightly-2024-02-01-aarch64-apple-darwin/lib/rustlib/src/rust/library/core/src/slice" "memchr.rs"
	.loc	29 29 8
	bgeu	s1, a0, .LBB31_8
.Ltmp413:
	.loc	29 0 8 is_stmt 0
	li	a1, 0
.Ltmp414:
	.loc	29 42 11 is_stmt 1
	beqz	s1, .LBB31_9
.Ltmp415:
.LBB31_5:
	.loc	29 43 12
	add	a0, s0, a1
	lbu	a0, 0(a0)
	beqz	a0, .LBB31_11
.Ltmp416:
	.loc	29 47 9
	addi	a1, a1, 1
.Ltmp417:
	.loc	29 42 11
	bne	s1, a1, .LBB31_5
.Ltmp418:
	.loc	29 0 11 is_stmt 0
	li	a0, 0
	mv	a1, s1
	.loc	27 292 13 is_stmt 1
	bnez	zero, .LBB31_10
	j	.LBB31_12
.Ltmp419:
.LBB31_8:
	.loc	29 33 5
	li	a0, 0
	mv	a1, s0
	mv	a2, s1
	call	_ZN4core5slice6memchr14memchr_aligned17h89faedcaee705f81E
.Ltmp420:
	.loc	27 292 13
	bnez	a0, .LBB31_10
	j	.LBB31_12
.Ltmp421:
.LBB31_9:
	.loc	27 0 13 is_stmt 0
	li	a0, 0
	.loc	27 292 13
	beqz	zero, .LBB31_12
.Ltmp422:
.LBB31_10:
	.loc	27 293 28 is_stmt 1
	sw	s3, 4(s2)
	sw	s1, 8(s2)
	sw	a1, 12(s2)
	j	.LBB31_13
.Ltmp423:
.LBB31_11:
	.loc	27 0 28 is_stmt 0
	li	a0, 1
	.loc	27 292 13 is_stmt 1
	bnez	a0, .LBB31_10
.Ltmp424:
.LBB31_12:
	.loc	27 294 66
	sw	s4, 12(sp)
	sw	s3, 16(sp)
	sw	s1, 20(sp)
	.loc	27 294 37 is_stmt 0
	addi	a0, sp, 12
	call	_ZN5alloc3ffi5c_str7CString19_from_vec_unchecked17hde3f897ea3838e84E
	.loc	27 294 25
	sw	a0, 4(s2)
	sw	a1, 8(s2)
	lui	s4, 524288
.Ltmp425:
.LBB31_13:
	.loc	27 0 0
	sw	s4, 0(s2)
.Ltmp426:
	.loc	27 307 14 is_stmt 1
	lw	ra, 44(sp)
	lw	s0, 40(sp)
.Ltmp427:
	lw	s1, 36(sp)
.Ltmp428:
	lw	s2, 32(sp)
	lw	s3, 28(sp)
.Ltmp429:
	lw	s4, 24(sp)
	.loc	27 307 14 epilogue_begin is_stmt 0
	addi	sp, sp, 48
	ret
.LBB31_14:
.Ltmp430:
	.loc	28 931 21 is_stmt 1
	lui	a0, %hi(.L__unnamed_20)
	addi	a0, a0, %lo(.L__unnamed_20)
	call	_ZN4core6option13unwrap_failed17h5a682c2fc4a98cd4E
.Ltmp431:
.LBB31_15:
	.loc	3 192 27
	call	_ZN5alloc7raw_vec17capacity_overflow17h6deb98aaf45da7a0E
.Ltmp432:
.LBB31_16:
	.loc	3 204 27
	li	a0, 1
.Ltmp433:
	mv	a1, s4
	call	_ZN5alloc5alloc18handle_alloc_error17h7e3d1e4e5e7ceb74E
.Ltmp434:
.Lfunc_end31:
	.size	_ZN72_$LT$$RF$str$u20$as$u20$alloc..ffi..c_str..CString..new..SpecNewImpl$GT$13spec_new_impl17h2f7ad187a9fe2de8E, .Lfunc_end31-_ZN72_$LT$$RF$str$u20$as$u20$alloc..ffi..c_str..CString..new..SpecNewImpl$GT$13spec_new_impl17h2f7ad187a9fe2de8E
	.cfi_endproc

	.section	".text._ZN89_$LT$$RF$mut$u20$$u5b$u8$u5d$$u20$as$u20$alloc..ffi..c_str..CString..new..SpecNewImpl$GT$13spec_new_impl17he6c17cdff6a3716eE","ax",@progbits
	.globl	_ZN89_$LT$$RF$mut$u20$$u5b$u8$u5d$$u20$as$u20$alloc..ffi..c_str..CString..new..SpecNewImpl$GT$13spec_new_impl17he6c17cdff6a3716eE
	.p2align	1
	.type	_ZN89_$LT$$RF$mut$u20$$u5b$u8$u5d$$u20$as$u20$alloc..ffi..c_str..CString..new..SpecNewImpl$GT$13spec_new_impl17he6c17cdff6a3716eE,@function
_ZN89_$LT$$RF$mut$u20$$u5b$u8$u5d$$u20$as$u20$alloc..ffi..c_str..CString..new..SpecNewImpl$GT$13spec_new_impl17he6c17cdff6a3716eE:
.Lfunc_begin32:
	.loc	27 311 0
	.cfi_startproc
	addi	sp, sp, -48
	.cfi_def_cfa_offset 48
.Ltmp435:
	.loc	7 1256 5 prologue_end
	sw	ra, 44(sp)
	sw	s0, 40(sp)
	sw	s1, 36(sp)
	sw	s2, 32(sp)
	sw	s3, 28(sp)
	sw	s4, 24(sp)
	.cfi_offset ra, -4
	.cfi_offset s0, -8
	.cfi_offset s1, -12
	.cfi_offset s2, -16
	.cfi_offset s3, -20
	.cfi_offset s4, -24
	addi	s4, a2, 1
.Ltmp436:
	.loc	28 929 9
	beqz	s4, .LBB32_14
.Ltmp437:
	.loc	3 190 26
	bltz	s4, .LBB32_15
.Ltmp438:
	.loc	3 0 26 is_stmt 0
	mv	s1, a2
.Ltmp439:
	mv	s0, a1
.Ltmp440:
	mv	s2, a0
.Ltmp441:
	.loc	2 1583 9 is_stmt 1
	lui	a0, %hi(__rust_no_alloc_shim_is_unstable)
	lbu	a0, %lo(__rust_no_alloc_shim_is_unstable)(a0)
.Ltmp442:
	.loc	4 98 9
	li	a1, 1
	mv	a0, s4
	call	__rust_alloc
.Ltmp443:
	.loc	3 202 23
	beqz	a0, .LBB32_16
.Ltmp444:
	.loc	27 0 0 is_stmt 0
	mv	s3, a0
.Ltmp445:
	.loc	13 2774 9 is_stmt 1
	mv	a1, s0
	mv	a2, s1
	call	memcpy@plt
	li	a0, 8
.Ltmp446:
	.loc	29 29 8
	bgeu	s1, a0, .LBB32_8
.Ltmp447:
	.loc	29 0 8 is_stmt 0
	li	a1, 0
.Ltmp448:
	.loc	29 42 11 is_stmt 1
	beqz	s1, .LBB32_9
.Ltmp449:
.LBB32_5:
	.loc	29 43 12
	add	a0, s0, a1
	lbu	a0, 0(a0)
	beqz	a0, .LBB32_11
.Ltmp450:
	.loc	29 47 9
	addi	a1, a1, 1
.Ltmp451:
	.loc	29 42 11
	bne	s1, a1, .LBB32_5
.Ltmp452:
	.loc	29 0 11 is_stmt 0
	li	a0, 0
	mv	a1, s1
	.loc	27 292 13 is_stmt 1
	bnez	zero, .LBB32_10
	j	.LBB32_12
.Ltmp453:
.LBB32_8:
	.loc	29 33 5
	li	a0, 0
	mv	a1, s0
	mv	a2, s1
	call	_ZN4core5slice6memchr14memchr_aligned17h89faedcaee705f81E
.Ltmp454:
	.loc	27 292 13
	bnez	a0, .LBB32_10
	j	.LBB32_12
.Ltmp455:
.LBB32_9:
	.loc	27 0 13 is_stmt 0
	li	a0, 0
	.loc	27 292 13
	beqz	zero, .LBB32_12
.Ltmp456:
.LBB32_10:
	.loc	27 293 28 is_stmt 1
	sw	s3, 4(s2)
	sw	s1, 8(s2)
	sw	a1, 12(s2)
	j	.LBB32_13
.Ltmp457:
.LBB32_11:
	.loc	27 0 28 is_stmt 0
	li	a0, 1
	.loc	27 292 13 is_stmt 1
	bnez	a0, .LBB32_10
.Ltmp458:
.LBB32_12:
	.loc	27 294 66
	sw	s4, 12(sp)
	sw	s3, 16(sp)
	sw	s1, 20(sp)
	.loc	27 294 37 is_stmt 0
	addi	a0, sp, 12
	call	_ZN5alloc3ffi5c_str7CString19_from_vec_unchecked17hde3f897ea3838e84E
	.loc	27 294 25
	sw	a0, 4(s2)
	sw	a1, 8(s2)
	lui	s4, 524288
.Ltmp459:
.LBB32_13:
	.loc	27 0 0
	sw	s4, 0(s2)
.Ltmp460:
	.loc	27 313 14 is_stmt 1
	lw	ra, 44(sp)
	lw	s0, 40(sp)
.Ltmp461:
	lw	s1, 36(sp)
.Ltmp462:
	lw	s2, 32(sp)
	lw	s3, 28(sp)
.Ltmp463:
	lw	s4, 24(sp)
	.loc	27 313 14 epilogue_begin is_stmt 0
	addi	sp, sp, 48
	ret
.LBB32_14:
.Ltmp464:
	.loc	28 931 21 is_stmt 1
	lui	a0, %hi(.L__unnamed_20)
	addi	a0, a0, %lo(.L__unnamed_20)
	call	_ZN4core6option13unwrap_failed17h5a682c2fc4a98cd4E
.Ltmp465:
.LBB32_15:
	.loc	3 192 27
	call	_ZN5alloc7raw_vec17capacity_overflow17h6deb98aaf45da7a0E
.Ltmp466:
.LBB32_16:
	.loc	3 204 27
	li	a0, 1
.Ltmp467:
	mv	a1, s4
	call	_ZN5alloc5alloc18handle_alloc_error17h7e3d1e4e5e7ceb74E
.Ltmp468:
.Lfunc_end32:
	.size	_ZN89_$LT$$RF$mut$u20$$u5b$u8$u5d$$u20$as$u20$alloc..ffi..c_str..CString..new..SpecNewImpl$GT$13spec_new_impl17he6c17cdff6a3716eE, .Lfunc_end32-_ZN89_$LT$$RF$mut$u20$$u5b$u8$u5d$$u20$as$u20$alloc..ffi..c_str..CString..new..SpecNewImpl$GT$13spec_new_impl17he6c17cdff6a3716eE
	.cfi_endproc

	.section	.text._ZN5alloc3ffi5c_str7CString18from_vec_unchecked17h1e637ab8602e4185E,"ax",@progbits
	.globl	_ZN5alloc3ffi5c_str7CString18from_vec_unchecked17h1e637ab8602e4185E
	.p2align	1
	.type	_ZN5alloc3ffi5c_str7CString18from_vec_unchecked17h1e637ab8602e4185E,@function
_ZN5alloc3ffi5c_str7CString18from_vec_unchecked17h1e637ab8602e4185E:
.Lfunc_begin33:
	.cfi_startproc
	.loc	27 342 18 prologue_end
	tail	_ZN5alloc3ffi5c_str7CString19_from_vec_unchecked17hde3f897ea3838e84E
.Ltmp469:
.Lfunc_end33:
	.size	_ZN5alloc3ffi5c_str7CString18from_vec_unchecked17h1e637ab8602e4185E, .Lfunc_end33-_ZN5alloc3ffi5c_str7CString18from_vec_unchecked17h1e637ab8602e4185E
	.cfi_endproc

	.section	.text._ZN5alloc3ffi5c_str7CString19_from_vec_unchecked17hde3f897ea3838e84E,"ax",@progbits
	.globl	_ZN5alloc3ffi5c_str7CString19_from_vec_unchecked17hde3f897ea3838e84E
	.p2align	1
	.type	_ZN5alloc3ffi5c_str7CString19_from_vec_unchecked17hde3f897ea3838e84E,@function
_ZN5alloc3ffi5c_str7CString19_from_vec_unchecked17hde3f897ea3838e84E:
.Lfunc_begin34:
	.loc	27 345 0
	.cfi_startproc
	addi	sp, sp, -48
	.cfi_def_cfa_offset 48
	sw	ra, 44(sp)
	sw	s0, 40(sp)
	sw	s1, 36(sp)
	sw	s2, 32(sp)
	sw	s3, 28(sp)
	.cfi_offset ra, -4
	.cfi_offset s0, -8
	.cfi_offset s1, -12
	.cfi_offset s2, -16
	.cfi_offset s3, -20
	mv	s1, a0
.Ltmp470:
	.loc	15 941 32 prologue_end
	lw	s0, 8(a0)
.Ltmp471:
	.loc	3 247 44
	lw	s2, 0(a0)
.Ltmp472:
	.loc	7 1256 5
	sub	a0, s2, s0
.Ltmp473:
	.loc	3 361 12
	bnez	a0, .LBB34_7
.Ltmp474:
	.loc	7 1256 5
	addi	s3, s0, 1
.Ltmp475:
	.loc	3 449 19
	beqz	s3, .LBB34_17
.Ltmp476:
	.loc	6 449 37 is_stmt 0
	not	a1, s3
	srli	a1, a1, 31
.Ltmp477:
	.loc	3 256 25 is_stmt 1
	beqz	s2, .LBB34_4
.Ltmp478:
	.loc	3 453 43
	lw	a0, 4(s1)
.Ltmp479:
	.loc	3 268 17
	sw	a0, 16(sp)
	li	a0, 1
	sw	a0, 20(sp)
	sw	s2, 24(sp)
	j	.LBB34_5
.Ltmp480:
.LBB34_4:
	.loc	3 257 13
	sw	zero, 20(sp)
.Ltmp481:
.LBB34_5:
	.loc	3 453 19
	addi	a0, sp, 4
	addi	a3, sp, 16
	mv	a2, s3
	call	_ZN5alloc7raw_vec11finish_grow17h9be2ff0fdf9e157eE
.Ltmp482:
	.loc	9 1946 15
	lw	a1, 4(sp)
	.loc	9 1946 9 is_stmt 0
	lw	a0, 8(sp)
.Ltmp483:
	.loc	3 453 19 is_stmt 1
	beqz	a1, .LBB34_15
.Ltmp484:
	.loc	3 0 19 is_stmt 0
	lui	a1, 524288
	addi	a1, a1, 1
	.loc	3 362 13 is_stmt 1
	bne	a0, a1, .LBB34_16
.Ltmp485:
.LBB34_7:
	.loc	3 0 13 is_stmt 0
	bne	s0, s2, .LBB34_9
.Ltmp486:
.LBB34_8:
	.loc	15 1922 13 is_stmt 1
	mv	a0, s1
	mv	a1, s0
	call	_ZN5alloc7raw_vec19RawVec$LT$T$C$A$GT$16reserve_for_push17hd330d0d5c0992dd6E
	.loc	15 1925 45
	lw	s0, 8(s1)
.Ltmp487:
	.loc	27 348 23
	lw	s2, 0(s1)
.Ltmp488:
.LBB34_9:
	.loc	3 239 9
	lw	a0, 4(s1)
.Ltmp489:
	.loc	21 1045 18
	add	a1, a0, s0
.Ltmp490:
	.loc	2 1415 9
	sb	zero, 0(a1)
.Ltmp491:
	.loc	15 1927 13
	addi	s0, s0, 1
.Ltmp492:
	sw	s0, 8(s1)
	bgeu	s0, s2, .LBB34_14
.Ltmp493:
	.loc	4 136 14
	li	a2, 1
	mv	a1, s2
	beqz	s0, .LBB34_13
.Ltmp494:
	mv	a3, s0
	call	__rust_realloc
.Ltmp495:
	.loc	9 827 9
	bnez	a0, .LBB34_14
.Ltmp496:
	.loc	3 542 43
	li	a0, 1
	mv	a1, s0
	call	_ZN5alloc5alloc18handle_alloc_error17h7e3d1e4e5e7ceb74E
.Ltmp497:
.LBB34_13:
	.loc	4 117 14
	call	__rust_dealloc
.Ltmp498:
	.loc	4 0 14 is_stmt 0
	li	a0, 1
.Ltmp499:
.LBB34_14:
	.loc	27 349 6 is_stmt 1
	mv	a1, s0
	lw	ra, 44(sp)
	lw	s0, 40(sp)
	lw	s1, 36(sp)
.Ltmp500:
	lw	s2, 32(sp)
	lw	s3, 28(sp)
	.loc	27 349 6 epilogue_begin is_stmt 0
	addi	sp, sp, 48
	ret
.LBB34_15:
.Ltmp501:
	.loc	3 401 9 is_stmt 1
	sw	a0, 4(s1)
	.loc	3 402 9
	sw	s3, 0(s1)
	mv	s2, s3
.Ltmp502:
	.loc	3 0 9 is_stmt 0
	beq	s0, s3, .LBB34_8
	j	.LBB34_9
.Ltmp503:
.LBB34_16:
	.loc	3 362 13 is_stmt 1
	bnez	a0, .LBB34_18
.Ltmp504:
.LBB34_17:
	.loc	3 541 34
	call	_ZN5alloc7raw_vec17capacity_overflow17h6deb98aaf45da7a0E
.Ltmp505:
.LBB34_18:
	.loc	3 0 34 is_stmt 0
	lw	a1, 12(sp)
.Ltmp506:
	.loc	3 542 43 is_stmt 1
	call	_ZN5alloc5alloc18handle_alloc_error17h7e3d1e4e5e7ceb74E
.Ltmp507:
.Lfunc_end34:
	.size	_ZN5alloc3ffi5c_str7CString19_from_vec_unchecked17hde3f897ea3838e84E, .Lfunc_end34-_ZN5alloc3ffi5c_str7CString19_from_vec_unchecked17hde3f897ea3838e84E
	.cfi_endproc

	.section	.text._ZN5alloc3ffi5c_str7CString8from_raw17h976c737384769bbcE,"ax",@progbits
	.globl	_ZN5alloc3ffi5c_str7CString8from_raw17h976c737384769bbcE
	.p2align	1
	.type	_ZN5alloc3ffi5c_str7CString8from_raw17h976c737384769bbcE,@function
_ZN5alloc3ffi5c_str7CString8from_raw17h976c737384769bbcE:
.Lfunc_begin35:
	.loc	27 397 0
	.cfi_startproc
	addi	sp, sp, -16
	.cfi_def_cfa_offset 16
	sw	ra, 12(sp)
	sw	s0, 8(sp)
	.cfi_offset ra, -4
	.cfi_offset s0, -8
	mv	s0, a0
.Ltmp508:
	.loc	27 408 23 prologue_end
	call	strlen
	addi	a1, a0, 1
	.loc	27 412 6
	mv	a0, s0
	lw	ra, 12(sp)
	lw	s0, 8(sp)
.Ltmp509:
	.loc	27 412 6 epilogue_begin is_stmt 0
	addi	sp, sp, 16
	ret
.Ltmp510:
.Lfunc_end35:
	.size	_ZN5alloc3ffi5c_str7CString8from_raw17h976c737384769bbcE, .Lfunc_end35-_ZN5alloc3ffi5c_str7CString8from_raw17h976c737384769bbcE
	.cfi_endproc

	.section	.text._ZN5alloc3ffi5c_str7CString11into_string17h234fcc52d75bd4d2E,"ax",@progbits
	.globl	_ZN5alloc3ffi5c_str7CString11into_string17h234fcc52d75bd4d2E
	.p2align	1
	.type	_ZN5alloc3ffi5c_str7CString11into_string17h234fcc52d75bd4d2E,@function
_ZN5alloc3ffi5c_str7CString11into_string17h234fcc52d75bd4d2E:
.Lfunc_begin36:
	.loc	27 473 0 is_stmt 1
	.cfi_startproc
	addi	sp, sp, -48
	.cfi_def_cfa_offset 48
	sw	ra, 44(sp)
	sw	s0, 40(sp)
	sw	s1, 36(sp)
	sw	s2, 32(sp)
	sw	s3, 28(sp)
	sw	s4, 24(sp)
	sw	s5, 20(sp)
	.cfi_offset ra, -4
	.cfi_offset s0, -8
	.cfi_offset s1, -12
	.cfi_offset s2, -16
	.cfi_offset s3, -20
	.cfi_offset s4, -24
	.cfi_offset s5, -28
	mv	s1, a2
.Ltmp511:
	mv	s3, a1
.Ltmp512:
	mv	s0, a0
.Ltmp513:
	.loc	15 1994 12 prologue_end
	addi	a0, a2, -1
	sltu	a1, a2, a0
	addi	a1, a1, -1
	and	s2, a1, a0
.Ltmp514:
	.loc	16 564 15
	addi	a0, sp, 8
	mv	a1, s3
	mv	a2, s2
	call	_ZN4core3str8converts9from_utf817ha99b467393d877c8E
	lw	a0, 8(sp)
	.loc	16 564 9 is_stmt 0
	beqz	a0, .LBB36_3
.Ltmp515:
	.loc	16 566 17 is_stmt 1
	lw	s4, 12(sp)
.Ltmp516:
	.loc	16 0 17 is_stmt 0
	lui	a0, 524288
.Ltmp517:
	.loc	9 827 9 is_stmt 1
	bne	s1, a0, .LBB36_5
.Ltmp518:
	.loc	9 0 9 is_stmt 0
	mv	s1, s3
.Ltmp519:
	j	.LBB36_4
.Ltmp520:
.LBB36_3:
	mv	s4, s2
	mv	s2, s3
.Ltmp521:
.LBB36_4:
	.loc	9 828 22 is_stmt 1
	sw	s1, 0(s0)
	sw	s2, 4(s0)
	sw	s4, 8(s0)
	li	a0, 2
	sb	a0, 12(s0)
	j	.LBB36_6
.Ltmp522:
.LBB36_5:
	.loc	27 474 9
	lw	s5, 16(sp)
.Ltmp523:
	.loc	9 829 17
	sw	s1, 8(sp)
	sw	s3, 12(sp)
	sw	s2, 16(sp)
.Ltmp524:
	.loc	27 476 29
	addi	a0, sp, 8
	call	_ZN5alloc3ffi5c_str7CString19_from_vec_unchecked17hde3f897ea3838e84E
.Ltmp525:
	.loc	9 829 23
	sw	a0, 0(s0)
	sw	a1, 4(s0)
	sw	s5, 12(s0)
	sw	s4, 8(s0)
.Ltmp526:
.LBB36_6:
	.loc	27 478 6
	lw	ra, 44(sp)
	lw	s0, 40(sp)
	lw	s1, 36(sp)
	lw	s2, 32(sp)
	lw	s3, 28(sp)
	lw	s4, 24(sp)
	lw	s5, 20(sp)
	.loc	27 478 6 epilogue_begin is_stmt 0
	addi	sp, sp, 48
	ret
.Ltmp527:
.Lfunc_end36:
	.size	_ZN5alloc3ffi5c_str7CString11into_string17h234fcc52d75bd4d2E, .Lfunc_end36-_ZN5alloc3ffi5c_str7CString11into_string17h234fcc52d75bd4d2E
	.cfi_endproc

	.section	.text._ZN5alloc3ffi5c_str7CString10into_bytes17hb3e8a72dfe6289f5E,"ax",@progbits
	.globl	_ZN5alloc3ffi5c_str7CString10into_bytes17hb3e8a72dfe6289f5E
	.p2align	1
	.type	_ZN5alloc3ffi5c_str7CString10into_bytes17hb3e8a72dfe6289f5E,@function
_ZN5alloc3ffi5c_str7CString10into_bytes17hb3e8a72dfe6289f5E:
.Lfunc_begin37:
	.cfi_startproc
	.loc	15 1994 12 prologue_end is_stmt 1
	addi	a3, a2, -1
	sltu	a4, a2, a3
	addi	a4, a4, -1
	and	a3, a3, a4
.Ltmp528:
	.loc	27 501 9
	sw	a2, 0(a0)
	sw	a1, 4(a0)
	sw	a3, 8(a0)
.Ltmp529:
	.loc	27 502 6
	ret
.Ltmp530:
.Lfunc_end37:
	.size	_ZN5alloc3ffi5c_str7CString10into_bytes17hb3e8a72dfe6289f5E, .Lfunc_end37-_ZN5alloc3ffi5c_str7CString10into_bytes17hb3e8a72dfe6289f5E
	.cfi_endproc

	.section	.text._ZN5alloc3ffi5c_str7CString19into_bytes_with_nul17h4e13614d10cb36e4E,"ax",@progbits
	.globl	_ZN5alloc3ffi5c_str7CString19into_bytes_with_nul17h4e13614d10cb36e4E
	.p2align	1
	.type	_ZN5alloc3ffi5c_str7CString19into_bytes_with_nul17h4e13614d10cb36e4E,@function
_ZN5alloc3ffi5c_str7CString19into_bytes_with_nul17h4e13614d10cb36e4E:
.Lfunc_begin38:
	.cfi_startproc
	.loc	15 786 18 prologue_end
	sw	a2, 0(a0)
	sw	a1, 4(a0)
	sw	a2, 8(a0)
.Ltmp531:
	.loc	27 520 6
	ret
.Ltmp532:
.Lfunc_end38:
	.size	_ZN5alloc3ffi5c_str7CString19into_bytes_with_nul17h4e13614d10cb36e4E, .Lfunc_end38-_ZN5alloc3ffi5c_str7CString19into_bytes_with_nul17h4e13614d10cb36e4E
	.cfi_endproc

	.section	.text._ZN5alloc3ffi5c_str7CString27from_vec_with_nul_unchecked17h72189776f41f361cE,"ax",@progbits
	.globl	_ZN5alloc3ffi5c_str7CString27from_vec_with_nul_unchecked17h72189776f41f361cE
	.p2align	1
	.type	_ZN5alloc3ffi5c_str7CString27from_vec_with_nul_unchecked17h72189776f41f361cE,@function
_ZN5alloc3ffi5c_str7CString27from_vec_with_nul_unchecked17h72189776f41f361cE:
.Lfunc_begin39:
	.loc	27 632 0
	.cfi_startproc
	addi	sp, sp, -16
	.cfi_def_cfa_offset 16
	sw	ra, 12(sp)
	sw	s0, 8(sp)
	sw	s1, 4(sp)
	sw	s2, 0(sp)
	.cfi_offset ra, -4
	.cfi_offset s0, -8
	.cfi_offset s1, -12
	.cfi_offset s2, -16
	mv	s1, a0
.Ltmp533:
	.loc	3 247 44 prologue_end
	lw	a1, 0(a0)
.Ltmp534:
	.loc	15 1047 30
	lw	s2, 8(a0)
	.loc	15 1047 12 is_stmt 0
	bgeu	s2, a1, .LBB39_4
.Ltmp535:
	.loc	3 465 48 is_stmt 1
	lw	a0, 4(s1)
.Ltmp536:
	.loc	4 136 14
	li	a2, 1
.Ltmp537:
	.loc	3 472 12
	beqz	s2, .LBB39_5
.Ltmp538:
	.loc	4 136 14
	mv	a3, s2
	call	__rust_realloc
.Ltmp539:
	mv	s0, a0
.Ltmp540:
	.loc	9 827 9
	bnez	a0, .LBB39_6
.Ltmp541:
	.loc	3 542 43
	li	a0, 1
	mv	a1, s2
	call	_ZN5alloc5alloc18handle_alloc_error17h7e3d1e4e5e7ceb74E
.Ltmp542:
.LBB39_4:
	.loc	15 1108 40
	lw	s0, 4(s1)
	j	.LBB39_7
.Ltmp543:
.LBB39_5:
	.loc	15 0 40 is_stmt 0
	li	s0, 1
.Ltmp544:
	.loc	4 117 14 is_stmt 1
	call	__rust_dealloc
.Ltmp545:
.LBB39_6:
	.loc	3 0 0 is_stmt 0
	sw	s0, 4(s1)
	sw	s2, 0(s1)
.Ltmp546:
.LBB39_7:
	.loc	27 635 6 is_stmt 1
	mv	a0, s0
	mv	a1, s2
	lw	ra, 12(sp)
	lw	s0, 8(sp)
	lw	s1, 4(sp)
.Ltmp547:
	lw	s2, 0(sp)
	.loc	27 635 6 epilogue_begin is_stmt 0
	addi	sp, sp, 16
	ret
.Ltmp548:
.Lfunc_end39:
	.size	_ZN5alloc3ffi5c_str7CString27from_vec_with_nul_unchecked17h72189776f41f361cE, .Lfunc_end39-_ZN5alloc3ffi5c_str7CString27from_vec_with_nul_unchecked17h72189776f41f361cE
	.cfi_endproc

	.section	.text._ZN5alloc3ffi5c_str7CString17from_vec_with_nul17ha0e720d9b6719aa3E,"ax",@progbits
	.globl	_ZN5alloc3ffi5c_str7CString17from_vec_with_nul17ha0e720d9b6719aa3E
	.p2align	1
	.type	_ZN5alloc3ffi5c_str7CString17from_vec_with_nul17ha0e720d9b6719aa3E,@function
_ZN5alloc3ffi5c_str7CString17from_vec_with_nul17ha0e720d9b6719aa3E:
.Lfunc_begin40:
	.loc	27 675 0 is_stmt 1
	.cfi_startproc
	addi	sp, sp, -32
	.cfi_def_cfa_offset 32
	sw	ra, 28(sp)
	sw	s0, 24(sp)
	sw	s1, 20(sp)
	sw	s2, 16(sp)
	sw	s3, 12(sp)
	.cfi_offset ra, -4
	.cfi_offset s0, -8
	.cfi_offset s1, -12
	.cfi_offset s2, -16
	.cfi_offset s3, -20
	mv	s3, a1
.Ltmp549:
	.loc	15 2706 55 prologue_end
	lw	s1, 8(a1)
.Ltmp550:
	.loc	3 239 9
	lw	s0, 4(a1)
	li	a1, 8
	mv	s2, a0
.Ltmp551:
	.loc	29 29 8
	bgeu	s1, a1, .LBB40_5
.Ltmp552:
	.loc	29 0 8 is_stmt 0
	li	a1, 0
.Ltmp553:
	.loc	29 42 11 is_stmt 1
	beqz	s1, .LBB40_6
.Ltmp554:
.LBB40_2:
	.loc	29 43 12
	add	a0, s0, a1
	lbu	a0, 0(a0)
	beqz	a0, .LBB40_13
.Ltmp555:
	.loc	29 47 9
	addi	a1, a1, 1
.Ltmp556:
	.loc	29 42 11
	bne	s1, a1, .LBB40_2
.Ltmp557:
	.loc	29 0 11 is_stmt 0
	li	a0, 0
	mv	a1, s1
.Ltmp558:
	.loc	27 677 9 is_stmt 1
	bnez	zero, .LBB40_7
	j	.LBB40_14
.Ltmp559:
.LBB40_5:
	.loc	29 33 5
	li	a0, 0
	mv	a1, s0
	mv	a2, s1
	call	_ZN4core5slice6memchr14memchr_aligned17h89faedcaee705f81E
.Ltmp560:
	.loc	27 677 9
	bnez	a0, .LBB40_7
	j	.LBB40_14
.Ltmp561:
.LBB40_6:
	.loc	27 0 9 is_stmt 0
	li	a0, 0
.Ltmp562:
	.loc	27 677 9
	beqz	zero, .LBB40_14
.Ltmp563:
.LBB40_7:
	.loc	27 678 30 is_stmt 1
	addi	a0, a1, 1
.Ltmp564:
	bne	a0, s1, .LBB40_12
.Ltmp565:
	.loc	27 681 64
	lw	a1, 0(s3)
.Ltmp566:
	.loc	15 1047 12
	bgeu	s1, a1, .LBB40_17
.Ltmp567:
	.loc	4 136 14
	li	a2, 1
	mv	a0, s0
.Ltmp568:
	.loc	3 472 12
	beqz	s1, .LBB40_16
.Ltmp569:
	.loc	4 136 14
	mv	a3, s1
	call	__rust_realloc
.Ltmp570:
	mv	s0, a0
.Ltmp571:
	.loc	9 827 9
	bnez	a0, .LBB40_17
.Ltmp572:
	.loc	3 542 43
	li	a0, 1
	mv	a1, s1
	call	_ZN5alloc5alloc18handle_alloc_error17h7e3d1e4e5e7ceb74E
.Ltmp573:
.LBB40_12:
	.loc	27 683 30
	sw	zero, 0(s2)
	lw	a0, 0(s3)
	lw	a2, 4(s3)
	lw	a3, 8(s3)
	sw	a1, 4(s2)
	sw	a0, 8(s2)
	j	.LBB40_15
.Ltmp574:
.LBB40_13:
	.loc	27 0 30 is_stmt 0
	li	a0, 1
.Ltmp575:
	.loc	27 677 9 is_stmt 1
	bnez	a0, .LBB40_7
.Ltmp576:
.LBB40_14:
	.loc	27 0 9 is_stmt 0
	li	a0, 1
.Ltmp577:
	.loc	27 687 21 is_stmt 1
	lw	a1, 0(s3)
.Ltmp578:
	lw	a2, 4(s3)
	lw	a3, 8(s3)
	sw	a0, 0(s2)
	sw	a1, 8(s2)
.Ltmp579:
.LBB40_15:
	.loc	27 0 0 is_stmt 0
	sw	a2, 12(s2)
	sw	a3, 16(s2)
	j	.LBB40_18
.Ltmp580:
.LBB40_16:
	.loc	4 117 14 is_stmt 1
	call	__rust_dealloc
.Ltmp581:
	.loc	4 0 14 is_stmt 0
	li	s0, 1
.Ltmp582:
.LBB40_17:
	.loc	27 681 17 is_stmt 1
	sw	s0, 4(s2)
	sw	s1, 8(s2)
	li	a0, 2
	sw	a0, 0(s2)
.Ltmp583:
.LBB40_18:
	.loc	27 692 6
	lw	ra, 28(sp)
	lw	s0, 24(sp)
	lw	s1, 20(sp)
	lw	s2, 16(sp)
	lw	s3, 12(sp)
.Ltmp584:
	.loc	27 692 6 epilogue_begin is_stmt 0
	addi	sp, sp, 32
	ret
.Ltmp585:
.Lfunc_end40:
	.size	_ZN5alloc3ffi5c_str7CString17from_vec_with_nul17ha0e720d9b6719aa3E, .Lfunc_end40-_ZN5alloc3ffi5c_str7CString17from_vec_with_nul17ha0e720d9b6719aa3E
	.cfi_endproc

	.section	".text._ZN63_$LT$alloc..ffi..c_str..CString$u20$as$u20$core..fmt..Debug$GT$3fmt17hd0c6c73831913682E","ax",@progbits
	.globl	_ZN63_$LT$alloc..ffi..c_str..CString$u20$as$u20$core..fmt..Debug$GT$3fmt17hd0c6c73831913682E
	.p2align	1
	.type	_ZN63_$LT$alloc..ffi..c_str..CString$u20$as$u20$core..fmt..Debug$GT$3fmt17hd0c6c73831913682E,@function
_ZN63_$LT$alloc..ffi..c_str..CString$u20$as$u20$core..fmt..Debug$GT$3fmt17hd0c6c73831913682E:
.Lfunc_begin41:
	.cfi_startproc
	.loc	27 562 9 prologue_end is_stmt 1
	lw	a2, 0(a0)
	lw	a3, 4(a0)
	mv	a4, a1
.Ltmp586:
	.loc	27 721 9
	mv	a0, a2
.Ltmp587:
	mv	a1, a3
	mv	a2, a4
.Ltmp588:
	tail	_ZN59_$LT$core..ffi..c_str..CStr$u20$as$u20$core..fmt..Debug$GT$3fmt17h7fbd6e96d10fafebE
.Ltmp589:
.Lfunc_end41:
	.size	_ZN63_$LT$alloc..ffi..c_str..CString$u20$as$u20$core..fmt..Debug$GT$3fmt17hd0c6c73831913682E, .Lfunc_end41-_ZN63_$LT$alloc..ffi..c_str..CString$u20$as$u20$core..fmt..Debug$GT$3fmt17hd0c6c73831913682E
	.cfi_endproc

	.section	".text._ZN69_$LT$alloc..ffi..c_str..CString$u20$as$u20$core..default..Default$GT$7default17h3db722d433eb7cc7E","ax",@progbits
	.globl	_ZN69_$LT$alloc..ffi..c_str..CString$u20$as$u20$core..default..Default$GT$7default17h3db722d433eb7cc7E
	.p2align	1
	.type	_ZN69_$LT$alloc..ffi..c_str..CString$u20$as$u20$core..default..Default$GT$7default17h3db722d433eb7cc7E,@function
_ZN69_$LT$alloc..ffi..c_str..CString$u20$as$u20$core..default..Default$GT$7default17h3db722d433eb7cc7E:
.Lfunc_begin42:
	.loc	27 739 0
	.cfi_startproc
	addi	sp, sp, -16
	.cfi_def_cfa_offset 16
.Ltmp590:
	.loc	27 0 0 is_stmt 0
	sw	ra, 12(sp)
	.cfi_offset ra, -4
.Ltmp591:
	.loc	2 1583 9 prologue_end is_stmt 1
	lui	a0, %hi(__rust_no_alloc_shim_is_unstable)
	lbu	a0, %lo(__rust_no_alloc_shim_is_unstable)(a0)
.Ltmp592:
	.loc	4 98 9
	li	a0, 1
	li	a1, 1
	call	__rust_alloc
.Ltmp593:
	.loc	3 202 23
	beqz	a0, .LBB42_2
.Ltmp594:
	.loc	27 742 6
	li	a1, 1
.Ltmp595:
	.loc	13 2774 9
	sb	zero, 0(a0)
.Ltmp596:
	.loc	27 742 6
	lw	ra, 12(sp)
	.loc	27 742 6 epilogue_begin is_stmt 0
	addi	sp, sp, 16
	ret
.Ltmp597:
.LBB42_2:
	.loc	3 204 27 is_stmt 1
	li	a0, 1
.Ltmp598:
	li	a1, 1
	call	_ZN5alloc5alloc18handle_alloc_error17h7e3d1e4e5e7ceb74E
.Ltmp599:
.Lfunc_end42:
	.size	_ZN69_$LT$alloc..ffi..c_str..CString$u20$as$u20$core..default..Default$GT$7default17h3db722d433eb7cc7E, .Lfunc_end42-_ZN69_$LT$alloc..ffi..c_str..CString$u20$as$u20$core..default..Default$GT$7default17h3db722d433eb7cc7E
	.cfi_endproc

	.section	".text._ZN5alloc3ffi5c_str131_$LT$impl$u20$core..convert..From$LT$$RF$core..ffi..c_str..CStr$GT$$u20$for$u20$alloc..boxed..Box$LT$core..ffi..c_str..CStr$GT$$GT$4from17h693f560fbf4f4389E","ax",@progbits
	.globl	_ZN5alloc3ffi5c_str131_$LT$impl$u20$core..convert..From$LT$$RF$core..ffi..c_str..CStr$GT$$u20$for$u20$alloc..boxed..Box$LT$core..ffi..c_str..CStr$GT$$GT$4from17h693f560fbf4f4389E
	.p2align	1
	.type	_ZN5alloc3ffi5c_str131_$LT$impl$u20$core..convert..From$LT$$RF$core..ffi..c_str..CStr$GT$$u20$for$u20$alloc..boxed..Box$LT$core..ffi..c_str..CStr$GT$$GT$4from17h693f560fbf4f4389E,@function
_ZN5alloc3ffi5c_str131_$LT$impl$u20$core..convert..From$LT$$RF$core..ffi..c_str..CStr$GT$$u20$for$u20$alloc..boxed..Box$LT$core..ffi..c_str..CStr$GT$$GT$4from17h693f560fbf4f4389E:
.Lfunc_begin43:
	.loc	27 768 0
	.cfi_startproc
	addi	sp, sp, -16
	.cfi_def_cfa_offset 16
.Ltmp600:
	.loc	12 0 0 is_stmt 0
	sw	ra, 12(sp)
	sw	s0, 8(sp)
	sw	s1, 4(sp)
	sw	s2, 0(sp)
	.cfi_offset ra, -4
	.cfi_offset s0, -8
	.cfi_offset s1, -12
	.cfi_offset s2, -16
.Ltmp601:
	mv	s0, a1
.Ltmp602:
	mv	s2, a0
.Ltmp603:
	.loc	3 185 25 prologue_end is_stmt 1
	beqz	a1, .LBB43_4
.Ltmp604:
	.loc	3 190 26
	bltz	s0, .LBB43_6
.Ltmp605:
	.loc	2 1583 9
	lui	a0, %hi(__rust_no_alloc_shim_is_unstable)
	lbu	a0, %lo(__rust_no_alloc_shim_is_unstable)(a0)
.Ltmp606:
	.loc	4 98 9
	li	a1, 1
	mv	a0, s0
	call	__rust_alloc
	mv	s1, a0
.Ltmp607:
	.loc	3 202 23
	bnez	a0, .LBB43_5
.Ltmp608:
	.loc	3 204 27
	li	a0, 1
	mv	a1, s0
	call	_ZN5alloc5alloc18handle_alloc_error17h7e3d1e4e5e7ceb74E
.Ltmp609:
.LBB43_4:
	.loc	3 0 27 is_stmt 0
	li	s1, 1
.Ltmp610:
.LBB43_5:
	.loc	13 2774 9 is_stmt 1
	mv	a0, s1
	mv	a1, s2
	mv	a2, s0
	call	memcpy@plt
.Ltmp611:
	.loc	27 771 6
	mv	a0, s1
	mv	a1, s0
	lw	ra, 12(sp)
	lw	s0, 8(sp)
.Ltmp612:
	lw	s1, 4(sp)
.Ltmp613:
	lw	s2, 0(sp)
.Ltmp614:
	.loc	27 771 6 epilogue_begin is_stmt 0
	addi	sp, sp, 16
	ret
.Ltmp615:
.LBB43_6:
	.loc	3 192 27 is_stmt 1
	call	_ZN5alloc7raw_vec17capacity_overflow17h6deb98aaf45da7a0E
.Ltmp616:
.Lfunc_end43:
	.size	_ZN5alloc3ffi5c_str131_$LT$impl$u20$core..convert..From$LT$$RF$core..ffi..c_str..CStr$GT$$u20$for$u20$alloc..boxed..Box$LT$core..ffi..c_str..CStr$GT$$GT$4from17h693f560fbf4f4389E, .Lfunc_end43-_ZN5alloc3ffi5c_str131_$LT$impl$u20$core..convert..From$LT$$RF$core..ffi..c_str..CStr$GT$$u20$for$u20$alloc..boxed..Box$LT$core..ffi..c_str..CStr$GT$$GT$4from17h693f560fbf4f4389E
	.cfi_endproc

	.section	".text._ZN5alloc3ffi5c_str100_$LT$impl$u20$core..default..Default$u20$for$u20$alloc..boxed..Box$LT$core..ffi..c_str..CStr$GT$$GT$7default17h177ccb9977935839E","ax",@progbits
	.globl	_ZN5alloc3ffi5c_str100_$LT$impl$u20$core..default..Default$u20$for$u20$alloc..boxed..Box$LT$core..ffi..c_str..CStr$GT$$GT$7default17h177ccb9977935839E
	.p2align	1
	.type	_ZN5alloc3ffi5c_str100_$LT$impl$u20$core..default..Default$u20$for$u20$alloc..boxed..Box$LT$core..ffi..c_str..CStr$GT$$GT$7default17h177ccb9977935839E,@function
_ZN5alloc3ffi5c_str100_$LT$impl$u20$core..default..Default$u20$for$u20$alloc..boxed..Box$LT$core..ffi..c_str..CStr$GT$$GT$7default17h177ccb9977935839E:
.Lfunc_begin44:
	.loc	27 913 0
	.cfi_startproc
	addi	sp, sp, -16
	.cfi_def_cfa_offset 16
.Ltmp617:
	.loc	4 0 0 is_stmt 0
	sw	ra, 12(sp)
	.cfi_offset ra, -4
.Ltmp618:
	.loc	2 1583 9 prologue_end is_stmt 1
	lui	a0, %hi(__rust_no_alloc_shim_is_unstable)
	lbu	a0, %lo(__rust_no_alloc_shim_is_unstable)(a0)
.Ltmp619:
	.loc	4 98 9
	li	a0, 1
	li	a1, 1
	call	__rust_alloc
.Ltmp620:
	.loc	4 330 5
	beqz	a0, .LBB44_2
.Ltmp621:
	.loc	27 916 6
	li	a1, 1
.Ltmp622:
	.loc	12 217 18
	sb	zero, 0(a0)
.Ltmp623:
	.loc	27 916 6
	lw	ra, 12(sp)
	.loc	27 916 6 epilogue_begin is_stmt 0
	addi	sp, sp, 16
	ret
.Ltmp624:
.LBB44_2:
	.loc	4 332 19 is_stmt 1
	li	a0, 1
	li	a1, 1
	call	_ZN5alloc5alloc18handle_alloc_error17h7e3d1e4e5e7ceb74E
.Ltmp625:
.Lfunc_end44:
	.size	_ZN5alloc3ffi5c_str100_$LT$impl$u20$core..default..Default$u20$for$u20$alloc..boxed..Box$LT$core..ffi..c_str..CStr$GT$$GT$7default17h177ccb9977935839E, .Lfunc_end44-_ZN5alloc3ffi5c_str100_$LT$impl$u20$core..default..Default$u20$for$u20$alloc..boxed..Box$LT$core..ffi..c_str..CStr$GT$$GT$7default17h177ccb9977935839E
	.cfi_endproc

	.section	".text._ZN66_$LT$alloc..ffi..c_str..NulError$u20$as$u20$core..fmt..Display$GT$3fmt17h3f190872789e3df3E","ax",@progbits
	.globl	_ZN66_$LT$alloc..ffi..c_str..NulError$u20$as$u20$core..fmt..Display$GT$3fmt17h3f190872789e3df3E
	.p2align	1
	.type	_ZN66_$LT$alloc..ffi..c_str..NulError$u20$as$u20$core..fmt..Display$GT$3fmt17h3f190872789e3df3E,@function
_ZN66_$LT$alloc..ffi..c_str..NulError$u20$as$u20$core..fmt..Display$GT$3fmt17h3f190872789e3df3E:
.Lfunc_begin45:
	.loc	27 960 0
	.cfi_startproc
	addi	sp, sp, -48
	.cfi_def_cfa_offset 48
	sw	ra, 44(sp)
	.cfi_offset ra, -4
	mv	a2, a1
.Ltmp626:
	.loc	27 961 9 prologue_end
	addi	a0, a0, 12
.Ltmp627:
	sw	a0, 36(sp)
	lui	a0, %hi(_ZN4core3fmt3num3imp54_$LT$impl$u20$core..fmt..Display$u20$for$u20$usize$GT$3fmt17h234c5c82398ec9b3E)
	addi	a0, a0, %lo(_ZN4core3fmt3num3imp54_$LT$impl$u20$core..fmt..Display$u20$for$u20$usize$GT$3fmt17h234c5c82398ec9b3E)
	sw	a0, 40(sp)
.Ltmp628:
	.loc	1 335 9
	lui	a0, %hi(.L__unnamed_21)
	addi	a0, a0, %lo(.L__unnamed_21)
.Ltmp629:
	sw	a0, 12(sp)
	li	a0, 1
.Ltmp630:
	sw	a0, 16(sp)
	sw	zero, 28(sp)
	addi	a1, sp, 36
	sw	a1, 20(sp)
	sw	a0, 24(sp)
.Ltmp631:
	.loc	27 961 9
	addi	a1, sp, 12
	mv	a0, a2
.Ltmp632:
	call	_ZN4core3fmt9Formatter9write_fmt17hf1a4b1e0be961690E
.Ltmp633:
	.loc	27 962 6
	lw	ra, 44(sp)
	.loc	27 962 6 epilogue_begin is_stmt 0
	addi	sp, sp, 48
	ret
.Ltmp634:
.Lfunc_end45:
	.size	_ZN66_$LT$alloc..ffi..c_str..NulError$u20$as$u20$core..fmt..Display$GT$3fmt17h3f190872789e3df3E, .Lfunc_end45-_ZN66_$LT$alloc..ffi..c_str..NulError$u20$as$u20$core..fmt..Display$GT$3fmt17h3f190872789e3df3E
	.cfi_endproc

	.section	".text._ZN77_$LT$alloc..ffi..c_str..FromVecWithNulError$u20$as$u20$core..fmt..Display$GT$3fmt17h261f90e37a982fe7E","ax",@progbits
	.globl	_ZN77_$LT$alloc..ffi..c_str..FromVecWithNulError$u20$as$u20$core..fmt..Display$GT$3fmt17h261f90e37a982fe7E
	.p2align	1
	.type	_ZN77_$LT$alloc..ffi..c_str..FromVecWithNulError$u20$as$u20$core..fmt..Display$GT$3fmt17h261f90e37a982fe7E,@function
_ZN77_$LT$alloc..ffi..c_str..FromVecWithNulError$u20$as$u20$core..fmt..Display$GT$3fmt17h261f90e37a982fe7E:
.Lfunc_begin46:
	.loc	27 967 0 is_stmt 1
	.cfi_startproc
	addi	sp, sp, -48
	.cfi_def_cfa_offset 48
	sw	ra, 44(sp)
	.cfi_offset ra, -4
	mv	a2, a0
.Ltmp635:
	.loc	27 968 15 prologue_end
	lw	a3, 0(a0)
	mv	a0, a1
.Ltmp636:
	.loc	27 968 9 is_stmt 0
	beqz	a3, .LBB46_2
.Ltmp637:
	.loc	1 325 9 is_stmt 1
	lui	a1, %hi(.L__unnamed_22)
	addi	a1, a1, %lo(.L__unnamed_22)
.Ltmp638:
	sw	a1, 20(sp)
	li	a1, 1
.Ltmp639:
	sw	a1, 24(sp)
	sw	zero, 36(sp)
	lui	a1, %hi(.L__unnamed_9)
	addi	a1, a1, %lo(.L__unnamed_9)
	sw	a1, 28(sp)
	sw	zero, 32(sp)
	j	.LBB46_3
.Ltmp640:
.LBB46_2:
	.loc	27 969 52
	lw	a1, 4(a2)
	sw	a1, 8(sp)
	addi	a1, sp, 8
.Ltmp641:
	.loc	27 970 17
	sw	a1, 12(sp)
	lui	a1, %hi(_ZN4core3fmt3num3imp54_$LT$impl$u20$core..fmt..Display$u20$for$u20$usize$GT$3fmt17h234c5c82398ec9b3E)
	addi	a1, a1, %lo(_ZN4core3fmt3num3imp54_$LT$impl$u20$core..fmt..Display$u20$for$u20$usize$GT$3fmt17h234c5c82398ec9b3E)
	sw	a1, 16(sp)
.Ltmp642:
	.loc	1 335 9
	lui	a1, %hi(.L__unnamed_23)
	addi	a1, a1, %lo(.L__unnamed_23)
.Ltmp643:
	sw	a1, 20(sp)
	li	a1, 1
.Ltmp644:
	sw	a1, 24(sp)
	sw	zero, 36(sp)
	addi	a2, sp, 12
.Ltmp645:
	sw	a2, 28(sp)
	sw	a1, 32(sp)
.Ltmp646:
.LBB46_3:
	.loc	27 0 0 is_stmt 0
	addi	a1, sp, 20
	call	_ZN4core3fmt9Formatter9write_fmt17hf1a4b1e0be961690E
.Ltmp647:
	.loc	27 976 6 is_stmt 1
	lw	ra, 44(sp)
	.loc	27 976 6 epilogue_begin is_stmt 0
	addi	sp, sp, 48
	ret
.Ltmp648:
.Lfunc_end46:
	.size	_ZN77_$LT$alloc..ffi..c_str..FromVecWithNulError$u20$as$u20$core..fmt..Display$GT$3fmt17h261f90e37a982fe7E, .Lfunc_end46-_ZN77_$LT$alloc..ffi..c_str..FromVecWithNulError$u20$as$u20$core..fmt..Display$GT$3fmt17h261f90e37a982fe7E
	.cfi_endproc

	.section	".text._ZN73_$LT$alloc..ffi..c_str..IntoStringError$u20$as$u20$core..fmt..Display$GT$3fmt17hb33a7988fc4d2c37E","ax",@progbits
	.globl	_ZN73_$LT$alloc..ffi..c_str..IntoStringError$u20$as$u20$core..fmt..Display$GT$3fmt17hb33a7988fc4d2c37E
	.p2align	1
	.type	_ZN73_$LT$alloc..ffi..c_str..IntoStringError$u20$as$u20$core..fmt..Display$GT$3fmt17hb33a7988fc4d2c37E,@function
_ZN73_$LT$alloc..ffi..c_str..IntoStringError$u20$as$u20$core..fmt..Display$GT$3fmt17hb33a7988fc4d2c37E:
.Lfunc_begin47:
	.loc	27 1005 0 is_stmt 1
	.cfi_startproc
	mv	a2, a1
.Ltmp649:
	.loc	27 1006 9 prologue_end
	lui	a0, %hi(.L__unnamed_24)
.Ltmp650:
	addi	a0, a0, %lo(.L__unnamed_24)
	li	a1, 33
	tail	_ZN42_$LT$str$u20$as$u20$core..fmt..Display$GT$3fmt17h45c916f6fbc68766E
.Ltmp651:
.Lfunc_end47:
	.size	_ZN73_$LT$alloc..ffi..c_str..IntoStringError$u20$as$u20$core..fmt..Display$GT$3fmt17hb33a7988fc4d2c37E, .Lfunc_end47-_ZN73_$LT$alloc..ffi..c_str..IntoStringError$u20$as$u20$core..fmt..Display$GT$3fmt17hb33a7988fc4d2c37E
	.cfi_endproc

	.section	".text._ZN5alloc3ffi5c_str75_$LT$impl$u20$alloc..borrow..ToOwned$u20$for$u20$core..ffi..c_str..CStr$GT$8to_owned17h2a66642815ab94f0E","ax",@progbits
	.globl	_ZN5alloc3ffi5c_str75_$LT$impl$u20$alloc..borrow..ToOwned$u20$for$u20$core..ffi..c_str..CStr$GT$8to_owned17h2a66642815ab94f0E
	.p2align	1
	.type	_ZN5alloc3ffi5c_str75_$LT$impl$u20$alloc..borrow..ToOwned$u20$for$u20$core..ffi..c_str..CStr$GT$8to_owned17h2a66642815ab94f0E,@function
_ZN5alloc3ffi5c_str75_$LT$impl$u20$alloc..borrow..ToOwned$u20$for$u20$core..ffi..c_str..CStr$GT$8to_owned17h2a66642815ab94f0E:
.Lfunc_begin48:
	.loc	27 1014 0
	.cfi_startproc
	addi	sp, sp, -16
	.cfi_def_cfa_offset 16
.Ltmp652:
	.loc	12 0 0 is_stmt 0
	sw	ra, 12(sp)
	sw	s0, 8(sp)
	sw	s1, 4(sp)
	sw	s2, 0(sp)
	.cfi_offset ra, -4
	.cfi_offset s0, -8
	.cfi_offset s1, -12
	.cfi_offset s2, -16
.Ltmp653:
	mv	s0, a1
.Ltmp654:
	mv	s2, a0
.Ltmp655:
	.loc	3 185 25 prologue_end is_stmt 1
	beqz	a1, .LBB48_4
.Ltmp656:
	.loc	3 190 26
	bltz	s0, .LBB48_6
.Ltmp657:
	.loc	2 1583 9
	lui	a0, %hi(__rust_no_alloc_shim_is_unstable)
	lbu	a0, %lo(__rust_no_alloc_shim_is_unstable)(a0)
.Ltmp658:
	.loc	4 98 9
	li	a1, 1
	mv	a0, s0
	call	__rust_alloc
	mv	s1, a0
.Ltmp659:
	.loc	3 202 23
	bnez	a0, .LBB48_5
.Ltmp660:
	.loc	3 204 27
	li	a0, 1
	mv	a1, s0
	call	_ZN5alloc5alloc18handle_alloc_error17h7e3d1e4e5e7ceb74E
.Ltmp661:
.LBB48_4:
	.loc	3 0 27 is_stmt 0
	li	s1, 1
.Ltmp662:
.LBB48_5:
	.loc	13 2774 9 is_stmt 1
	mv	a0, s1
	mv	a1, s2
	mv	a2, s0
	call	memcpy@plt
.Ltmp663:
	.loc	27 1016 6
	mv	a0, s1
	mv	a1, s0
	lw	ra, 12(sp)
	lw	s0, 8(sp)
.Ltmp664:
	lw	s1, 4(sp)
.Ltmp665:
	lw	s2, 0(sp)
.Ltmp666:
	.loc	27 1016 6 epilogue_begin is_stmt 0
	addi	sp, sp, 16
	ret
.Ltmp667:
.LBB48_6:
	.loc	3 192 27 is_stmt 1
	call	_ZN5alloc7raw_vec17capacity_overflow17h6deb98aaf45da7a0E
.Ltmp668:
.Lfunc_end48:
	.size	_ZN5alloc3ffi5c_str75_$LT$impl$u20$alloc..borrow..ToOwned$u20$for$u20$core..ffi..c_str..CStr$GT$8to_owned17h2a66642815ab94f0E, .Lfunc_end48-_ZN5alloc3ffi5c_str75_$LT$impl$u20$alloc..borrow..ToOwned$u20$for$u20$core..ffi..c_str..CStr$GT$8to_owned17h2a66642815ab94f0E
	.cfi_endproc

	.section	".text._ZN5alloc3ffi5c_str75_$LT$impl$u20$alloc..borrow..ToOwned$u20$for$u20$core..ffi..c_str..CStr$GT$10clone_into17hb29338cce75193c4E","ax",@progbits
	.globl	_ZN5alloc3ffi5c_str75_$LT$impl$u20$alloc..borrow..ToOwned$u20$for$u20$core..ffi..c_str..CStr$GT$10clone_into17hb29338cce75193c4E
	.p2align	1
	.type	_ZN5alloc3ffi5c_str75_$LT$impl$u20$alloc..borrow..ToOwned$u20$for$u20$core..ffi..c_str..CStr$GT$10clone_into17hb29338cce75193c4E,@function
_ZN5alloc3ffi5c_str75_$LT$impl$u20$alloc..borrow..ToOwned$u20$for$u20$core..ffi..c_str..CStr$GT$10clone_into17hb29338cce75193c4E:
.Lfunc_begin49:
	.loc	27 1018 0
	.cfi_startproc
	addi	sp, sp, -48
	.cfi_def_cfa_offset 48
	sw	ra, 44(sp)
	sw	s0, 40(sp)
	sw	s1, 36(sp)
	sw	s2, 32(sp)
	sw	s3, 28(sp)
	sw	s4, 24(sp)
	sw	s5, 20(sp)
	.cfi_offset ra, -4
	.cfi_offset s0, -8
	.cfi_offset s1, -12
	.cfi_offset s2, -16
	.cfi_offset s3, -20
	.cfi_offset s4, -24
	.cfi_offset s5, -28
	mv	s2, a2
.Ltmp669:
	.loc	2 1215 9 prologue_end
	lw	s0, 4(a2)
.Ltmp670:
	lw	s1, 0(a2)
	mv	s3, a1
.Ltmp671:
	.loc	2 0 9 is_stmt 0
	mv	s4, a0
.Ltmp672:
	li	s5, 0
.Ltmp673:
	.loc	15 786 18 is_stmt 1
	sw	s0, 8(sp)
	sw	s1, 12(sp)
.Ltmp674:
	.loc	15 2128 13
	sw	zero, 16(sp)
.Ltmp675:
	.loc	3 308 12
	bltu	s0, a1, .LBB49_7
.Ltmp676:
.LBB49_1:
	.loc	21 1045 18
	add	a0, s1, s5
.Ltmp677:
	.loc	13 2774 9
	mv	a1, s4
	mv	a2, s3
	call	memcpy@plt
.Ltmp678:
	.loc	15 2038 9
	add	s3, s3, s5
.Ltmp679:
	.loc	15 1047 12
	bgeu	s3, s0, .LBB49_6
.Ltmp680:
	.loc	4 136 14
	li	a2, 1
	mv	a0, s1
	mv	a1, s0
.Ltmp681:
	.loc	3 472 12
	beqz	s3, .LBB49_5
.Ltmp682:
	.loc	4 136 14
	mv	a3, s3
	call	__rust_realloc
	mv	s1, a0
.Ltmp683:
	.loc	9 827 9
	bnez	a0, .LBB49_6
.Ltmp684:
	.loc	3 542 43
	li	a0, 1
	mv	a1, s3
	call	_ZN5alloc5alloc18handle_alloc_error17h7e3d1e4e5e7ceb74E
.Ltmp685:
.LBB49_5:
	.loc	4 117 14
	call	__rust_dealloc
	li	s1, 1
.Ltmp686:
.LBB49_6:
	.loc	27 1021 9
	sw	s1, 0(s2)
	sw	s3, 4(s2)
.Ltmp687:
	.loc	27 1022 6
	lw	ra, 44(sp)
	lw	s0, 40(sp)
	lw	s1, 36(sp)
	lw	s2, 32(sp)
.Ltmp688:
	lw	s3, 28(sp)
	lw	s4, 24(sp)
.Ltmp689:
	lw	s5, 20(sp)
	.loc	27 1022 6 epilogue_begin is_stmt 0
	addi	sp, sp, 48
	ret
.LBB49_7:
.Ltmp690:
	.loc	3 309 13 is_stmt 1
	addi	a0, sp, 8
	li	a1, 0
	mv	a2, s3
	call	_ZN5alloc7raw_vec19RawVec$LT$T$C$A$GT$7reserve21do_reserve_and_handle17h943e2436917d6bc7E
.Ltmp691:
	.loc	15 2145 9
	lw	s5, 16(sp)
.Ltmp692:
	.loc	3 239 9
	lw	s1, 12(sp)
.Ltmp693:
	.loc	27 1021 24
	lw	s0, 8(sp)
	j	.LBB49_1
.Ltmp694:
.Lfunc_end49:
	.size	_ZN5alloc3ffi5c_str75_$LT$impl$u20$alloc..borrow..ToOwned$u20$for$u20$core..ffi..c_str..CStr$GT$10clone_into17hb29338cce75193c4E, .Lfunc_end49-_ZN5alloc3ffi5c_str75_$LT$impl$u20$alloc..borrow..ToOwned$u20$for$u20$core..ffi..c_str..CStr$GT$10clone_into17hb29338cce75193c4E
	.cfi_endproc
	.file	30 "/Users/steve/.rustup/toolchains/nightly-2024-02-01-aarch64-apple-darwin/lib/rustlib/src/rust/library/core/src/mem" "mod.rs"

	.section	".text._ZN100_$LT$alloc..ffi..c_str..CString$u20$as$u20$core..convert..From$LT$$RF$core..ffi..c_str..CStr$GT$$GT$4from17hd07bb89cc9d5fd72E","ax",@progbits
	.globl	_ZN100_$LT$alloc..ffi..c_str..CString$u20$as$u20$core..convert..From$LT$$RF$core..ffi..c_str..CStr$GT$$GT$4from17hd07bb89cc9d5fd72E
	.p2align	1
	.type	_ZN100_$LT$alloc..ffi..c_str..CString$u20$as$u20$core..convert..From$LT$$RF$core..ffi..c_str..CStr$GT$$GT$4from17hd07bb89cc9d5fd72E,@function
_ZN100_$LT$alloc..ffi..c_str..CString$u20$as$u20$core..convert..From$LT$$RF$core..ffi..c_str..CStr$GT$$GT$4from17hd07bb89cc9d5fd72E:
.Lfunc_begin50:
	.loc	27 1027 0
	.cfi_startproc
	addi	sp, sp, -16
	.cfi_def_cfa_offset 16
.Ltmp695:
	.loc	12 0 0 is_stmt 0
	sw	ra, 12(sp)
	sw	s0, 8(sp)
	sw	s1, 4(sp)
	sw	s2, 0(sp)
	.cfi_offset ra, -4
	.cfi_offset s0, -8
	.cfi_offset s1, -12
	.cfi_offset s2, -16
.Ltmp696:
	mv	s0, a1
.Ltmp697:
	mv	s2, a0
.Ltmp698:
	.loc	3 185 25 prologue_end is_stmt 1
	beqz	a1, .LBB50_4
.Ltmp699:
	.loc	3 190 26
	bltz	s0, .LBB50_6
.Ltmp700:
	.loc	2 1583 9
	lui	a0, %hi(__rust_no_alloc_shim_is_unstable)
	lbu	a0, %lo(__rust_no_alloc_shim_is_unstable)(a0)
.Ltmp701:
	.loc	4 98 9
	li	a1, 1
	mv	a0, s0
	call	__rust_alloc
	mv	s1, a0
.Ltmp702:
	.loc	3 202 23
	bnez	a0, .LBB50_5
.Ltmp703:
	.loc	3 204 27
	li	a0, 1
	mv	a1, s0
	call	_ZN5alloc5alloc18handle_alloc_error17h7e3d1e4e5e7ceb74E
.Ltmp704:
.LBB50_4:
	.loc	3 0 27 is_stmt 0
	li	s1, 1
.Ltmp705:
.LBB50_5:
	.loc	13 2774 9 is_stmt 1
	mv	a0, s1
	mv	a1, s2
	mv	a2, s0
	call	memcpy@plt
.Ltmp706:
	.loc	27 1029 6
	mv	a0, s1
	mv	a1, s0
	lw	ra, 12(sp)
	lw	s0, 8(sp)
.Ltmp707:
	lw	s1, 4(sp)
.Ltmp708:
	lw	s2, 0(sp)
.Ltmp709:
	.loc	27 1029 6 epilogue_begin is_stmt 0
	addi	sp, sp, 16
	ret
.Ltmp710:
.LBB50_6:
	.loc	3 192 27 is_stmt 1
	call	_ZN5alloc7raw_vec17capacity_overflow17h6deb98aaf45da7a0E
.Ltmp711:
.Lfunc_end50:
	.size	_ZN100_$LT$alloc..ffi..c_str..CString$u20$as$u20$core..convert..From$LT$$RF$core..ffi..c_str..CStr$GT$$GT$4from17hd07bb89cc9d5fd72E, .Lfunc_end50-_ZN100_$LT$alloc..ffi..c_str..CString$u20$as$u20$core..convert..From$LT$$RF$core..ffi..c_str..CStr$GT$$GT$4from17hd07bb89cc9d5fd72E
	.cfi_endproc

	.section	".text._ZN5alloc3ffi5c_str40_$LT$impl$u20$core..ffi..c_str..CStr$GT$15to_string_lossy17h28bc68fe727938efE","ax",@progbits
	.globl	_ZN5alloc3ffi5c_str40_$LT$impl$u20$core..ffi..c_str..CStr$GT$15to_string_lossy17h28bc68fe727938efE
	.p2align	1
	.type	_ZN5alloc3ffi5c_str40_$LT$impl$u20$core..ffi..c_str..CStr$GT$15to_string_lossy17h28bc68fe727938efE,@function
_ZN5alloc3ffi5c_str40_$LT$impl$u20$core..ffi..c_str..CStr$GT$15to_string_lossy17h28bc68fe727938efE:
.Lfunc_begin51:
	.loc	27 1096 0
	.cfi_startproc
	addi	sp, sp, -16
	.cfi_def_cfa_offset 16
.Ltmp712:
	.file	31 "/Users/steve/.rustup/toolchains/nightly-2024-02-01-aarch64-apple-darwin/lib/rustlib/src/rust/library/core/src/ffi" "c_str.rs"
	.loc	31 0 0 is_stmt 0
	sw	ra, 12(sp)
	.cfi_offset ra, -4
.Ltmp713:
	.loc	31 577 56 prologue_end is_stmt 1
	addi	a2, a2, -1
.Ltmp714:
	.loc	27 1097 9
	call	_ZN5alloc6string6String15from_utf8_lossy17h5c16508202988427E
.Ltmp715:
	.loc	27 1098 6
	lw	ra, 12(sp)
	.loc	27 1098 6 epilogue_begin is_stmt 0
	addi	sp, sp, 16
	ret
.Ltmp716:
.Lfunc_end51:
	.size	_ZN5alloc3ffi5c_str40_$LT$impl$u20$core..ffi..c_str..CStr$GT$15to_string_lossy17h28bc68fe727938efE, .Lfunc_end51-_ZN5alloc3ffi5c_str40_$LT$impl$u20$core..ffi..c_str..CStr$GT$15to_string_lossy17h28bc68fe727938efE
	.cfi_endproc

	.section	.text._ZN5alloc3fmt6format12format_inner17h5d0a8dfb9c30d208E,"ax",@progbits
	.globl	_ZN5alloc3fmt6format12format_inner17h5d0a8dfb9c30d208E
	.p2align	1
	.type	_ZN5alloc3fmt6format12format_inner17h5d0a8dfb9c30d208E,@function
_ZN5alloc3fmt6format12format_inner17h5d0a8dfb9c30d208E:
.Lfunc_begin52:
	.file	32 "/Users/steve/.rustup/toolchains/nightly-2024-02-01-aarch64-apple-darwin/lib/rustlib/src/rust/library/alloc" "src/fmt.rs"
	.loc	32 609 0 is_stmt 1
	.cfi_startproc
	addi	sp, sp, -32
	.cfi_def_cfa_offset 32
	sw	ra, 28(sp)
	sw	s0, 24(sp)
	sw	s1, 20(sp)
	sw	s2, 16(sp)
	.cfi_offset ra, -4
	.cfi_offset s0, -8
	.cfi_offset s1, -12
	.cfi_offset s2, -16
	mv	s1, a1
.Ltmp717:
	.loc	1 361 36 prologue_end
	lw	a1, 4(a1)
.Ltmp718:
	.loc	1 0 36 is_stmt 0
	mv	s2, a0
.Ltmp719:
	.file	33 "/Users/steve/.rustup/toolchains/nightly-2024-02-01-aarch64-apple-darwin/lib/rustlib/src/rust/library/core/src/slice/iter" "macros.rs"
	.loc	33 223 20 is_stmt 1
	beqz	a1, .LBB52_5
.Ltmp720:
	.loc	1 361 0
	lw	a0, 0(s1)
.Ltmp721:
	.loc	1 0 0 is_stmt 0
	li	s0, 0
.Ltmp722:
	.loc	33 237 24 is_stmt 1
	addi	a2, a0, 4
.Ltmp723:
.LBB52_2:
	.loc	33 232 27
	lw	a3, 0(a2)
.Ltmp724:
	.file	34 "/Users/steve/.rustup/toolchains/nightly-2024-02-01-aarch64-apple-darwin/lib/rustlib/src/rust/library/core/src/iter/traits" "accum.rs"
	.loc	34 53 28
	add	s0, s0, a3
.Ltmp725:
	.loc	33 237 24
	addi	a1, a1, -1
	addi	a2, a2, 8
	bnez	a1, .LBB52_2
.Ltmp726:
	.loc	1 363 12
	lw	a1, 12(s1)
	beqz	a1, .LBB52_7
.Ltmp727:
	.loc	1 365 46
	lw	a0, 4(a0)
	snez	a0, a0
	sltiu	a1, s0, 16
	xori	a1, a1, 1
	or	a0, a0, a1
	slti	a1, s0, 0
	not	a1, a1
	and	a0, a0, a1
	bnez	a0, .LBB52_6
.Ltmp728:
.LBB52_5:
	.loc	1 0 46 is_stmt 0
	li	s0, 0
	j	.LBB52_11
.Ltmp729:
.LBB52_6:
	slli	s0, s0, 1
.Ltmp730:
.LBB52_7:
	.loc	3 185 25 is_stmt 1
	beqz	s0, .LBB52_11
.Ltmp731:
	.loc	3 190 26
	bltz	s0, .LBB52_15
.Ltmp732:
	.loc	2 1583 9
	lui	a0, %hi(__rust_no_alloc_shim_is_unstable)
	lbu	a0, %lo(__rust_no_alloc_shim_is_unstable)(a0)
.Ltmp733:
	.loc	4 98 9
	li	a1, 1
	mv	a0, s0
	call	__rust_alloc
.Ltmp734:
	.loc	3 202 23
	bnez	a0, .LBB52_12
.Ltmp735:
	.loc	3 204 27
	li	a0, 1
.Ltmp736:
	mv	a1, s0
	call	_ZN5alloc5alloc18handle_alloc_error17h7e3d1e4e5e7ceb74E
.Ltmp737:
.LBB52_11:
	.loc	3 0 27 is_stmt 0
	li	a0, 1
.Ltmp738:
.LBB52_12:
	.loc	16 492 9 is_stmt 1
	sw	s0, 0(sp)
	sw	a0, 4(sp)
	sw	zero, 8(sp)
.Ltmp739:
	.loc	1 211 17
	lui	a0, %hi(.L__unnamed_1)
	addi	a1, a0, %lo(.L__unnamed_1)
	mv	a0, sp
	mv	a2, s1
	call	_ZN4core3fmt5write17hec90542839f9b0f5E
.Ltmp740:
	.loc	9 1028 9
	bnez	a0, .LBB52_14
.Ltmp741:
	.loc	32 613 9
	lw	a0, 8(sp)
	lw	a1, 4(sp)
	lw	a2, 0(sp)
	sw	a0, 8(s2)
	sw	a1, 4(s2)
	sw	a2, 0(s2)
.Ltmp742:
	.loc	32 614 6
	lw	ra, 28(sp)
	lw	s0, 24(sp)
	lw	s1, 20(sp)
.Ltmp743:
	lw	s2, 16(sp)
	.loc	32 614 6 epilogue_begin is_stmt 0
	addi	sp, sp, 32
	ret
.LBB52_14:
.Ltmp744:
	.loc	9 1030 23 is_stmt 1
	lui	a0, %hi(.L__unnamed_25)
.Ltmp745:
	addi	a0, a0, %lo(.L__unnamed_25)
	lui	a1, %hi(.L__unnamed_3)
	addi	a3, a1, %lo(.L__unnamed_3)
	lui	a1, %hi(.L__unnamed_26)
	addi	a4, a1, %lo(.L__unnamed_26)
	li	a1, 51
	addi	a2, sp, 15
	call	_ZN4core6result13unwrap_failed17h9088d0865a96f7faE
.Ltmp746:
.LBB52_15:
	.loc	3 192 27
	call	_ZN5alloc7raw_vec17capacity_overflow17h6deb98aaf45da7a0E
.Ltmp747:
.Lfunc_end52:
	.size	_ZN5alloc3fmt6format12format_inner17h5d0a8dfb9c30d208E, .Lfunc_end52-_ZN5alloc3fmt6format12format_inner17h5d0a8dfb9c30d208E
	.cfi_endproc
	.file	35 "/Users/steve/.rustup/toolchains/nightly-2024-02-01-aarch64-apple-darwin/lib/rustlib/src/rust/library/core/src/iter/adapters" "map.rs"
	.file	36 "/Users/steve/.rustup/toolchains/nightly-2024-02-01-aarch64-apple-darwin/lib/rustlib/src/rust/library/core/src/iter/traits" "iterator.rs"

	.section	.text._ZN5alloc2rc29rcbox_layout_for_value_layout17h6088ffd395cad580E,"ax",@progbits
	.globl	_ZN5alloc2rc29rcbox_layout_for_value_layout17h6088ffd395cad580E
	.p2align	1
	.type	_ZN5alloc2rc29rcbox_layout_for_value_layout17h6088ffd395cad580E,@function
_ZN5alloc2rc29rcbox_layout_for_value_layout17h6088ffd395cad580E:
.Lfunc_begin53:
	.file	37 "/Users/steve/.rustup/toolchains/nightly-2024-02-01-aarch64-apple-darwin/lib/rustlib/src/rust/library/alloc" "src/rc.rs"
	.loc	37 296 0
	.cfi_startproc
	li	a3, 4
	mv	a2, a0
.Ltmp748:
	.loc	8 0 0 is_stmt 0
	bltu	a3, a0, .LBB53_2
.Ltmp749:
	li	a0, 4
.Ltmp750:
.LBB53_2:
	.loc	7 1256 5 prologue_end is_stmt 1
	addi	a3, a2, 7
.Ltmp751:
	.loc	6 284 72
	neg	a2, a2
.Ltmp752:
	.loc	6 284 30 is_stmt 0
	and	a2, a2, a3
.Ltmp753:
	.loc	7 1256 5 is_stmt 1
	addi	a3, a2, -8
.Ltmp754:
	.loc	6 384 22
	bltu	a2, a3, .LBB53_5
.Ltmp755:
	.loc	7 1256 5
	add	a1, a1, a2
.Ltmp756:
	sltu	a2, a1, a2
.Ltmp757:
	.loc	7 0 5 is_stmt 0
	lui	a3, 524288
.Ltmp758:
	sub	a3, a3, a0
	sltu	a3, a3, a1
.Ltmp759:
	.loc	6 385 24 is_stmt 1
	or	a2, a2, a3
	bnez	a2, .LBB53_5
.Ltmp760:
	.loc	7 1256 5
	add	a1, a1, a0
.Ltmp761:
	.loc	7 1256 5 is_stmt 0
	addi	a1, a1, -1
.Ltmp762:
	.loc	6 284 72 is_stmt 1
	neg	a2, a0
	.loc	6 284 30 is_stmt 0
	and	a1, a1, a2
.Ltmp763:
	.loc	37 302 2 is_stmt 1
	ret
.Ltmp764:
.LBB53_5:
	addi	sp, sp, -16
	.cfi_def_cfa_offset 16
.Ltmp765:
	.loc	9 1073 23
	lui	a0, %hi(.L__unnamed_27)
	addi	a0, a0, %lo(.L__unnamed_27)
	lui	a1, %hi(.L__unnamed_4)
	addi	a3, a1, %lo(.L__unnamed_4)
	lui	a1, %hi(.L__unnamed_28)
	addi	a4, a1, %lo(.L__unnamed_28)
	li	a1, 43
	addi	a2, sp, 15
	call	_ZN4core6result13unwrap_failed17h9088d0865a96f7faE
.Ltmp766:
.Lfunc_end53:
	.size	_ZN5alloc2rc29rcbox_layout_for_value_layout17h6088ffd395cad580E, .Lfunc_end53-_ZN5alloc2rc29rcbox_layout_for_value_layout17h6088ffd395cad580E
	.cfi_endproc

	.section	".text._ZN5alloc3str56_$LT$impl$u20$alloc..borrow..ToOwned$u20$for$u20$str$GT$10clone_into17h9575e1752f9179c0E","ax",@progbits
	.globl	_ZN5alloc3str56_$LT$impl$u20$alloc..borrow..ToOwned$u20$for$u20$str$GT$10clone_into17h9575e1752f9179c0E
	.p2align	1
	.type	_ZN5alloc3str56_$LT$impl$u20$alloc..borrow..ToOwned$u20$for$u20$str$GT$10clone_into17h9575e1752f9179c0E,@function
_ZN5alloc3str56_$LT$impl$u20$alloc..borrow..ToOwned$u20$for$u20$str$GT$10clone_into17h9575e1752f9179c0E:
.Lfunc_begin54:
	.loc	18 214 0
	.cfi_startproc
	addi	sp, sp, -32
	.cfi_def_cfa_offset 32
	sw	ra, 28(sp)
	sw	s0, 24(sp)
	sw	s1, 20(sp)
	sw	s2, 16(sp)
	sw	s3, 12(sp)
	.cfi_offset ra, -4
	.cfi_offset s0, -8
	.cfi_offset s1, -12
	.cfi_offset s2, -16
	.cfi_offset s3, -20
	mv	s0, a2
.Ltmp767:
	.loc	2 1215 9 prologue_end
	lw	a2, 4(a2)
	lw	a3, 0(s0)
	mv	s3, a1
.Ltmp768:
	.loc	2 0 9 is_stmt 0
	mv	s2, a0
.Ltmp769:
	li	s1, 0
	.loc	2 1215 9
	sw	a2, 4(sp)
	sw	a3, 0(sp)
.Ltmp770:
	.loc	15 2128 13 is_stmt 1
	sw	zero, 8(sp)
.Ltmp771:
	.loc	3 308 12
	bltu	a3, a1, .LBB54_2
.Ltmp772:
.LBB54_1:
	.loc	3 239 9
	lw	a0, 4(sp)
.Ltmp773:
	.loc	21 1045 18
	add	a0, a0, s1
.Ltmp774:
	.loc	13 2774 9
	mv	a1, s2
	mv	a2, s3
	call	memcpy@plt
.Ltmp775:
	.loc	15 2038 9
	add	s1, s1, s3
.Ltmp776:
	sw	s1, 8(sp)
.Ltmp777:
	.loc	18 217 9
	lw	a0, 0(sp)
	lw	a1, 4(sp)
	sw	a0, 0(s0)
	sw	a1, 4(s0)
	sw	s1, 8(s0)
.Ltmp778:
	.loc	18 218 6
	lw	ra, 28(sp)
	lw	s0, 24(sp)
.Ltmp779:
	lw	s1, 20(sp)
	lw	s2, 16(sp)
.Ltmp780:
	lw	s3, 12(sp)
.Ltmp781:
	.loc	18 218 6 epilogue_begin is_stmt 0
	addi	sp, sp, 32
	ret
.Ltmp782:
.LBB54_2:
	.loc	3 309 13 is_stmt 1
	mv	a0, sp
	li	a1, 0
	mv	a2, s3
	call	_ZN5alloc7raw_vec19RawVec$LT$T$C$A$GT$7reserve21do_reserve_and_handle17h943e2436917d6bc7E
.Ltmp783:
	.loc	15 2145 9
	lw	s1, 8(sp)
	j	.LBB54_1
.Ltmp784:
.Lfunc_end54:
	.size	_ZN5alloc3str56_$LT$impl$u20$alloc..borrow..ToOwned$u20$for$u20$str$GT$10clone_into17h9575e1752f9179c0E, .Lfunc_end54-_ZN5alloc3str56_$LT$impl$u20$alloc..borrow..ToOwned$u20$for$u20$str$GT$10clone_into17h9575e1752f9179c0E
	.cfi_endproc

	.section	".text._ZN5alloc3str21_$LT$impl$u20$str$GT$12to_lowercase17h2dc60a2444c9b5e4E","ax",@progbits
	.globl	_ZN5alloc3str21_$LT$impl$u20$str$GT$12to_lowercase17h2dc60a2444c9b5e4E
	.p2align	1
	.type	_ZN5alloc3str21_$LT$impl$u20$str$GT$12to_lowercase17h2dc60a2444c9b5e4E,@function
_ZN5alloc3str21_$LT$impl$u20$str$GT$12to_lowercase17h2dc60a2444c9b5e4E:
.Lfunc_begin55:
	.loc	18 368 0
	.cfi_startproc
	addi	sp, sp, -96
	.cfi_def_cfa_offset 96
	sw	ra, 92(sp)
	sw	s0, 88(sp)
	sw	s1, 84(sp)
	sw	s2, 80(sp)
	sw	s3, 76(sp)
	sw	s4, 72(sp)
	sw	s5, 68(sp)
	sw	s6, 64(sp)
	sw	s7, 60(sp)
	sw	s8, 56(sp)
	sw	s9, 52(sp)
	sw	s10, 48(sp)
	sw	s11, 44(sp)
	.cfi_offset ra, -4
	.cfi_offset s0, -8
	.cfi_offset s1, -12
	.cfi_offset s2, -16
	.cfi_offset s3, -20
	.cfi_offset s4, -24
	.cfi_offset s5, -28
	.cfi_offset s6, -32
	.cfi_offset s7, -36
	.cfi_offset s8, -40
	.cfi_offset s9, -44
	.cfi_offset s10, -48
	.cfi_offset s11, -52
	mv	s4, a2
.Ltmp785:
	mv	s5, a1
.Ltmp786:
	mv	s2, a0
.Ltmp787:
	.loc	3 185 25 prologue_end
	sw	a0, 12(sp)
.Ltmp788:
	beqz	a2, .LBB55_9
.Ltmp789:
	.loc	3 190 26
	bltz	s4, .LBB55_69
.Ltmp790:
	.loc	2 1583 9
	lui	a0, %hi(__rust_no_alloc_shim_is_unstable)
	lbu	a0, %lo(__rust_no_alloc_shim_is_unstable)(a0)
.Ltmp791:
	.loc	4 98 9
	li	a1, 1
	mv	a0, s4
	call	__rust_alloc
.Ltmp792:
	.loc	3 202 23
	beqz	a0, .LBB55_70
.Ltmp793:
	.loc	3 0 23 is_stmt 0
	li	t2, 0
	li	a1, 8
.Ltmp794:
	.loc	18 632 15 is_stmt 1
	bltu	s4, a1, .LBB55_8
.Ltmp795:
	.loc	18 644 16
	addi	a6, s5, 4
	lui	a3, 526344
	addi	a7, a3, 128
.Ltmp796:
.LBB55_5:
	.loc	13 2774 9
	add	a4, a6, t2
	lbu	a5, -3(a4)
	lbu	s1, -4(a4)
	lbu	s0, -2(a4)
	lbu	a2, -1(a4)
	slli	a5, a5, 8
	or	a5, a5, s1
	slli	s0, s0, 16
	slli	a2, a2, 24
	or	a2, a2, s0
	or	a5, a5, a2
.Ltmp797:
	lbu	a2, 1(a4)
	lbu	s1, 0(a4)
	lbu	s0, 2(a4)
	lbu	a4, 3(a4)
	slli	a2, a2, 8
	or	a2, a2, s1
	slli	s0, s0, 16
	slli	a4, a4, 24
	or	a4, a4, s0
	or	a4, a4, a2
.Ltmp798:
	.loc	18 641 17
	or	a2, a4, a5
.Ltmp799:
	.loc	18 644 16
	and	a2, a2, a7
.Ltmp800:
	bnez	a2, .LBB55_8
.Ltmp801:
	srli	t0, a4, 24
	srli	t1, a4, 16
	srli	t3, a4, 8
	srli	a3, a5, 24
	srli	a2, a5, 16
	srli	s1, a5, 8
.Ltmp802:
	.loc	7 735 25
	add	a1, a0, t2
	addi	s0, a5, -65
	andi	s0, s0, 255
	sltiu	s0, s0, 26
	slli	s0, s0, 5
.Ltmp803:
	.loc	7 590 9
	or	a5, a5, s0
.Ltmp804:
	.file	38 "/Users/steve/.rustup/toolchains/nightly-2024-02-01-aarch64-apple-darwin/lib/rustlib/src/rust/library/core/src/mem" "maybe_uninit.rs"
	.loc	38 494 9
	sb	a5, 0(a1)
.Ltmp805:
	.loc	7 735 25
	addi	a5, s1, -65
.Ltmp806:
	andi	a5, a5, 255
	sltiu	a5, a5, 26
	slli	a5, a5, 5
.Ltmp807:
	.loc	7 590 9
	or	a5, a5, s1
.Ltmp808:
	.loc	38 494 9
	sb	a5, 1(a1)
.Ltmp809:
	.loc	7 735 25
	addi	a5, a2, -65
.Ltmp810:
	andi	a5, a5, 255
	sltiu	a5, a5, 26
	slli	a5, a5, 5
.Ltmp811:
	.loc	7 590 9
	or	a2, a2, a5
.Ltmp812:
	.loc	38 494 9
	sb	a2, 2(a1)
.Ltmp813:
	.loc	7 735 25
	addi	a2, a3, -65
.Ltmp814:
	andi	a2, a2, 255
	sltiu	a2, a2, 26
	slli	a2, a2, 5
.Ltmp815:
	.loc	7 590 9
	or	a2, a2, a3
.Ltmp816:
	.loc	38 494 9
	sb	a2, 3(a1)
.Ltmp817:
	.loc	7 735 25
	addi	a2, a4, -65
.Ltmp818:
	andi	a2, a2, 255
	sltiu	a2, a2, 26
	slli	a2, a2, 5
.Ltmp819:
	.loc	7 590 9
	or	a2, a2, a4
.Ltmp820:
	.loc	38 494 9
	sb	a2, 4(a1)
.Ltmp821:
	.loc	7 735 25
	addi	a2, t3, -65
.Ltmp822:
	andi	a2, a2, 255
	sltiu	a2, a2, 26
	slli	a2, a2, 5
.Ltmp823:
	.loc	7 590 9
	or	a2, a2, t3
.Ltmp824:
	.loc	38 494 9
	sb	a2, 5(a1)
.Ltmp825:
	.loc	7 735 25
	addi	a2, t1, -65
.Ltmp826:
	andi	a2, a2, 255
	sltiu	a2, a2, 26
	slli	a2, a2, 5
.Ltmp827:
	.loc	7 590 9
	or	a2, a2, t1
.Ltmp828:
	.loc	38 494 9
	sb	a2, 6(a1)
.Ltmp829:
	.loc	7 735 25
	addi	a2, t0, -65
.Ltmp830:
	andi	a2, a2, 255
	sltiu	a2, a2, 26
	slli	a2, a2, 5
.Ltmp831:
	.loc	7 590 9
	or	a2, a2, t0
.Ltmp832:
	.loc	18 632 15
	addi	a4, t2, 8
	addi	a3, t2, 16
.Ltmp833:
	.loc	38 494 9
	sb	a2, 7(a1)
.Ltmp834:
	.loc	38 0 9 is_stmt 0
	mv	t2, a4
.Ltmp835:
	.loc	18 632 15 is_stmt 1
	bgeu	s4, a3, .LBB55_5
.Ltmp836:
	.loc	18 0 15 is_stmt 0
	mv	t2, a4
.Ltmp837:
.LBB55_8:
	.loc	16 981 9 is_stmt 1
	sw	s4, 20(sp)
	sw	a0, 24(sp)
	sw	t2, 28(sp)
.Ltmp838:
	.loc	33 162 24
	beq	s4, t2, .LBB55_10
	j	.LBB55_11
.Ltmp839:
.LBB55_9:
	.loc	33 0 24 is_stmt 0
	li	t2, 0
	li	a0, 1
.Ltmp840:
	.loc	16 981 9 is_stmt 1
	sw	s4, 20(sp)
	sw	a0, 24(sp)
	sw	zero, 28(sp)
.Ltmp841:
	.loc	33 162 24
	bnez	s4, .LBB55_11
.Ltmp842:
.LBB55_10:
	.loc	18 401 16
	lw	a0, 28(sp)
	lw	a1, 24(sp)
	lw	a2, 20(sp)
	lw	a3, 12(sp)
	sw	a0, 8(a3)
	sw	a1, 4(a3)
	sw	a2, 0(a3)
.Ltmp843:
	.loc	18 419 6
	lw	ra, 92(sp)
	lw	s0, 88(sp)
	lw	s1, 84(sp)
	lw	s2, 80(sp)
	lw	s3, 76(sp)
	lw	s4, 72(sp)
	lw	s5, 68(sp)
	lw	s6, 64(sp)
	lw	s7, 60(sp)
	lw	s8, 56(sp)
	lw	s9, 52(sp)
	lw	s10, 48(sp)
	lw	s11, 44(sp)
	.loc	18 419 6 epilogue_begin is_stmt 0
	addi	sp, sp, 96
	ret
.LBB55_11:
.Ltmp844:
	.loc	18 0 6
	li	s8, 0
	add	s6, s5, t2
.Ltmp845:
	sub	s3, s4, t2
.Ltmp846:
	add	s4, s4, s5
.Ltmp847:
	li	s5, 931
.Ltmp848:
	lui	a0, 8
	addi	a0, a0, 975
	sw	a0, 16(sp)
	lui	s10, 272
	li	s9, -65
	li	s7, -64
	mv	a0, s6
	j	.LBB55_15
.Ltmp849:
.LBB55_12:
	.loc	18 388 22 is_stmt 1
	lw	s0, 32(sp)
.Ltmp850:
.LBB55_13:
	.loc	18 0 0 is_stmt 0
	addi	a0, sp, 20
	mv	a1, s0
	call	_ZN5alloc6string6String4push17h0012f7c75d33ed6dE
.Ltmp851:
.LBB55_14:
	mv	s8, s11
.Ltmp852:
	mv	a0, s2
.Ltmp853:
	.loc	33 162 24 is_stmt 1
	beq	s2, s4, .LBB55_10
.Ltmp854:
.LBB55_15:
	.file	39 "/Users/steve/.rustup/toolchains/nightly-2024-02-01-aarch64-apple-darwin/lib/rustlib/src/rust/library/core/src/str" "validations.rs"
	.loc	39 38 13
	lb	a2, 0(a0)
	andi	a1, a2, 255
.Ltmp855:
	.loc	39 39 8
	bltz	a2, .LBB55_17
.Ltmp856:
	.loc	39 0 8 is_stmt 0
	addi	s2, a0, 1
.Ltmp857:
	.file	40 "/Users/steve/.rustup/toolchains/nightly-2024-02-01-aarch64-apple-darwin/lib/rustlib/src/rust/library/core/src/str" "iter.rs"
	.loc	40 195 38 is_stmt 1
	sub	s11, s8, a0
	.loc	40 195 17 is_stmt 0
	add	s11, s11, s2
.Ltmp858:
	.loc	18 378 23 is_stmt 1
	bne	a1, s5, .LBB55_22
	j	.LBB55_26
.Ltmp859:
.LBB55_17:
	.loc	39 49 22
	lbu	a3, 1(a0)
.Ltmp860:
	.loc	39 12 5
	andi	a2, a1, 31
.Ltmp861:
	.loc	39 18 17
	andi	a3, a3, 63
.Ltmp862:
	.loc	39 51 8
	li	a4, 223
	bgeu	a4, a1, .LBB55_21
.Ltmp863:
	.loc	39 56 26
	lbu	a4, 2(a0)
.Ltmp864:
	.loc	39 18 5
	slli	a3, a3, 6
.Ltmp865:
	.loc	39 18 17 is_stmt 0
	andi	a4, a4, 63
	.loc	39 18 5
	or	a3, a3, a4
.Ltmp866:
	.loc	39 59 12 is_stmt 1
	li	a4, 240
.Ltmp867:
	bltu	a1, a4, .LBB55_25
.Ltmp868:
	.loc	39 64 30
	lbu	a1, 3(a0)
.Ltmp869:
	.loc	39 65 18
	slli	a2, a2, 29
.Ltmp870:
	srli	a2, a2, 11
.Ltmp871:
	.loc	39 18 5
	slli	a3, a3, 6
.Ltmp872:
	.loc	39 18 17 is_stmt 0
	andi	a1, a1, 63
	.loc	39 18 5
	or	a1, a1, a3
.Ltmp873:
	.loc	39 65 13 is_stmt 1
	or	a1, a1, a2
.Ltmp874:
	.loc	40 190 9
	beq	a1, s10, .LBB55_10
.Ltmp875:
	.loc	40 0 9 is_stmt 0
	addi	s2, a0, 4
.Ltmp876:
	.loc	40 195 38 is_stmt 1
	sub	s11, s8, a0
	.loc	40 195 17 is_stmt 0
	add	s11, s11, s2
.Ltmp877:
	.loc	18 378 23 is_stmt 1
	bne	a1, s5, .LBB55_22
	j	.LBB55_26
.Ltmp878:
.LBB55_21:
	.loc	18 0 23 is_stmt 0
	addi	s2, a0, 2
.Ltmp879:
	slli	a1, a2, 6
	or	a1, a1, a3
.Ltmp880:
	.loc	40 195 38 is_stmt 1
	sub	s11, s8, a0
	.loc	40 195 17 is_stmt 0
	add	s11, s11, s2
.Ltmp881:
	.loc	18 378 23 is_stmt 1
	beq	a1, s5, .LBB55_26
.Ltmp882:
.LBB55_22:
	beq	a1, s10, .LBB55_10
.Ltmp883:
	.loc	18 387 23
	addi	a0, sp, 32
	call	_ZN4core7unicode12unicode_data11conversions8to_lower17h10c911f55f1f2551E
	.loc	18 387 17 is_stmt 0
	lw	s1, 36(sp)
	beqz	s1, .LBB55_12
.Ltmp884:
	lw	s0, 40(sp)
	.loc	18 0 0
	lw	a1, 32(sp)
	addi	a0, sp, 20
	call	_ZN5alloc6string6String4push17h0012f7c75d33ed6dE
	addi	a0, sp, 20
	mv	a1, s1
	call	_ZN5alloc6string6String4push17h0012f7c75d33ed6dE
	.loc	18 387 17
	bnez	s0, .LBB55_13
	j	.LBB55_14
.Ltmp885:
.LBB55_25:
	.loc	18 0 17
	addi	s2, a0, 3
.Ltmp886:
	slli	a1, a2, 12
	or	a1, a1, a3
.Ltmp887:
	.loc	40 195 38 is_stmt 1
	sub	s11, s8, a0
	.loc	40 195 17 is_stmt 0
	add	s11, s11, s2
.Ltmp888:
	.loc	18 378 23 is_stmt 1
	bne	a1, s5, .LBB55_22
.Ltmp889:
.LBB55_26:
	.loc	18 0 23 is_stmt 0
	add	s1, s6, s8
.Ltmp890:
	.file	41 "/Users/steve/.rustup/toolchains/nightly-2024-02-01-aarch64-apple-darwin/lib/rustlib/src/rust/library/core/src/str" "mod.rs"
	.loc	41 221 12 is_stmt 1
	beqz	s8, .LBB55_30
.Ltmp891:
	.loc	41 225 9
	bgeu	s8, s3, .LBB55_29
.Ltmp892:
	.loc	41 237 19
	lb	a0, 0(s1)
.Ltmp893:
	.loc	41 0 19 is_stmt 0
	blt	s9, a0, .LBB55_30
	j	.LBB55_68
.Ltmp894:
.LBB55_29:
	.file	42 "/Users/steve/.rustup/toolchains/nightly-2024-02-01-aarch64-apple-darwin/lib/rustlib/src/rust/library/core/src/str" "traits.rs"
	.loc	42 324 9 is_stmt 1
	bne	s8, s3, .LBB55_68
.Ltmp895:
.LBB55_30:
	.loc	42 0 9 is_stmt 0
	li	a0, 0
	j	.LBB55_32
.Ltmp896:
.LBB55_31:
	li	a0, 1
.Ltmp897:
	.file	43 "/Users/steve/.rustup/toolchains/nightly-2024-02-01-aarch64-apple-darwin/lib/rustlib/src/rust/library/core/src/iter/traits" "double_ended.rs"
	.loc	43 237 21 is_stmt 1
	bne	s0, s10, .LBB55_45
.Ltmp898:
.LBB55_32:
	.loc	33 398 24
	beq	s1, s6, .LBB55_64
.Ltmp899:
	.loc	39 85 22
	lbu	s0, -1(s1)
	slli	a1, s0, 24
.Ltmp900:
	bltz	a1, .LBB55_35
.Ltmp901:
	.loc	39 0 22 is_stmt 0
	addi	s1, s1, -1
.Ltmp902:
	j	.LBB55_42
.Ltmp903:
.LBB55_35:
	.loc	39 94 22 is_stmt 1
	lbu	a3, -2(s1)
.Ltmp904:
	slli	a2, a3, 24
	srai	a2, a2, 24
.Ltmp905:
	.loc	39 96 8
	bge	a2, s7, .LBB55_38
.Ltmp906:
	.loc	39 99 26
	lbu	a4, -3(s1)
.Ltmp907:
	slli	a3, a4, 24
.Ltmp908:
	srai	a3, a3, 24
.Ltmp909:
	.loc	39 101 12
	blt	s9, a3, .LBB55_39
.Ltmp910:
	.loc	39 104 30
	lbu	a4, -4(s1)
.Ltmp911:
	.file	44 "/Users/steve/.rustup/toolchains/nightly-2024-02-01-aarch64-apple-darwin/lib/rustlib/src/rust/library/core/src/ptr" "non_null.rs"
	.loc	44 536 37
	addi	s1, s1, -4
.Ltmp912:
	.loc	39 12 5
	andi	a4, a4, 7
.Ltmp913:
	.loc	39 18 5
	slli	a4, a4, 6
.Ltmp914:
	.loc	39 18 17 is_stmt 0
	andi	a3, a3, 63
	.loc	39 18 5
	or	a3, a3, a4
.Ltmp915:
	.loc	39 0 5
	j	.LBB55_40
.Ltmp916:
.LBB55_38:
	addi	s1, s1, -2
	andi	a2, a3, 31
.Ltmp917:
	j	.LBB55_41
.Ltmp918:
.LBB55_39:
	addi	s1, s1, -3
	andi	a3, a4, 15
.Ltmp919:
.LBB55_40:
	.loc	39 18 5
	slli	a3, a3, 6
.Ltmp920:
	.loc	39 18 17
	andi	a2, a2, 63
	.loc	39 18 5
	or	a2, a2, a3
.Ltmp921:
.LBB55_41:
	.loc	39 0 0
	srai	a1, a1, 24
.Ltmp922:
	.loc	39 18 5
	slli	a2, a2, 6
.Ltmp923:
	.loc	39 18 17
	andi	s0, a1, 63
.Ltmp924:
	.loc	39 18 5
	or	s0, s0, a2
.Ltmp925:
	.loc	43 236 19 is_stmt 1
	beq	s0, s10, .LBB55_64
.Ltmp926:
.LBB55_42:
	.file	45 "/Users/steve/.rustup/toolchains/nightly-2024-02-01-aarch64-apple-darwin/lib/rustlib/src/rust/library/core/src/iter/adapters" "skip_while.rs"
	.loc	45 49 20
	andi	a0, a0, 255
	bnez	a0, .LBB55_31
.Ltmp927:
	.loc	18 414 40
	mv	a0, s0
	call	_ZN4core7unicode12unicode_data14case_ignorable6lookup17h2e8a372c1dd08bf3E
.Ltmp928:
	.loc	45 49 30
	beqz	a0, .LBB55_31
.Ltmp929:
	.loc	45 0 30 is_stmt 0
	li	a0, 0
	lui	s0, 272
.Ltmp930:
	.loc	43 237 21 is_stmt 1
	beq	s0, s10, .LBB55_32
.Ltmp931:
.LBB55_45:
	.loc	18 415 28
	mv	a0, s0
	call	_ZN4core7unicode12unicode_data5cased6lookup17hb3bcae238b3cc39bE
.Ltmp932:
	.loc	18 407 33
	beqz	a0, .LBB55_64
.Ltmp933:
	.loc	18 408 52
	addi	a2, s8, 2
.Ltmp934:
	.loc	18 0 52 is_stmt 0
	add	s0, s6, a2
	mv	s8, s3
.Ltmp935:
	.loc	41 221 12 is_stmt 1
	beqz	a2, .LBB55_50
.Ltmp936:
	.loc	41 0 12 is_stmt 0
	sub	s8, s3, a2
	.loc	41 225 9 is_stmt 1
	bgeu	a2, s3, .LBB55_49
.Ltmp937:
	.loc	41 237 19
	lb	a0, 0(s0)
.Ltmp938:
	.loc	41 0 19 is_stmt 0
	blt	s9, a0, .LBB55_50
	j	.LBB55_71
.Ltmp939:
.LBB55_49:
	.loc	42 393 12 is_stmt 1
	bne	s3, a2, .LBB55_71
.Ltmp940:
.LBB55_50:
	.loc	42 0 12 is_stmt 0
	li	a0, 0
.Ltmp941:
	.loc	19 944 18 is_stmt 1
	add	s8, s8, s0
.Ltmp942:
	.loc	19 0 18 is_stmt 0
	j	.LBB55_52
.Ltmp943:
.LBB55_51:
	li	a0, 1
.Ltmp944:
	.loc	36 2462 21 is_stmt 1
	bne	s1, s10, .LBB55_63
.Ltmp945:
.LBB55_52:
	.loc	33 162 24
	beq	s0, s8, .LBB55_66
.Ltmp946:
	.loc	39 38 13
	lb	a1, 0(s0)
	andi	s1, a1, 255
.Ltmp947:
	.loc	39 39 8
	bltz	a1, .LBB55_55
.Ltmp948:
	.loc	39 0 8 is_stmt 0
	addi	s0, s0, 1
.Ltmp949:
	.loc	45 49 20 is_stmt 1
	andi	a0, a0, 255
	bnez	a0, .LBB55_51
	j	.LBB55_61
.Ltmp950:
.LBB55_55:
	.loc	39 49 22 is_stmt 0
	lbu	a2, 1(s0)
.Ltmp951:
	.loc	39 12 5 is_stmt 1
	andi	a1, s1, 31
.Ltmp952:
	.loc	39 18 17
	andi	a2, a2, 63
.Ltmp953:
	.loc	39 51 8
	li	a3, 223
	bgeu	a3, s1, .LBB55_59
.Ltmp954:
	.loc	39 56 26
	lbu	a3, 2(s0)
.Ltmp955:
	.loc	39 18 5
	slli	a2, a2, 6
.Ltmp956:
	.loc	39 18 17 is_stmt 0
	andi	a3, a3, 63
	.loc	39 18 5
	or	a2, a2, a3
.Ltmp957:
	.loc	39 59 12 is_stmt 1
	li	a3, 240
.Ltmp958:
	bltu	s1, a3, .LBB55_60
.Ltmp959:
	.loc	39 64 30
	lbu	a3, 3(s0)
.Ltmp960:
	.loc	39 65 18
	slli	a1, a1, 29
.Ltmp961:
	srli	a1, a1, 11
.Ltmp962:
	.loc	39 18 5
	slli	a2, a2, 6
.Ltmp963:
	.loc	39 18 17 is_stmt 0
	andi	a3, a3, 63
	.loc	39 18 5
	or	a2, a2, a3
.Ltmp964:
	.loc	39 65 13 is_stmt 1
	or	s1, a2, a1
.Ltmp965:
	.loc	36 2461 19
	beq	s1, s10, .LBB55_66
.Ltmp966:
	.loc	36 0 19 is_stmt 0
	addi	s0, s0, 4
.Ltmp967:
	.loc	45 49 20 is_stmt 1
	andi	a0, a0, 255
	bnez	a0, .LBB55_51
	j	.LBB55_61
.Ltmp968:
.LBB55_59:
	.loc	45 0 20 is_stmt 0
	addi	s0, s0, 2
	slli	a1, a1, 6
	or	s1, a1, a2
.Ltmp969:
	.loc	45 49 20
	andi	a0, a0, 255
	bnez	a0, .LBB55_51
	j	.LBB55_61
.Ltmp970:
.LBB55_60:
	.loc	45 0 20
	addi	s0, s0, 3
	slli	a1, a1, 12
	or	s1, a2, a1
.Ltmp971:
	.loc	45 49 20
	andi	a0, a0, 255
	bnez	a0, .LBB55_51
.Ltmp972:
.LBB55_61:
	.loc	18 414 40 is_stmt 1
	mv	a0, s1
	call	_ZN4core7unicode12unicode_data14case_ignorable6lookup17h2e8a372c1dd08bf3E
.Ltmp973:
	.loc	45 49 30
	beqz	a0, .LBB55_51
.Ltmp974:
	.loc	45 0 30 is_stmt 0
	li	a0, 0
	lui	s1, 272
.Ltmp975:
	.loc	36 2462 21 is_stmt 1
	beq	s1, s10, .LBB55_52
.Ltmp976:
.LBB55_63:
	.loc	18 415 28
	mv	a0, s1
	call	_ZN4core7unicode12unicode_data5cased6lookup17hb3bcae238b3cc39bE
.Ltmp977:
	.loc	18 409 28
	beqz	a0, .LBB55_66
.Ltmp978:
.LBB55_64:
	.loc	15 911 26
	lw	a1, 28(sp)
.Ltmp979:
	.loc	3 247 44
	lw	a0, 20(sp)
.Ltmp980:
	.loc	7 1256 5
	sub	a0, a0, a1
.Ltmp981:
	.loc	7 0 5 is_stmt 0
	lw	s0, 16(sp)
.Ltmp982:
	.loc	3 308 12 is_stmt 1
	li	a2, 2
	bltu	a0, a2, .LBB55_67
.Ltmp983:
.LBB55_65:
	.loc	3 239 9
	lw	a0, 24(sp)
.Ltmp984:
	.loc	21 1045 18
	add	a0, a0, a1
.Ltmp985:
	.loc	13 2774 9
	srli	a2, s0, 8
	sb	a2, 1(a0)
	sb	s0, 0(a0)
.Ltmp986:
	.loc	15 2038 9
	addi	a1, a1, 2
	sw	a1, 28(sp)
.Ltmp987:
	.loc	15 0 9 is_stmt 0
	j	.LBB55_14
.Ltmp988:
.LBB55_66:
	.loc	15 911 26 is_stmt 1
	lw	a1, 28(sp)
.Ltmp989:
	.loc	3 247 44
	lw	a0, 20(sp)
.Ltmp990:
	.loc	7 1256 5
	sub	a0, a0, a1
.Ltmp991:
	.loc	7 0 5 is_stmt 0
	lui	a2, 8
	addi	s0, a2, 719
.Ltmp992:
	.loc	3 308 12 is_stmt 1
	li	a2, 1
	bltu	a2, a0, .LBB55_65
.Ltmp993:
.LBB55_67:
	.loc	3 309 13
	addi	a0, sp, 20
	li	a2, 2
	call	_ZN5alloc7raw_vec19RawVec$LT$T$C$A$GT$7reserve21do_reserve_and_handle17h943e2436917d6bc7E
.Ltmp994:
	.loc	15 2145 9
	lw	a1, 28(sp)
	j	.LBB55_65
.Ltmp995:
.LBB55_68:
	.loc	42 357 21
	lui	a0, %hi(.L__unnamed_29)
	addi	a4, a0, %lo(.L__unnamed_29)
	mv	a0, s6
	mv	a1, s3
	li	a2, 0
	mv	a3, s8
	call	_ZN4core3str16slice_error_fail17hcd1359ad3a84d077E
.Ltmp996:
.LBB55_69:
	.loc	3 192 27
	call	_ZN5alloc7raw_vec17capacity_overflow17h6deb98aaf45da7a0E
.Ltmp997:
.LBB55_70:
	.loc	3 204 27
	li	a0, 1
.Ltmp998:
	mv	a1, s4
	call	_ZN5alloc5alloc18handle_alloc_error17h7e3d1e4e5e7ceb74E
.Ltmp999:
.LBB55_71:
	.loc	42 428 21
	lui	a0, %hi(.L__unnamed_30)
	addi	a4, a0, %lo(.L__unnamed_30)
	mv	a0, s6
	mv	a1, s3
	mv	a3, s3
	call	_ZN4core3str16slice_error_fail17hcd1359ad3a84d077E
.Ltmp1000:
.Lfunc_end55:
	.size	_ZN5alloc3str21_$LT$impl$u20$str$GT$12to_lowercase17h2dc60a2444c9b5e4E, .Lfunc_end55-_ZN5alloc3str21_$LT$impl$u20$str$GT$12to_lowercase17h2dc60a2444c9b5e4E
	.cfi_endproc
	.file	46 "/Users/steve/.rustup/toolchains/nightly-2024-02-01-aarch64-apple-darwin/lib/rustlib/src/rust/library/core/src/iter/adapters" "rev.rs"
	.file	47 "/Users/steve/.rustup/toolchains/nightly-2024-02-01-aarch64-apple-darwin/lib/rustlib/src/rust/library/core/src/slice" "iter.rs"
	.file	48 "/Users/steve/.rustup/toolchains/nightly-2024-02-01-aarch64-apple-darwin/lib/rustlib/src/rust/library/core/src/slice" "mod.rs"

	.section	".text._ZN5alloc3str21_$LT$impl$u20$str$GT$12to_uppercase17haa2659b8917e3988E","ax",@progbits
	.globl	_ZN5alloc3str21_$LT$impl$u20$str$GT$12to_uppercase17haa2659b8917e3988E
	.p2align	1
	.type	_ZN5alloc3str21_$LT$impl$u20$str$GT$12to_uppercase17haa2659b8917e3988E,@function
_ZN5alloc3str21_$LT$impl$u20$str$GT$12to_uppercase17haa2659b8917e3988E:
.Lfunc_begin56:
	.loc	18 459 0
	.cfi_startproc
	addi	sp, sp, -64
	.cfi_def_cfa_offset 64
	sw	ra, 60(sp)
	sw	s0, 56(sp)
	sw	s1, 52(sp)
	sw	s2, 48(sp)
	sw	s3, 44(sp)
	sw	s4, 40(sp)
	sw	s5, 36(sp)
	sw	s6, 32(sp)
	sw	s7, 28(sp)
	.cfi_offset ra, -4
	.cfi_offset s0, -8
	.cfi_offset s1, -12
	.cfi_offset s2, -16
	.cfi_offset s3, -20
	.cfi_offset s4, -24
	.cfi_offset s5, -28
	.cfi_offset s6, -32
	.cfi_offset s7, -36
	mv	s4, a2
.Ltmp1001:
	mv	s2, a1
.Ltmp1002:
	mv	s3, a0
.Ltmp1003:
	.loc	3 185 25 prologue_end
	beqz	a2, .LBB56_8
.Ltmp1004:
	.loc	3 190 26
	bltz	s4, .LBB56_24
.Ltmp1005:
	.loc	2 1583 9
	lui	a0, %hi(__rust_no_alloc_shim_is_unstable)
	lbu	a0, %lo(__rust_no_alloc_shim_is_unstable)(a0)
.Ltmp1006:
	.loc	4 98 9
	li	a1, 1
	mv	a0, s4
	call	__rust_alloc
.Ltmp1007:
	.loc	3 202 23
	beqz	a0, .LBB56_25
.Ltmp1008:
	.loc	3 0 23 is_stmt 0
	li	s1, 0
	li	a1, 8
.Ltmp1009:
	.loc	18 632 15 is_stmt 1
	bltu	s4, a1, .LBB56_9
.Ltmp1010:
	.loc	18 644 16
	addi	a6, s2, 4
	lui	a3, 526344
	addi	a7, a3, 128
.Ltmp1011:
.LBB56_5:
	.loc	13 2774 9
	add	a4, a6, s1
	lbu	a5, -3(a4)
	lbu	s0, -4(a4)
	lbu	a2, -2(a4)
	lbu	a3, -1(a4)
	slli	a5, a5, 8
	or	a5, a5, s0
	slli	a2, a2, 16
	slli	a3, a3, 24
	or	a2, a2, a3
	or	a5, a5, a2
.Ltmp1012:
	lbu	a2, 1(a4)
	lbu	a3, 0(a4)
	lbu	s0, 2(a4)
	lbu	a4, 3(a4)
	slli	a2, a2, 8
	or	a2, a2, a3
	slli	s0, s0, 16
	slli	a4, a4, 24
	or	a4, a4, s0
	or	a4, a4, a2
.Ltmp1013:
	.loc	18 641 17
	or	a2, a4, a5
.Ltmp1014:
	.loc	18 644 16
	and	a2, a2, a7
.Ltmp1015:
	bnez	a2, .LBB56_9
.Ltmp1016:
	srli	t0, a4, 24
	srli	t1, a4, 16
	srli	t2, a4, 8
	srli	t3, a5, 24
	srli	a2, a5, 16
	srli	a3, a5, 8
.Ltmp1017:
	.loc	7 769 25
	add	a1, a0, s1
	addi	s0, a5, -97
	andi	s0, s0, 255
	sltiu	s0, s0, 26
	slli	s0, s0, 5
.Ltmp1018:
	.loc	7 565 9
	xor	a5, a5, s0
.Ltmp1019:
	.loc	38 494 9
	sb	a5, 0(a1)
.Ltmp1020:
	.loc	7 769 25
	addi	a5, a3, -97
.Ltmp1021:
	andi	a5, a5, 255
	sltiu	a5, a5, 26
	slli	a5, a5, 5
.Ltmp1022:
	.loc	7 565 9
	xor	a3, a3, a5
.Ltmp1023:
	.loc	38 494 9
	sb	a3, 1(a1)
.Ltmp1024:
	.loc	7 769 25
	addi	a3, a2, -97
.Ltmp1025:
	andi	a3, a3, 255
	sltiu	a3, a3, 26
	slli	a3, a3, 5
.Ltmp1026:
	.loc	7 565 9
	xor	a2, a2, a3
.Ltmp1027:
	.loc	38 494 9
	sb	a2, 2(a1)
.Ltmp1028:
	.loc	7 769 25
	addi	a2, t3, -97
.Ltmp1029:
	andi	a2, a2, 255
	sltiu	a2, a2, 26
	slli	a2, a2, 5
.Ltmp1030:
	.loc	7 565 9
	xor	a2, a2, t3
.Ltmp1031:
	.loc	38 494 9
	sb	a2, 3(a1)
.Ltmp1032:
	.loc	7 769 25
	addi	a2, a4, -97
.Ltmp1033:
	andi	a2, a2, 255
	sltiu	a2, a2, 26
	slli	a2, a2, 5
.Ltmp1034:
	.loc	7 565 9
	xor	a2, a2, a4
.Ltmp1035:
	.loc	38 494 9
	sb	a2, 4(a1)
.Ltmp1036:
	.loc	7 769 25
	addi	a2, t2, -97
.Ltmp1037:
	andi	a2, a2, 255
	sltiu	a2, a2, 26
	slli	a2, a2, 5
.Ltmp1038:
	.loc	7 565 9
	xor	a2, a2, t2
.Ltmp1039:
	.loc	38 494 9
	sb	a2, 5(a1)
.Ltmp1040:
	.loc	7 769 25
	addi	a2, t1, -97
.Ltmp1041:
	andi	a2, a2, 255
	sltiu	a2, a2, 26
	slli	a2, a2, 5
.Ltmp1042:
	.loc	7 565 9
	xor	a2, a2, t1
.Ltmp1043:
	.loc	38 494 9
	sb	a2, 6(a1)
.Ltmp1044:
	.loc	7 769 25
	addi	a2, t0, -97
.Ltmp1045:
	andi	a2, a2, 255
	sltiu	a2, a2, 26
	slli	a2, a2, 5
.Ltmp1046:
	.loc	7 565 9
	xor	a2, a2, t0
.Ltmp1047:
	.loc	18 632 15
	addi	a4, s1, 8
	addi	a3, s1, 16
.Ltmp1048:
	.loc	38 494 9
	sb	a2, 7(a1)
.Ltmp1049:
	.loc	38 0 9 is_stmt 0
	mv	s1, a4
.Ltmp1050:
	.loc	18 632 15 is_stmt 1
	bgeu	s4, a3, .LBB56_5
.Ltmp1051:
	.loc	18 0 15 is_stmt 0
	mv	s1, a4
	j	.LBB56_9
.Ltmp1052:
.LBB56_8:
	li	s1, 0
	li	a0, 1
.Ltmp1053:
.LBB56_9:
	.loc	16 981 9 is_stmt 1
	sw	s4, 4(sp)
	sw	a0, 8(sp)
	sw	s1, 12(sp)
.Ltmp1054:
	.loc	33 162 24
	bne	s1, s4, .LBB56_11
.Ltmp1055:
.LBB56_10:
	.loc	18 483 9
	lw	a0, 12(sp)
	lw	a1, 8(sp)
	lw	a2, 4(sp)
	sw	a0, 8(s3)
	sw	a1, 4(s3)
	sw	a2, 0(s3)
.Ltmp1056:
	.loc	18 484 6
	lw	ra, 60(sp)
	lw	s0, 56(sp)
	lw	s1, 52(sp)
	lw	s2, 48(sp)
	lw	s3, 44(sp)
	lw	s4, 40(sp)
	lw	s5, 36(sp)
	lw	s6, 32(sp)
	lw	s7, 28(sp)
	.loc	18 484 6 epilogue_begin is_stmt 0
	addi	sp, sp, 64
	ret
.LBB56_11:
.Ltmp1057:
	.loc	18 0 0
	add	s4, s4, s2
.Ltmp1058:
	.loc	19 944 18 is_stmt 1
	add	s2, s2, s1
.Ltmp1059:
	.loc	19 0 18 is_stmt 0
	li	s5, 223
	li	s6, 240
	lui	s7, 272
	j	.LBB56_15
.Ltmp1060:
.LBB56_12:
	.loc	18 471 18 is_stmt 1
	lw	s1, 16(sp)
.Ltmp1061:
.LBB56_13:
	.loc	18 0 0 is_stmt 0
	addi	a0, sp, 4
	mv	a1, s1
	call	_ZN5alloc6string6String4push17h0012f7c75d33ed6dE
.Ltmp1062:
.LBB56_14:
	.loc	33 162 24 is_stmt 1
	beq	s2, s4, .LBB56_10
.Ltmp1063:
.LBB56_15:
	.loc	39 38 13
	lb	a0, 0(s2)
	andi	a1, a0, 255
.Ltmp1064:
	.loc	39 39 8
	bltz	a0, .LBB56_17
.Ltmp1065:
	.loc	39 0 8 is_stmt 0
	addi	s2, s2, 1
.Ltmp1066:
	.loc	18 470 19 is_stmt 1
	addi	a0, sp, 16
	call	_ZN4core7unicode12unicode_data11conversions8to_upper17h94d07d431ae8fc84E
.Ltmp1067:
	.loc	18 470 13 is_stmt 0
	lw	s0, 20(sp)
	bnez	s0, .LBB56_23
	j	.LBB56_12
.Ltmp1068:
.LBB56_17:
	.loc	39 49 22 is_stmt 1
	lbu	a2, 1(s2)
.Ltmp1069:
	.loc	39 12 5
	andi	a0, a1, 31
.Ltmp1070:
	.loc	39 18 17
	andi	a2, a2, 63
.Ltmp1071:
	.loc	39 51 8
	bgeu	s5, a1, .LBB56_21
.Ltmp1072:
	.loc	39 56 26
	lbu	a3, 2(s2)
.Ltmp1073:
	.loc	39 18 5
	slli	a2, a2, 6
.Ltmp1074:
	.loc	39 18 17 is_stmt 0
	andi	a3, a3, 63
	.loc	39 18 5
	or	a2, a2, a3
.Ltmp1075:
	.loc	39 59 12 is_stmt 1
	bltu	a1, s6, .LBB56_22
.Ltmp1076:
	.loc	39 64 30
	lbu	a1, 3(s2)
.Ltmp1077:
	.loc	39 65 18
	slli	a0, a0, 29
.Ltmp1078:
	srli	a0, a0, 11
.Ltmp1079:
	.loc	39 18 5
	slli	a2, a2, 6
.Ltmp1080:
	.loc	39 18 17 is_stmt 0
	andi	a1, a1, 63
	.loc	39 18 5
	or	a1, a1, a2
.Ltmp1081:
	.loc	39 65 13 is_stmt 1
	or	a1, a1, a0
.Ltmp1082:
	.loc	18 469 18
	beq	a1, s7, .LBB56_10
.Ltmp1083:
	.loc	18 0 18 is_stmt 0
	addi	s2, s2, 4
.Ltmp1084:
	.loc	18 470 19 is_stmt 1
	addi	a0, sp, 16
	call	_ZN4core7unicode12unicode_data11conversions8to_upper17h94d07d431ae8fc84E
.Ltmp1085:
	.loc	18 470 13 is_stmt 0
	lw	s0, 20(sp)
	bnez	s0, .LBB56_23
	j	.LBB56_12
.Ltmp1086:
.LBB56_21:
	.loc	18 0 13
	addi	s2, s2, 2
.Ltmp1087:
	slli	a0, a0, 6
	or	a1, a0, a2
.Ltmp1088:
	.loc	18 470 19
	addi	a0, sp, 16
	call	_ZN4core7unicode12unicode_data11conversions8to_upper17h94d07d431ae8fc84E
.Ltmp1089:
	.loc	18 470 13
	lw	s0, 20(sp)
	bnez	s0, .LBB56_23
	j	.LBB56_12
.Ltmp1090:
.LBB56_22:
	.loc	18 0 13
	addi	s2, s2, 3
.Ltmp1091:
	slli	a0, a0, 12
	or	a1, a2, a0
.Ltmp1092:
	.loc	18 470 19
	addi	a0, sp, 16
	call	_ZN4core7unicode12unicode_data11conversions8to_upper17h94d07d431ae8fc84E
.Ltmp1093:
	.loc	18 470 13
	lw	s0, 20(sp)
	beqz	s0, .LBB56_12
.Ltmp1094:
.LBB56_23:
	lw	s1, 24(sp)
	.loc	18 0 0
	lw	a1, 16(sp)
	addi	a0, sp, 4
	call	_ZN5alloc6string6String4push17h0012f7c75d33ed6dE
	addi	a0, sp, 4
	mv	a1, s0
	call	_ZN5alloc6string6String4push17h0012f7c75d33ed6dE
	.loc	18 470 13
	bnez	s1, .LBB56_13
	j	.LBB56_14
.Ltmp1095:
.LBB56_24:
	.loc	3 192 27 is_stmt 1
	call	_ZN5alloc7raw_vec17capacity_overflow17h6deb98aaf45da7a0E
.Ltmp1096:
.LBB56_25:
	.loc	3 204 27
	li	a0, 1
.Ltmp1097:
	mv	a1, s4
	call	_ZN5alloc5alloc18handle_alloc_error17h7e3d1e4e5e7ceb74E
.Ltmp1098:
.Lfunc_end56:
	.size	_ZN5alloc3str21_$LT$impl$u20$str$GT$12to_uppercase17haa2659b8917e3988E, .Lfunc_end56-_ZN5alloc3str21_$LT$impl$u20$str$GT$12to_uppercase17haa2659b8917e3988E
	.cfi_endproc

	.section	".text._ZN5alloc3str21_$LT$impl$u20$str$GT$6repeat17h35329f72f61c3db0E","ax",@progbits
	.globl	_ZN5alloc3str21_$LT$impl$u20$str$GT$6repeat17h35329f72f61c3db0E
	.p2align	1
	.type	_ZN5alloc3str21_$LT$impl$u20$str$GT$6repeat17h35329f72f61c3db0E,@function
_ZN5alloc3str21_$LT$impl$u20$str$GT$6repeat17h35329f72f61c3db0E:
.Lfunc_begin57:
	.loc	18 529 0
	.cfi_startproc
	addi	sp, sp, -48
	.cfi_def_cfa_offset 48
	sw	ra, 44(sp)
	sw	s0, 40(sp)
	sw	s1, 36(sp)
	sw	s2, 32(sp)
	sw	s3, 28(sp)
	sw	s4, 24(sp)
	sw	s5, 20(sp)
	sw	s6, 16(sp)
	sw	s7, 12(sp)
	.cfi_offset ra, -4
	.cfi_offset s0, -8
	.cfi_offset s1, -12
	.cfi_offset s2, -16
	.cfi_offset s3, -20
	.cfi_offset s4, -24
	.cfi_offset s5, -28
	.cfi_offset s6, -32
	.cfi_offset s7, -36
	mv	s2, a0
.Ltmp1099:
	.loc	17 493 12 prologue_end
	beqz	a3, .LBB57_6
.Ltmp1100:
	.loc	17 0 12 is_stmt 0
	mv	s1, a3
.Ltmp1101:
	mv	s4, a2
.Ltmp1102:
	.loc	7 1256 5 is_stmt 1
	mulhu	a0, a2, a3
.Ltmp1103:
	.loc	28 892 9
	bnez	a0, .LBB57_17
.Ltmp1104:
	.loc	28 0 9 is_stmt 0
	mv	s5, a1
.Ltmp1105:
	mul	s3, s4, s1
.Ltmp1106:
	.loc	3 185 25 is_stmt 1
	beqz	s3, .LBB57_7
.Ltmp1107:
	.loc	3 190 26
	bltz	s3, .LBB57_18
.Ltmp1108:
	.loc	2 1583 9
	lui	a0, %hi(__rust_no_alloc_shim_is_unstable)
	lbu	a0, %lo(__rust_no_alloc_shim_is_unstable)(a0)
.Ltmp1109:
	.loc	4 98 9
	li	a1, 1
	mv	a0, s3
	call	__rust_alloc
	mv	s7, a0
.Ltmp1110:
	.loc	3 202 23
	bnez	a0, .LBB57_8
.Ltmp1111:
	.loc	3 204 27
	li	a0, 1
	mv	a1, s3
	call	_ZN5alloc5alloc18handle_alloc_error17h7e3d1e4e5e7ceb74E
.Ltmp1112:
.LBB57_6:
	.loc	3 0 27 is_stmt 0
	li	s3, 0
	li	a0, 0
	li	s7, 1
	j	.LBB57_15
.Ltmp1113:
.LBB57_7:
	li	s7, 1
.Ltmp1114:
.LBB57_8:
	li	s6, 0
	.loc	15 672 9 is_stmt 1
	sw	s3, 0(sp)
	sw	s7, 4(sp)
	sw	zero, 8(sp)
.Ltmp1115:
	.loc	3 308 12
	bltu	s3, s4, .LBB57_16
.Ltmp1116:
.LBB57_9:
	.loc	21 1045 18
	add	a0, s7, s6
.Ltmp1117:
	.loc	13 2774 9
	mv	a1, s5
	mv	a2, s4
	call	memcpy@plt
.Ltmp1118:
	.loc	13 0 9 is_stmt 0
	li	a0, 2
.Ltmp1119:
	.loc	15 2038 9 is_stmt 1
	add	s4, s4, s6
.Ltmp1120:
	.loc	17 511 19
	bltu	s1, a0, .LBB57_12
.Ltmp1121:
	.loc	17 0 19 is_stmt 0
	li	s5, 4
.Ltmp1122:
.LBB57_11:
	mv	s0, s1
	srli	s1, s1, 1
.Ltmp1123:
	.loc	21 1045 18 is_stmt 1
	add	a0, s7, s4
.Ltmp1124:
	.loc	13 2774 9
	mv	a1, s7
	mv	a2, s4
	call	memcpy@plt
.Ltmp1125:
	.loc	17 521 33
	slli	s4, s4, 1
.Ltmp1126:
	.loc	17 511 19
	bgeu	s0, s5, .LBB57_11
.Ltmp1127:
.LBB57_12:
	.loc	17 531 12
	beq	s3, s4, .LBB57_14
.Ltmp1128:
	.loc	17 530 23
	sub	a2, s3, s4
.Ltmp1129:
	.loc	21 1045 18
	add	a0, s7, s4
.Ltmp1130:
	.loc	13 2774 9
	mv	a1, s7
	call	memcpy@plt
.Ltmp1131:
.LBB57_14:
	.loc	17 544 9
	lw	a0, 0(sp)
.Ltmp1132:
.LBB57_15:
	.loc	16 981 9
	sw	a0, 0(s2)
	sw	s7, 4(s2)
	sw	s3, 8(s2)
.Ltmp1133:
	.loc	18 531 6
	lw	ra, 44(sp)
	lw	s0, 40(sp)
	lw	s1, 36(sp)
	lw	s2, 32(sp)
	lw	s3, 28(sp)
.Ltmp1134:
	lw	s4, 24(sp)
	lw	s5, 20(sp)
	lw	s6, 16(sp)
	lw	s7, 12(sp)
.Ltmp1135:
	.loc	18 531 6 epilogue_begin is_stmt 0
	addi	sp, sp, 48
	ret
.Ltmp1136:
.LBB57_16:
	.loc	3 309 13 is_stmt 1
	mv	a0, sp
	li	a1, 0
	mv	a2, s4
	call	_ZN5alloc7raw_vec19RawVec$LT$T$C$A$GT$7reserve21do_reserve_and_handle17h943e2436917d6bc7E
.Ltmp1137:
	.loc	15 2145 9
	lw	s6, 8(sp)
.Ltmp1138:
	.loc	3 239 9
	lw	s7, 4(sp)
	j	.LBB57_9
.Ltmp1139:
.LBB57_17:
	.loc	28 894 21
	lui	a0, %hi(.L__unnamed_31)
	addi	a0, a0, %lo(.L__unnamed_31)
	lui	a1, %hi(.L__unnamed_32)
.Ltmp1140:
	addi	a2, a1, %lo(.L__unnamed_32)
	li	a1, 17
	call	_ZN4core6option13expect_failed17h99dd1ca5765d3381E
.Ltmp1141:
.LBB57_18:
	.loc	3 192 27
	call	_ZN5alloc7raw_vec17capacity_overflow17h6deb98aaf45da7a0E
.Ltmp1142:
.Lfunc_end57:
	.size	_ZN5alloc3str21_$LT$impl$u20$str$GT$6repeat17h35329f72f61c3db0E, .Lfunc_end57-_ZN5alloc3str21_$LT$impl$u20$str$GT$6repeat17h35329f72f61c3db0E
	.cfi_endproc

	.section	.text._ZN5alloc6string6String15from_utf8_lossy17h5c16508202988427E,"ax",@progbits
	.globl	_ZN5alloc6string6String15from_utf8_lossy17h5c16508202988427E
	.p2align	1
	.type	_ZN5alloc6string6String15from_utf8_lossy17h5c16508202988427E,@function
_ZN5alloc6string6String15from_utf8_lossy17h5c16508202988427E:
.Lfunc_begin58:
	.loc	16 622 0
	.cfi_startproc
	addi	sp, sp, -96
	.cfi_def_cfa_offset 96
	sw	ra, 92(sp)
	sw	s0, 88(sp)
	sw	s1, 84(sp)
	sw	s2, 80(sp)
	sw	s3, 76(sp)
	sw	s4, 72(sp)
	sw	s5, 68(sp)
	sw	s6, 64(sp)
	sw	s7, 60(sp)
	sw	s8, 56(sp)
	sw	s9, 52(sp)
	.cfi_offset ra, -4
	.cfi_offset s0, -8
	.cfi_offset s1, -12
	.cfi_offset s2, -16
	.cfi_offset s3, -20
	.cfi_offset s4, -24
	.cfi_offset s5, -28
	.cfi_offset s6, -32
	.cfi_offset s7, -36
	.cfi_offset s8, -40
	.cfi_offset s9, -44
	mv	s1, a2
.Ltmp1143:
	mv	s2, a0
.Ltmp1144:
	.file	49 "/Users/steve/.rustup/toolchains/nightly-2024-02-01-aarch64-apple-darwin/lib/rustlib/src/rust/library/core/src/str" "lossy.rs"
	.loc	49 153 9 prologue_end
	sw	a1, 8(sp)
	sw	a2, 12(sp)
.Ltmp1145:
	.loc	16 625 48
	addi	a0, sp, 36
	addi	a1, sp, 8
.Ltmp1146:
	call	_ZN87_$LT$core..str..lossy..Utf8Chunks$u20$as$u20$core..iter..traits..iterator..Iterator$GT$4next17hb951238aac599c5aE
	.loc	16 625 34 is_stmt 0
	lw	s0, 36(sp)
	beqz	s0, .LBB58_6
.Ltmp1147:
	.loc	16 625 39
	lw	a0, 48(sp)
.Ltmp1148:
	lw	s3, 40(sp)
.Ltmp1149:
	.loc	16 627 16 is_stmt 1
	beqz	a0, .LBB58_7
.Ltmp1150:
	.loc	3 185 25
	beqz	s1, .LBB58_8
.Ltmp1151:
	.loc	3 190 26
	bltz	s1, .LBB58_24
.Ltmp1152:
	.loc	2 1583 9
	lui	a0, %hi(__rust_no_alloc_shim_is_unstable)
	lbu	a0, %lo(__rust_no_alloc_shim_is_unstable)(a0)
.Ltmp1153:
	.loc	4 98 9
	li	a1, 1
	mv	a0, s1
	call	__rust_alloc
.Ltmp1154:
	.loc	3 202 23
	bnez	a0, .LBB58_9
.Ltmp1155:
	.loc	3 204 27
	li	a0, 1
.Ltmp1156:
	mv	a1, s1
	call	_ZN5alloc5alloc18handle_alloc_error17h7e3d1e4e5e7ceb74E
.Ltmp1157:
.LBB58_6:
	.loc	3 0 27 is_stmt 0
	li	s3, 0
	lui	a0, %hi(.L__unnamed_9)
	addi	s0, a0, %lo(.L__unnamed_9)
.Ltmp1158:
.LBB58_7:
	sw	s0, 4(s2)
	sw	s3, 8(s2)
	lui	a0, 524288
	sw	a0, 0(s2)
	j	.LBB58_21
.Ltmp1159:
.LBB58_8:
	li	a0, 1
.Ltmp1160:
.LBB58_9:
	li	s4, 0
.Ltmp1161:
	.loc	16 492 9 is_stmt 1
	sw	s1, 16(sp)
	sw	a0, 20(sp)
	sw	zero, 24(sp)
.Ltmp1162:
	.loc	3 308 12
	bltu	s1, s3, .LBB58_22
.Ltmp1163:
.LBB58_10:
	.loc	21 1045 18
	add	a0, a0, s4
.Ltmp1164:
	.loc	13 2774 9
	mv	a1, s0
	mv	a2, s3
	call	memcpy@plt
.Ltmp1165:
	.loc	15 2038 9
	add	a1, s4, s3
	sw	a1, 24(sp)
.Ltmp1166:
	.loc	3 247 44
	lw	a0, 16(sp)
.Ltmp1167:
	.loc	7 1256 5
	sub	a0, a0, a1
.Ltmp1168:
	.loc	7 0 5 is_stmt 0
	li	a2, 2
.Ltmp1169:
	.loc	3 308 12 is_stmt 1
	bgeu	a2, a0, .LBB58_23
.Ltmp1170:
.LBB58_11:
	.loc	3 239 9
	lw	s7, 20(sp)
.Ltmp1171:
	.loc	21 1045 18
	add	a0, s7, a1
	li	s4, 189
.Ltmp1172:
	.loc	13 2774 9
	sb	s4, 2(a0)
	li	s5, 191
	sb	s5, 1(a0)
	li	s6, 239
	sb	s6, 0(a0)
.Ltmp1173:
	.loc	16 642 22
	lw	a0, 8(sp)
.Ltmp1174:
	lw	a2, 12(sp)
.Ltmp1175:
	.loc	15 2038 9
	addi	s3, a1, 3
	sw	s3, 24(sp)
.Ltmp1176:
	.loc	16 642 22
	sw	a0, 28(sp)
	sw	a2, 32(sp)
.Ltmp1177:
	.loc	16 642 22 is_stmt 0
	addi	a0, sp, 36
	addi	a1, sp, 28
.Ltmp1178:
	call	_ZN87_$LT$core..str..lossy..Utf8Chunks$u20$as$u20$core..iter..traits..iterator..Iterator$GT$4next17hb951238aac599c5aE
	lw	s0, 36(sp)
.Ltmp1179:
	beqz	s0, .LBB58_20
.Ltmp1180:
	.loc	16 0 22
	li	s8, 2
	j	.LBB58_15
.Ltmp1181:
.LBB58_13:
	.loc	3 239 9 is_stmt 1
	lw	s7, 20(sp)
.Ltmp1182:
	.loc	21 1045 18
	add	a0, s7, s3
.Ltmp1183:
	.loc	13 2774 9
	sb	s4, 2(a0)
	sb	s5, 1(a0)
	sb	s6, 0(a0)
.Ltmp1184:
	.loc	15 2038 9
	addi	s3, s3, 3
.Ltmp1185:
	sw	s3, 24(sp)
.Ltmp1186:
.LBB58_14:
	.loc	16 642 22
	addi	a0, sp, 36
	addi	a1, sp, 28
	call	_ZN87_$LT$core..str..lossy..Utf8Chunks$u20$as$u20$core..iter..traits..iterator..Iterator$GT$4next17hb951238aac599c5aE
	lw	s0, 36(sp)
	beqz	s0, .LBB58_20
.LBB58_15:
.Ltmp1187:
	.loc	3 247 44
	lw	a0, 16(sp)
.Ltmp1188:
	.loc	16 642 13
	lw	s1, 40(sp)
.Ltmp1189:
	lw	s9, 48(sp)
.Ltmp1190:
	.loc	7 1256 5
	sub	a0, a0, s3
.Ltmp1191:
	.loc	3 308 12
	bltu	a0, s1, .LBB58_19
.Ltmp1192:
.LBB58_16:
	.loc	21 1045 18
	add	a0, s7, s3
.Ltmp1193:
	.loc	13 2774 9
	mv	a1, s0
	mv	a2, s1
	call	memcpy@plt
.Ltmp1194:
	.loc	15 2038 9
	add	s3, s3, s1
.Ltmp1195:
	sw	s3, 24(sp)
.Ltmp1196:
	.loc	16 644 17
	beqz	s9, .LBB58_14
.Ltmp1197:
	.loc	3 247 44
	lw	a0, 16(sp)
.Ltmp1198:
	.loc	7 1256 5
	sub	a0, a0, s3
.Ltmp1199:
	.loc	3 308 12
	bltu	s8, a0, .LBB58_13
.Ltmp1200:
	.loc	3 309 13
	addi	a0, sp, 16
	li	a2, 3
	mv	a1, s3
	call	_ZN5alloc7raw_vec19RawVec$LT$T$C$A$GT$7reserve21do_reserve_and_handle17h943e2436917d6bc7E
.Ltmp1201:
	.loc	15 2145 9
	lw	s3, 24(sp)
.Ltmp1202:
	.loc	15 0 9 is_stmt 0
	j	.LBB58_13
.Ltmp1203:
.LBB58_19:
	.loc	3 309 13 is_stmt 1
	addi	a0, sp, 16
	mv	a1, s3
	mv	a2, s1
	call	_ZN5alloc7raw_vec19RawVec$LT$T$C$A$GT$7reserve21do_reserve_and_handle17h943e2436917d6bc7E
.Ltmp1204:
	.loc	15 2145 9
	lw	s3, 24(sp)
.Ltmp1205:
	.loc	3 239 9
	lw	s7, 20(sp)
	j	.LBB58_16
.Ltmp1206:
.LBB58_20:
	.loc	16 649 9
	lw	a0, 24(sp)
	lw	a1, 20(sp)
	lw	a2, 16(sp)
	sw	a0, 8(s2)
	sw	a1, 4(s2)
	sw	a2, 0(s2)
.Ltmp1207:
.LBB58_21:
	.loc	16 650 6
	lw	ra, 92(sp)
	lw	s0, 88(sp)
	lw	s1, 84(sp)
	lw	s2, 80(sp)
	lw	s3, 76(sp)
	lw	s4, 72(sp)
	lw	s5, 68(sp)
	lw	s6, 64(sp)
	lw	s7, 60(sp)
	lw	s8, 56(sp)
	lw	s9, 52(sp)
	.loc	16 650 6 epilogue_begin is_stmt 0
	addi	sp, sp, 96
	ret
.LBB58_22:
.Ltmp1208:
	.loc	3 309 13 is_stmt 1
	addi	a0, sp, 16
	li	a1, 0
	mv	a2, s3
	call	_ZN5alloc7raw_vec19RawVec$LT$T$C$A$GT$7reserve21do_reserve_and_handle17h943e2436917d6bc7E
.Ltmp1209:
	.loc	15 2145 9
	lw	s4, 24(sp)
.Ltmp1210:
	.loc	3 239 9
	lw	a0, 20(sp)
	j	.LBB58_10
.Ltmp1211:
.LBB58_23:
	.loc	3 309 13
	addi	a0, sp, 16
	li	a2, 3
	call	_ZN5alloc7raw_vec19RawVec$LT$T$C$A$GT$7reserve21do_reserve_and_handle17h943e2436917d6bc7E
.Ltmp1212:
	.loc	15 2145 9
	lw	a1, 24(sp)
	j	.LBB58_11
.Ltmp1213:
.LBB58_24:
	.loc	3 192 27
	call	_ZN5alloc7raw_vec17capacity_overflow17h6deb98aaf45da7a0E
.Ltmp1214:
.Lfunc_end58:
	.size	_ZN5alloc6string6String15from_utf8_lossy17h5c16508202988427E, .Lfunc_end58-_ZN5alloc6string6String15from_utf8_lossy17h5c16508202988427E
	.cfi_endproc

	.section	.text._ZN5alloc6string6String10from_utf1617h613a82f301ad5d79E,"ax",@progbits
	.globl	_ZN5alloc6string6String10from_utf1617h613a82f301ad5d79E
	.p2align	1
	.type	_ZN5alloc6string6String10from_utf1617h613a82f301ad5d79E,@function
_ZN5alloc6string6String10from_utf1617h613a82f301ad5d79E:
.Lfunc_begin59:
	.loc	16 671 0
	.cfi_startproc
	addi	sp, sp, -48
	.cfi_def_cfa_offset 48
	sw	ra, 44(sp)
	sw	s0, 40(sp)
	sw	s1, 36(sp)
	sw	s2, 32(sp)
	sw	s3, 28(sp)
	sw	s4, 24(sp)
	sw	s5, 20(sp)
	sw	s6, 16(sp)
	sw	s7, 12(sp)
	.cfi_offset ra, -4
	.cfi_offset s0, -8
	.cfi_offset s1, -12
	.cfi_offset s2, -16
	.cfi_offset s3, -20
	.cfi_offset s4, -24
	.cfi_offset s5, -28
	.cfi_offset s6, -32
	.cfi_offset s7, -36
	mv	s1, a2
.Ltmp1215:
	mv	s2, a0
.Ltmp1216:
	.loc	3 185 25 prologue_end
	beqz	a2, .LBB59_9
.Ltmp1217:
	.loc	3 190 26
	bltz	s1, .LBB59_14
.Ltmp1218:
	.loc	3 0 26 is_stmt 0
	mv	s0, a1
.Ltmp1219:
	.loc	2 1583 9 is_stmt 1
	lui	a0, %hi(__rust_no_alloc_shim_is_unstable)
	lbu	a0, %lo(__rust_no_alloc_shim_is_unstable)(a0)
.Ltmp1220:
	.loc	4 98 9
	li	a1, 1
	mv	a0, s1
	call	__rust_alloc
.Ltmp1221:
	.loc	3 202 23
	beqz	a0, .LBB59_15
.Ltmp1222:
	.loc	16 492 9
	sw	s1, 0(sp)
	sw	a0, 4(sp)
	sw	zero, 8(sp)
.Ltmp1223:
	.loc	19 944 18
	slli	s1, s1, 1
.Ltmp1224:
	add	s7, s0, s1
.Ltmp1225:
	.loc	19 0 18 is_stmt 0
	li	s3, 27
	lui	s4, 2
	li	s5, 63
	lui	s6, 16
	j	.LBB59_5
.Ltmp1226:
.LBB59_4:
	.loc	16 677 17 is_stmt 1
	mv	a0, sp
	call	_ZN5alloc6string6String4push17h0012f7c75d33ed6dE
.Ltmp1227:
	.loc	16 0 17 is_stmt 0
	mv	s0, s1
.Ltmp1228:
	.loc	33 162 24 is_stmt 1
	beq	s1, s7, .LBB59_10
.Ltmp1229:
.LBB59_5:
	.loc	28 1887 29
	lhu	a1, 0(s0)
.Ltmp1230:
	.loc	7 1152 24
	srli	a0, a1, 11
.Ltmp1231:
	.loc	44 623 37
	addi	s1, s0, 2
.Ltmp1232:
	.file	50 "/Users/steve/.rustup/toolchains/nightly-2024-02-01-aarch64-apple-darwin/lib/rustlib/src/rust/library/core/src/char" "decode.rs"
	.loc	50 49 13
	bne	a0, s3, .LBB59_4
.Ltmp1233:
	.loc	50 52 19
	srli	a0, a1, 10
	sltiu	a0, a0, 55
	xor	a2, s1, s7
	snez	a2, a2
	and	a0, a0, a2
.Ltmp1234:
	beqz	a0, .LBB59_11
.Ltmp1235:
	.loc	28 1887 29
	lhu	a0, 0(s1)
.Ltmp1236:
	.loc	50 61 16
	add	a2, a0, s4
	slli	a2, a2, 16
	srli	a2, a2, 26
	bltu	a2, s5, .LBB59_11
.Ltmp1237:
	.loc	44 623 37
	addi	s1, s0, 4
.Ltmp1238:
	.loc	50 69 22
	andi	a1, a1, 1023
.Ltmp1239:
	slli	a1, a1, 10
	.loc	50 69 51 is_stmt 0
	andi	a0, a0, 1023
.Ltmp1240:
	.loc	50 69 21
	or	a0, a0, a1
	add	a1, a0, s6
	j	.LBB59_4
.Ltmp1241:
.LBB59_9:
	.loc	16 492 9 is_stmt 1
	sw	s1, 0(sp)
	li	a0, 1
	sw	a0, 4(sp)
	sw	zero, 8(sp)
.Ltmp1242:
.LBB59_10:
	.loc	16 682 9
	lw	a0, 8(sp)
	lw	a1, 4(sp)
	lw	a2, 0(sp)
	sw	a0, 8(s2)
	sw	a1, 4(s2)
	sw	a2, 0(s2)
	j	.LBB59_13
.Ltmp1243:
.LBB59_11:
	.loc	2 507 1
	lw	a1, 0(sp)
.Ltmp1244:
	.loc	2 0 1 is_stmt 0
	lui	a0, 524288
.Ltmp1245:
	.loc	16 679 24 is_stmt 1
	sw	a0, 0(s2)
.Ltmp1246:
	.loc	3 256 25
	beqz	a1, .LBB59_13
.Ltmp1247:
	.loc	2 507 1
	lw	a0, 4(sp)
.Ltmp1248:
	.loc	4 117 14
	li	a2, 1
	call	__rust_dealloc
.Ltmp1249:
.LBB59_13:
	.loc	16 683 6
	lw	ra, 44(sp)
	lw	s0, 40(sp)
	lw	s1, 36(sp)
	lw	s2, 32(sp)
	lw	s3, 28(sp)
	lw	s4, 24(sp)
	lw	s5, 20(sp)
	lw	s6, 16(sp)
	lw	s7, 12(sp)
	.loc	16 683 6 epilogue_begin is_stmt 0
	addi	sp, sp, 48
	ret
.LBB59_14:
.Ltmp1250:
	.loc	3 192 27 is_stmt 1
	call	_ZN5alloc7raw_vec17capacity_overflow17h6deb98aaf45da7a0E
.Ltmp1251:
.LBB59_15:
	.loc	3 204 27
	li	a0, 1
.Ltmp1252:
	mv	a1, s1
	call	_ZN5alloc5alloc18handle_alloc_error17h7e3d1e4e5e7ceb74E
.Ltmp1253:
.Lfunc_end59:
	.size	_ZN5alloc6string6String10from_utf1617h613a82f301ad5d79E, .Lfunc_end59-_ZN5alloc6string6String10from_utf1617h613a82f301ad5d79E
	.cfi_endproc
	.file	51 "/Users/steve/.rustup/toolchains/nightly-2024-02-01-aarch64-apple-darwin/lib/rustlib/src/rust/library/core/src/iter/adapters" "cloned.rs"

	.section	.text._ZN5alloc6string6String12from_utf16le17h44ab56a9afe1e20aE,"ax",@progbits
	.globl	_ZN5alloc6string6String12from_utf16le17h44ab56a9afe1e20aE
	.p2align	1
	.type	_ZN5alloc6string6String12from_utf16le17h44ab56a9afe1e20aE,@function
_ZN5alloc6string6String12from_utf16le17h44ab56a9afe1e20aE:
.Lfunc_begin60:
	.loc	16 739 0
	.cfi_startproc
	addi	sp, sp, -48
	.cfi_def_cfa_offset 48
.Ltmp1254:
	.loc	16 740 12 prologue_end
	sw	ra, 44(sp)
	sw	s0, 40(sp)
	sw	s1, 36(sp)
	sw	s2, 32(sp)
	sw	s3, 28(sp)
	sw	s4, 24(sp)
	sw	s5, 20(sp)
	sw	s6, 16(sp)
	sw	s7, 12(sp)
	.cfi_offset ra, -4
	.cfi_offset s0, -8
	.cfi_offset s1, -12
	.cfi_offset s2, -16
	.cfi_offset s3, -20
	.cfi_offset s4, -24
	.cfi_offset s5, -28
	.cfi_offset s6, -32
	.cfi_offset s7, -36
	andi	a3, a2, 1
.Ltmp1255:
	.loc	16 0 12 is_stmt 0
	mv	s2, a0
	.loc	16 740 12
	bnez	a3, .LBB60_19
.Ltmp1256:
	.loc	2 1777 31 is_stmt 1
	addi	a0, a1, 1
	andi	a0, a0, -2
.Ltmp1257:
	.loc	2 1778 27
	sub	a0, a0, a1
.Ltmp1258:
	.loc	48 3803 12
	bgeu	a2, a0, .LBB60_3
.Ltmp1259:
	.loc	48 0 12 is_stmt 0
	li	a2, 0
.Ltmp1260:
	lui	a0, %hi(.L__unnamed_9)
.Ltmp1261:
	addi	a1, a0, %lo(.L__unnamed_9)
.Ltmp1262:
	j	.LBB60_21
.LBB60_3:
.Ltmp1263:
	.loc	48 1974 74 is_stmt 1
	sub	a3, a2, a0
.Ltmp1264:
	.loc	48 3754 22
	andi	a4, a3, 1
.Ltmp1265:
	.loc	48 3803 9
	or	a4, a4, a0
.Ltmp1266:
	.loc	16 744 21
	beqz	a4, .LBB60_20
.Ltmp1267:
	.loc	48 1284 32
	srli	a0, a2, 1
.Ltmp1268:
	.loc	16 449 9
	sw	zero, 0(sp)
	li	a3, 1
	sw	a3, 4(sp)
	sw	zero, 8(sp)
.Ltmp1269:
	.loc	33 162 24
	beqz	a0, .LBB60_18
.Ltmp1270:
	.loc	28 1863 19
	lbu	a3, 1(a1)
.Ltmp1271:
	.loc	44 623 37
	addi	s0, a1, 2
.Ltmp1272:
	.loc	28 1863 19
	lbu	a4, 0(a1)
	slli	a3, a3, 8
.Ltmp1273:
	.loc	7 1152 24
	srli	a5, a3, 11
	li	s1, 27
.Ltmp1274:
	.loc	28 1863 19
	or	a3, a3, a4
.Ltmp1275:
	.loc	50 49 13
	bne	a5, s1, .LBB60_9
.Ltmp1276:
	.loc	50 52 19
	srli	a4, a3, 10
	sltiu	a4, a4, 55
	addi	a0, a0, -1
	snez	a0, a0
	and	a0, a0, a4
.Ltmp1277:
	beqz	a0, .LBB60_19
.Ltmp1278:
	.loc	28 1863 19
	lbu	a0, 1(s0)
	lbu	a4, 0(s0)
	slli	a0, a0, 8
	or	a0, a0, a4
	lui	a4, 2
.Ltmp1279:
	.loc	50 61 16
	add	a4, a4, a0
	slli	a4, a4, 16
	srli	a4, a4, 26
	li	a5, 63
	bltu	a4, a5, .LBB60_19
.Ltmp1280:
	.loc	44 623 37
	addi	s0, a1, 4
.Ltmp1281:
	.loc	50 69 22
	andi	a3, a3, 1023
.Ltmp1282:
	slli	a3, a3, 10
	.loc	50 69 51 is_stmt 0
	andi	a0, a0, 1023
.Ltmp1283:
	.loc	50 69 21
	or	a0, a0, a3
	lui	a3, 16
	add	a3, a3, a0
.Ltmp1284:
.LBB60_9:
	.loc	16 0 0
	andi	a2, a2, -2
.Ltmp1285:
	add	s7, a1, a2
.Ltmp1286:
	.loc	16 2174 36 is_stmt 1
	mv	a0, sp
	mv	a1, a3
.Ltmp1287:
	call	_ZN5alloc6string6String4push17h0012f7c75d33ed6dE
.Ltmp1288:
	.loc	33 162 24
	beq	s0, s7, .LBB60_18
.Ltmp1289:
	.loc	33 0 24 is_stmt 0
	li	s3, 27
	lui	s4, 2
	li	s5, 63
	lui	s6, 16
	j	.LBB60_13
.Ltmp1290:
.LBB60_11:
	.loc	44 623 37 is_stmt 1
	addi	s1, s0, 4
.Ltmp1291:
	.loc	50 69 22
	andi	a1, a1, 1023
.Ltmp1292:
	slli	a1, a1, 10
	.loc	50 69 51 is_stmt 0
	andi	a0, a0, 1023
.Ltmp1293:
	.loc	50 69 21
	or	a0, a0, a1
	add	a1, a0, s6
.Ltmp1294:
.LBB60_12:
	.loc	16 2174 36 is_stmt 1
	mv	a0, sp
	call	_ZN5alloc6string6String4push17h0012f7c75d33ed6dE
.Ltmp1295:
	.loc	16 0 36 is_stmt 0
	mv	s0, s1
.Ltmp1296:
	.loc	33 162 24 is_stmt 1
	beq	s1, s7, .LBB60_18
.Ltmp1297:
.LBB60_13:
	.loc	28 1863 19
	lbu	a0, 1(s0)
	lbu	a1, 0(s0)
.Ltmp1298:
	.loc	44 623 37
	addi	s1, s0, 2
.Ltmp1299:
	.loc	28 1863 19
	slli	a0, a0, 8
.Ltmp1300:
	.loc	7 1152 24
	srli	a2, a0, 11
.Ltmp1301:
	.loc	28 1863 19
	or	a1, a1, a0
.Ltmp1302:
	.loc	50 49 13
	bne	a2, s3, .LBB60_12
.Ltmp1303:
	.loc	50 52 19
	srli	a0, a1, 10
	sltiu	a0, a0, 55
	xor	a2, s1, s7
	snez	a2, a2
	and	a0, a0, a2
.Ltmp1304:
	beqz	a0, .LBB60_16
.Ltmp1305:
	.loc	28 1863 19
	lbu	a0, 1(s1)
	lbu	a2, 0(s1)
	slli	a0, a0, 8
	or	a0, a0, a2
.Ltmp1306:
	.loc	50 61 16
	add	a2, a0, s4
	slli	a2, a2, 16
	srli	a2, a2, 26
	bgeu	a2, s5, .LBB60_11
.Ltmp1307:
.LBB60_16:
	.loc	16 2094 9
	lw	a1, 0(sp)
.Ltmp1308:
	.loc	3 256 25
	beqz	a1, .LBB60_19
.Ltmp1309:
	.file	52 "/Users/steve/.rustup/toolchains/nightly-2024-02-01-aarch64-apple-darwin/lib/rustlib/src/rust/library/core/src/iter/adapters" "mod.rs"
	.loc	52 0 0 is_stmt 0
	lw	a0, 4(sp)
.Ltmp1310:
	.loc	4 117 14 is_stmt 1
	li	a2, 1
	call	__rust_dealloc
.Ltmp1311:
	.loc	4 0 14 is_stmt 0
	j	.LBB60_19
.Ltmp1312:
.LBB60_18:
	.loc	16 2094 9 is_stmt 1
	lw	a0, 0(sp)
	lui	a1, 524288
	bne	a0, a1, .LBB60_23
.Ltmp1313:
.LBB60_19:
	.loc	16 0 9 is_stmt 0
	lui	a0, 524288
	sw	a0, 0(s2)
	j	.LBB60_22
.LBB60_20:
.Ltmp1314:
	add	a1, a1, a0
.Ltmp1315:
	srli	a2, a3, 1
.Ltmp1316:
.LBB60_21:
	.loc	16 744 36 is_stmt 1
	mv	a0, s2
	call	_ZN5alloc6string6String10from_utf1617h613a82f301ad5d79E
.Ltmp1317:
.LBB60_22:
	.loc	16 749 6
	lw	ra, 44(sp)
	lw	s0, 40(sp)
	lw	s1, 36(sp)
	lw	s2, 32(sp)
	lw	s3, 28(sp)
	lw	s4, 24(sp)
	lw	s5, 20(sp)
	lw	s6, 16(sp)
	lw	s7, 12(sp)
	.loc	16 749 6 epilogue_begin is_stmt 0
	addi	sp, sp, 48
	ret
.LBB60_23:
.Ltmp1318:
	.loc	16 0 0
	lw	a1, 4(sp)
	lw	a2, 8(sp)
.Ltmp1319:
	.loc	9 828 22 is_stmt 1
	sw	a0, 0(s2)
	sw	a1, 4(s2)
	sw	a2, 8(s2)
	j	.LBB60_22
.Ltmp1320:
.Lfunc_end60:
	.size	_ZN5alloc6string6String12from_utf16le17h44ab56a9afe1e20aE, .Lfunc_end60-_ZN5alloc6string6String12from_utf16le17h44ab56a9afe1e20aE
	.cfi_endproc
	.file	53 "/Users/steve/.rustup/toolchains/nightly-2024-02-01-aarch64-apple-darwin/lib/rustlib/src/rust/library/core/src/iter/adapters" "copied.rs"
	.file	54 "/Users/steve/.rustup/toolchains/nightly-2024-02-01-aarch64-apple-darwin/lib/rustlib/src/rust/library/core/src/iter" "mod.rs"
	.file	55 "/Users/steve/.rustup/toolchains/nightly-2024-02-01-aarch64-apple-darwin/lib/rustlib/src/rust/library/core/src/ops" "try_trait.rs"

	.section	.text._ZN5alloc6string6String18from_utf16le_lossy17h33825045565909bdE,"ax",@progbits
	.globl	_ZN5alloc6string6String18from_utf16le_lossy17h33825045565909bdE
	.p2align	1
	.type	_ZN5alloc6string6String18from_utf16le_lossy17h33825045565909bdE,@function
_ZN5alloc6string6String18from_utf16le_lossy17h33825045565909bdE:
.Lfunc_begin61:
	.loc	16 778 0
	.cfi_startproc
	addi	sp, sp, -96
	.cfi_def_cfa_offset 96
	sw	ra, 92(sp)
	sw	s0, 88(sp)
	sw	s1, 84(sp)
	sw	s2, 80(sp)
	sw	s3, 76(sp)
	sw	s4, 72(sp)
	sw	s5, 68(sp)
	sw	s6, 64(sp)
	sw	s7, 60(sp)
	sw	s8, 56(sp)
	sw	s9, 52(sp)
	sw	s10, 48(sp)
	sw	s11, 44(sp)
	.cfi_offset ra, -4
	.cfi_offset s0, -8
	.cfi_offset s1, -12
	.cfi_offset s2, -16
	.cfi_offset s3, -20
	.cfi_offset s4, -24
	.cfi_offset s5, -28
	.cfi_offset s6, -32
	.cfi_offset s7, -36
	.cfi_offset s8, -40
	.cfi_offset s9, -44
	.cfi_offset s10, -48
	.cfi_offset s11, -52
	mv	s3, a1
.Ltmp1321:
	.loc	2 1777 31 prologue_end
	addi	a3, a1, 1
	andi	a3, a3, -2
.Ltmp1322:
	.loc	2 1778 27
	sub	a1, a3, a1
.Ltmp1323:
	.loc	2 0 27 is_stmt 0
	mv	s2, a0
.Ltmp1324:
	.loc	48 3803 12 is_stmt 1
	bgeu	a2, a1, .LBB61_2
.Ltmp1325:
	.loc	48 0 12 is_stmt 0
	li	a0, 0
	lui	a1, %hi(.L__unnamed_9)
.Ltmp1326:
	addi	s3, a1, %lo(.L__unnamed_9)
.Ltmp1327:
	j	.LBB61_4
.Ltmp1328:
.LBB61_2:
	mv	s0, a2
.Ltmp1329:
	.loc	16 780 21 is_stmt 1
	bne	a3, s3, .LBB61_6
.Ltmp1330:
	.loc	48 0 0 is_stmt 0
	add	s3, s3, a1
.Ltmp1331:
	sub	a0, s0, a1
.Ltmp1332:
	.loc	48 3754 22 is_stmt 1
	andi	a1, a0, 1
.Ltmp1333:
	.loc	48 0 0 is_stmt 0
	srli	a0, a0, 1
.Ltmp1334:
	.loc	16 780 28 is_stmt 1
	bnez	a1, .LBB61_38
.Ltmp1335:
.LBB61_4:
	.loc	19 944 18
	slli	a0, a0, 1
.Ltmp1336:
	add	a0, a0, s3
.Ltmp1337:
	.loc	35 70 9
	sh	zero, 16(sp)
	sw	s3, 20(sp)
	sw	a0, 24(sp)
.Ltmp1338:
	.loc	16 449 9
	sw	zero, 32(sp)
	li	a0, 1
.Ltmp1339:
	sw	a0, 36(sp)
	sw	zero, 40(sp)
.Ltmp1340:
	.loc	16 2093 9
	addi	a0, sp, 32
	addi	a1, sp, 16
	call	_ZN89_$LT$alloc..string..String$u20$as$u20$core..iter..traits..collect..Extend$LT$char$GT$$GT$6extend17h5f707584e3ac9710E
	.loc	16 2094 9
	lw	a0, 40(sp)
	lw	a1, 36(sp)
	lw	a2, 32(sp)
.Ltmp1341:
.LBB61_5:
	.loc	16 0 0 is_stmt 0
	sw	a0, 8(s2)
	sw	a1, 4(s2)
	j	.LBB61_43
.LBB61_6:
.Ltmp1342:
	.loc	19 944 18 is_stmt 1
	andi	s5, s0, -2
.Ltmp1343:
	.loc	16 449 9
	sw	zero, 32(sp)
	li	a0, 1
	sw	a0, 36(sp)
.Ltmp1344:
	.loc	10 2662 21
	srli	a2, s0, 2
.Ltmp1345:
	.loc	10 2663 21
	slli	a0, s0, 30
	srli	a0, a0, 31
.Ltmp1346:
	.loc	10 2664 16
	add	a2, a2, a0
.Ltmp1347:
	.loc	16 449 9
	sw	zero, 40(sp)
.Ltmp1348:
	.loc	3 308 12
	bnez	a2, .LBB61_44
.Ltmp1349:
.LBB61_7:
	.loc	3 0 12 is_stmt 0
	li	s6, 0
	li	s11, 0
	andi	s0, s0, 1
.Ltmp1350:
	sw	s0, 0(sp)
.Ltmp1351:
	add	s5, s5, s3
.Ltmp1352:
	li	s7, 27
	lui	s9, 16
	addi	s9, s9, -3
	lui	a0, 256
	addi	s8, a0, -1024
	li	s4, 127
	li	s10, 128
	j	.LBB61_11
.Ltmp1353:
.LBB61_8:
	.file	56 "/Users/steve/.rustup/toolchains/nightly-2024-02-01-aarch64-apple-darwin/lib/rustlib/src/rust/library/core/src/char" "methods.rs"
	.loc	56 1776 19 is_stmt 1
	srli	a0, s0, 6
.Ltmp1354:
	.loc	56 1776 13 is_stmt 0
	ori	a0, a0, 192
	sb	a0, 4(sp)
	.loc	56 1777 18 is_stmt 1
	andi	a0, s0, 63
	.loc	56 1777 13 is_stmt 0
	addi	a0, a0, 128
	sb	a0, 5(sp)
	li	s0, 2
.Ltmp1355:
.LBB61_9:
	.loc	15 911 26 is_stmt 1
	lw	s1, 40(sp)
.Ltmp1356:
	.loc	3 247 44
	lw	a0, 32(sp)
.Ltmp1357:
	.loc	7 1256 5
	sub	a0, a0, s1
.Ltmp1358:
	.loc	3 308 12
	bltu	a0, s0, .LBB61_35
.Ltmp1359:
.LBB61_10:
	.loc	3 239 9
	lw	a0, 36(sp)
.Ltmp1360:
	.loc	21 1045 18
	add	a0, a0, s1
.Ltmp1361:
	.loc	13 2774 9
	addi	a1, sp, 4
	mv	a2, s0
	call	memcpy@plt
.Ltmp1362:
	.loc	15 2038 9
	add	s0, s0, s1
.Ltmp1363:
	sw	s0, 40(sp)
.Ltmp1364:
.LBB61_11:
	.loc	50 44 17
	slli	s11, s11, 16
	beqz	s11, .LBB61_13
.Ltmp1365:
	.loc	50 0 17 is_stmt 0
	mv	s0, s6
.Ltmp1366:
	.loc	7 1152 24 is_stmt 1
	slli	a0, s6, 16
	srli	a1, a0, 27
.Ltmp1367:
	.loc	50 49 13
	bne	a1, s7, .LBB61_15
	j	.LBB61_26
.Ltmp1368:
.LBB61_13:
	.loc	33 162 24
	beq	s3, s5, .LBB61_36
.Ltmp1369:
	.loc	28 1863 19
	lbu	a0, 1(s3)
	lbu	a1, 0(s3)
.Ltmp1370:
	.loc	44 623 37
	addi	s3, s3, 2
.Ltmp1371:
	.loc	28 1863 19
	slli	a0, a0, 8
	or	s0, a0, a1
.Ltmp1372:
	.loc	7 1152 24
	slli	a0, s0, 16
	srli	a1, a0, 27
.Ltmp1373:
	.loc	50 49 13
	beq	a1, s7, .LBB61_26
.Ltmp1374:
.LBB61_15:
	.loc	56 1742 8
	srli	a0, a0, 16
	bltu	s4, a0, .LBB61_33
.Ltmp1375:
	.loc	15 1921 12
	lw	a1, 40(sp)
.Ltmp1376:
	.loc	3 247 44
	lw	a0, 32(sp)
.Ltmp1377:
	.loc	15 1921 12
	bne	a1, a0, .LBB61_18
.Ltmp1378:
	.loc	15 1922 13
	addi	a0, sp, 32
	call	_ZN5alloc7raw_vec19RawVec$LT$T$C$A$GT$16reserve_for_push17hd330d0d5c0992dd6E
	.loc	15 1925 45
	lw	a1, 40(sp)
.Ltmp1379:
.LBB61_18:
	.loc	3 239 9
	lw	a0, 36(sp)
	j	.LBB61_20
.Ltmp1380:
.LBB61_19:
	lw	a0, 36(sp)
.Ltmp1381:
	.loc	36 0 0 is_stmt 0
	addi	s3, s3, 2
.Ltmp1382:
.LBB61_20:
	.loc	21 1045 18 is_stmt 1
	add	a0, a0, a1
.Ltmp1383:
	.loc	2 1415 9
	sb	s0, 0(a0)
.Ltmp1384:
	.loc	15 1927 13
	addi	a1, a1, 1
.Ltmp1385:
	sw	a1, 40(sp)
.Ltmp1386:
	.loc	33 162 24
	beq	s3, s5, .LBB61_36
.Ltmp1387:
	.loc	28 1863 19
	lbu	a0, 1(s3)
	lbu	a1, 0(s3)
	slli	a0, a0, 8
.Ltmp1388:
	.loc	7 1152 24
	srli	a2, a0, 11
.Ltmp1389:
	.loc	28 1863 19
	or	s0, a0, a1
.Ltmp1390:
	.loc	50 49 13
	beq	a2, s7, .LBB61_25
.Ltmp1391:
	.loc	56 1742 8
	bgeu	s0, s10, .LBB61_32
.Ltmp1392:
	.loc	15 1921 12
	lw	a1, 40(sp)
.Ltmp1393:
	.loc	3 247 44
	lw	a0, 32(sp)
.Ltmp1394:
	.loc	15 1921 12
	bne	a1, a0, .LBB61_19
.Ltmp1395:
	.loc	15 1922 13
	addi	a0, sp, 32
	call	_ZN5alloc7raw_vec19RawVec$LT$T$C$A$GT$16reserve_for_push17hd330d0d5c0992dd6E
	.loc	15 1925 45
	lw	a1, 40(sp)
	j	.LBB61_19
.Ltmp1396:
.LBB61_25:
	.loc	50 52 19
	addi	s3, s3, 2
.Ltmp1397:
.LBB61_26:
	slli	a0, s0, 16
	srli	a0, a0, 26
	sltiu	a0, a0, 55
	xor	a1, s3, s5
	snez	a1, a1
	and	a0, a0, a1
.Ltmp1398:
	bnez	a0, .LBB61_28
.Ltmp1399:
	.loc	50 0 19 is_stmt 0
	li	s11, 0
	j	.LBB61_30
.Ltmp1400:
.LBB61_28:
	.loc	28 1863 19 is_stmt 1
	lbu	a0, 1(s3)
	lbu	a1, 0(s3)
.Ltmp1401:
	.loc	44 623 37
	addi	s3, s3, 2
.Ltmp1402:
	.loc	28 1863 19
	slli	a0, a0, 8
	or	a0, a0, a1
.Ltmp1403:
	.loc	50 61 16
	lui	a1, 2
.Ltmp1404:
	add	a1, a1, a0
	slli	a1, a1, 16
	srli	a1, a1, 26
	li	s11, 1
	li	a2, 63
	bgeu	a1, a2, .LBB61_31
.Ltmp1405:
	.loc	50 0 16 is_stmt 0
	mv	s6, a0
.Ltmp1406:
.LBB61_30:
	.loc	16 1347 65 is_stmt 1
	sw	zero, 4(sp)
	mv	a0, s9
	j	.LBB61_34
.Ltmp1407:
.LBB61_31:
	.loc	16 0 65 is_stmt 0
	li	s11, 0
.Ltmp1408:
	.loc	50 69 22 is_stmt 1
	slli	s0, s0, 10
.Ltmp1409:
	and	a1, s0, s8
	.loc	50 69 51 is_stmt 0
	andi	a2, a0, 960
	.loc	50 69 21
	lui	a3, 16
	add	a1, a1, a3
	or	a2, a2, s0
.Ltmp1410:
	.loc	56 1785 19 is_stmt 1
	srli	a3, a1, 18
	.loc	56 1785 13 is_stmt 0
	addi	a3, a3, 240
	sb	a3, 4(sp)
	.loc	56 1786 18 is_stmt 1
	slli	a1, a1, 14
	srli	a1, a1, 26
	.loc	56 1786 13 is_stmt 0
	addi	a1, a1, 128
	sb	a1, 5(sp)
	.loc	56 1787 18 is_stmt 1
	slli	a2, a2, 20
	srli	a2, a2, 26
	.loc	56 1787 13 is_stmt 0
	addi	a1, a2, 128
	sb	a1, 6(sp)
	.loc	56 1788 18 is_stmt 1
	andi	a0, a0, 63
.Ltmp1411:
	.loc	56 1788 13 is_stmt 0
	addi	a0, a0, 128
	sb	a0, 7(sp)
	li	s0, 4
	j	.LBB61_9
.Ltmp1412:
.LBB61_32:
	.loc	50 51 55 is_stmt 1
	addi	s3, s3, 2
.Ltmp1413:
.LBB61_33:
	slli	a0, s0, 16
	srli	a0, a0, 16
.Ltmp1414:
	.loc	56 1744 15
	srli	a1, a0, 11
.Ltmp1415:
	.loc	16 1347 65
	sw	zero, 4(sp)
.Ltmp1416:
	.loc	16 0 65 is_stmt 0
	li	s11, 0
.Ltmp1417:
	.loc	56 1744 15 is_stmt 1
	beqz	a1, .LBB61_8
.Ltmp1418:
.LBB61_34:
	.loc	56 1780 19
	srli	a1, a0, 12
	.loc	56 1780 13 is_stmt 0
	addi	a1, a1, 224
	sb	a1, 4(sp)
	.loc	56 1781 18 is_stmt 1
	slli	a1, a0, 20
	srli	a1, a1, 26
	.loc	56 1781 13 is_stmt 0
	addi	a1, a1, 128
	sb	a1, 5(sp)
	.loc	56 1782 18 is_stmt 1
	andi	a0, a0, 63
.Ltmp1419:
	.loc	56 1782 13 is_stmt 0
	addi	a0, a0, 128
	sb	a0, 6(sp)
	li	s0, 3
	j	.LBB61_9
.Ltmp1420:
.LBB61_35:
	.loc	3 309 13 is_stmt 1
	addi	a0, sp, 32
	mv	a1, s1
	mv	a2, s0
	call	_ZN5alloc7raw_vec19RawVec$LT$T$C$A$GT$7reserve21do_reserve_and_handle17h943e2436917d6bc7E
.Ltmp1421:
	.loc	15 2145 9
	lw	s1, 40(sp)
.Ltmp1422:
	.loc	15 0 9 is_stmt 0
	j	.LBB61_10
.Ltmp1423:
.LBB61_36:
	.loc	16 2094 9 is_stmt 1
	lw	a0, 40(sp)
	lw	a1, 36(sp)
	lw	a2, 32(sp)
	sw	a0, 24(sp)
	sw	a1, 20(sp)
	sw	a2, 16(sp)
.Ltmp1424:
	.loc	16 787 20
	lw	a0, 0(sp)
	bnez	a0, .LBB61_40
.Ltmp1425:
	.loc	16 787 50 is_stmt 0
	lw	a0, 24(sp)
	lw	a1, 20(sp)
	lw	a2, 16(sp)
	j	.LBB61_5
.Ltmp1426:
.LBB61_38:
	.loc	19 944 18 is_stmt 1
	slli	a0, a0, 1
.Ltmp1427:
	add	a0, a0, s3
.Ltmp1428:
	.loc	35 70 9
	sh	zero, 16(sp)
	sw	s3, 20(sp)
	sw	a0, 24(sp)
.Ltmp1429:
	.loc	16 449 9
	sw	zero, 32(sp)
	li	a0, 1
.Ltmp1430:
	sw	a0, 36(sp)
	sw	zero, 40(sp)
.Ltmp1431:
	.loc	16 2093 9
	addi	a0, sp, 32
	addi	a1, sp, 16
	call	_ZN89_$LT$alloc..string..String$u20$as$u20$core..iter..traits..collect..Extend$LT$char$GT$$GT$6extend17h5f707584e3ac9710E
	.loc	16 2094 9
	lw	a1, 40(sp)
	lw	a0, 36(sp)
	lw	a2, 32(sp)
.Ltmp1432:
	sw	a1, 12(sp)
	sw	a0, 8(sp)
.Ltmp1433:
	.loc	7 1256 5
	sub	a0, a2, a1
	li	a3, 2
.Ltmp1434:
	.loc	16 2094 9
	sw	a2, 4(sp)
.Ltmp1435:
	.loc	16 0 9 is_stmt 0
	bgeu	a3, a0, .LBB61_45
.Ltmp1436:
.LBB61_39:
	.loc	3 239 9 is_stmt 1
	lw	a0, 8(sp)
.Ltmp1437:
	.loc	21 1045 18
	add	a0, a0, a1
.Ltmp1438:
	.loc	21 0 18 is_stmt 0
	li	a2, 189
.Ltmp1439:
	.loc	13 2774 9 is_stmt 1
	sb	a2, 2(a0)
	li	a2, 191
	sb	a2, 1(a0)
	li	a2, 239
	sb	a2, 0(a0)
.Ltmp1440:
	.loc	15 2038 9
	addi	a1, a1, 3
.Ltmp1441:
	sw	a1, 12(sp)
.Ltmp1442:
	.loc	16 2415 9
	lw	a0, 8(sp)
.Ltmp1443:
	lw	a2, 4(sp)
	j	.LBB61_42
.Ltmp1444:
.LBB61_40:
	.loc	16 787 66
	lw	a1, 24(sp)
	lw	a0, 20(sp)
	lw	a2, 16(sp)
.Ltmp1445:
	sw	a1, 40(sp)
	sw	a0, 36(sp)
.Ltmp1446:
	.loc	7 1256 5
	sub	a0, a2, a1
	li	a3, 2
.Ltmp1447:
	.loc	16 787 66
	sw	a2, 32(sp)
.Ltmp1448:
	.loc	3 308 12
	bgeu	a3, a0, .LBB61_46
.Ltmp1449:
.LBB61_41:
	.loc	3 239 9
	lw	a0, 36(sp)
.Ltmp1450:
	.loc	21 1045 18
	add	a0, a0, a1
.Ltmp1451:
	.loc	21 0 18 is_stmt 0
	li	a2, 189
.Ltmp1452:
	.loc	13 2774 9 is_stmt 1
	sb	a2, 2(a0)
	li	a2, 191
	sb	a2, 1(a0)
	li	a2, 239
	sb	a2, 0(a0)
.Ltmp1453:
	.loc	15 2038 9
	addi	a1, a1, 3
.Ltmp1454:
	sw	a1, 40(sp)
.Ltmp1455:
	.loc	16 2415 9
	lw	a0, 36(sp)
.Ltmp1456:
	lw	a2, 32(sp)
.Ltmp1457:
.LBB61_42:
	.loc	16 2415 9 is_stmt 0
	sw	a1, 8(s2)
	sw	a0, 4(s2)
.Ltmp1458:
.LBB61_43:
	.loc	16 0 0
	sw	a2, 0(s2)
	.loc	16 790 6 is_stmt 1
	lw	ra, 92(sp)
	lw	s0, 88(sp)
	lw	s1, 84(sp)
	lw	s2, 80(sp)
	lw	s3, 76(sp)
	lw	s4, 72(sp)
	lw	s5, 68(sp)
	lw	s6, 64(sp)
	lw	s7, 60(sp)
	lw	s8, 56(sp)
	lw	s9, 52(sp)
	lw	s10, 48(sp)
	lw	s11, 44(sp)
	.loc	16 790 6 epilogue_begin is_stmt 0
	addi	sp, sp, 96
	ret
.LBB61_44:
.Ltmp1459:
	.loc	3 309 13 is_stmt 1
	addi	a0, sp, 32
	li	a1, 0
	call	_ZN5alloc7raw_vec19RawVec$LT$T$C$A$GT$7reserve21do_reserve_and_handle17h943e2436917d6bc7E
.Ltmp1460:
	.loc	3 0 13 is_stmt 0
	j	.LBB61_7
.Ltmp1461:
.LBB61_45:
	.loc	3 309 13
	addi	a0, sp, 4
	li	a2, 3
	call	_ZN5alloc7raw_vec19RawVec$LT$T$C$A$GT$7reserve21do_reserve_and_handle17h943e2436917d6bc7E
.Ltmp1462:
	.loc	15 2145 9 is_stmt 1
	lw	a1, 12(sp)
	j	.LBB61_39
.Ltmp1463:
.LBB61_46:
	.loc	3 309 13
	addi	a0, sp, 32
	li	a2, 3
	call	_ZN5alloc7raw_vec19RawVec$LT$T$C$A$GT$7reserve21do_reserve_and_handle17h943e2436917d6bc7E
.Ltmp1464:
	.loc	15 2145 9
	lw	a1, 40(sp)
	j	.LBB61_41
.Ltmp1465:
.Lfunc_end61:
	.size	_ZN5alloc6string6String18from_utf16le_lossy17h33825045565909bdE, .Lfunc_end61-_ZN5alloc6string6String18from_utf16le_lossy17h33825045565909bdE
	.cfi_endproc

	.section	.text._ZN5alloc6string6String12from_utf16be17hfafb63ce617aa991E,"ax",@progbits
	.globl	_ZN5alloc6string6String12from_utf16be17hfafb63ce617aa991E
	.p2align	1
	.type	_ZN5alloc6string6String12from_utf16be17hfafb63ce617aa991E,@function
_ZN5alloc6string6String12from_utf16be17hfafb63ce617aa991E:
.Lfunc_begin62:
	.loc	16 814 0
	.cfi_startproc
	addi	sp, sp, -48
	.cfi_def_cfa_offset 48
.Ltmp1466:
	.loc	16 815 12 prologue_end
	sw	ra, 44(sp)
	sw	s0, 40(sp)
	sw	s1, 36(sp)
	sw	s2, 32(sp)
	sw	s3, 28(sp)
	sw	s4, 24(sp)
	sw	s5, 20(sp)
	sw	s6, 16(sp)
	sw	s7, 12(sp)
	.cfi_offset ra, -4
	.cfi_offset s0, -8
	.cfi_offset s1, -12
	.cfi_offset s2, -16
	.cfi_offset s3, -20
	.cfi_offset s4, -24
	.cfi_offset s5, -28
	.cfi_offset s6, -32
	.cfi_offset s7, -36
	andi	a3, a2, 1
.Ltmp1467:
	.loc	16 0 12 is_stmt 0
	mv	s2, a0
	.loc	16 815 12
	bnez	a3, .LBB62_18
.Ltmp1468:
	.loc	48 1284 32 is_stmt 1
	srli	a3, a2, 1
.Ltmp1469:
	.loc	16 449 9
	sw	zero, 0(sp)
	li	a0, 1
	sw	a0, 4(sp)
	sw	zero, 8(sp)
.Ltmp1470:
	.loc	33 162 24
	beqz	a3, .LBB62_14
.Ltmp1471:
	.loc	28 1863 19
	lbu	a0, 0(a1)
.Ltmp1472:
	lbu	s1, 1(a1)
.Ltmp1473:
	.loc	44 623 37
	addi	s0, a1, 2
.Ltmp1474:
	.loc	10 281 13
	slli	a5, a0, 8
	slli	a4, s1, 16
	or	a4, a4, a5
.Ltmp1475:
	.loc	7 1152 24
	srli	a5, a0, 3
	li	a6, 27
.Ltmp1476:
	.loc	10 281 13
	or	a0, a4, s1
.Ltmp1477:
	.loc	50 49 13
	bne	a5, a6, .LBB62_6
.Ltmp1478:
	.loc	50 52 19
	slli	a4, a0, 16
	srli	a4, a4, 26
	sltiu	a4, a4, 55
	addi	a3, a3, -1
	snez	a3, a3
	and	a3, a3, a4
.Ltmp1479:
	beqz	a3, .LBB62_18
.Ltmp1480:
	.loc	28 1863 19
	lbu	a3, 0(s0)
.Ltmp1481:
	lbu	a4, 1(s0)
.Ltmp1482:
	.loc	10 281 13
	slli	a3, a3, 8
	slli	a5, a4, 16
	or	a3, a3, a5
	or	a3, a3, a4
	lui	a4, 2
.Ltmp1483:
	.loc	50 61 16
	add	a4, a4, a3
	slli	a4, a4, 16
	srli	a4, a4, 26
	li	a5, 63
	bltu	a4, a5, .LBB62_18
.Ltmp1484:
	.loc	44 623 37
	addi	s0, a1, 4
.Ltmp1485:
	.loc	50 69 22
	andi	a0, a0, 1023
.Ltmp1486:
	slli	a0, a0, 10
	.loc	50 69 51 is_stmt 0
	andi	a3, a3, 1023
.Ltmp1487:
	.loc	50 69 21
	or	a0, a0, a3
	lui	a3, 16
	add	a3, a3, a0
	j	.LBB62_7
.Ltmp1488:
.LBB62_6:
	.loc	50 51 55 is_stmt 1
	slli	a0, a0, 16
.Ltmp1489:
	srli	a3, a0, 16
.Ltmp1490:
.LBB62_7:
	.loc	16 0 0 is_stmt 0
	andi	a2, a2, -2
.Ltmp1491:
	add	s7, a1, a2
.Ltmp1492:
	.loc	16 2174 36 is_stmt 1
	mv	a0, sp
	mv	a1, a3
.Ltmp1493:
	call	_ZN5alloc6string6String4push17h0012f7c75d33ed6dE
.Ltmp1494:
	.loc	33 162 24
	beq	s0, s7, .LBB62_14
.Ltmp1495:
	.loc	33 0 24 is_stmt 0
	li	s3, 27
	lui	s4, 2
	li	s5, 63
	lui	s6, 16
	j	.LBB62_10
.Ltmp1496:
.LBB62_9:
	.loc	50 51 55 is_stmt 1
	srli	a1, a1, 16
.Ltmp1497:
	.loc	16 2174 36
	mv	a0, sp
.Ltmp1498:
	call	_ZN5alloc6string6String4push17h0012f7c75d33ed6dE
.Ltmp1499:
	.loc	16 0 36 is_stmt 0
	mv	s0, s1
.Ltmp1500:
	.loc	33 162 24 is_stmt 1
	beq	s1, s7, .LBB62_14
.Ltmp1501:
.LBB62_10:
	.loc	28 1863 19
	lbu	a1, 0(s0)
.Ltmp1502:
	lbu	a0, 1(s0)
.Ltmp1503:
	.loc	44 623 37
	addi	s1, s0, 2
.Ltmp1504:
	.loc	10 281 13
	slli	a2, a1, 8
	slli	a3, a0, 16
	or	a2, a2, a3
	or	a0, a0, a2
.Ltmp1505:
	.loc	7 1152 24
	srli	a2, a1, 3
	slli	a1, a0, 16
.Ltmp1506:
	.loc	50 49 13
	bne	a2, s3, .LBB62_9
.Ltmp1507:
	.loc	50 52 19
	srli	a1, a1, 26
	sltiu	a1, a1, 55
	xor	a2, s1, s7
	snez	a2, a2
	and	a1, a1, a2
.Ltmp1508:
	beqz	a1, .LBB62_16
.Ltmp1509:
	.loc	28 1863 19
	lbu	a1, 0(s1)
.Ltmp1510:
	lbu	a2, 1(s1)
.Ltmp1511:
	.loc	10 281 13
	slli	a1, a1, 8
	slli	a3, a2, 16
	or	a1, a1, a3
	or	a1, a1, a2
.Ltmp1512:
	.loc	50 61 16
	add	a2, a1, s4
	slli	a2, a2, 16
	srli	a2, a2, 26
	bltu	a2, s5, .LBB62_16
.Ltmp1513:
	.loc	44 623 37
	addi	s1, s0, 4
.Ltmp1514:
	.loc	50 69 22
	andi	a0, a0, 1023
.Ltmp1515:
	slli	a0, a0, 10
	.loc	50 69 51 is_stmt 0
	andi	a1, a1, 1023
.Ltmp1516:
	.loc	50 69 21
	or	a0, a0, a1
	add	a1, a0, s6
.Ltmp1517:
	.loc	16 2174 36 is_stmt 1
	mv	a0, sp
	call	_ZN5alloc6string6String4push17h0012f7c75d33ed6dE
.Ltmp1518:
	.loc	16 0 36 is_stmt 0
	mv	s0, s1
.Ltmp1519:
	.loc	33 162 24 is_stmt 1
	bne	s1, s7, .LBB62_10
.Ltmp1520:
.LBB62_14:
	.loc	16 2094 9
	lw	a0, 0(sp)
	lui	a1, 524288
	beq	a0, a1, .LBB62_18
.Ltmp1521:
	.loc	16 0 0 is_stmt 0
	lw	a1, 4(sp)
	lw	a2, 8(sp)
.Ltmp1522:
	.loc	9 828 22 is_stmt 1
	sw	a0, 0(s2)
	sw	a1, 4(s2)
	sw	a2, 8(s2)
	j	.LBB62_19
.Ltmp1523:
.LBB62_16:
	.loc	16 2094 9
	lw	a1, 0(sp)
.Ltmp1524:
	.loc	3 256 25
	beqz	a1, .LBB62_18
.Ltmp1525:
	.loc	52 0 0 is_stmt 0
	lw	a0, 4(sp)
.Ltmp1526:
	.loc	4 117 14 is_stmt 1
	li	a2, 1
	call	__rust_dealloc
.Ltmp1527:
.LBB62_18:
	.loc	4 0 14 is_stmt 0
	lui	a0, 524288
	sw	a0, 0(s2)
.LBB62_19:
	.loc	16 824 6 is_stmt 1
	lw	ra, 44(sp)
	lw	s0, 40(sp)
	lw	s1, 36(sp)
	lw	s2, 32(sp)
	lw	s3, 28(sp)
	lw	s4, 24(sp)
	lw	s5, 20(sp)
	lw	s6, 16(sp)
	lw	s7, 12(sp)
	.loc	16 824 6 epilogue_begin is_stmt 0
	addi	sp, sp, 48
	ret
.Ltmp1528:
.Lfunc_end62:
	.size	_ZN5alloc6string6String12from_utf16be17hfafb63ce617aa991E, .Lfunc_end62-_ZN5alloc6string6String12from_utf16be17hfafb63ce617aa991E
	.cfi_endproc
	.file	57 "/Users/steve/.rustup/toolchains/nightly-2024-02-01-aarch64-apple-darwin/lib/rustlib/src/rust/library/core/src/ops" "function.rs"

	.section	.text._ZN5alloc6string6String18from_utf16be_lossy17h5ba3f7f10155b69fE,"ax",@progbits
	.globl	_ZN5alloc6string6String18from_utf16be_lossy17h5ba3f7f10155b69fE
	.p2align	1
	.type	_ZN5alloc6string6String18from_utf16be_lossy17h5ba3f7f10155b69fE,@function
_ZN5alloc6string6String18from_utf16be_lossy17h5ba3f7f10155b69fE:
.Lfunc_begin63:
	.loc	16 853 0 is_stmt 1
	.cfi_startproc
	addi	sp, sp, -96
	.cfi_def_cfa_offset 96
	sw	ra, 92(sp)
	sw	s0, 88(sp)
	sw	s1, 84(sp)
	sw	s2, 80(sp)
	sw	s3, 76(sp)
	sw	s4, 72(sp)
	sw	s5, 68(sp)
	sw	s6, 64(sp)
	sw	s7, 60(sp)
	sw	s8, 56(sp)
	sw	s9, 52(sp)
	sw	s10, 48(sp)
	sw	s11, 44(sp)
	.cfi_offset ra, -4
	.cfi_offset s0, -8
	.cfi_offset s1, -12
	.cfi_offset s2, -16
	.cfi_offset s3, -20
	.cfi_offset s4, -24
	.cfi_offset s5, -28
	.cfi_offset s6, -32
	.cfi_offset s7, -36
	.cfi_offset s8, -40
	.cfi_offset s9, -44
	.cfi_offset s10, -48
	.cfi_offset s11, -52
	mv	s0, a2
.Ltmp1529:
	mv	s3, a1
.Ltmp1530:
	mv	s2, a0
.Ltmp1531:
	.loc	19 944 18 prologue_end
	andi	s5, a2, -2
.Ltmp1532:
	.loc	16 449 9
	sw	zero, 32(sp)
	li	a0, 1
	sw	a0, 36(sp)
.Ltmp1533:
	.loc	10 2662 21
	srli	a2, a2, 2
.Ltmp1534:
	.loc	10 2663 21
	slli	a0, s0, 30
	srli	a0, a0, 31
.Ltmp1535:
	.loc	10 2664 16
	add	a2, a2, a0
.Ltmp1536:
	.loc	16 449 9
	sw	zero, 40(sp)
.Ltmp1537:
	.loc	3 308 12
	bnez	a2, .LBB63_35
.Ltmp1538:
.LBB63_1:
	.loc	3 0 12 is_stmt 0
	li	s6, 0
	li	s11, 0
	andi	s0, s0, 1
.Ltmp1539:
	sw	s0, 12(sp)
.Ltmp1540:
	add	s5, s5, s3
.Ltmp1541:
	li	s7, 27
	lui	s9, 16
	addi	s9, s9, -3
	lui	a0, 256
	addi	s8, a0, -1024
	li	s4, 127
	li	s10, 128
	j	.LBB63_5
.Ltmp1542:
.LBB63_2:
	.loc	56 1776 19 is_stmt 1
	srli	a0, s0, 6
.Ltmp1543:
	.loc	56 1776 13 is_stmt 0
	ori	a0, a0, 192
	sb	a0, 16(sp)
	.loc	56 1777 18 is_stmt 1
	andi	a0, s0, 63
	.loc	56 1777 13 is_stmt 0
	addi	a0, a0, 128
	sb	a0, 17(sp)
	li	s0, 2
.Ltmp1544:
.LBB63_3:
	.loc	15 911 26 is_stmt 1
	lw	s1, 40(sp)
.Ltmp1545:
	.loc	3 247 44
	lw	a0, 32(sp)
.Ltmp1546:
	.loc	7 1256 5
	sub	a0, a0, s1
.Ltmp1547:
	.loc	3 308 12
	bltu	a0, s0, .LBB63_29
.Ltmp1548:
.LBB63_4:
	.loc	3 239 9
	lw	a0, 36(sp)
.Ltmp1549:
	.loc	21 1045 18
	add	a0, a0, s1
.Ltmp1550:
	.loc	13 2774 9
	addi	a1, sp, 16
	mv	a2, s0
	call	memcpy@plt
.Ltmp1551:
	.loc	15 2038 9
	add	s0, s0, s1
.Ltmp1552:
	sw	s0, 40(sp)
.Ltmp1553:
.LBB63_5:
	.loc	50 44 17
	slli	s11, s11, 16
	beqz	s11, .LBB63_7
.Ltmp1554:
	.loc	50 0 17 is_stmt 0
	mv	s0, s6
.Ltmp1555:
	.loc	7 1152 24 is_stmt 1
	slli	a0, s6, 16
	srli	a1, a0, 27
.Ltmp1556:
	.loc	50 49 13
	bne	a1, s7, .LBB63_9
	j	.LBB63_20
.Ltmp1557:
.LBB63_7:
	.loc	33 162 24
	beq	s3, s5, .LBB63_30
.Ltmp1558:
	.loc	28 1863 19
	lbu	a0, 0(s3)
.Ltmp1559:
	lbu	a1, 1(s3)
.Ltmp1560:
	.loc	44 623 37
	addi	s3, s3, 2
.Ltmp1561:
	.loc	10 281 13
	slli	a0, a0, 8
	slli	a2, a1, 16
	or	a0, a0, a2
	or	s0, a0, a1
.Ltmp1562:
	.loc	7 1152 24
	slli	a0, s0, 16
	srli	a1, a0, 27
.Ltmp1563:
	.loc	50 49 13
	beq	a1, s7, .LBB63_20
.Ltmp1564:
.LBB63_9:
	.loc	56 1742 8
	srli	a0, a0, 16
	bltu	s4, a0, .LBB63_27
.Ltmp1565:
	.loc	15 1921 12
	lw	a1, 40(sp)
.Ltmp1566:
	.loc	3 247 44
	lw	a0, 32(sp)
.Ltmp1567:
	.loc	15 1921 12
	bne	a1, a0, .LBB63_12
.Ltmp1568:
	.loc	15 1922 13
	addi	a0, sp, 32
	call	_ZN5alloc7raw_vec19RawVec$LT$T$C$A$GT$16reserve_for_push17hd330d0d5c0992dd6E
	.loc	15 1925 45
	lw	a1, 40(sp)
.Ltmp1569:
.LBB63_12:
	.loc	3 239 9
	lw	a0, 36(sp)
	j	.LBB63_14
.Ltmp1570:
.LBB63_13:
	lw	a0, 36(sp)
.Ltmp1571:
	.loc	36 0 0 is_stmt 0
	addi	s3, s3, 2
.Ltmp1572:
.LBB63_14:
	.loc	21 1045 18 is_stmt 1
	add	a0, a0, a1
.Ltmp1573:
	.loc	2 1415 9
	sb	s0, 0(a0)
.Ltmp1574:
	.loc	15 1927 13
	addi	a1, a1, 1
.Ltmp1575:
	sw	a1, 40(sp)
.Ltmp1576:
	.loc	33 162 24
	beq	s3, s5, .LBB63_30
.Ltmp1577:
	.loc	28 1863 19
	lbu	a0, 0(s3)
.Ltmp1578:
	lbu	a1, 1(s3)
.Ltmp1579:
	.loc	10 281 13
	slli	a2, a0, 8
	slli	a3, a1, 16
	or	a2, a2, a3
.Ltmp1580:
	.loc	7 1152 24
	srli	a0, a0, 3
.Ltmp1581:
	.loc	10 281 13
	or	s0, a2, a1
.Ltmp1582:
	.loc	50 49 13
	beq	a0, s7, .LBB63_19
.Ltmp1583:
	.loc	56 1742 8
	slli	a0, s0, 16
	srli	a0, a0, 16
	bgeu	a0, s10, .LBB63_26
.Ltmp1584:
	.loc	15 1921 12
	lw	a1, 40(sp)
.Ltmp1585:
	.loc	3 247 44
	lw	a0, 32(sp)
.Ltmp1586:
	.loc	15 1921 12
	bne	a1, a0, .LBB63_13
.Ltmp1587:
	.loc	15 1922 13
	addi	a0, sp, 32
	call	_ZN5alloc7raw_vec19RawVec$LT$T$C$A$GT$16reserve_for_push17hd330d0d5c0992dd6E
	.loc	15 1925 45
	lw	a1, 40(sp)
	j	.LBB63_13
.Ltmp1588:
.LBB63_19:
	.loc	50 52 19
	addi	s3, s3, 2
.Ltmp1589:
.LBB63_20:
	slli	a0, s0, 16
	srli	a0, a0, 26
	sltiu	a0, a0, 55
	xor	a1, s3, s5
	snez	a1, a1
	and	a0, a0, a1
.Ltmp1590:
	bnez	a0, .LBB63_22
.Ltmp1591:
	.loc	50 0 19 is_stmt 0
	li	s11, 0
	j	.LBB63_24
.Ltmp1592:
.LBB63_22:
	.loc	28 1863 19 is_stmt 1
	lbu	a0, 0(s3)
.Ltmp1593:
	lbu	a1, 1(s3)
.Ltmp1594:
	.loc	44 623 37
	addi	s3, s3, 2
.Ltmp1595:
	.loc	10 281 13
	slli	a0, a0, 8
	slli	a2, a1, 16
	or	a0, a0, a2
	or	a0, a0, a1
.Ltmp1596:
	.loc	50 61 16
	lui	a1, 2
.Ltmp1597:
	add	a1, a1, a0
	slli	a1, a1, 16
	srli	a1, a1, 26
	li	s11, 1
	li	a2, 63
	bgeu	a1, a2, .LBB63_25
.Ltmp1598:
	.loc	50 0 16 is_stmt 0
	mv	s6, a0
.Ltmp1599:
.LBB63_24:
	.loc	16 1347 65 is_stmt 1
	sw	zero, 16(sp)
	mv	a0, s9
	j	.LBB63_28
.Ltmp1600:
.LBB63_25:
	.loc	16 0 65 is_stmt 0
	li	s11, 0
.Ltmp1601:
	.loc	50 69 22 is_stmt 1
	slli	s0, s0, 10
.Ltmp1602:
	and	a1, s0, s8
	.loc	50 69 51 is_stmt 0
	andi	a2, a0, 960
	.loc	50 69 21
	lui	a3, 16
	add	a1, a1, a3
	or	a2, a2, s0
.Ltmp1603:
	.loc	56 1785 19 is_stmt 1
	srli	a3, a1, 18
	.loc	56 1785 13 is_stmt 0
	addi	a3, a3, 240
	sb	a3, 16(sp)
	.loc	56 1786 18 is_stmt 1
	slli	a1, a1, 14
	srli	a1, a1, 26
	.loc	56 1786 13 is_stmt 0
	addi	a1, a1, 128
	sb	a1, 17(sp)
	.loc	56 1787 18 is_stmt 1
	slli	a2, a2, 20
	srli	a2, a2, 26
	.loc	56 1787 13 is_stmt 0
	addi	a1, a2, 128
	sb	a1, 18(sp)
	.loc	56 1788 18 is_stmt 1
	andi	a0, a0, 63
.Ltmp1604:
	.loc	56 1788 13 is_stmt 0
	addi	a0, a0, 128
	sb	a0, 19(sp)
	li	s0, 4
	j	.LBB63_3
.Ltmp1605:
.LBB63_26:
	.loc	50 51 55 is_stmt 1
	addi	s3, s3, 2
.Ltmp1606:
.LBB63_27:
	slli	a0, s0, 16
	srli	a0, a0, 16
.Ltmp1607:
	.loc	56 1744 15
	srli	a1, a0, 11
.Ltmp1608:
	.loc	16 1347 65
	sw	zero, 16(sp)
.Ltmp1609:
	.loc	16 0 65 is_stmt 0
	li	s11, 0
.Ltmp1610:
	.loc	56 1744 15 is_stmt 1
	beqz	a1, .LBB63_2
.Ltmp1611:
.LBB63_28:
	.loc	56 1780 19
	srli	a1, a0, 12
	.loc	56 1780 13 is_stmt 0
	addi	a1, a1, 224
	sb	a1, 16(sp)
	.loc	56 1781 18 is_stmt 1
	slli	a1, a0, 20
	srli	a1, a1, 26
	.loc	56 1781 13 is_stmt 0
	addi	a1, a1, 128
	sb	a1, 17(sp)
	.loc	56 1782 18 is_stmt 1
	andi	a0, a0, 63
.Ltmp1612:
	.loc	56 1782 13 is_stmt 0
	addi	a0, a0, 128
	sb	a0, 18(sp)
	li	s0, 3
	j	.LBB63_3
.Ltmp1613:
.LBB63_29:
	.loc	3 309 13 is_stmt 1
	addi	a0, sp, 32
	mv	a1, s1
	mv	a2, s0
	call	_ZN5alloc7raw_vec19RawVec$LT$T$C$A$GT$7reserve21do_reserve_and_handle17h943e2436917d6bc7E
.Ltmp1614:
	.loc	15 2145 9
	lw	s1, 40(sp)
.Ltmp1615:
	.loc	15 0 9 is_stmt 0
	j	.LBB63_4
.Ltmp1616:
.LBB63_30:
	.loc	16 2094 9 is_stmt 1
	lw	a0, 40(sp)
	lw	a1, 36(sp)
	lw	a2, 32(sp)
	sw	a0, 24(sp)
	sw	a1, 20(sp)
	sw	a2, 16(sp)
.Ltmp1617:
	.loc	16 862 20
	lw	a0, 12(sp)
	bnez	a0, .LBB63_32
.Ltmp1618:
	.loc	16 862 50 is_stmt 0
	lw	a0, 24(sp)
	lw	a1, 20(sp)
	lw	a2, 16(sp)
	sw	a0, 8(s2)
	sw	a1, 4(s2)
	j	.LBB63_34
.Ltmp1619:
.LBB63_32:
	.loc	16 862 66
	lw	a1, 24(sp)
	lw	a0, 20(sp)
	lw	a2, 16(sp)
.Ltmp1620:
	sw	a1, 40(sp)
	sw	a0, 36(sp)
.Ltmp1621:
	.loc	7 1256 5 is_stmt 1
	sub	a0, a2, a1
	li	a3, 2
.Ltmp1622:
	.loc	16 862 66
	sw	a2, 32(sp)
.Ltmp1623:
	.loc	3 308 12
	bgeu	a3, a0, .LBB63_36
.Ltmp1624:
.LBB63_33:
	.loc	3 239 9
	lw	a0, 36(sp)
.Ltmp1625:
	.loc	21 1045 18
	add	a0, a0, a1
.Ltmp1626:
	.loc	21 0 18 is_stmt 0
	li	a2, 189
.Ltmp1627:
	.loc	13 2774 9 is_stmt 1
	sb	a2, 2(a0)
	li	a2, 191
	sb	a2, 1(a0)
	li	a2, 239
	sb	a2, 0(a0)
.Ltmp1628:
	.loc	15 2038 9
	addi	a1, a1, 3
.Ltmp1629:
	sw	a1, 40(sp)
.Ltmp1630:
	.loc	16 2415 9
	lw	a0, 36(sp)
.Ltmp1631:
	lw	a2, 32(sp)
	sw	a1, 8(s2)
	sw	a0, 4(s2)
.Ltmp1632:
.LBB63_34:
	.loc	16 862 0
	sw	a2, 0(s2)
.Ltmp1633:
	.loc	16 865 6
	lw	ra, 92(sp)
	lw	s0, 88(sp)
	lw	s1, 84(sp)
	lw	s2, 80(sp)
	lw	s3, 76(sp)
	lw	s4, 72(sp)
	lw	s5, 68(sp)
.Ltmp1634:
	lw	s6, 64(sp)
	lw	s7, 60(sp)
	lw	s8, 56(sp)
	lw	s9, 52(sp)
	lw	s10, 48(sp)
	lw	s11, 44(sp)
	.loc	16 865 6 epilogue_begin is_stmt 0
	addi	sp, sp, 96
	ret
.Ltmp1635:
.LBB63_35:
	.loc	3 309 13 is_stmt 1
	addi	a0, sp, 32
	li	a1, 0
	call	_ZN5alloc7raw_vec19RawVec$LT$T$C$A$GT$7reserve21do_reserve_and_handle17h943e2436917d6bc7E
.Ltmp1636:
	.loc	3 0 13 is_stmt 0
	j	.LBB63_1
.Ltmp1637:
.LBB63_36:
	.loc	3 309 13
	addi	a0, sp, 32
	li	a2, 3
	call	_ZN5alloc7raw_vec19RawVec$LT$T$C$A$GT$7reserve21do_reserve_and_handle17h943e2436917d6bc7E
.Ltmp1638:
	.loc	15 2145 9 is_stmt 1
	lw	a1, 40(sp)
	j	.LBB63_33
.Ltmp1639:
.Lfunc_end63:
	.size	_ZN5alloc6string6String18from_utf16be_lossy17h5ba3f7f10155b69fE, .Lfunc_end63-_ZN5alloc6string6String18from_utf16be_lossy17h5ba3f7f10155b69fE
	.cfi_endproc

	.section	.text._ZN5alloc6string6String14into_raw_parts17hcebffdfaea93404eE,"ax",@progbits
	.globl	_ZN5alloc6string6String14into_raw_parts17hcebffdfaea93404eE
	.p2align	1
	.type	_ZN5alloc6string6String14into_raw_parts17hcebffdfaea93404eE,@function
_ZN5alloc6string6String14into_raw_parts17hcebffdfaea93404eE:
.Lfunc_begin64:
	.cfi_startproc
	.loc	16 896 9 prologue_end
	lw	a2, 4(a1)
	lw	a3, 8(a1)
.Ltmp1640:
	lw	a1, 0(a1)
.Ltmp1641:
	.loc	15 824 9
	sw	a2, 0(a0)
	sw	a3, 4(a0)
	sw	a1, 8(a0)
.Ltmp1642:
	.loc	16 897 6
	ret
.Ltmp1643:
.Lfunc_end64:
	.size	_ZN5alloc6string6String14into_raw_parts17hcebffdfaea93404eE, .Lfunc_end64-_ZN5alloc6string6String14into_raw_parts17hcebffdfaea93404eE
	.cfi_endproc

	.section	.text._ZN5alloc6string6String11try_reserve17h959ab4713ae5660eE,"ax",@progbits
	.globl	_ZN5alloc6string6String11try_reserve17h959ab4713ae5660eE
	.p2align	1
	.type	_ZN5alloc6string6String11try_reserve17h959ab4713ae5660eE,@function
_ZN5alloc6string6String11try_reserve17h959ab4713ae5660eE:
.Lfunc_begin65:
	.loc	16 1236 0
	.cfi_startproc
	addi	sp, sp, -48
	.cfi_def_cfa_offset 48
	sw	ra, 44(sp)
	sw	s0, 40(sp)
	sw	s1, 36(sp)
	.cfi_offset ra, -4
	.cfi_offset s0, -8
	.cfi_offset s1, -12
	mv	s0, a0
.Ltmp1644:
	.loc	15 978 30 prologue_end
	lw	a2, 8(a0)
.Ltmp1645:
	.loc	3 247 44
	lw	a0, 0(a0)
.Ltmp1646:
	.loc	7 1256 5
	sub	a3, a0, a2
.Ltmp1647:
	.loc	3 323 12
	bgeu	a3, a1, .LBB65_14
.Ltmp1648:
	.loc	7 1256 5
	add	a1, a1, a2
.Ltmp1649:
	.loc	3 423 28
	bgeu	a1, a2, .LBB65_3
.Ltmp1650:
	.loc	3 0 28 is_stmt 0
	li	a0, 0
	j	.LBB65_15
.Ltmp1651:
.LBB65_3:
	.loc	3 427 28 is_stmt 1
	slli	s1, a0, 1
.Ltmp1652:
	.loc	8 0 0 is_stmt 0
	bgeu	a1, s1, .LBB65_7
.Ltmp1653:
	li	a1, 8
.Ltmp1654:
	bgeu	a1, s1, .LBB65_8
.Ltmp1655:
.LBB65_5:
	.loc	6 449 37 is_stmt 1
	not	a1, s1
	srli	a1, a1, 31
.Ltmp1656:
	.loc	3 256 25
	beqz	a0, .LBB65_9
.Ltmp1657:
.LBB65_6:
	.loc	3 433 43
	lw	a2, 4(s0)
.Ltmp1658:
	.loc	3 268 17
	sw	a2, 24(sp)
	li	a2, 1
	sw	a2, 28(sp)
	sw	a0, 32(sp)
	j	.LBB65_10
.Ltmp1659:
.LBB65_7:
	.loc	3 0 17 is_stmt 0
	mv	s1, a1
.Ltmp1660:
	li	a1, 8
.Ltmp1661:
	bltu	a1, s1, .LBB65_5
.Ltmp1662:
.LBB65_8:
	li	s1, 8
.Ltmp1663:
	.loc	6 449 37 is_stmt 1
	not	a1, s1
	srli	a1, a1, 31
.Ltmp1664:
	.loc	3 256 25
	bnez	a0, .LBB65_6
.Ltmp1665:
.LBB65_9:
	.loc	3 257 13
	sw	zero, 28(sp)
.Ltmp1666:
.LBB65_10:
	.loc	3 433 19
	addi	a0, sp, 12
	addi	a3, sp, 24
	mv	a2, s1
	call	_ZN5alloc7raw_vec11finish_grow17h9be2ff0fdf9e157eE
.Ltmp1667:
	.loc	9 1946 15
	lw	a1, 12(sp)
	.loc	9 1946 9 is_stmt 0
	lw	a0, 16(sp)
.Ltmp1668:
	.loc	3 433 19 is_stmt 1
	beqz	a1, .LBB65_13
.Ltmp1669:
	.loc	3 0 19 is_stmt 0
	lui	a1, 524288
	addi	a1, a1, 1
	.loc	3 324 13 is_stmt 1
	beq	a0, a1, .LBB65_14
.Ltmp1670:
	.loc	3 0 13 is_stmt 0
	lw	a1, 20(sp)
.Ltmp1671:
	j	.LBB65_15
.Ltmp1672:
.LBB65_13:
	.loc	3 401 9 is_stmt 1
	sw	a0, 4(s0)
	.loc	3 402 9
	sw	s1, 0(s0)
.Ltmp1673:
.LBB65_14:
	.loc	3 0 9 is_stmt 0
	lui	a0, 524288
	addi	a0, a0, 1
.Ltmp1674:
.LBB65_15:
	.loc	16 1238 6 is_stmt 1
	lw	ra, 44(sp)
	lw	s0, 40(sp)
.Ltmp1675:
	lw	s1, 36(sp)
	.loc	16 1238 6 epilogue_begin is_stmt 0
	addi	sp, sp, 48
	ret
.Ltmp1676:
.Lfunc_end65:
	.size	_ZN5alloc6string6String11try_reserve17h959ab4713ae5660eE, .Lfunc_end65-_ZN5alloc6string6String11try_reserve17h959ab4713ae5660eE
	.cfi_endproc

	.section	.text._ZN5alloc6string6String17try_reserve_exact17hb1e7371a0f7bf7ebE,"ax",@progbits
	.globl	_ZN5alloc6string6String17try_reserve_exact17hb1e7371a0f7bf7ebE
	.p2align	1
	.type	_ZN5alloc6string6String17try_reserve_exact17hb1e7371a0f7bf7ebE,@function
_ZN5alloc6string6String17try_reserve_exact17hb1e7371a0f7bf7ebE:
.Lfunc_begin66:
	.loc	16 1277 0 is_stmt 1
	.cfi_startproc
	addi	sp, sp, -48
	.cfi_def_cfa_offset 48
	sw	ra, 44(sp)
	sw	s0, 40(sp)
	sw	s1, 36(sp)
	.cfi_offset ra, -4
	.cfi_offset s0, -8
	.cfi_offset s1, -12
	mv	s1, a0
.Ltmp1677:
	.loc	15 1021 36 prologue_end
	lw	a2, 8(a0)
.Ltmp1678:
	.loc	3 247 44
	lw	a0, 0(a0)
.Ltmp1679:
	.loc	7 1256 5
	sub	a3, a0, a2
.Ltmp1680:
	.loc	3 361 12
	bgeu	a3, a1, .LBB66_10
.Ltmp1681:
	.loc	7 1256 5
	add	s0, a2, a1
.Ltmp1682:
	.loc	3 449 19
	bgeu	s0, a2, .LBB66_3
.Ltmp1683:
	.loc	3 0 19 is_stmt 0
	li	a0, 0
	j	.LBB66_11
.Ltmp1684:
.LBB66_3:
	.loc	6 449 37
	not	a1, s0
.Ltmp1685:
	srli	a1, a1, 31
.Ltmp1686:
	.loc	3 256 25 is_stmt 1
	beqz	a0, .LBB66_5
.Ltmp1687:
	.loc	3 453 43
	lw	a2, 4(s1)
.Ltmp1688:
	.loc	3 268 17
	sw	a2, 24(sp)
	li	a2, 1
	sw	a2, 28(sp)
	sw	a0, 32(sp)
	j	.LBB66_6
.Ltmp1689:
.LBB66_5:
	.loc	3 257 13
	sw	zero, 28(sp)
.Ltmp1690:
.LBB66_6:
	.loc	3 453 19
	addi	a0, sp, 12
	addi	a3, sp, 24
	mv	a2, s0
	call	_ZN5alloc7raw_vec11finish_grow17h9be2ff0fdf9e157eE
.Ltmp1691:
	.loc	9 1946 15
	lw	a1, 12(sp)
	.loc	9 1946 9 is_stmt 0
	lw	a0, 16(sp)
.Ltmp1692:
	.loc	3 453 19 is_stmt 1
	beqz	a1, .LBB66_9
.Ltmp1693:
	.loc	3 0 19 is_stmt 0
	lui	a1, 524288
	addi	a1, a1, 1
	.loc	3 362 13 is_stmt 1
	beq	a0, a1, .LBB66_10
.Ltmp1694:
	.loc	3 0 13 is_stmt 0
	lw	s0, 20(sp)
.Ltmp1695:
	j	.LBB66_11
.Ltmp1696:
.LBB66_9:
	.loc	3 401 9 is_stmt 1
	sw	a0, 4(s1)
	.loc	3 402 9
	sw	s0, 0(s1)
.Ltmp1697:
.LBB66_10:
	.loc	3 0 9 is_stmt 0
	lui	a0, 524288
	addi	a0, a0, 1
.Ltmp1698:
.LBB66_11:
	.loc	16 1279 6 is_stmt 1
	mv	a1, s0
	lw	ra, 44(sp)
	lw	s0, 40(sp)
	lw	s1, 36(sp)
.Ltmp1699:
	.loc	16 1279 6 epilogue_begin is_stmt 0
	addi	sp, sp, 48
	ret
.Ltmp1700:
.Lfunc_end66:
	.size	_ZN5alloc6string6String17try_reserve_exact17hb1e7371a0f7bf7ebE, .Lfunc_end66-_ZN5alloc6string6String17try_reserve_exact17hb1e7371a0f7bf7ebE
	.cfi_endproc

	.section	.text._ZN5alloc6string6String4push17h0012f7c75d33ed6dE,"ax",@progbits
	.p2align	1
	.type	_ZN5alloc6string6String4push17h0012f7c75d33ed6dE,@function
_ZN5alloc6string6String4push17h0012f7c75d33ed6dE:
.Lfunc_begin67:
	.loc	16 1344 0 is_stmt 1
	.cfi_startproc
	addi	sp, sp, -32
	.cfi_def_cfa_offset 32
	sw	ra, 28(sp)
	sw	s0, 24(sp)
	sw	s1, 20(sp)
	sw	s2, 16(sp)
	.cfi_offset ra, -4
	.cfi_offset s0, -8
	.cfi_offset s1, -12
	.cfi_offset s2, -16
	li	a2, 128
	mv	s1, a1
.Ltmp1701:
	mv	s0, a0
.Ltmp1702:
	.loc	56 1742 8 prologue_end
	bgeu	a1, a2, .LBB67_4
.Ltmp1703:
	.loc	15 1921 12
	lw	a1, 8(s0)
.Ltmp1704:
	.loc	3 247 44
	lw	a0, 0(s0)
.Ltmp1705:
	.loc	15 1921 12
	bne	a1, a0, .LBB67_3
.Ltmp1706:
	.loc	15 1922 13
	mv	a0, s0
	call	_ZN5alloc7raw_vec19RawVec$LT$T$C$A$GT$16reserve_for_push17hd330d0d5c0992dd6E
	.loc	15 1925 45
	lw	a1, 8(s0)
.Ltmp1707:
.LBB67_3:
	.loc	3 239 9
	lw	a0, 4(s0)
.Ltmp1708:
	.loc	21 1045 18
	add	a0, a0, a1
.Ltmp1709:
	.loc	2 1415 9
	sb	s1, 0(a0)
.Ltmp1710:
	.loc	15 1927 13
	addi	a1, a1, 1
.Ltmp1711:
	sw	a1, 8(s0)
	j	.LBB67_11
.Ltmp1712:
.LBB67_4:
	.loc	56 1744 15
	srli	a0, s1, 11
.Ltmp1713:
	.loc	16 1347 65
	sw	zero, 12(sp)
.Ltmp1714:
	.loc	56 1744 15
	bnez	a0, .LBB67_6
.Ltmp1715:
	.loc	56 1776 19
	srli	a0, s1, 6
	.loc	56 1776 13 is_stmt 0
	ori	a0, a0, 192
	sb	a0, 12(sp)
	.loc	56 1777 18 is_stmt 1
	andi	a0, s1, 63
	.loc	56 1777 13 is_stmt 0
	addi	a0, a0, 128
	sb	a0, 13(sp)
	li	s2, 2
	j	.LBB67_9
.Ltmp1716:
.LBB67_6:
	.loc	56 1746 15 is_stmt 1
	srli	a0, s1, 16
	bnez	a0, .LBB67_8
.Ltmp1717:
	.loc	56 1780 19
	srli	a0, s1, 12
	.loc	56 1780 13 is_stmt 0
	ori	a0, a0, 224
	sb	a0, 12(sp)
	.loc	56 1781 18 is_stmt 1
	slli	a0, s1, 20
	srli	a0, a0, 26
	.loc	56 1781 13 is_stmt 0
	addi	a0, a0, 128
	sb	a0, 13(sp)
	.loc	56 1782 18 is_stmt 1
	andi	a0, s1, 63
	.loc	56 1782 13 is_stmt 0
	addi	a0, a0, 128
	sb	a0, 14(sp)
	li	s2, 3
	j	.LBB67_9
.Ltmp1718:
.LBB67_8:
	.loc	56 1785 18 is_stmt 1
	slli	a0, s1, 11
	srli	a0, a0, 29
	.loc	56 1785 13 is_stmt 0
	addi	a0, a0, 240
	sb	a0, 12(sp)
	.loc	56 1786 18 is_stmt 1
	slli	a0, s1, 14
	srli	a0, a0, 26
	.loc	56 1786 13 is_stmt 0
	addi	a0, a0, 128
	sb	a0, 13(sp)
	.loc	56 1787 18 is_stmt 1
	slli	a0, s1, 20
	srli	a0, a0, 26
	.loc	56 1787 13 is_stmt 0
	addi	a0, a0, 128
	sb	a0, 14(sp)
	.loc	56 1788 18 is_stmt 1
	andi	a0, s1, 63
	.loc	56 1788 13 is_stmt 0
	addi	a0, a0, 128
	sb	a0, 15(sp)
	li	s2, 4
.Ltmp1719:
.LBB67_9:
	.loc	15 911 26 is_stmt 1
	lw	s1, 8(s0)
.Ltmp1720:
	.loc	3 247 44
	lw	a0, 0(s0)
.Ltmp1721:
	.loc	7 1256 5
	sub	a0, a0, s1
.Ltmp1722:
	.loc	3 308 12
	bltu	a0, s2, .LBB67_12
.Ltmp1723:
.LBB67_10:
	.loc	3 239 9
	lw	a0, 4(s0)
.Ltmp1724:
	.loc	21 1045 18
	add	a0, a0, s1
.Ltmp1725:
	.loc	13 2774 9
	addi	a1, sp, 12
	mv	a2, s2
	call	memcpy@plt
.Ltmp1726:
	.loc	15 2038 9
	add	s1, s1, s2
.Ltmp1727:
	sw	s1, 8(s0)
.Ltmp1728:
.LBB67_11:
	.loc	16 1349 6
	lw	ra, 28(sp)
	lw	s0, 24(sp)
.Ltmp1729:
	lw	s1, 20(sp)
	lw	s2, 16(sp)
	.loc	16 1349 6 epilogue_begin is_stmt 0
	addi	sp, sp, 32
	ret
.LBB67_12:
.Ltmp1730:
	.loc	3 309 13 is_stmt 1
	mv	a0, s0
	mv	a1, s1
	mv	a2, s2
	call	_ZN5alloc7raw_vec19RawVec$LT$T$C$A$GT$7reserve21do_reserve_and_handle17h943e2436917d6bc7E
.Ltmp1731:
	.loc	15 2145 9
	lw	s1, 8(s0)
.Ltmp1732:
	.loc	15 0 9 is_stmt 0
	j	.LBB67_10
.Ltmp1733:
.Lfunc_end67:
	.size	_ZN5alloc6string6String4push17h0012f7c75d33ed6dE, .Lfunc_end67-_ZN5alloc6string6String4push17h0012f7c75d33ed6dE
	.cfi_endproc

	.section	.text._ZN5alloc6string6String12insert_bytes17he0dd2a5056c566ffE,"ax",@progbits
	.globl	_ZN5alloc6string6String12insert_bytes17he0dd2a5056c566ffE
	.p2align	1
	.type	_ZN5alloc6string6String12insert_bytes17he0dd2a5056c566ffE,@function
_ZN5alloc6string6String12insert_bytes17he0dd2a5056c566ffE:
.Lfunc_begin68:
	.loc	16 1653 0 is_stmt 1
	.cfi_startproc
	addi	sp, sp, -32
	.cfi_def_cfa_offset 32
	sw	ra, 28(sp)
	sw	s0, 24(sp)
	sw	s1, 20(sp)
	sw	s2, 16(sp)
	sw	s3, 12(sp)
	sw	s4, 8(sp)
	sw	s5, 4(sp)
	.cfi_offset ra, -4
	.cfi_offset s0, -8
	.cfi_offset s1, -12
	.cfi_offset s2, -16
	.cfi_offset s3, -20
	.cfi_offset s4, -24
	.cfi_offset s5, -28
	mv	s4, a0
.Ltmp1734:
	.loc	15 2145 9 prologue_end
	lw	s2, 8(a0)
.Ltmp1735:
	.loc	3 247 44
	lw	a0, 0(a0)
.Ltmp1736:
	.loc	7 1256 5
	sub	a0, a0, s2
.Ltmp1737:
	.loc	7 0 5 is_stmt 0
	mv	s1, a3
.Ltmp1738:
	mv	s3, a2
.Ltmp1739:
	mv	s0, a1
.Ltmp1740:
	.loc	3 308 12 is_stmt 1
	bltu	a0, a3, .LBB68_2
.Ltmp1741:
.LBB68_1:
	.loc	3 239 9
	lw	a0, 4(s4)
.Ltmp1742:
	.loc	19 944 18
	add	s5, a0, s0
.Ltmp1743:
	.loc	16 1659 77
	add	a1, s1, s0
.Ltmp1744:
	.loc	21 1045 18
	add	a0, a0, a1
.Ltmp1745:
	.loc	16 1659 89
	sub	a2, s2, s0
.Ltmp1746:
	.loc	13 2866 9
	mv	a1, s5
.Ltmp1747:
	call	memmove@plt
.Ltmp1748:
	.loc	13 2774 9
	mv	a0, s5
	mv	a1, s3
	mv	a2, s1
	call	memcpy@plt
.Ltmp1749:
	.loc	16 1661 30
	add	s1, s1, s2
.Ltmp1750:
	.loc	15 1424 9
	sw	s1, 8(s4)
.Ltmp1751:
	.loc	16 1663 6
	lw	ra, 28(sp)
	lw	s0, 24(sp)
.Ltmp1752:
	lw	s1, 20(sp)
.Ltmp1753:
	lw	s2, 16(sp)
.Ltmp1754:
	lw	s3, 12(sp)
.Ltmp1755:
	lw	s4, 8(sp)
.Ltmp1756:
	lw	s5, 4(sp)
.Ltmp1757:
	.loc	16 1663 6 epilogue_begin is_stmt 0
	addi	sp, sp, 32
	ret
.LBB68_2:
.Ltmp1758:
	.loc	3 309 13 is_stmt 1
	mv	a0, s4
	mv	a1, s2
	mv	a2, s1
	call	_ZN5alloc7raw_vec19RawVec$LT$T$C$A$GT$7reserve21do_reserve_and_handle17h943e2436917d6bc7E
	j	.LBB68_1
.Ltmp1759:
.Lfunc_end68:
	.size	_ZN5alloc6string6String12insert_bytes17he0dd2a5056c566ffE, .Lfunc_end68-_ZN5alloc6string6String12insert_bytes17he0dd2a5056c566ffE
	.cfi_endproc

	.section	".text._ZN67_$LT$alloc..string..FromUtf8Error$u20$as$u20$core..fmt..Display$GT$3fmt17h1ab298a37413544cE","ax",@progbits
	.globl	_ZN67_$LT$alloc..string..FromUtf8Error$u20$as$u20$core..fmt..Display$GT$3fmt17h1ab298a37413544cE
	.p2align	1
	.type	_ZN67_$LT$alloc..string..FromUtf8Error$u20$as$u20$core..fmt..Display$GT$3fmt17h1ab298a37413544cE,@function
_ZN67_$LT$alloc..string..FromUtf8Error$u20$as$u20$core..fmt..Display$GT$3fmt17h1ab298a37413544cE:
.Lfunc_begin69:
	.cfi_startproc
	.loc	16 2049 27 prologue_end
	addi	a0, a0, 12
.Ltmp1760:
	.loc	16 2049 9 is_stmt 0
	tail	_ZN66_$LT$core..str..error..Utf8Error$u20$as$u20$core..fmt..Display$GT$3fmt17hcd0374cf204b96abE
.Ltmp1761:
.Lfunc_end69:
	.size	_ZN67_$LT$alloc..string..FromUtf8Error$u20$as$u20$core..fmt..Display$GT$3fmt17h1ab298a37413544cE, .Lfunc_end69-_ZN67_$LT$alloc..string..FromUtf8Error$u20$as$u20$core..fmt..Display$GT$3fmt17h1ab298a37413544cE
	.cfi_endproc

	.section	".text._ZN68_$LT$alloc..string..FromUtf16Error$u20$as$u20$core..fmt..Display$GT$3fmt17hfca32dda920d11f5E","ax",@progbits
	.globl	_ZN68_$LT$alloc..string..FromUtf16Error$u20$as$u20$core..fmt..Display$GT$3fmt17hfca32dda920d11f5E
	.p2align	1
	.type	_ZN68_$LT$alloc..string..FromUtf16Error$u20$as$u20$core..fmt..Display$GT$3fmt17hfca32dda920d11f5E,@function
_ZN68_$LT$alloc..string..FromUtf16Error$u20$as$u20$core..fmt..Display$GT$3fmt17hfca32dda920d11f5E:
.Lfunc_begin70:
	.loc	16 2055 0 is_stmt 1
	.cfi_startproc
	mv	a2, a1
.Ltmp1762:
	.loc	16 2056 9 prologue_end
	lui	a0, %hi(.L__unnamed_33)
.Ltmp1763:
	addi	a0, a0, %lo(.L__unnamed_33)
	li	a1, 36
	tail	_ZN42_$LT$str$u20$as$u20$core..fmt..Display$GT$3fmt17h45c916f6fbc68766E
.Ltmp1764:
.Lfunc_end70:
	.size	_ZN68_$LT$alloc..string..FromUtf16Error$u20$as$u20$core..fmt..Display$GT$3fmt17hfca32dda920d11f5E, .Lfunc_end70-_ZN68_$LT$alloc..string..FromUtf16Error$u20$as$u20$core..fmt..Display$GT$3fmt17hfca32dda920d11f5E
	.cfi_endproc

	.section	".text._ZN60_$LT$alloc..string..String$u20$as$u20$core..clone..Clone$GT$5clone17h7e4b6e2e571d55ecE","ax",@progbits
	.globl	_ZN60_$LT$alloc..string..String$u20$as$u20$core..clone..Clone$GT$5clone17h7e4b6e2e571d55ecE
	.p2align	1
	.type	_ZN60_$LT$alloc..string..String$u20$as$u20$core..clone..Clone$GT$5clone17h7e4b6e2e571d55ecE,@function
_ZN60_$LT$alloc..string..String$u20$as$u20$core..clone..Clone$GT$5clone17h7e4b6e2e571d55ecE:
.Lfunc_begin71:
	.loc	16 2079 0
	.cfi_startproc
	addi	sp, sp, -32
	.cfi_def_cfa_offset 32
.Ltmp1765:
	.loc	16 2080 23 prologue_end
	sw	ra, 28(sp)
	sw	s0, 24(sp)
	sw	s1, 20(sp)
	sw	s2, 16(sp)
	sw	s3, 12(sp)
	.cfi_offset ra, -4
	.cfi_offset s0, -8
	.cfi_offset s1, -12
	.cfi_offset s2, -16
	.cfi_offset s3, -20
	lw	s0, 8(a1)
.Ltmp1766:
	lw	s2, 4(a1)
	mv	s3, a0
.Ltmp1767:
	.loc	3 185 25
	beqz	s0, .LBB71_4
.Ltmp1768:
	.loc	3 190 26
	bltz	s0, .LBB71_6
.Ltmp1769:
	.loc	2 1583 9
	lui	a0, %hi(__rust_no_alloc_shim_is_unstable)
	lbu	a0, %lo(__rust_no_alloc_shim_is_unstable)(a0)
.Ltmp1770:
	.loc	4 98 9
	li	a1, 1
.Ltmp1771:
	mv	a0, s0
	call	__rust_alloc
	mv	s1, a0
.Ltmp1772:
	.loc	3 202 23
	bnez	a0, .LBB71_5
.Ltmp1773:
	.loc	3 204 27
	li	a0, 1
	mv	a1, s0
	call	_ZN5alloc5alloc18handle_alloc_error17h7e3d1e4e5e7ceb74E
.Ltmp1774:
.LBB71_4:
	.loc	3 0 27 is_stmt 0
	li	s1, 1
.Ltmp1775:
.LBB71_5:
	.loc	13 2774 9 is_stmt 1
	mv	a0, s1
	mv	a1, s2
	mv	a2, s0
	call	memcpy@plt
.Ltmp1776:
	.loc	16 2080 9
	sw	s0, 0(s3)
	sw	s1, 4(s3)
	sw	s0, 8(s3)
	.loc	16 2081 6
	lw	ra, 28(sp)
	lw	s0, 24(sp)
.Ltmp1777:
	lw	s1, 20(sp)
.Ltmp1778:
	lw	s2, 16(sp)
.Ltmp1779:
	lw	s3, 12(sp)
	.loc	16 2081 6 epilogue_begin is_stmt 0
	addi	sp, sp, 32
	ret
.LBB71_6:
.Ltmp1780:
	.loc	3 192 27 is_stmt 1
	call	_ZN5alloc7raw_vec17capacity_overflow17h6deb98aaf45da7a0E
.Ltmp1781:
.Lfunc_end71:
	.size	_ZN60_$LT$alloc..string..String$u20$as$u20$core..clone..Clone$GT$5clone17h7e4b6e2e571d55ecE, .Lfunc_end71-_ZN60_$LT$alloc..string..String$u20$as$u20$core..clone..Clone$GT$5clone17h7e4b6e2e571d55ecE
	.cfi_endproc

	.section	".text._ZN60_$LT$alloc..string..String$u20$as$u20$core..clone..Clone$GT$10clone_from17h23111db9882bb61eE","ax",@progbits
	.globl	_ZN60_$LT$alloc..string..String$u20$as$u20$core..clone..Clone$GT$10clone_from17h23111db9882bb61eE
	.p2align	1
	.type	_ZN60_$LT$alloc..string..String$u20$as$u20$core..clone..Clone$GT$10clone_from17h23111db9882bb61eE,@function
_ZN60_$LT$alloc..string..String$u20$as$u20$core..clone..Clone$GT$10clone_from17h23111db9882bb61eE:
.Lfunc_begin72:
	.loc	16 2083 0
	.cfi_startproc
	addi	sp, sp, -32
	.cfi_def_cfa_offset 32
	sw	ra, 28(sp)
	sw	s0, 24(sp)
	sw	s1, 20(sp)
	sw	s2, 16(sp)
	sw	s3, 12(sp)
	.cfi_offset ra, -4
	.cfi_offset s0, -8
	.cfi_offset s1, -12
	.cfi_offset s2, -16
	.cfi_offset s3, -20
	mv	s0, a0
.Ltmp1782:
	.loc	16 2084 9 prologue_end
	lw	s1, 8(a1)
.Ltmp1783:
	.loc	3 247 44
	lw	a0, 0(a0)
.Ltmp1784:
	.loc	16 2084 9
	lw	s2, 4(a1)
	li	s3, 0
.Ltmp1785:
	.loc	15 2128 13
	sw	zero, 8(s0)
.Ltmp1786:
	.loc	3 308 12
	bltu	a0, s1, .LBB72_2
.Ltmp1787:
.LBB72_1:
	.loc	3 239 9
	lw	a0, 4(s0)
.Ltmp1788:
	.loc	21 1045 18
	add	a0, a0, s3
.Ltmp1789:
	.loc	13 2774 9
	mv	a1, s2
	mv	a2, s1
	call	memcpy@plt
.Ltmp1790:
	.loc	15 2038 9
	add	s1, s1, s3
.Ltmp1791:
	sw	s1, 8(s0)
.Ltmp1792:
	.loc	16 2085 6
	lw	ra, 28(sp)
	lw	s0, 24(sp)
.Ltmp1793:
	lw	s1, 20(sp)
	lw	s2, 16(sp)
.Ltmp1794:
	lw	s3, 12(sp)
.Ltmp1795:
	.loc	16 2085 6 epilogue_begin is_stmt 0
	addi	sp, sp, 32
	ret
.LBB72_2:
.Ltmp1796:
	.loc	3 309 13 is_stmt 1
	mv	a0, s0
	li	a1, 0
.Ltmp1797:
	mv	a2, s1
	call	_ZN5alloc7raw_vec19RawVec$LT$T$C$A$GT$7reserve21do_reserve_and_handle17h943e2436917d6bc7E
.Ltmp1798:
	.loc	15 2145 9
	lw	s3, 8(s0)
	j	.LBB72_1
.Ltmp1799:
.Lfunc_end72:
	.size	_ZN60_$LT$alloc..string..String$u20$as$u20$core..clone..Clone$GT$10clone_from17h23111db9882bb61eE, .Lfunc_end72-_ZN60_$LT$alloc..string..String$u20$as$u20$core..clone..Clone$GT$10clone_from17h23111db9882bb61eE
	.cfi_endproc

	.section	".text._ZN89_$LT$alloc..string..String$u20$as$u20$core..iter..traits..collect..Extend$LT$char$GT$$GT$6extend17h5f707584e3ac9710E","ax",@progbits
	.p2align	1
	.type	_ZN89_$LT$alloc..string..String$u20$as$u20$core..iter..traits..collect..Extend$LT$char$GT$$GT$6extend17h5f707584e3ac9710E,@function
_ZN89_$LT$alloc..string..String$u20$as$u20$core..iter..traits..collect..Extend$LT$char$GT$$GT$6extend17h5f707584e3ac9710E:
.Lfunc_begin73:
	.loc	16 2170 0
	.cfi_startproc
	addi	sp, sp, -64
	.cfi_def_cfa_offset 64
.Ltmp1800:
	.file	58 "/Users/steve/.rustup/toolchains/nightly-2024-02-01-aarch64-apple-darwin/lib/rustlib/src/rust/library/core/src/iter/traits" "collect.rs"
	.loc	58 279 9 prologue_end
	sw	ra, 60(sp)
	sw	s0, 56(sp)
	sw	s1, 52(sp)
	sw	s2, 48(sp)
	sw	s3, 44(sp)
	sw	s4, 40(sp)
	sw	s5, 36(sp)
	sw	s6, 32(sp)
	sw	s7, 28(sp)
	sw	s8, 24(sp)
	sw	s9, 20(sp)
	sw	s10, 16(sp)
	sw	s11, 12(sp)
	.cfi_offset ra, -4
	.cfi_offset s0, -8
	.cfi_offset s1, -12
	.cfi_offset s2, -16
	.cfi_offset s3, -20
	.cfi_offset s4, -24
	.cfi_offset s5, -28
	.cfi_offset s6, -32
	.cfi_offset s7, -36
	.cfi_offset s8, -40
	.cfi_offset s9, -44
	.cfi_offset s10, -48
	.cfi_offset s11, -52
	lhu	s10, 0(a1)
.Ltmp1801:
	lhu	s4, 2(a1)
.Ltmp1802:
	lw	s9, 4(a1)
.Ltmp1803:
	lw	s3, 8(a1)
.Ltmp1804:
	.loc	58 0 9 is_stmt 0
	mv	s2, a0
.Ltmp1805:
	.loc	50 79 35 is_stmt 1
	beqz	s10, .LBB73_3
.Ltmp1806:
	.loc	7 1152 24
	srli	a1, s4, 11
.Ltmp1807:
	.loc	7 0 24 is_stmt 0
	li	a2, 27
	li	a0, 1
.Ltmp1808:
	.loc	50 83 25 is_stmt 1
	bne	a1, a2, .LBB73_4
.Ltmp1809:
	.loc	28 2169 9
	xor	a0, s3, s9
	seqz	a0, a0
	j	.LBB73_4
.Ltmp1810:
.LBB73_3:
	.loc	28 0 9 is_stmt 0
	li	a0, 0
.Ltmp1811:
.LBB73_4:
	.loc	19 822 18 is_stmt 1
	sub	a1, s3, s9
.Ltmp1812:
	.loc	10 2662 21
	srli	a2, a1, 2
.Ltmp1813:
	.loc	10 2663 21
	slli	a3, a1, 30
.Ltmp1814:
	.loc	15 911 26
	lw	a1, 8(s2)
.Ltmp1815:
	.loc	3 247 44
	lw	a4, 0(s2)
.Ltmp1816:
	.loc	10 2663 21
	srli	a3, a3, 31
.Ltmp1817:
	.loc	10 2664 16
	add	a0, a0, a2
.Ltmp1818:
	.loc	50 102 19
	add	a2, a3, a0
.Ltmp1819:
	.loc	7 1256 5
	sub	a4, a4, a1
.Ltmp1820:
	.loc	3 308 12
	bltu	a4, a2, .LBB73_37
.Ltmp1821:
.LBB73_5:
	.loc	3 0 12 is_stmt 0
	li	s5, 27
	li	s6, 54
	lui	s8, 16
	addi	s8, s8, -3
	lui	a0, 256
	addi	a0, a0, -1024
	sw	a0, 4(sp)
	li	s11, 127
	li	s7, 128
	j	.LBB73_9
.Ltmp1822:
.LBB73_6:
	.loc	56 1776 19 is_stmt 1
	srli	a0, s0, 6
.Ltmp1823:
	.loc	56 1776 13 is_stmt 0
	ori	a0, a0, 192
	sb	a0, 8(sp)
	.loc	56 1777 18 is_stmt 1
	andi	a0, s0, 63
	.loc	56 1777 13 is_stmt 0
	addi	a0, a0, 128
	sb	a0, 9(sp)
	li	s1, 2
.Ltmp1824:
.LBB73_7:
	.loc	15 911 26 is_stmt 1
	lw	s0, 8(s2)
.Ltmp1825:
	.loc	3 247 44
	lw	a0, 0(s2)
.Ltmp1826:
	.loc	7 1256 5
	sub	a0, a0, s0
.Ltmp1827:
	.loc	3 308 12
	bltu	a0, s1, .LBB73_35
.Ltmp1828:
.LBB73_8:
	.loc	3 239 9
	lw	a0, 4(s2)
.Ltmp1829:
	.loc	21 1045 18
	add	a0, a0, s0
.Ltmp1830:
	.loc	13 2774 9
	addi	a1, sp, 8
	mv	a2, s1
	call	memcpy@plt
.Ltmp1831:
	.loc	15 2038 9
	add	s0, s0, s1
.Ltmp1832:
	sw	s0, 8(s2)
.Ltmp1833:
.LBB73_9:
	.loc	50 44 17
	slli	s10, s10, 16
	beqz	s10, .LBB73_13
.Ltmp1834:
	.loc	50 0 17 is_stmt 0
	mv	s0, s4
.Ltmp1835:
	.loc	7 1152 24 is_stmt 1
	slli	a0, s4, 16
	srli	a1, a0, 27
.Ltmp1836:
	.loc	50 49 13
	bne	a1, s5, .LBB73_15
.Ltmp1837:
.LBB73_11:
	.loc	50 52 19
	slli	a0, s0, 16
	srli	a0, a0, 26
	bgeu	s6, a0, .LBB73_26
.Ltmp1838:
.LBB73_12:
	.loc	50 0 19 is_stmt 0
	li	s10, 0
	j	.LBB73_30
.Ltmp1839:
.LBB73_13:
	.loc	33 162 24 is_stmt 1
	beq	s9, s3, .LBB73_36
.Ltmp1840:
	.loc	28 1887 29
	lhu	s0, 0(s9)
.Ltmp1841:
	.loc	44 623 37
	addi	s9, s9, 2
.Ltmp1842:
	.loc	7 1152 24
	slli	a0, s0, 16
	srli	a1, a0, 27
.Ltmp1843:
	.loc	50 49 13
	beq	a1, s5, .LBB73_11
.Ltmp1844:
.LBB73_15:
	.loc	56 1742 8
	srli	a0, a0, 16
	bltu	s11, a0, .LBB73_33
.Ltmp1845:
	.loc	15 1921 12
	lw	a1, 8(s2)
.Ltmp1846:
	.loc	3 247 44
	lw	a0, 0(s2)
.Ltmp1847:
	.loc	15 1921 12
	bne	a1, a0, .LBB73_18
.Ltmp1848:
	.loc	15 1922 13
	mv	a0, s2
	call	_ZN5alloc7raw_vec19RawVec$LT$T$C$A$GT$16reserve_for_push17hd330d0d5c0992dd6E
	.loc	15 1925 45
	lw	a1, 8(s2)
.Ltmp1849:
.LBB73_18:
	.loc	3 239 9
	lw	a0, 4(s2)
	j	.LBB73_20
.Ltmp1850:
.LBB73_19:
	lw	a0, 4(s2)
.Ltmp1851:
	.loc	36 0 0 is_stmt 0
	addi	s9, s9, 2
.Ltmp1852:
.LBB73_20:
	.loc	21 1045 18 is_stmt 1
	add	a0, a0, a1
.Ltmp1853:
	.loc	2 1415 9
	sb	s0, 0(a0)
.Ltmp1854:
	.loc	15 1927 13
	addi	a1, a1, 1
.Ltmp1855:
	sw	a1, 8(s2)
.Ltmp1856:
	.loc	33 162 24
	beq	s9, s3, .LBB73_36
.Ltmp1857:
	.loc	28 1887 29
	lhu	s0, 0(s9)
.Ltmp1858:
	.loc	7 1152 24
	srli	a0, s0, 11
.Ltmp1859:
	.loc	50 49 13
	beq	a0, s5, .LBB73_25
.Ltmp1860:
	.loc	56 1742 8
	bgeu	s0, s7, .LBB73_32
.Ltmp1861:
	.loc	15 1921 12
	lw	a1, 8(s2)
.Ltmp1862:
	.loc	3 247 44
	lw	a0, 0(s2)
.Ltmp1863:
	.loc	15 1921 12
	bne	a1, a0, .LBB73_19
.Ltmp1864:
	.loc	15 1922 13
	mv	a0, s2
	call	_ZN5alloc7raw_vec19RawVec$LT$T$C$A$GT$16reserve_for_push17hd330d0d5c0992dd6E
	.loc	15 1925 45
	lw	a1, 8(s2)
	j	.LBB73_19
.Ltmp1865:
.LBB73_25:
	.loc	50 52 19
	addi	s9, s9, 2
	slli	a0, s0, 16
	srli	a0, a0, 26
	bltu	s6, a0, .LBB73_12
.Ltmp1866:
.LBB73_26:
	.loc	33 162 24
	beq	s9, s3, .LBB73_29
.Ltmp1867:
	.loc	28 1887 29
	lhu	a0, 0(s9)
.Ltmp1868:
	.loc	44 623 37
	addi	s9, s9, 2
.Ltmp1869:
	.loc	50 61 16
	lui	a1, 2
.Ltmp1870:
	add	a1, a1, a0
	slli	a1, a1, 16
	srli	a1, a1, 26
	li	s10, 1
	li	a2, 63
	bgeu	a1, a2, .LBB73_31
.Ltmp1871:
	.loc	50 0 16 is_stmt 0
	mv	s4, a0
	j	.LBB73_30
.Ltmp1872:
.LBB73_29:
	li	s10, 0
	mv	s9, s3
.Ltmp1873:
.LBB73_30:
	.loc	16 1347 65 is_stmt 1
	sw	zero, 8(sp)
	mv	a0, s8
	j	.LBB73_34
.Ltmp1874:
.LBB73_31:
	.loc	16 0 65 is_stmt 0
	li	s10, 0
.Ltmp1875:
	.loc	50 69 22 is_stmt 1
	slli	s0, s0, 10
.Ltmp1876:
	lw	a1, 4(sp)
	and	a1, a1, s0
	.loc	50 69 51 is_stmt 0
	andi	a2, a0, 960
	.loc	50 69 21
	lui	a3, 16
	add	a1, a1, a3
	or	a2, a2, s0
.Ltmp1877:
	.loc	56 1785 19 is_stmt 1
	srli	a3, a1, 18
	.loc	56 1785 13 is_stmt 0
	addi	a3, a3, 240
	sb	a3, 8(sp)
	.loc	56 1786 18 is_stmt 1
	slli	a1, a1, 14
	srli	a1, a1, 26
	.loc	56 1786 13 is_stmt 0
	addi	a1, a1, 128
	sb	a1, 9(sp)
	.loc	56 1787 18 is_stmt 1
	slli	a2, a2, 20
	srli	a2, a2, 26
	.loc	56 1787 13 is_stmt 0
	addi	a1, a2, 128
	sb	a1, 10(sp)
	.loc	56 1788 18 is_stmt 1
	andi	a0, a0, 63
.Ltmp1878:
	.loc	56 1788 13 is_stmt 0
	addi	a0, a0, 128
	sb	a0, 11(sp)
	li	s1, 4
	j	.LBB73_7
.Ltmp1879:
.LBB73_32:
	.loc	50 51 55 is_stmt 1
	addi	s9, s9, 2
.Ltmp1880:
.LBB73_33:
	slli	a0, s0, 16
	srli	a0, a0, 16
.Ltmp1881:
	.loc	56 1744 15
	srli	a1, a0, 11
.Ltmp1882:
	.loc	16 1347 65
	sw	zero, 8(sp)
.Ltmp1883:
	.loc	16 0 65 is_stmt 0
	li	s10, 0
.Ltmp1884:
	.loc	56 1744 15 is_stmt 1
	beqz	a1, .LBB73_6
.Ltmp1885:
.LBB73_34:
	.loc	56 1780 19
	srli	a1, a0, 12
	.loc	56 1780 13 is_stmt 0
	addi	a1, a1, 224
	sb	a1, 8(sp)
	.loc	56 1781 18 is_stmt 1
	slli	a1, a0, 20
	srli	a1, a1, 26
	.loc	56 1781 13 is_stmt 0
	addi	a1, a1, 128
	sb	a1, 9(sp)
	.loc	56 1782 18 is_stmt 1
	andi	a0, a0, 63
.Ltmp1886:
	.loc	56 1782 13 is_stmt 0
	addi	a0, a0, 128
	sb	a0, 10(sp)
	li	s1, 3
	j	.LBB73_7
.Ltmp1887:
.LBB73_35:
	.loc	3 309 13 is_stmt 1
	mv	a0, s2
	mv	a1, s0
	mv	a2, s1
	call	_ZN5alloc7raw_vec19RawVec$LT$T$C$A$GT$7reserve21do_reserve_and_handle17h943e2436917d6bc7E
.Ltmp1888:
	.loc	15 2145 9
	lw	s0, 8(s2)
.Ltmp1889:
	.loc	15 0 9 is_stmt 0
	j	.LBB73_8
.Ltmp1890:
.LBB73_36:
	.loc	16 2175 6 is_stmt 1
	lw	ra, 60(sp)
	lw	s0, 56(sp)
	lw	s1, 52(sp)
	lw	s2, 48(sp)
.Ltmp1891:
	lw	s3, 44(sp)
	lw	s4, 40(sp)
	lw	s5, 36(sp)
	lw	s6, 32(sp)
	lw	s7, 28(sp)
	lw	s8, 24(sp)
	lw	s9, 20(sp)
	lw	s10, 16(sp)
	lw	s11, 12(sp)
	.loc	16 2175 6 epilogue_begin is_stmt 0
	addi	sp, sp, 64
	ret
.LBB73_37:
.Ltmp1892:
	.loc	3 309 13 is_stmt 1
	mv	a0, s2
	call	_ZN5alloc7raw_vec19RawVec$LT$T$C$A$GT$7reserve21do_reserve_and_handle17h943e2436917d6bc7E
.Ltmp1893:
	.loc	3 0 13 is_stmt 0
	j	.LBB73_5
.Ltmp1894:
.Lfunc_end73:
	.size	_ZN89_$LT$alloc..string..String$u20$as$u20$core..iter..traits..collect..Extend$LT$char$GT$$GT$6extend17h5f707584e3ac9710E, .Lfunc_end73-_ZN89_$LT$alloc..string..String$u20$as$u20$core..iter..traits..collect..Extend$LT$char$GT$$GT$6extend17h5f707584e3ac9710E
	.cfi_endproc

	.section	".text._ZN73_$LT$$RF$alloc..string..String$u20$as$u20$core..str..pattern..Pattern$GT$13into_searcher17hbef0b198625fb803E","ax",@progbits
	.globl	_ZN73_$LT$$RF$alloc..string..String$u20$as$u20$core..str..pattern..Pattern$GT$13into_searcher17hbef0b198625fb803E
	.p2align	1
	.type	_ZN73_$LT$$RF$alloc..string..String$u20$as$u20$core..str..pattern..Pattern$GT$13into_searcher17hbef0b198625fb803E,@function
_ZN73_$LT$$RF$alloc..string..String$u20$as$u20$core..str..pattern..Pattern$GT$13into_searcher17hbef0b198625fb803E:
.Lfunc_begin74:
	.loc	16 2268 0 is_stmt 1
	.cfi_startproc
	addi	sp, sp, -16
	.cfi_def_cfa_offset 16
.Ltmp1895:
	.loc	3 239 9 prologue_end
	sw	ra, 12(sp)
	.cfi_offset ra, -4
	lw	a5, 4(a1)
.Ltmp1896:
	.loc	15 2706 55
	lw	a4, 8(a1)
	mv	a1, a2
.Ltmp1897:
	.file	59 "/Users/steve/.rustup/toolchains/nightly-2024-02-01-aarch64-apple-darwin/lib/rustlib/src/rust/library/core/src/str" "pattern.rs"
	.loc	59 945 9
	mv	a2, a3
.Ltmp1898:
	mv	a3, a5
	call	_ZN4core3str7pattern11StrSearcher3new17hb3f427a796b01a06E
.Ltmp1899:
	.loc	16 2270 6
	lw	ra, 12(sp)
	.loc	16 2270 6 epilogue_begin is_stmt 0
	addi	sp, sp, 16
	ret
.Ltmp1900:
.Lfunc_end74:
	.size	_ZN73_$LT$$RF$alloc..string..String$u20$as$u20$core..str..pattern..Pattern$GT$13into_searcher17hbef0b198625fb803E, .Lfunc_end74-_ZN73_$LT$$RF$alloc..string..String$u20$as$u20$core..str..pattern..Pattern$GT$13into_searcher17hbef0b198625fb803E
	.cfi_endproc

	.section	".text._ZN97_$LT$alloc..string..String$u20$as$u20$core..convert..From$LT$alloc..boxed..Box$LT$str$GT$$GT$$GT$4from17h85b040c51800ecffE","ax",@progbits
	.globl	_ZN97_$LT$alloc..string..String$u20$as$u20$core..convert..From$LT$alloc..boxed..Box$LT$str$GT$$GT$$GT$4from17h85b040c51800ecffE
	.p2align	1
	.type	_ZN97_$LT$alloc..string..String$u20$as$u20$core..convert..From$LT$alloc..boxed..Box$LT$str$GT$$GT$$GT$4from17h85b040c51800ecffE,@function
_ZN97_$LT$alloc..string..String$u20$as$u20$core..convert..From$LT$alloc..boxed..Box$LT$str$GT$$GT$$GT$4from17h85b040c51800ecffE:
.Lfunc_begin75:
	.cfi_startproc
	.loc	16 981 9 prologue_end is_stmt 1
	sw	a2, 0(a0)
	sw	a1, 4(a0)
	sw	a2, 8(a0)
.Ltmp1901:
	.loc	16 2809 6
	ret
.Ltmp1902:
.Lfunc_end75:
	.size	_ZN97_$LT$alloc..string..String$u20$as$u20$core..convert..From$LT$alloc..boxed..Box$LT$str$GT$$GT$$GT$4from17h85b040c51800ecffE, .Lfunc_end75-_ZN97_$LT$alloc..string..String$u20$as$u20$core..convert..From$LT$alloc..boxed..Box$LT$str$GT$$GT$$GT$4from17h85b040c51800ecffE
	.cfi_endproc

	.section	".text._ZN5alloc6string107_$LT$impl$u20$core..convert..From$LT$alloc..string..String$GT$$u20$for$u20$alloc..boxed..Box$LT$str$GT$$GT$4from17hc8126def4748541fE","ax",@progbits
	.globl	_ZN5alloc6string107_$LT$impl$u20$core..convert..From$LT$alloc..string..String$GT$$u20$for$u20$alloc..boxed..Box$LT$str$GT$$GT$4from17hc8126def4748541fE
	.p2align	1
	.type	_ZN5alloc6string107_$LT$impl$u20$core..convert..From$LT$alloc..string..String$GT$$u20$for$u20$alloc..boxed..Box$LT$str$GT$$GT$4from17hc8126def4748541fE,@function
_ZN5alloc6string107_$LT$impl$u20$core..convert..From$LT$alloc..string..String$GT$$u20$for$u20$alloc..boxed..Box$LT$str$GT$$GT$4from17hc8126def4748541fE:
.Lfunc_begin76:
	.loc	16 2826 0
	.cfi_startproc
	addi	sp, sp, -16
	.cfi_def_cfa_offset 16
.Ltmp1903:
	.loc	16 1944 21 prologue_end
	sw	ra, 12(sp)
	sw	s0, 8(sp)
	.cfi_offset ra, -4
	.cfi_offset s0, -8
	lw	a1, 0(a0)
	lw	s0, 8(a0)
.Ltmp1904:
	lw	a0, 4(a0)
.Ltmp1905:
	.loc	15 1047 12
	bgeu	s0, a1, .LBB76_5
.Ltmp1906:
	.loc	4 136 14
	li	a2, 1
.Ltmp1907:
	.loc	3 472 12
	beqz	s0, .LBB76_4
.Ltmp1908:
	.loc	4 136 14
	mv	a3, s0
	call	__rust_realloc
.Ltmp1909:
	.loc	9 827 9
	bnez	a0, .LBB76_5
.Ltmp1910:
	.loc	3 542 43
	li	a0, 1
	mv	a1, s0
	call	_ZN5alloc5alloc18handle_alloc_error17h7e3d1e4e5e7ceb74E
.Ltmp1911:
.LBB76_4:
	.loc	4 117 14
	call	__rust_dealloc
.Ltmp1912:
	.loc	4 0 14 is_stmt 0
	li	a0, 1
.Ltmp1913:
.LBB76_5:
	.loc	16 2828 6 is_stmt 1
	mv	a1, s0
	lw	ra, 12(sp)
	lw	s0, 8(sp)
	.loc	16 2828 6 epilogue_begin is_stmt 0
	addi	sp, sp, 16
	ret
.Ltmp1914:
.Lfunc_end76:
	.size	_ZN5alloc6string107_$LT$impl$u20$core..convert..From$LT$alloc..string..String$GT$$u20$for$u20$alloc..boxed..Box$LT$str$GT$$GT$4from17hc8126def4748541fE, .Lfunc_end76-_ZN5alloc6string107_$LT$impl$u20$core..convert..From$LT$alloc..string..String$GT$$u20$for$u20$alloc..boxed..Box$LT$str$GT$$GT$4from17hc8126def4748541fE
	.cfi_endproc

	.section	".text._ZN98_$LT$alloc..string..String$u20$as$u20$core..convert..From$LT$alloc..borrow..Cow$LT$str$GT$$GT$$GT$4from17hba75bc0859ec7937E","ax",@progbits
	.globl	_ZN98_$LT$alloc..string..String$u20$as$u20$core..convert..From$LT$alloc..borrow..Cow$LT$str$GT$$GT$$GT$4from17hba75bc0859ec7937E
	.p2align	1
	.type	_ZN98_$LT$alloc..string..String$u20$as$u20$core..convert..From$LT$alloc..borrow..Cow$LT$str$GT$$GT$$GT$4from17hba75bc0859ec7937E,@function
_ZN98_$LT$alloc..string..String$u20$as$u20$core..convert..From$LT$alloc..borrow..Cow$LT$str$GT$$GT$$GT$4from17hba75bc0859ec7937E:
.Lfunc_begin77:
	.loc	16 2850 0 is_stmt 1
	.cfi_startproc
	addi	sp, sp, -32
	.cfi_def_cfa_offset 32
.Ltmp1915:
	.loc	20 324 15 prologue_end
	sw	ra, 28(sp)
	sw	s0, 24(sp)
	sw	s1, 20(sp)
	sw	s2, 16(sp)
	sw	s3, 12(sp)
	.cfi_offset ra, -4
	.cfi_offset s0, -8
	.cfi_offset s1, -12
	.cfi_offset s2, -16
	.cfi_offset s3, -20
	lw	a2, 0(a1)
	lui	a3, 524288
	mv	s0, a0
	.loc	20 324 9 is_stmt 0
	bne	a2, a3, .LBB77_5
.Ltmp1916:
	.loc	20 325 22 is_stmt 1
	lw	s1, 8(a1)
.Ltmp1917:
	lw	s2, 4(a1)
.Ltmp1918:
	.loc	3 185 25
	beqz	s1, .LBB77_6
.Ltmp1919:
	.loc	3 190 26
	bltz	s1, .LBB77_9
.Ltmp1920:
	.loc	2 1583 9
	lui	a0, %hi(__rust_no_alloc_shim_is_unstable)
	lbu	a0, %lo(__rust_no_alloc_shim_is_unstable)(a0)
.Ltmp1921:
	.loc	4 98 9
	li	a1, 1
.Ltmp1922:
	mv	a0, s1
	call	__rust_alloc
	mv	s3, a0
.Ltmp1923:
	.loc	3 202 23
	bnez	a0, .LBB77_7
.Ltmp1924:
	.loc	3 204 27
	li	a0, 1
	mv	a1, s1
	call	_ZN5alloc5alloc18handle_alloc_error17h7e3d1e4e5e7ceb74E
.Ltmp1925:
.LBB77_5:
	.loc	20 326 29
	lw	a0, 8(a1)
	lw	a2, 4(a1)
	lw	a1, 0(a1)
.Ltmp1926:
	sw	a0, 8(s0)
	sw	a2, 4(s0)
	sw	a1, 0(s0)
	j	.LBB77_8
.Ltmp1927:
.LBB77_6:
	.loc	20 0 29 is_stmt 0
	li	s3, 1
.Ltmp1928:
.LBB77_7:
	.loc	13 2774 9 is_stmt 1
	mv	a0, s3
	mv	a1, s2
	mv	a2, s1
	call	memcpy@plt
.Ltmp1929:
	.loc	16 981 9
	sw	s1, 0(s0)
	sw	s3, 4(s0)
	sw	s1, 8(s0)
.Ltmp1930:
.LBB77_8:
	.loc	16 2852 6
	lw	ra, 28(sp)
	lw	s0, 24(sp)
	lw	s1, 20(sp)
	lw	s2, 16(sp)
	lw	s3, 12(sp)
	.loc	16 2852 6 epilogue_begin is_stmt 0
	addi	sp, sp, 32
	ret
.LBB77_9:
.Ltmp1931:
	.loc	3 192 27 is_stmt 1
	call	_ZN5alloc7raw_vec17capacity_overflow17h6deb98aaf45da7a0E
.Ltmp1932:
.Lfunc_end77:
	.size	_ZN98_$LT$alloc..string..String$u20$as$u20$core..convert..From$LT$alloc..borrow..Cow$LT$str$GT$$GT$$GT$4from17hba75bc0859ec7937E, .Lfunc_end77-_ZN98_$LT$alloc..string..String$u20$as$u20$core..convert..From$LT$alloc..borrow..Cow$LT$str$GT$$GT$$GT$4from17hba75bc0859ec7937E
	.cfi_endproc

	.section	".text._ZN58_$LT$alloc..string..String$u20$as$u20$core..fmt..Write$GT$9write_str17h1b9c25a86efc5f50E","ax",@progbits
	.p2align	1
	.type	_ZN58_$LT$alloc..string..String$u20$as$u20$core..fmt..Write$GT$9write_str17h1b9c25a86efc5f50E,@function
_ZN58_$LT$alloc..string..String$u20$as$u20$core..fmt..Write$GT$9write_str17h1b9c25a86efc5f50E:
.Lfunc_begin78:
	.loc	16 2968 0
	.cfi_startproc
	addi	sp, sp, -32
	.cfi_def_cfa_offset 32
	sw	ra, 28(sp)
	sw	s0, 24(sp)
	sw	s1, 20(sp)
	sw	s2, 16(sp)
	sw	s3, 12(sp)
	.cfi_offset ra, -4
	.cfi_offset s0, -8
	.cfi_offset s1, -12
	.cfi_offset s2, -16
	.cfi_offset s3, -20
	mv	s0, a0
.Ltmp1933:
	.loc	15 911 26 prologue_end
	lw	s1, 8(a0)
.Ltmp1934:
	.loc	3 247 44
	lw	a0, 0(a0)
.Ltmp1935:
	.loc	7 1256 5
	sub	a0, a0, s1
.Ltmp1936:
	.loc	7 0 5 is_stmt 0
	mv	s2, a2
.Ltmp1937:
	mv	s3, a1
.Ltmp1938:
	.loc	3 308 12 is_stmt 1
	bltu	a0, a2, .LBB78_2
.Ltmp1939:
.LBB78_1:
	.loc	3 239 9
	lw	a0, 4(s0)
.Ltmp1940:
	.loc	21 1045 18
	add	a0, a0, s1
.Ltmp1941:
	.loc	13 2774 9
	mv	a1, s3
	mv	a2, s2
	call	memcpy@plt
.Ltmp1942:
	.loc	15 2038 9
	add	s1, s1, s2
.Ltmp1943:
	sw	s1, 8(s0)
.Ltmp1944:
	.loc	16 2971 6
	li	a0, 0
	lw	ra, 28(sp)
	lw	s0, 24(sp)
.Ltmp1945:
	lw	s1, 20(sp)
	lw	s2, 16(sp)
.Ltmp1946:
	lw	s3, 12(sp)
.Ltmp1947:
	.loc	16 2971 6 epilogue_begin is_stmt 0
	addi	sp, sp, 32
	ret
.LBB78_2:
.Ltmp1948:
	.loc	3 309 13 is_stmt 1
	mv	a0, s0
	mv	a1, s1
	mv	a2, s2
	call	_ZN5alloc7raw_vec19RawVec$LT$T$C$A$GT$7reserve21do_reserve_and_handle17h943e2436917d6bc7E
.Ltmp1949:
	.loc	15 2145 9
	lw	s1, 8(s0)
.Ltmp1950:
	.loc	15 0 9 is_stmt 0
	j	.LBB78_1
.Ltmp1951:
.Lfunc_end78:
	.size	_ZN58_$LT$alloc..string..String$u20$as$u20$core..fmt..Write$GT$9write_str17h1b9c25a86efc5f50E, .Lfunc_end78-_ZN58_$LT$alloc..string..String$u20$as$u20$core..fmt..Write$GT$9write_str17h1b9c25a86efc5f50E
	.cfi_endproc

	.section	".text._ZN58_$LT$alloc..string..String$u20$as$u20$core..fmt..Write$GT$10write_char17h986dd14a9ddccdfcE","ax",@progbits
	.p2align	1
	.type	_ZN58_$LT$alloc..string..String$u20$as$u20$core..fmt..Write$GT$10write_char17h986dd14a9ddccdfcE,@function
_ZN58_$LT$alloc..string..String$u20$as$u20$core..fmt..Write$GT$10write_char17h986dd14a9ddccdfcE:
.Lfunc_begin79:
	.loc	16 2974 0 is_stmt 1
	.cfi_startproc
	addi	sp, sp, -16
	.cfi_def_cfa_offset 16
.Ltmp1952:
	.loc	16 2975 9 prologue_end
	sw	ra, 12(sp)
	.cfi_offset ra, -4
	call	_ZN5alloc6string6String4push17h0012f7c75d33ed6dE
.Ltmp1953:
	.loc	16 2977 6
	li	a0, 0
	lw	ra, 12(sp)
	.loc	16 2977 6 epilogue_begin is_stmt 0
	addi	sp, sp, 16
	ret
.Ltmp1954:
.Lfunc_end79:
	.size	_ZN58_$LT$alloc..string..String$u20$as$u20$core..fmt..Write$GT$10write_char17h986dd14a9ddccdfcE, .Lfunc_end79-_ZN58_$LT$alloc..string..String$u20$as$u20$core..fmt..Write$GT$10write_char17h986dd14a9ddccdfcE
	.cfi_endproc

	.section	".text._ZN57_$LT$alloc..string..Drain$u20$as$u20$core..fmt..Debug$GT$3fmt17hee1a4d4efcc9da25E","ax",@progbits
	.globl	_ZN57_$LT$alloc..string..Drain$u20$as$u20$core..fmt..Debug$GT$3fmt17hee1a4d4efcc9da25E
	.p2align	1
	.type	_ZN57_$LT$alloc..string..Drain$u20$as$u20$core..fmt..Debug$GT$3fmt17hee1a4d4efcc9da25E,@function
_ZN57_$LT$alloc..string..Drain$u20$as$u20$core..fmt..Debug$GT$3fmt17hee1a4d4efcc9da25E:
.Lfunc_begin80:
	.loc	16 3000 0 is_stmt 1
	.cfi_startproc
	addi	sp, sp, -32
	.cfi_def_cfa_offset 32
	sw	ra, 28(sp)
	sw	s0, 24(sp)
	.cfi_offset ra, -4
	.cfi_offset s0, -8
	mv	s0, a0
.Ltmp1955:
	.loc	16 3001 9 prologue_end
	lui	a0, %hi(.L__unnamed_34)
	addi	a2, a0, %lo(.L__unnamed_34)
	addi	a0, sp, 4
	li	a3, 5
	call	_ZN4core3fmt9Formatter11debug_tuple17hb7e8b6e868b3d40fE
.Ltmp1956:
	.loc	47 127 9
	lw	a0, 0(s0)
	lw	a1, 4(s0)
.Ltmp1957:
	.loc	19 822 18
	sub	a1, a1, a0
.Ltmp1958:
	.loc	16 3001 39
	sw	a0, 16(sp)
	sw	a1, 20(sp)
	.loc	16 3001 9 is_stmt 0
	lui	a0, %hi(.L__unnamed_5)
.Ltmp1959:
	addi	a2, a0, %lo(.L__unnamed_5)
	addi	a0, sp, 4
	addi	a1, sp, 16
	call	_ZN4core3fmt8builders10DebugTuple5field17h6d34587e2d08c040E
	call	_ZN4core3fmt8builders10DebugTuple6finish17h203d313ec2ed80bbE
	.loc	16 3002 6 is_stmt 1
	lw	ra, 28(sp)
	lw	s0, 24(sp)
.Ltmp1960:
	.loc	16 3002 6 epilogue_begin is_stmt 0
	addi	sp, sp, 32
	ret
.Ltmp1961:
.Lfunc_end80:
	.size	_ZN57_$LT$alloc..string..Drain$u20$as$u20$core..fmt..Debug$GT$3fmt17hee1a4d4efcc9da25E, .Lfunc_end80-_ZN57_$LT$alloc..string..Drain$u20$as$u20$core..fmt..Debug$GT$3fmt17hee1a4d4efcc9da25E
	.cfi_endproc

	.section	".text._ZN62_$LT$alloc..string..Drain$u20$as$u20$core..ops..drop..Drop$GT$4drop17hda08570d57eb07a4E","ax",@progbits
	.globl	_ZN62_$LT$alloc..string..Drain$u20$as$u20$core..ops..drop..Drop$GT$4drop17hda08570d57eb07a4E
	.p2align	1
	.type	_ZN62_$LT$alloc..string..Drain$u20$as$u20$core..ops..drop..Drop$GT$4drop17hda08570d57eb07a4E,@function
_ZN62_$LT$alloc..string..Drain$u20$as$u20$core..ops..drop..Drop$GT$4drop17hda08570d57eb07a4E:
.Lfunc_begin81:
	.loc	16 3012 0 is_stmt 1
	.cfi_startproc
	addi	sp, sp, -16
	.cfi_def_cfa_offset 16
.Ltmp1962:
	.loc	16 0 0 is_stmt 0
	sw	ra, 12(sp)
	sw	s0, 8(sp)
	sw	s1, 4(sp)
	sw	s2, 0(sp)
	.cfi_offset ra, -4
	.cfi_offset s0, -8
	.cfi_offset s1, -12
	.cfi_offset s2, -16
.Ltmp1963:
	.loc	16 3017 16 prologue_end is_stmt 1
	lw	s1, 12(a0)
	.loc	16 3017 30 is_stmt 0
	lw	a1, 16(a0)
	.loc	16 3017 16
	bltu	a1, s1, .LBB81_7
.Ltmp1964:
	.loc	16 0 0
	lw	s0, 8(a0)
.Ltmp1965:
	.loc	15 2145 9 is_stmt 1
	lw	a0, 8(s0)
.Ltmp1966:
	.loc	16 3017 42
	bltu	a0, a1, .LBB81_7
.Ltmp1967:
	.loc	15 1424 9
	sw	s1, 8(s0)
.Ltmp1968:
	.loc	15 2095 27
	sub	s2, a0, a1
.Ltmp1969:
	.file	60 "/Users/steve/.rustup/toolchains/nightly-2024-02-01-aarch64-apple-darwin/lib/rustlib/src/rust/library/alloc" "src/vec/drain.rs"
	.loc	60 219 12
	bne	a1, s1, .LBB81_4
.Ltmp1970:
	.loc	60 181 20
	bne	a0, a1, .LBB81_6
	j	.LBB81_7
.Ltmp1971:
.LBB81_4:
	.loc	60 181 20 is_stmt 0
	beq	a0, a1, .LBB81_7
.Ltmp1972:
	.loc	16 3018 0 is_stmt 1
	lw	a2, 4(s0)
.Ltmp1973:
	add	a0, a2, s1
.Ltmp1974:
	add	a1, a1, a2
.Ltmp1975:
	.loc	13 2866 9
	mv	a2, s2
.Ltmp1976:
	call	memmove@plt
.Ltmp1977:
.LBB81_6:
	.loc	60 192 44
	add	s1, s1, s2
.Ltmp1978:
	.loc	15 1424 9
	sw	s1, 8(s0)
.Ltmp1979:
.LBB81_7:
	.loc	16 3021 6
	lw	ra, 12(sp)
	lw	s0, 8(sp)
	lw	s1, 4(sp)
	lw	s2, 0(sp)
	.loc	16 3021 6 epilogue_begin is_stmt 0
	addi	sp, sp, 16
	ret
.Ltmp1980:
.Lfunc_end81:
	.size	_ZN62_$LT$alloc..string..Drain$u20$as$u20$core..ops..drop..Drop$GT$4drop17hda08570d57eb07a4E, .Lfunc_end81-_ZN62_$LT$alloc..string..Drain$u20$as$u20$core..ops..drop..Drop$GT$4drop17hda08570d57eb07a4E
	.cfi_endproc

	.section	.text._ZN5alloc6string5Drain6as_str17hcc996f9256da41b7E,"ax",@progbits
	.globl	_ZN5alloc6string5Drain6as_str17hcc996f9256da41b7E
	.p2align	1
	.type	_ZN5alloc6string5Drain6as_str17hcc996f9256da41b7E,@function
_ZN5alloc6string5Drain6as_str17hcc996f9256da41b7E:
.Lfunc_begin82:
	.cfi_startproc
	.loc	47 127 9 prologue_end is_stmt 1
	lw	a2, 0(a0)
	lw	a1, 4(a0)
.Ltmp1981:
	.loc	19 822 18
	sub	a1, a1, a2
.Ltmp1982:
	.loc	16 3040 6
	mv	a0, a2
.Ltmp1983:
	ret
.Ltmp1984:
.Lfunc_end82:
	.size	_ZN5alloc6string5Drain6as_str17hcc996f9256da41b7E, .Lfunc_end82-_ZN5alloc6string5Drain6as_str17hcc996f9256da41b7E
	.cfi_endproc

	.section	".text._ZN72_$LT$alloc..string..Drain$u20$as$u20$core..convert..AsRef$LT$str$GT$$GT$6as_ref17h99608da83871bb65E","ax",@progbits
	.globl	_ZN72_$LT$alloc..string..Drain$u20$as$u20$core..convert..AsRef$LT$str$GT$$GT$6as_ref17h99608da83871bb65E
	.p2align	1
	.type	_ZN72_$LT$alloc..string..Drain$u20$as$u20$core..convert..AsRef$LT$str$GT$$GT$6as_ref17h99608da83871bb65E,@function
_ZN72_$LT$alloc..string..Drain$u20$as$u20$core..convert..AsRef$LT$str$GT$$GT$6as_ref17h99608da83871bb65E:
.Lfunc_begin83:
	.cfi_startproc
	.loc	47 127 9 prologue_end
	lw	a2, 0(a0)
	lw	a1, 4(a0)
.Ltmp1985:
	.loc	19 822 18
	sub	a1, a1, a2
.Ltmp1986:
	.loc	16 3047 6
	mv	a0, a2
.Ltmp1987:
	ret
.Ltmp1988:
.Lfunc_end83:
	.size	_ZN72_$LT$alloc..string..Drain$u20$as$u20$core..convert..AsRef$LT$str$GT$$GT$6as_ref17h99608da83871bb65E, .Lfunc_end83-_ZN72_$LT$alloc..string..Drain$u20$as$u20$core..convert..AsRef$LT$str$GT$$GT$6as_ref17h99608da83871bb65E
	.cfi_endproc

	.section	".text._ZN79_$LT$alloc..string..Drain$u20$as$u20$core..iter..traits..iterator..Iterator$GT$9size_hint17hb614b1a3e7df211aE","ax",@progbits
	.globl	_ZN79_$LT$alloc..string..Drain$u20$as$u20$core..iter..traits..iterator..Iterator$GT$9size_hint17hb614b1a3e7df211aE
	.p2align	1
	.type	_ZN79_$LT$alloc..string..Drain$u20$as$u20$core..iter..traits..iterator..Iterator$GT$9size_hint17hb614b1a3e7df211aE,@function
_ZN79_$LT$alloc..string..Drain$u20$as$u20$core..iter..traits..iterator..Iterator$GT$9size_hint17hb614b1a3e7df211aE:
.Lfunc_begin84:
	.cfi_startproc
	.loc	40 104 19 prologue_end
	lw	a2, 0(a1)
	lw	a1, 4(a1)
.Ltmp1989:
	.loc	19 822 18
	sub	a1, a1, a2
.Ltmp1990:
	.loc	40 108 10
	addi	a2, a1, 3
.Ltmp1991:
	srli	a2, a2, 2
	.loc	40 108 9 is_stmt 0
	sw	a2, 0(a0)
	li	a2, 1
	sw	a2, 4(a0)
	sw	a1, 8(a0)
.Ltmp1992:
	.loc	16 3068 6 is_stmt 1
	ret
.Ltmp1993:
.Lfunc_end84:
	.size	_ZN79_$LT$alloc..string..Drain$u20$as$u20$core..iter..traits..iterator..Iterator$GT$9size_hint17hb614b1a3e7df211aE, .Lfunc_end84-_ZN79_$LT$alloc..string..Drain$u20$as$u20$core..iter..traits..iterator..Iterator$GT$9size_hint17hb614b1a3e7df211aE
	.cfi_endproc

	.section	.text._ZN5alloc4sync32arcinner_layout_for_value_layout17hd3162aa00388ba90E,"ax",@progbits
	.globl	_ZN5alloc4sync32arcinner_layout_for_value_layout17hd3162aa00388ba90E
	.p2align	1
	.type	_ZN5alloc4sync32arcinner_layout_for_value_layout17hd3162aa00388ba90E,@function
_ZN5alloc4sync32arcinner_layout_for_value_layout17hd3162aa00388ba90E:
.Lfunc_begin85:
	.file	61 "/Users/steve/.rustup/toolchains/nightly-2024-02-01-aarch64-apple-darwin/lib/rustlib/src/rust/library/alloc" "src/sync.rs"
	.loc	61 368 0
	.cfi_startproc
	li	a3, 4
	mv	a2, a0
.Ltmp1994:
	.loc	8 0 0 is_stmt 0
	bltu	a3, a0, .LBB85_2
.Ltmp1995:
	li	a0, 4
.Ltmp1996:
.LBB85_2:
	.loc	7 1256 5 prologue_end is_stmt 1
	addi	a3, a2, 7
.Ltmp1997:
	.loc	6 284 72
	neg	a2, a2
.Ltmp1998:
	.loc	6 284 30 is_stmt 0
	and	a2, a2, a3
.Ltmp1999:
	.loc	7 1256 5 is_stmt 1
	addi	a3, a2, -8
.Ltmp2000:
	.loc	6 384 22
	bltu	a2, a3, .LBB85_5
.Ltmp2001:
	.loc	7 1256 5
	add	a1, a1, a2
.Ltmp2002:
	sltu	a2, a1, a2
.Ltmp2003:
	.loc	7 0 5 is_stmt 0
	lui	a3, 524288
.Ltmp2004:
	sub	a3, a3, a0
	sltu	a3, a3, a1
.Ltmp2005:
	.loc	6 385 24 is_stmt 1
	or	a2, a2, a3
	bnez	a2, .LBB85_5
.Ltmp2006:
	.loc	7 1256 5
	add	a1, a1, a0
.Ltmp2007:
	.loc	7 1256 5 is_stmt 0
	addi	a1, a1, -1
.Ltmp2008:
	.loc	6 284 72 is_stmt 1
	neg	a2, a0
	.loc	6 284 30 is_stmt 0
	and	a1, a1, a2
.Ltmp2009:
	.loc	61 374 2 is_stmt 1
	ret
.Ltmp2010:
.LBB85_5:
	addi	sp, sp, -16
	.cfi_def_cfa_offset 16
.Ltmp2011:
	.loc	9 1073 23
	lui	a0, %hi(.L__unnamed_27)
	addi	a0, a0, %lo(.L__unnamed_27)
	lui	a1, %hi(.L__unnamed_4)
	addi	a3, a1, %lo(.L__unnamed_4)
	lui	a1, %hi(.L__unnamed_35)
	addi	a4, a1, %lo(.L__unnamed_35)
	li	a1, 43
	addi	a2, sp, 15
	call	_ZN4core6result13unwrap_failed17h9088d0865a96f7faE
.Ltmp2012:
.Lfunc_end85:
	.size	_ZN5alloc4sync32arcinner_layout_for_value_layout17hd3162aa00388ba90E, .Lfunc_end85-_ZN5alloc4sync32arcinner_layout_for_value_layout17hd3162aa00388ba90E
	.cfi_endproc

	.section	".text.unlikely._ZN5alloc3vec16Vec$LT$T$C$A$GT$11swap_remove13assert_failed17h63b0b93d0ff8239dE","ax",@progbits
	.globl	_ZN5alloc3vec16Vec$LT$T$C$A$GT$11swap_remove13assert_failed17h63b0b93d0ff8239dE
	.p2align	1
	.type	_ZN5alloc3vec16Vec$LT$T$C$A$GT$11swap_remove13assert_failed17h63b0b93d0ff8239dE,@function
_ZN5alloc3vec16Vec$LT$T$C$A$GT$11swap_remove13assert_failed17h63b0b93d0ff8239dE:
.Lfunc_begin86:
	.loc	15 1457 0
	.cfi_startproc
	addi	sp, sp, -48
	.cfi_def_cfa_offset 48
	sw	a0, 0(sp)
	sw	a1, 4(sp)
	mv	a0, sp
.Ltmp2013:
	.loc	15 1458 13 prologue_end
	sw	a0, 32(sp)
	lui	a0, %hi(_ZN4core3fmt3num3imp54_$LT$impl$u20$core..fmt..Display$u20$for$u20$usize$GT$3fmt17h234c5c82398ec9b3E)
	addi	a0, a0, %lo(_ZN4core3fmt3num3imp54_$LT$impl$u20$core..fmt..Display$u20$for$u20$usize$GT$3fmt17h234c5c82398ec9b3E)
	sw	a0, 36(sp)
	addi	a1, sp, 4
.Ltmp2014:
	sw	a1, 40(sp)
	sw	a0, 44(sp)
.Ltmp2015:
	.loc	1 335 9
	lui	a0, %hi(.L__unnamed_36)
	addi	a0, a0, %lo(.L__unnamed_36)
.Ltmp2016:
	sw	a0, 8(sp)
	li	a0, 3
.Ltmp2017:
	sw	a0, 12(sp)
	sw	zero, 24(sp)
	addi	a0, sp, 32
	sw	a0, 16(sp)
	li	a0, 2
	sw	a0, 20(sp)
.Ltmp2018:
	.loc	15 1458 13
	addi	a0, sp, 8
	mv	a1, a2
	call	_ZN4core9panicking9panic_fmt17h0079632a8b35876aE
.Ltmp2019:
.Lfunc_end86:
	.size	_ZN5alloc3vec16Vec$LT$T$C$A$GT$11swap_remove13assert_failed17h63b0b93d0ff8239dE, .Lfunc_end86-_ZN5alloc3vec16Vec$LT$T$C$A$GT$11swap_remove13assert_failed17h63b0b93d0ff8239dE
	.cfi_endproc

	.section	".text.unlikely._ZN5alloc3vec16Vec$LT$T$C$A$GT$6insert13assert_failed17h81b60606aebf5f90E","ax",@progbits
	.globl	_ZN5alloc3vec16Vec$LT$T$C$A$GT$6insert13assert_failed17h81b60606aebf5f90E
	.p2align	1
	.type	_ZN5alloc3vec16Vec$LT$T$C$A$GT$6insert13assert_failed17h81b60606aebf5f90E,@function
_ZN5alloc3vec16Vec$LT$T$C$A$GT$6insert13assert_failed17h81b60606aebf5f90E:
.Lfunc_begin87:
	.loc	15 1499 0
	.cfi_startproc
	addi	sp, sp, -48
	.cfi_def_cfa_offset 48
	sw	a0, 0(sp)
	sw	a1, 4(sp)
	mv	a0, sp
.Ltmp2020:
	.loc	15 1500 13 prologue_end
	sw	a0, 32(sp)
	lui	a0, %hi(_ZN4core3fmt3num3imp54_$LT$impl$u20$core..fmt..Display$u20$for$u20$usize$GT$3fmt17h234c5c82398ec9b3E)
	addi	a0, a0, %lo(_ZN4core3fmt3num3imp54_$LT$impl$u20$core..fmt..Display$u20$for$u20$usize$GT$3fmt17h234c5c82398ec9b3E)
	sw	a0, 36(sp)
	addi	a1, sp, 4
.Ltmp2021:
	sw	a1, 40(sp)
	sw	a0, 44(sp)
.Ltmp2022:
	.loc	1 335 9
	lui	a0, %hi(.L__unnamed_37)
	addi	a0, a0, %lo(.L__unnamed_37)
.Ltmp2023:
	sw	a0, 8(sp)
	li	a0, 3
.Ltmp2024:
	sw	a0, 12(sp)
	sw	zero, 24(sp)
	addi	a0, sp, 32
	sw	a0, 16(sp)
	li	a0, 2
	sw	a0, 20(sp)
.Ltmp2025:
	.loc	15 1500 13
	addi	a0, sp, 8
	mv	a1, a2
	call	_ZN4core9panicking9panic_fmt17h0079632a8b35876aE
.Ltmp2026:
.Lfunc_end87:
	.size	_ZN5alloc3vec16Vec$LT$T$C$A$GT$6insert13assert_failed17h81b60606aebf5f90E, .Lfunc_end87-_ZN5alloc3vec16Vec$LT$T$C$A$GT$6insert13assert_failed17h81b60606aebf5f90E
	.cfi_endproc

	.section	".text.unlikely._ZN5alloc3vec16Vec$LT$T$C$A$GT$6remove13assert_failed17ha5d5c40765ebbd63E","ax",@progbits
	.globl	_ZN5alloc3vec16Vec$LT$T$C$A$GT$6remove13assert_failed17ha5d5c40765ebbd63E
	.p2align	1
	.type	_ZN5alloc3vec16Vec$LT$T$C$A$GT$6remove13assert_failed17ha5d5c40765ebbd63E,@function
_ZN5alloc3vec16Vec$LT$T$C$A$GT$6remove13assert_failed17ha5d5c40765ebbd63E:
.Lfunc_begin88:
	.loc	15 1561 0
	.cfi_startproc
	addi	sp, sp, -48
	.cfi_def_cfa_offset 48
	sw	a0, 0(sp)
	sw	a1, 4(sp)
	mv	a0, sp
.Ltmp2027:
	.loc	15 1562 13 prologue_end
	sw	a0, 32(sp)
	lui	a0, %hi(_ZN4core3fmt3num3imp54_$LT$impl$u20$core..fmt..Display$u20$for$u20$usize$GT$3fmt17h234c5c82398ec9b3E)
	addi	a0, a0, %lo(_ZN4core3fmt3num3imp54_$LT$impl$u20$core..fmt..Display$u20$for$u20$usize$GT$3fmt17h234c5c82398ec9b3E)
	sw	a0, 36(sp)
	addi	a1, sp, 4
.Ltmp2028:
	sw	a1, 40(sp)
	sw	a0, 44(sp)
.Ltmp2029:
	.loc	1 335 9
	lui	a0, %hi(.L__unnamed_38)
	addi	a0, a0, %lo(.L__unnamed_38)
.Ltmp2030:
	sw	a0, 8(sp)
	li	a0, 3
.Ltmp2031:
	sw	a0, 12(sp)
	sw	zero, 24(sp)
	addi	a0, sp, 32
	sw	a0, 16(sp)
	li	a0, 2
	sw	a0, 20(sp)
.Ltmp2032:
	.loc	15 1562 13
	addi	a0, sp, 8
	mv	a1, a2
	call	_ZN4core9panicking9panic_fmt17h0079632a8b35876aE
.Ltmp2033:
.Lfunc_end88:
	.size	_ZN5alloc3vec16Vec$LT$T$C$A$GT$6remove13assert_failed17ha5d5c40765ebbd63E, .Lfunc_end88-_ZN5alloc3vec16Vec$LT$T$C$A$GT$6remove13assert_failed17ha5d5c40765ebbd63E
	.cfi_endproc

	.section	".text.unlikely._ZN5alloc3vec16Vec$LT$T$C$A$GT$9split_off13assert_failed17h9be15eb5bad5a420E","ax",@progbits
	.globl	_ZN5alloc3vec16Vec$LT$T$C$A$GT$9split_off13assert_failed17h9be15eb5bad5a420E
	.p2align	1
	.type	_ZN5alloc3vec16Vec$LT$T$C$A$GT$9split_off13assert_failed17h9be15eb5bad5a420E,@function
_ZN5alloc3vec16Vec$LT$T$C$A$GT$9split_off13assert_failed17h9be15eb5bad5a420E:
.Lfunc_begin89:
	.loc	15 2199 0
	.cfi_startproc
	addi	sp, sp, -48
	.cfi_def_cfa_offset 48
	sw	a0, 0(sp)
	sw	a1, 4(sp)
	mv	a0, sp
.Ltmp2034:
	.loc	15 2200 13 prologue_end
	sw	a0, 32(sp)
	lui	a0, %hi(_ZN4core3fmt3num3imp54_$LT$impl$u20$core..fmt..Display$u20$for$u20$usize$GT$3fmt17h234c5c82398ec9b3E)
	addi	a0, a0, %lo(_ZN4core3fmt3num3imp54_$LT$impl$u20$core..fmt..Display$u20$for$u20$usize$GT$3fmt17h234c5c82398ec9b3E)
	sw	a0, 36(sp)
	addi	a1, sp, 4
.Ltmp2035:
	sw	a1, 40(sp)
	sw	a0, 44(sp)
.Ltmp2036:
	.loc	1 335 9
	lui	a0, %hi(.L__unnamed_39)
	addi	a0, a0, %lo(.L__unnamed_39)
.Ltmp2037:
	sw	a0, 8(sp)
	li	a0, 3
.Ltmp2038:
	sw	a0, 12(sp)
	sw	zero, 24(sp)
	addi	a0, sp, 32
	sw	a0, 16(sp)
	li	a0, 2
	sw	a0, 20(sp)
.Ltmp2039:
	.loc	15 2200 13
	addi	a0, sp, 8
	mv	a1, a2
	call	_ZN4core9panicking9panic_fmt17h0079632a8b35876aE
.Ltmp2040:
.Lfunc_end89:
	.size	_ZN5alloc3vec16Vec$LT$T$C$A$GT$9split_off13assert_failed17h9be15eb5bad5a420E, .Lfunc_end89-_ZN5alloc3vec16Vec$LT$T$C$A$GT$9split_off13assert_failed17h9be15eb5bad5a420E
	.cfi_endproc

	.section	".text._ZN80_$LT$alloc..vec..Vec$LT$u8$GT$$u20$as$u20$core..convert..From$LT$$RF$str$GT$$GT$4from17hbae1cdbd3cf7121cE","ax",@progbits
	.globl	_ZN80_$LT$alloc..vec..Vec$LT$u8$GT$$u20$as$u20$core..convert..From$LT$$RF$str$GT$$GT$4from17hbae1cdbd3cf7121cE
	.p2align	1
	.type	_ZN80_$LT$alloc..vec..Vec$LT$u8$GT$$u20$as$u20$core..convert..From$LT$$RF$str$GT$$GT$4from17hbae1cdbd3cf7121cE,@function
_ZN80_$LT$alloc..vec..Vec$LT$u8$GT$$u20$as$u20$core..convert..From$LT$$RF$str$GT$$GT$4from17hbae1cdbd3cf7121cE:
.Lfunc_begin90:
	.loc	15 3371 0
	.cfi_startproc
	addi	sp, sp, -32
	.cfi_def_cfa_offset 32
	sw	ra, 28(sp)
	sw	s0, 24(sp)
	sw	s1, 20(sp)
	sw	s2, 16(sp)
	sw	s3, 12(sp)
	.cfi_offset ra, -4
	.cfi_offset s0, -8
	.cfi_offset s1, -12
	.cfi_offset s2, -16
	.cfi_offset s3, -20
	mv	s0, a2
.Ltmp2041:
	mv	s2, a1
.Ltmp2042:
	mv	s3, a0
.Ltmp2043:
	.loc	3 185 25 prologue_end
	beqz	a2, .LBB90_4
.Ltmp2044:
	.loc	3 190 26
	bltz	s0, .LBB90_6
.Ltmp2045:
	.loc	2 1583 9
	lui	a0, %hi(__rust_no_alloc_shim_is_unstable)
	lbu	a0, %lo(__rust_no_alloc_shim_is_unstable)(a0)
.Ltmp2046:
	.loc	4 98 9
	li	a1, 1
	mv	a0, s0
	call	__rust_alloc
	mv	s1, a0
.Ltmp2047:
	.loc	3 202 23
	bnez	a0, .LBB90_5
.Ltmp2048:
	.loc	3 204 27
	li	a0, 1
	mv	a1, s0
	call	_ZN5alloc5alloc18handle_alloc_error17h7e3d1e4e5e7ceb74E
.Ltmp2049:
.LBB90_4:
	.loc	3 0 27 is_stmt 0
	li	s1, 1
.Ltmp2050:
.LBB90_5:
	.loc	13 2774 9 is_stmt 1
	mv	a0, s1
	mv	a1, s2
	mv	a2, s0
	call	memcpy@plt
.Ltmp2051:
	.loc	17 170 13
	sw	s0, 0(s3)
	sw	s1, 4(s3)
	sw	s0, 8(s3)
.Ltmp2052:
	.loc	15 3373 6
	lw	ra, 28(sp)
	lw	s0, 24(sp)
.Ltmp2053:
	lw	s1, 20(sp)
.Ltmp2054:
	lw	s2, 16(sp)
.Ltmp2055:
	lw	s3, 12(sp)
	.loc	15 3373 6 epilogue_begin is_stmt 0
	addi	sp, sp, 32
	ret
.LBB90_6:
.Ltmp2056:
	.loc	3 192 27 is_stmt 1
	call	_ZN5alloc7raw_vec17capacity_overflow17h6deb98aaf45da7a0E
.Ltmp2057:
.Lfunc_end90:
	.size	_ZN80_$LT$alloc..vec..Vec$LT$u8$GT$$u20$as$u20$core..convert..From$LT$$RF$str$GT$$GT$4from17hbae1cdbd3cf7121cE, .Lfunc_end90-_ZN80_$LT$alloc..vec..Vec$LT$u8$GT$$u20$as$u20$core..convert..From$LT$$RF$str$GT$$GT$4from17hbae1cdbd3cf7121cE
	.cfi_endproc

	.type	.L__unnamed_9,@object
	.section	.rodata..L__unnamed_9,"a",@progbits
	.p2align	2, 0x0
.L__unnamed_9:
	.size	.L__unnamed_9, 0

	.type	.L__unnamed_6,@object
	.section	.rodata..L__unnamed_6,"a",@progbits
.L__unnamed_6:
	.ascii	"Error"
	.size	.L__unnamed_6, 5

	.type	.L__unnamed_7,@object
	.section	.rodata..L__unnamed_7,"a",@progbits
.L__unnamed_7:
	.ascii	"LayoutError"
	.size	.L__unnamed_7, 11

	.type	.L__unnamed_1,@object
	.section	.rodata..L__unnamed_1,"a",@progbits
	.p2align	2, 0x0
.L__unnamed_1:
	.word	_ZN4core3ptr42drop_in_place$LT$alloc..string..String$GT$17hc5cddcaae402bb86E
	.asciz	"\f\000\000\000\004\000\000"
	.word	_ZN58_$LT$alloc..string..String$u20$as$u20$core..fmt..Write$GT$9write_str17h1b9c25a86efc5f50E
	.word	_ZN58_$LT$alloc..string..String$u20$as$u20$core..fmt..Write$GT$10write_char17h986dd14a9ddccdfcE
	.word	_ZN4core3fmt5Write9write_fmt17h7c4a0db3a6ae49a1E
	.size	.L__unnamed_1, 24

	.type	.L__unnamed_40,@object
	.section	.rodata..L__unnamed_40,"a",@progbits
.L__unnamed_40:
	.ascii	"/Users/steve/.rustup/toolchains/nightly-2024-02-01-aarch64-apple-darwin/lib/rustlib/src/rust/library/alloc/src/raw_vec.rs"
	.size	.L__unnamed_40, 121

	.type	.L__unnamed_31,@object
	.section	.rodata..L__unnamed_31,"a",@progbits
.L__unnamed_31:
	.ascii	"capacity overflow"
	.size	.L__unnamed_31, 17

	.type	.L__unnamed_8,@object
	.section	.rodata..L__unnamed_8,"a",@progbits
	.p2align	2, 0x0
.L__unnamed_8:
	.word	.L__unnamed_31
	.asciz	"\021\000\000"
	.size	.L__unnamed_8, 8

	.type	.L__unnamed_10,@object
	.section	.rodata..L__unnamed_10,"a",@progbits
	.p2align	2, 0x0
.L__unnamed_10:
	.word	.L__unnamed_40
	.asciz	"y\000\000\000:\002\000\000\005\000\000"
	.size	.L__unnamed_10, 16

	.type	.L__unnamed_41,@object
	.section	.rodata..L__unnamed_41,"a",@progbits
.L__unnamed_41:
	.ascii	"allocation failed"
	.size	.L__unnamed_41, 17

	.type	.L__unnamed_11,@object
	.section	.rodata..L__unnamed_11,"a",@progbits
	.p2align	2, 0x0
.L__unnamed_11:
	.word	.L__unnamed_41
	.asciz	"\021\000\000"
	.size	.L__unnamed_11, 8

	.type	.L__unnamed_42,@object
	.section	.rodata..L__unnamed_42,"a",@progbits
.L__unnamed_42:
	.ascii	"/Users/steve/.rustup/toolchains/nightly-2024-02-01-aarch64-apple-darwin/lib/rustlib/src/rust/library/alloc/src/alloc.rs"
	.size	.L__unnamed_42, 119

	.type	.L__unnamed_12,@object
	.section	.rodata..L__unnamed_12,"a",@progbits
	.p2align	2, 0x0
.L__unnamed_12:
	.word	.L__unnamed_42
	.asciz	"w\000\000\000y\001\000\000\t\000\000"
	.size	.L__unnamed_12, 16

	.type	.L__unnamed_43,@object
	.section	.rodata..L__unnamed_43,"a",@progbits
.L__unnamed_43:
	.ascii	"memory allocation of "
	.size	.L__unnamed_43, 21

	.type	.L__unnamed_44,@object
	.section	.rodata..L__unnamed_44,"a",@progbits
.L__unnamed_44:
	.ascii	" bytes failed"
	.size	.L__unnamed_44, 13

	.type	.L__unnamed_13,@object
	.section	.rodata..L__unnamed_13,"a",@progbits
	.p2align	2, 0x0
.L__unnamed_13:
	.word	.L__unnamed_43
	.asciz	"\025\000\000"
	.word	.L__unnamed_44
	.asciz	"\r\000\000"
	.size	.L__unnamed_13, 16

	.type	.L__unnamed_14,@object
	.section	.rodata..L__unnamed_14,"a",@progbits
	.p2align	2, 0x0
.L__unnamed_14:
	.word	.L__unnamed_42
	.asciz	"w\000\000\000\242\001\000\000\r\000\000"
	.size	.L__unnamed_14, 16

	.type	.L__unnamed_15,@object
	.section	.rodata..L__unnamed_15,"a",@progbits
	.p2align	2, 0x0
.L__unnamed_15:
	.word	.L__unnamed_42
	.asciz	"w\000\000\000\240\001\000\000\r\000\000"
	.size	.L__unnamed_15, 16

	.type	.L__unnamed_45,@object
	.section	.rodata..L__unnamed_45,"a",@progbits
	.p2align	2, 0x0
.L__unnamed_45:
	.word	_ZN4core3ptr205drop_in_place$LT$$LT$alloc..boxed..Box$LT$dyn$u20$core..error..Error$u2b$core..marker..Send$u2b$core..marker..Sync$GT$$u20$as$u20$core..convert..From$LT$alloc..string..String$GT$$GT$..from..StringError$GT$17hbf8a24bdef5c59f9E
	.asciz	"\f\000\000\000\004\000\000"
	.word	_ZN223_$LT$$LT$alloc..boxed..Box$LT$dyn$u20$core..error..Error$u2b$core..marker..Send$u2b$core..marker..Sync$GT$$u20$as$u20$core..convert..From$LT$alloc..string..String$GT$$GT$..from..StringError$u20$as$u20$core..fmt..Display$GT$3fmt17hc5e7e6e66e0dfb1aE
	.size	.L__unnamed_45, 16

	.type	.L__unnamed_2,@object
	.section	.rodata..L__unnamed_2,"a",@progbits
	.p2align	2, 0x0
.L__unnamed_2:
	.word	_ZN4core3ptr205drop_in_place$LT$$LT$alloc..boxed..Box$LT$dyn$u20$core..error..Error$u2b$core..marker..Send$u2b$core..marker..Sync$GT$$u20$as$u20$core..convert..From$LT$alloc..string..String$GT$$GT$..from..StringError$GT$17hbf8a24bdef5c59f9E
	.asciz	"\f\000\000\000\004\000\000"
	.word	_ZN221_$LT$$LT$alloc..boxed..Box$LT$dyn$u20$core..error..Error$u2b$core..marker..Send$u2b$core..marker..Sync$GT$$u20$as$u20$core..convert..From$LT$alloc..string..String$GT$$GT$..from..StringError$u20$as$u20$core..fmt..Debug$GT$3fmt17h29ed7b679ec308b1E
	.word	_ZN223_$LT$$LT$alloc..boxed..Box$LT$dyn$u20$core..error..Error$u2b$core..marker..Send$u2b$core..marker..Sync$GT$$u20$as$u20$core..convert..From$LT$alloc..string..String$GT$$GT$..from..StringError$u20$as$u20$core..fmt..Display$GT$3fmt17hc5e7e6e66e0dfb1aE
	.word	.L__unnamed_45
	.word	_ZN4core5error5Error5cause17h97a727bac207c093E
	.word	_ZN4core5error5Error7type_id17hbe953f10a051fae8E
	.word	_ZN223_$LT$$LT$alloc..boxed..Box$LT$dyn$u20$core..error..Error$u2b$core..marker..Send$u2b$core..marker..Sync$GT$$u20$as$u20$core..convert..From$LT$alloc..string..String$GT$$GT$..from..StringError$u20$as$u20$core..error..Error$GT$11description17h385ad93db5f29c4aE
	.word	_ZN4core5error5Error5cause17h97a727bac207c093E
	.word	_ZN4core5error5Error7provide17h0b047484edad6256E
	.size	.L__unnamed_2, 44

	.type	.L__unnamed_46,@object
	.section	.rodata..L__unnamed_46,"a",@progbits
.L__unnamed_46:
	.ascii	"key is not properly ordered relative to neighbors"
	.size	.L__unnamed_46, 49

	.type	.L__unnamed_16,@object
	.section	.rodata..L__unnamed_16,"a",@progbits
	.p2align	2, 0x0
.L__unnamed_16:
	.word	.L__unnamed_46
	.asciz	"1\000\000"
	.size	.L__unnamed_16, 8

	.type	.L__unnamed_17,@object
	.section	.rodata..L__unnamed_17,"a",@progbits
.L__unnamed_17:
	.ascii	"memory allocation failed"
	.size	.L__unnamed_17, 24

	.type	.L__unnamed_19,@object
	.section	.rodata..L__unnamed_19,"a",@progbits
.L__unnamed_19:
	.ascii	" because the computed capacity exceeded the collection's maximum"
	.size	.L__unnamed_19, 64

	.type	.L__unnamed_18,@object
	.section	.rodata..L__unnamed_18,"a",@progbits
.L__unnamed_18:
	.ascii	" because the memory allocator returned an error"
	.size	.L__unnamed_18, 47

	.type	.L__unnamed_47,@object
	.section	.rodata..L__unnamed_47,"a",@progbits
.L__unnamed_47:
	.ascii	"/Users/steve/.rustup/toolchains/nightly-2024-02-01-aarch64-apple-darwin/lib/rustlib/src/rust/library/alloc/src/ffi/c_str.rs"
	.size	.L__unnamed_47, 123

	.type	.L__unnamed_20,@object
	.section	.rodata..L__unnamed_20,"a",@progbits
	.p2align	2, 0x0
.L__unnamed_20:
	.word	.L__unnamed_47
	.asciz	"{\000\000\000\033\001\000\0007\000\000"
	.size	.L__unnamed_20, 16

	.type	.L__unnamed_48,@object
	.section	.rodata..L__unnamed_48,"a",@progbits
.L__unnamed_48:
	.ascii	"nul byte found in provided data at position: "
	.size	.L__unnamed_48, 45

	.type	.L__unnamed_21,@object
	.section	.rodata..L__unnamed_21,"a",@progbits
	.p2align	2, 0x0
.L__unnamed_21:
	.word	.L__unnamed_48
	.asciz	"-\000\000"
	.size	.L__unnamed_21, 8

	.type	.L__unnamed_49,@object
	.section	.rodata..L__unnamed_49,"a",@progbits
.L__unnamed_49:
	.ascii	"data provided contains an interior nul byte at pos "
	.size	.L__unnamed_49, 51

	.type	.L__unnamed_23,@object
	.section	.rodata..L__unnamed_23,"a",@progbits
	.p2align	2, 0x0
.L__unnamed_23:
	.word	.L__unnamed_49
	.asciz	"3\000\000"
	.size	.L__unnamed_23, 8

	.type	.L__unnamed_50,@object
	.section	.rodata..L__unnamed_50,"a",@progbits
.L__unnamed_50:
	.ascii	"data provided is not nul terminated"
	.size	.L__unnamed_50, 35

	.type	.L__unnamed_22,@object
	.section	.rodata..L__unnamed_22,"a",@progbits
	.p2align	2, 0x0
.L__unnamed_22:
	.word	.L__unnamed_50
	.asciz	"#\000\000"
	.size	.L__unnamed_22, 8

	.type	.L__unnamed_24,@object
	.section	.rodata..L__unnamed_24,"a",@progbits
.L__unnamed_24:
	.ascii	"C string contained non-utf8 bytes"
	.size	.L__unnamed_24, 33

	.type	.L__unnamed_25,@object
	.section	.rodata..L__unnamed_25,"a",@progbits
.L__unnamed_25:
	.ascii	"a formatting trait implementation returned an error"
	.size	.L__unnamed_25, 51

	.type	.L__unnamed_3,@object
	.section	.rodata..L__unnamed_3,"a",@progbits
	.p2align	2, 0x0
.L__unnamed_3:
	.word	_ZN4core3ptr37drop_in_place$LT$core..fmt..Error$GT$17h65b6ec18f3f41e6dE
	.asciz	"\000\000\000\000\001\000\000"
	.word	_ZN53_$LT$core..fmt..Error$u20$as$u20$core..fmt..Debug$GT$3fmt17h1974c3d28fb9bde4E
	.size	.L__unnamed_3, 16

	.type	.L__unnamed_51,@object
	.section	.rodata..L__unnamed_51,"a",@progbits
.L__unnamed_51:
	.ascii	"/Users/steve/.rustup/toolchains/nightly-2024-02-01-aarch64-apple-darwin/lib/rustlib/src/rust/library/alloc/src/fmt.rs"
	.size	.L__unnamed_51, 117

	.type	.L__unnamed_26,@object
	.section	.rodata..L__unnamed_26,"a",@progbits
	.p2align	2, 0x0
.L__unnamed_26:
	.word	.L__unnamed_51
	.asciz	"u\000\000\000d\002\000\000 \000\000"
	.size	.L__unnamed_26, 16

	.type	.L__unnamed_27,@object
	.section	.rodata..L__unnamed_27,"a",@progbits
.L__unnamed_27:
	.ascii	"called `Result::unwrap()` on an `Err` value"
	.size	.L__unnamed_27, 43

	.type	.L__unnamed_4,@object
	.section	.rodata..L__unnamed_4,"a",@progbits
	.p2align	2, 0x0
.L__unnamed_4:
	.word	_ZN4core3ptr37drop_in_place$LT$core..fmt..Error$GT$17h65b6ec18f3f41e6dE
	.asciz	"\000\000\000\000\001\000\000"
	.word	_ZN69_$LT$core..alloc..layout..LayoutError$u20$as$u20$core..fmt..Debug$GT$3fmt17h806efe3627ef4742E
	.size	.L__unnamed_4, 16

	.type	.L__unnamed_52,@object
	.section	.rodata..L__unnamed_52,"a",@progbits
.L__unnamed_52:
	.ascii	"/Users/steve/.rustup/toolchains/nightly-2024-02-01-aarch64-apple-darwin/lib/rustlib/src/rust/library/alloc/src/rc.rs"
	.size	.L__unnamed_52, 116

	.type	.L__unnamed_28,@object
	.section	.rodata..L__unnamed_28,"a",@progbits
	.p2align	2, 0x0
.L__unnamed_28:
	.word	.L__unnamed_52
	.asciz	"t\000\000\000-\001\000\000/\000\000"
	.size	.L__unnamed_28, 16

	.type	.L__unnamed_53,@object
	.section	.rodata..L__unnamed_53,"a",@progbits
.L__unnamed_53:
	.ascii	"/Users/steve/.rustup/toolchains/nightly-2024-02-01-aarch64-apple-darwin/lib/rustlib/src/rust/library/alloc/src/slice.rs"
	.size	.L__unnamed_53, 119

	.type	.L__unnamed_32,@object
	.section	.rodata..L__unnamed_32,"a",@progbits
	.p2align	2, 0x0
.L__unnamed_32:
	.word	.L__unnamed_53
	.asciz	"w\000\000\000\367\001\000\0002\000\000"
	.size	.L__unnamed_32, 16

	.type	.L__unnamed_54,@object
	.section	.rodata..L__unnamed_54,"a",@progbits
.L__unnamed_54:
	.ascii	"/Users/steve/.rustup/toolchains/nightly-2024-02-01-aarch64-apple-darwin/lib/rustlib/src/rust/library/alloc/src/str.rs"
	.size	.L__unnamed_54, 117

	.type	.L__unnamed_29,@object
	.section	.rodata..L__unnamed_29,"a",@progbits
	.p2align	2, 0x0
.L__unnamed_29:
	.word	.L__unnamed_54
	.asciz	"u\000\000\000\227\001\000\000?\000\000"
	.size	.L__unnamed_29, 16

	.type	.L__unnamed_30,@object
	.section	.rodata..L__unnamed_30,"a",@progbits
	.p2align	2, 0x0
.L__unnamed_30:
	.word	.L__unnamed_54
	.asciz	"u\000\000\000\230\001\000\0003\000\000"
	.size	.L__unnamed_30, 16

	.type	.L__unnamed_55,@object
	.section	.rodata..L__unnamed_55,"a",@progbits
.L__unnamed_55:
	.ascii	"\357\277\275"
	.size	.L__unnamed_55, 3

	.type	.L__unnamed_33,@object
	.section	.rodata..L__unnamed_33,"a",@progbits
.L__unnamed_33:
	.ascii	"invalid utf-16: lone surrogate found"
	.size	.L__unnamed_33, 36

	.type	.L__unnamed_34,@object
	.section	.rodata..L__unnamed_34,"a",@progbits
.L__unnamed_34:
	.ascii	"Drain"
	.size	.L__unnamed_34, 5

	.type	.L__unnamed_5,@object
	.section	.rodata..L__unnamed_5,"a",@progbits
	.p2align	2, 0x0
.L__unnamed_5:
	.word	_ZN4core3ptr28drop_in_place$LT$$RF$str$GT$17hc99e7692f072f94aE
	.asciz	"\b\000\000\000\004\000\000"
	.word	_ZN42_$LT$$RF$T$u20$as$u20$core..fmt..Debug$GT$3fmt17hbab089aed5054d36E
	.size	.L__unnamed_5, 16

	.type	.L__unnamed_56,@object
	.section	.rodata..L__unnamed_56,"a",@progbits
.L__unnamed_56:
	.ascii	"/Users/steve/.rustup/toolchains/nightly-2024-02-01-aarch64-apple-darwin/lib/rustlib/src/rust/library/alloc/src/sync.rs"
	.size	.L__unnamed_56, 118

	.type	.L__unnamed_35,@object
	.section	.rodata..L__unnamed_35,"a",@progbits
	.p2align	2, 0x0
.L__unnamed_35:
	.word	.L__unnamed_56
	.asciz	"v\000\000\000u\001\000\0002\000\000"
	.size	.L__unnamed_35, 16

	.type	.L__unnamed_57,@object
	.section	.rodata..L__unnamed_57,"a",@progbits
.L__unnamed_57:
	.ascii	"swap_remove index (is "
	.size	.L__unnamed_57, 22

	.type	.L__unnamed_58,@object
	.section	.rodata..L__unnamed_58,"a",@progbits
.L__unnamed_58:
	.ascii	") should be < len (is "
	.size	.L__unnamed_58, 22

	.type	.L__unnamed_59,@object
	.section	.rodata..L__unnamed_59,"a",@progbits
.L__unnamed_59:
	.byte	41
	.size	.L__unnamed_59, 1

	.type	.L__unnamed_36,@object
	.section	.rodata..L__unnamed_36,"a",@progbits
	.p2align	2, 0x0
.L__unnamed_36:
	.word	.L__unnamed_57
	.asciz	"\026\000\000"
	.word	.L__unnamed_58
	.asciz	"\026\000\000"
	.word	.L__unnamed_59
	.asciz	"\001\000\000"
	.size	.L__unnamed_36, 24

	.type	.L__unnamed_60,@object
	.section	.rodata..L__unnamed_60,"a",@progbits
.L__unnamed_60:
	.ascii	"insertion index (is "
	.size	.L__unnamed_60, 20

	.type	.L__unnamed_61,@object
	.section	.rodata..L__unnamed_61,"a",@progbits
.L__unnamed_61:
	.ascii	") should be <= len (is "
	.size	.L__unnamed_61, 23

	.type	.L__unnamed_37,@object
	.section	.rodata..L__unnamed_37,"a",@progbits
	.p2align	2, 0x0
.L__unnamed_37:
	.word	.L__unnamed_60
	.asciz	"\024\000\000"
	.word	.L__unnamed_61
	.asciz	"\027\000\000"
	.word	.L__unnamed_59
	.asciz	"\001\000\000"
	.size	.L__unnamed_37, 24

	.type	.L__unnamed_62,@object
	.section	.rodata..L__unnamed_62,"a",@progbits
.L__unnamed_62:
	.ascii	"removal index (is "
	.size	.L__unnamed_62, 18

	.type	.L__unnamed_38,@object
	.section	.rodata..L__unnamed_38,"a",@progbits
	.p2align	2, 0x0
.L__unnamed_38:
	.word	.L__unnamed_62
	.asciz	"\022\000\000"
	.word	.L__unnamed_58
	.asciz	"\026\000\000"
	.word	.L__unnamed_59
	.asciz	"\001\000\000"
	.size	.L__unnamed_38, 24

	.type	.L__unnamed_63,@object
	.section	.rodata..L__unnamed_63,"a",@progbits
.L__unnamed_63:
	.ascii	"`at` split index (is "
	.size	.L__unnamed_63, 21

	.type	.L__unnamed_39,@object
	.section	.rodata..L__unnamed_39,"a",@progbits
	.p2align	2, 0x0
.L__unnamed_39:
	.word	.L__unnamed_63
	.asciz	"\025\000\000"
	.word	.L__unnamed_61
	.asciz	"\027\000\000"
	.word	.L__unnamed_59
	.asciz	"\001\000\000"
	.size	.L__unnamed_39, 24
