	.text
	.attribute	4, 16
	.attribute	5, "rv32i2p1_m2p0_a2p1_c2p0"
	.file	"compiler_builtins.106d3accc5687670-cgu.0"
	.file	1 "/Users/steve/.cargo/registry/src/index.crates.io-6f17d22bba15001f/compiler_builtins-0.1.105" "src/../libm/src/math/exp2.rs"
	.file	2 "/Users/steve/.cargo/registry/src/index.crates.io-6f17d22bba15001f/compiler_builtins-0.1.105" "src/../libm/src/math/exp2f.rs"
	.file	3 "/Users/steve/.cargo/registry/src/index.crates.io-6f17d22bba15001f/compiler_builtins-0.1.105" "src/../libm/src/math/k_tan.rs"
	.section	.text._ZN17compiler_builtins5float3add8__addsf317hc0b9121ec374a342E,"ax",@progbits
	.hidden	_ZN17compiler_builtins5float3add8__addsf317hc0b9121ec374a342E
	.globl	_ZN17compiler_builtins5float3add8__addsf317hc0b9121ec374a342E
	.p2align	1
	.type	_ZN17compiler_builtins5float3add8__addsf317hc0b9121ec374a342E,@function
_ZN17compiler_builtins5float3add8__addsf317hc0b9121ec374a342E:
.Lfunc_begin0:
	.file	4 "/Users/steve/.cargo/registry/src/index.crates.io-6f17d22bba15001f/compiler_builtins-0.1.105" "src/macros.rs"
	.loc	4 491 0
	.cfi_sections .debug_frame
	.cfi_startproc
	lui	a2, 524288
	addi	a2, a2, -1
.Ltmp0:
	.file	5 "/Users/steve/.rustup/toolchains/nightly-2024-02-01-aarch64-apple-darwin/lib/rustlib/src/rust/library/core/src/ops" "bit.rs"
	.loc	5 171 46 prologue_end
	and	a4, a0, a2
.Ltmp1:
	.loc	5 171 46 is_stmt 0
	and	a7, a1, a2
	lui	a3, 526336
.Ltmp2:
	.file	6 "/Users/steve/.rustup/toolchains/nightly-2024-02-01-aarch64-apple-darwin/lib/rustlib/src/rust/library/core/src" "cmp.rs"
	.loc	6 1513 52 is_stmt 1
	add	a5, a4, a3
	addi	a2, a3, 1
	sltu	a5, a5, a2
	add	a3, a3, a7
	sltu	a2, a3, a2
.Ltmp3:
	.file	7 "/Users/steve/.cargo/registry/src/index.crates.io-6f17d22bba15001f/compiler_builtins-0.1.105" "src/float/add.rs"
	.loc	7 34 8
	or	a2, a2, a5
.Ltmp4:
	beqz	a2, .LBB0_13
.Ltmp5:
	.loc	7 0 8 is_stmt 0
	lui	a2, 522240
	.loc	7 36 12 is_stmt 1
	bgeu	a2, a4, .LBB0_3
.Ltmp6:
	.loc	7 0 12 is_stmt 0
	lui	a2, 1024
.Ltmp7:
	.loc	5 271 45 is_stmt 1
	or	a0, a4, a2
.Ltmp8:
	.loc	4 493 10
	ret
.Ltmp9:
.LBB0_3:
	.loc	7 40 12
	bgeu	a2, a7, .LBB0_5
.Ltmp10:
	.loc	7 0 12 is_stmt 0
	lui	a0, 1024
.Ltmp11:
	.loc	5 271 45 is_stmt 1
	or	a0, a7, a0
.Ltmp12:
	.loc	4 493 10
	ret
.Ltmp13:
.LBB0_5:
	.loc	7 44 12
	bne	a4, a2, .LBB0_9
.Ltmp14:
	.loc	5 371 48
	xor	a1, a1, a0
.Ltmp15:
	.loc	5 0 48 is_stmt 0
	lui	a2, 524288
.Ltmp16:
	.loc	7 46 16 is_stmt 1
	bne	a1, a2, .LBB0_8
.Ltmp17:
	.loc	7 0 16 is_stmt 0
	lui	a0, 523264
.Ltmp18:
.LBB0_8:
	.loc	4 493 10 is_stmt 1
	ret
.LBB0_9:
.Ltmp19:
	.loc	4 0 10 is_stmt 0
	bne	a7, a2, .LBB0_11
.Ltmp20:
	.loc	4 493 10
	mv	a0, a1
.Ltmp21:
	ret
.Ltmp22:
.LBB0_11:
	.loc	7 60 12 is_stmt 1
	beqz	a4, .LBB0_45
.Ltmp23:
	.loc	7 0 12 is_stmt 0
	mv	a2, a0
	.loc	7 70 12 is_stmt 1
	beqz	a7, .LBB0_47
.Ltmp24:
.LBB0_13:
	.loc	7 0 12 is_stmt 0
	lui	a6, 2048
	addi	a6, a6, -1
	.loc	7 76 8 is_stmt 1
	bltu	a4, a7, .LBB0_15
.Ltmp25:
	.loc	7 0 8 is_stmt 0
	mv	t0, a0
	j	.LBB0_16
.Ltmp26:
.LBB0_15:
	mv	t0, a1
	mv	a1, a0
.Ltmp27:
.LBB0_16:
	.loc	5 588 17 is_stmt 1
	slli	a0, t0, 1
.Ltmp28:
	srli	t1, a0, 24
.Ltmp29:
	.loc	5 588 17 is_stmt 0
	slli	a5, a1, 1
	srli	a5, a5, 24
.Ltmp30:
	.loc	5 171 46 is_stmt 1
	and	a4, t0, a6
.Ltmp31:
	.loc	7 90 8
	beqz	t1, .LBB0_18
.Ltmp32:
	.loc	7 0 0 is_stmt 0
	and	a2, a1, a6
	bnez	a5, .LBB0_26
	j	.LBB0_22
.Ltmp33:
.LBB0_18:
	beqz	a4, .LBB0_20
.Ltmp34:
	.file	8 "/Users/steve/.rustup/toolchains/nightly-2024-02-01-aarch64-apple-darwin/lib/rustlib/src/rust/library/core/src/num" "mod.rs"
	.loc	8 1157 5 is_stmt 1
	srli	a0, a4, 1
	or	a0, a0, a4
	srli	a2, a0, 2
	or	a0, a0, a2
	srli	a2, a0, 4
	or	a0, a0, a2
	srli	a2, a0, 8
	or	a0, a0, a2
	srli	a2, a0, 16
	or	a0, a0, a2
	not	a0, a0
	srli	a2, a0, 1
	lui	a3, 349525
	addi	a3, a3, 1365
	and	a2, a2, a3
	sub	a0, a0, a2
	lui	a2, 209715
	addi	a2, a2, 819
	and	a3, a0, a2
	srli	a0, a0, 2
	and	a0, a0, a2
	add	a0, a0, a3
	srli	a2, a0, 4
	add	a0, a0, a2
	lui	a2, 61681
	addi	a2, a2, -241
	and	a0, a0, a2
	lui	a2, 4112
	addi	a2, a2, 257
	mul	a0, a0, a2
	srli	a0, a0, 24
	j	.LBB0_21
.Ltmp35:
.LBB0_20:
	.loc	8 0 5 is_stmt 0
	li	a0, 32
.Ltmp36:
.LBB0_21:
	.loc	8 1157 5
	addi	a2, a0, 24
	li	a3, 9
.Ltmp37:
	.loc	8 347 5 is_stmt 1
	sub	t1, a3, a0
.Ltmp38:
	.file	9 "/Users/steve/.cargo/registry/src/index.crates.io-6f17d22bba15001f/compiler_builtins-0.1.105" "src/float/mod.rs"
	.loc	9 164 21
	sll	a4, a4, a2
.Ltmp39:
	.loc	7 0 0 is_stmt 0
	and	a2, a1, a6
.Ltmp40:
	.loc	7 95 8 is_stmt 1
	bnez	a5, .LBB0_26
.Ltmp41:
.LBB0_22:
	.loc	8 1157 5
	beqz	a2, .LBB0_24
.Ltmp42:
	srli	a0, a2, 1
	or	a0, a0, a2
	srli	a3, a0, 2
	or	a0, a0, a3
	srli	a3, a0, 4
	or	a0, a0, a3
	srli	a3, a0, 8
	or	a0, a0, a3
	srli	a3, a0, 16
	or	a0, a0, a3
	not	a0, a0
	srli	a3, a0, 1
	lui	a5, 349525
.Ltmp43:
	.loc	8 0 5 is_stmt 0
	addi	a5, a5, 1365
	.loc	8 1157 5
	and	a3, a3, a5
	sub	a0, a0, a3
	lui	a3, 209715
	addi	a3, a3, 819
	and	a5, a0, a3
	srli	a0, a0, 2
	and	a0, a0, a3
	add	a0, a0, a5
	srli	a3, a0, 4
	add	a0, a0, a3
	lui	a3, 61681
	addi	a3, a3, -241
	and	a0, a0, a3
	lui	a3, 4112
	addi	a3, a3, 257
	mul	a0, a0, a3
	srli	a0, a0, 24
	j	.LBB0_25
.Ltmp44:
.LBB0_24:
	.loc	8 0 5
	li	a0, 32
.Ltmp45:
.LBB0_25:
	.loc	8 1157 5
	addi	a3, a0, 24
	li	a5, 9
.Ltmp46:
	.loc	8 347 5 is_stmt 1
	sub	a5, a5, a0
.Ltmp47:
	.loc	9 164 21
	sll	a2, a2, a3
.Ltmp48:
.LBB0_26:
	.loc	9 0 21 is_stmt 0
	lui	a7, 524288
.Ltmp49:
	.loc	5 371 48 is_stmt 1
	xor	a1, a1, t0
.Ltmp50:
	.loc	5 470 17
	slli	a4, a4, 3
.Ltmp51:
	.loc	5 0 17 is_stmt 0
	lui	a3, 16384
.Ltmp52:
	.loc	5 470 17
	slli	a2, a2, 3
.Ltmp53:
	or	a2, a2, a3
.Ltmp54:
	.loc	7 116 8 is_stmt 1
	bne	t1, a5, .LBB0_28
.Ltmp55:
	.loc	7 0 8 is_stmt 0
	mv	a5, a2
.Ltmp56:
	j	.LBB0_30
.Ltmp57:
.LBB0_28:
	sub	a0, t1, a5
.Ltmp58:
	li	t2, 32
	li	a5, 1
.Ltmp59:
	.loc	7 117 12 is_stmt 1
	bgeu	a0, t2, .LBB0_30
.Ltmp60:
	.loc	8 1157 5
	neg	a5, a0
.Ltmp61:
	.loc	5 470 17
	sll	a5, a2, a5
.Ltmp62:
	.loc	6 1427 52
	snez	a5, a5
.Ltmp63:
	.loc	5 588 17
	srl	a0, a2, a0
.Ltmp64:
	.loc	5 271 45
	or	a5, a5, a0
.Ltmp65:
.LBB0_30:
	.loc	7 0 0 is_stmt 0
	and	a2, t0, a7
	or	a3, a3, a4
.Ltmp66:
	.loc	7 125 8 is_stmt 1
	bltz	a1, .LBB0_33
.Ltmp67:
	.file	10 "/Users/steve/.rustup/toolchains/nightly-2024-02-01-aarch64-apple-darwin/lib/rustlib/src/rust/library/core/src/ops" "arith.rs"
	.loc	10 759 51
	add	a3, a3, a5
.Ltmp68:
	.loc	7 146 12
	slli	a0, a3, 4
	bgez	a0, .LBB0_36
.Ltmp69:
	.loc	5 171 46
	andi	a5, a5, 1
.Ltmp70:
	.loc	5 588 17
	srli	a3, a3, 1
.Ltmp71:
	.loc	5 271 45
	or	a3, a3, a5
.Ltmp72:
	.loc	7 149 13
	addi	t1, t1, 1
.Ltmp73:
	.loc	7 0 13 is_stmt 0
	j	.LBB0_36
.Ltmp74:
.LBB0_33:
	.loc	8 1157 5 is_stmt 1
	sub	a3, a3, a5
.Ltmp75:
	.loc	7 128 12
	beqz	a3, .LBB0_44
.Ltmp76:
	.loc	6 1509 52
	srli	a0, a3, 26
.Ltmp77:
	.loc	7 134 12
	bnez	a0, .LBB0_36
.Ltmp78:
	.loc	8 1157 5
	srli	a0, a3, 1
	or	a0, a0, a3
	srli	a1, a0, 2
	or	a0, a0, a1
	srli	a1, a0, 4
	or	a0, a0, a1
	srli	a1, a0, 8
	or	a0, a0, a1
	srli	a1, a0, 16
	or	a0, a0, a1
	not	a0, a0
	srli	a1, a0, 1
	lui	a4, 349525
	addi	a4, a4, 1365
	and	a1, a1, a4
	sub	a0, a0, a1
	lui	a1, 209715
	addi	a1, a1, 819
	and	a4, a0, a1
	srli	a0, a0, 2
	and	a0, a0, a1
	add	a0, a0, a4
	srli	a1, a0, 4
	add	a0, a0, a1
	lui	a1, 61681
	addi	a1, a1, -241
	and	a0, a0, a1
	lui	a1, 4112
	addi	a1, a1, 257
	mul	a0, a0, a1
	srli	a0, a0, 24
.Ltmp79:
	.loc	7 136 17
	addi	a0, a0, -5
.Ltmp80:
	.loc	5 924 17
	sll	a3, a3, a0
.Ltmp81:
	.loc	7 138 13
	sub	t1, t1, a0
.Ltmp82:
	.loc	7 0 13 is_stmt 0
	j	.LBB0_38
.Ltmp83:
.LBB0_36:
	li	a0, 254
	.loc	7 154 8 is_stmt 1
	bge	a0, t1, .LBB0_38
.Ltmp84:
	.loc	7 0 8 is_stmt 0
	lui	a0, 522240
.Ltmp85:
	.loc	5 271 45 is_stmt 1
	or	a0, a0, a2
.Ltmp86:
	.loc	4 493 10
	ret
.Ltmp87:
.LBB0_38:
	.loc	7 158 8
	bgtz	t1, .LBB0_40
.Ltmp88:
	.loc	7 0 8 is_stmt 0
	li	a0, 1
	.loc	7 161 21 is_stmt 1
	sub	a0, a0, t1
.Ltmp89:
	.loc	8 1157 5
	addi	t1, t1, -1
.Ltmp90:
	.loc	5 470 17
	sll	a1, a3, t1
.Ltmp91:
	.loc	6 1427 52
	snez	a1, a1
.Ltmp92:
	.loc	5 588 17
	srl	a3, a3, a0
.Ltmp93:
	.loc	5 271 45
	or	a3, a3, a1
.Ltmp94:
	.loc	5 0 45 is_stmt 0
	li	t1, 0
.Ltmp95:
.LBB0_40:
	.loc	7 170 35 is_stmt 1
	andi	a0, a3, 7
.Ltmp96:
	.loc	5 588 17
	srli	a3, a3, 3
.Ltmp97:
	.loc	5 171 46
	and	a4, a3, a6
.Ltmp98:
	.loc	5 470 17
	slli	t1, t1, 23
.Ltmp99:
	.loc	5 790 53
	or	a2, t1, a2
.Ltmp100:
	.loc	5 0 53 is_stmt 0
	li	a1, 4
.Ltmp101:
	.loc	5 790 53
	or	a2, a2, a4
.Ltmp102:
	.loc	7 181 8 is_stmt 1
	bgeu	a1, a0, .LBB0_42
.Ltmp103:
	.loc	10 759 51
	addi	a0, a2, 1
.Ltmp104:
	.loc	4 493 10
	ret
.Ltmp105:
.LBB0_42:
	.loc	7 184 8
	bne	a0, a1, .LBB0_47
.Ltmp106:
	.loc	5 171 46
	andi	a3, a3, 1
.Ltmp107:
	.loc	10 759 51
	add	a0, a2, a3
.Ltmp108:
	.loc	4 493 10
	ret
.Ltmp109:
.LBB0_44:
	li	a0, 0
	ret
.LBB0_45:
.Ltmp110:
	.loc	4 0 10 is_stmt 0
	mv	a2, a1
.Ltmp111:
	.loc	7 62 16 is_stmt 1
	bnez	a7, .LBB0_47
.Ltmp112:
	.loc	5 171 46
	and	a2, a1, a0
.Ltmp113:
.LBB0_47:
	.loc	4 493 10
	mv	a0, a2
	ret
.Ltmp114:
.Lfunc_end0:
	.size	_ZN17compiler_builtins5float3add8__addsf317hc0b9121ec374a342E, .Lfunc_end0-_ZN17compiler_builtins5float3add8__addsf317hc0b9121ec374a342E
	.cfi_endproc
	.file	11 "/Users/steve/.rustup/toolchains/nightly-2024-02-01-aarch64-apple-darwin/lib/rustlib/src/rust/library/core/src/num" "uint_macros.rs"
	.file	12 "/Users/steve/.rustup/toolchains/nightly-2024-02-01-aarch64-apple-darwin/lib/rustlib/src/rust/library/core/src/num" "int_macros.rs"
	.file	13 "/Users/steve/.cargo/registry/src/index.crates.io-6f17d22bba15001f/compiler_builtins-0.1.105" "src/int/mod.rs"

	.section	.text.__addsf3,"ax",@progbits
	.hidden	__addsf3
	.globl	__addsf3
	.p2align	1
	.type	__addsf3,@function
__addsf3:
.Lfunc_begin1:
	.cfi_startproc
	.loc	4 500 17 prologue_end
	tail	_ZN17compiler_builtins5float3add8__addsf317hc0b9121ec374a342E
.Ltmp115:
.Lfunc_end1:
	.size	__addsf3, .Lfunc_end1-__addsf3
	.cfi_endproc

	.section	.text._ZN17compiler_builtins5float3add8__adddf317ha1c90aff642e91b7E,"ax",@progbits
	.hidden	_ZN17compiler_builtins5float3add8__adddf317ha1c90aff642e91b7E
	.globl	_ZN17compiler_builtins5float3add8__adddf317ha1c90aff642e91b7E
	.p2align	1
	.type	_ZN17compiler_builtins5float3add8__adddf317ha1c90aff642e91b7E,@function
_ZN17compiler_builtins5float3add8__adddf317ha1c90aff642e91b7E:
.Lfunc_begin2:
	.loc	4 491 0
	.cfi_startproc
	addi	sp, sp, -16
	.cfi_def_cfa_offset 16
	sw	s0, 12(sp)
	sw	s1, 8(sp)
	sw	s2, 4(sp)
	.cfi_offset s0, -4
	.cfi_offset s1, -8
	.cfi_offset s2, -12
	mv	t5, a2
.Ltmp116:
	lui	t4, 524288
	addi	t4, t4, -1
.Ltmp117:
	.loc	5 171 46 prologue_end
	and	a5, a1, t4
.Ltmp118:
	.loc	5 171 46 is_stmt 0
	and	s1, a3, t4
	lui	s0, 524544
.Ltmp119:
	.loc	6 1513 52 is_stmt 1
	beqz	a5, .LBB2_3
.Ltmp120:
	.loc	6 0 52 is_stmt 0
	add	a2, a5, s0
	sltu	a2, a2, s0
.Ltmp121:
	bnez	s1, .LBB2_4
.Ltmp122:
.LBB2_2:
	seqz	s0, t5
.Ltmp123:
	.loc	7 34 8 is_stmt 1
	or	a2, a2, s0
.Ltmp124:
	bnez	a2, .LBB2_5
	j	.LBB2_20
.Ltmp125:
.LBB2_3:
	.loc	7 0 8 is_stmt 0
	seqz	a2, a0
.Ltmp126:
	beqz	s1, .LBB2_2
.Ltmp127:
.LBB2_4:
	add	a4, s1, s0
	sltu	s0, a4, s0
.Ltmp128:
	.loc	7 34 8
	or	a2, a2, s0
.Ltmp129:
	beqz	a2, .LBB2_20
.Ltmp130:
.LBB2_5:
	.loc	7 0 8
	lui	a2, 524032
.Ltmp131:
	.loc	6 1515 52 is_stmt 1
	beq	a5, a2, .LBB2_13
.Ltmp132:
	.loc	6 0 52 is_stmt 0
	sltu	a2, a2, a5
.Ltmp133:
	.loc	7 36 12 is_stmt 1
	bnez	a2, .LBB2_14
.Ltmp134:
.LBB2_7:
	.loc	7 0 12 is_stmt 0
	lui	a2, 524032
	beq	s1, a2, .LBB2_15
.Ltmp135:
	sltu	a2, a2, s1
.Ltmp136:
	.loc	7 40 12 is_stmt 1
	bnez	a2, .LBB2_16
.Ltmp137:
.LBB2_9:
	.loc	7 0 12 is_stmt 0
	lui	a2, 524032
.Ltmp138:
	.loc	6 1425 52 is_stmt 1
	xor	a4, a5, a2
	or	a4, a4, a0
.Ltmp139:
	.loc	7 44 12
	bnez	a4, .LBB2_17
.Ltmp140:
	.loc	5 371 48
	xor	a2, t5, a0
	xor	a3, a3, a1
.Ltmp141:
	.loc	5 0 48 is_stmt 0
	lui	a4, 524288
.Ltmp142:
	.loc	6 1425 52 is_stmt 1
	xor	a3, a3, a4
	or	a3, a3, a2
	seqz	a2, a3
.Ltmp143:
	.loc	7 46 16
	bnez	a3, .LBB2_12
.Ltmp144:
	.loc	7 0 16 is_stmt 0
	lui	a1, 524160
.Ltmp145:
.LBB2_12:
	.loc	7 46 16
	addi	a2, a2, -1
	and	t5, a2, a0
.Ltmp146:
	.loc	7 0 16
	mv	a3, a1
	j	.LBB2_77
.Ltmp147:
.LBB2_13:
	snez	a2, a0
.Ltmp148:
	.loc	7 36 12 is_stmt 1
	beqz	a2, .LBB2_7
.Ltmp149:
.LBB2_14:
	.loc	7 0 12 is_stmt 0
	lui	a3, 128
.Ltmp150:
	.loc	5 271 45 is_stmt 1
	or	a3, a3, a5
.Ltmp151:
	.loc	5 0 45 is_stmt 0
	mv	t5, a0
.Ltmp152:
	j	.LBB2_77
.Ltmp153:
.LBB2_15:
	snez	a2, t5
.Ltmp154:
	.loc	7 40 12 is_stmt 1
	beqz	a2, .LBB2_9
.Ltmp155:
.LBB2_16:
	.loc	7 0 12 is_stmt 0
	lui	a3, 128
.Ltmp156:
	.loc	5 271 45 is_stmt 1
	or	a3, a3, s1
.Ltmp157:
	.loc	5 0 45 is_stmt 0
	j	.LBB2_77
.Ltmp158:
.LBB2_17:
	.loc	6 1425 52 is_stmt 1
	xor	a2, a2, s1
	or	a2, t5, a2
.Ltmp159:
	.loc	7 55 12
	beqz	a2, .LBB2_77
.Ltmp160:
	.loc	6 1425 52
	or	a2, a0, a5
.Ltmp161:
	.loc	6 0 52 is_stmt 0
	beqz	a2, .LBB2_78
.Ltmp162:
	.loc	6 1425 52
	or	a2, t5, s1
	beqz	a2, .LBB2_80
.Ltmp163:
.LBB2_20:
	.loc	6 0 52
	lui	a6, 256
.Ltmp164:
	.loc	6 1515 52 is_stmt 1
	beq	s1, a5, .LBB2_23
.Ltmp165:
	.loc	6 0 52 is_stmt 0
	sltu	a2, a5, s1
	addi	a6, a6, -1
.Ltmp166:
	.loc	7 76 8 is_stmt 1
	beqz	a2, .LBB2_24
.Ltmp167:
.LBB2_22:
	.loc	7 0 8 is_stmt 0
	mv	a7, t5
	mv	t2, a3
	mv	t5, a0
.Ltmp168:
	mv	a3, a1
.Ltmp169:
	j	.LBB2_25
.Ltmp170:
.LBB2_23:
	sltu	a2, a0, t5
	addi	a6, a6, -1
.Ltmp171:
	.loc	7 76 8
	bnez	a2, .LBB2_22
.Ltmp172:
.LBB2_24:
	.loc	7 0 8
	mv	a7, a0
	mv	t2, a1
.Ltmp173:
.LBB2_25:
	.loc	13 373 17 is_stmt 1
	slli	a0, t2, 1
.Ltmp174:
	srli	t6, a0, 21
.Ltmp175:
	.loc	13 373 17 is_stmt 0
	slli	a1, a3, 1
.Ltmp176:
	srli	a1, a1, 21
.Ltmp177:
	.loc	5 171 46 is_stmt 1
	and	t1, t2, a6
.Ltmp178:
	.loc	7 90 8
	beqz	t6, .LBB2_27
.Ltmp179:
	.loc	7 0 8 is_stmt 0
	mv	t0, a7
	li	t3, -1
	and	a4, a3, a6
	bnez	a1, .LBB2_41
	j	.LBB2_34
.Ltmp180:
.LBB2_27:
	.loc	8 1181 5 is_stmt 1
	srli	t0, a7, 1
	lui	a0, 349525
	addi	a0, a0, 1365
	lui	a2, 209715
	addi	a5, a2, 819
.Ltmp181:
	.loc	8 0 5 is_stmt 0
	lui	a2, 61681
	addi	a2, a2, -241
	lui	a4, 4112
	addi	a4, a4, 257
	.loc	8 1181 5
	bnez	t1, .LBB2_29
.Ltmp182:
	.loc	8 0 5
	or	s0, a7, t0
	srli	s1, s0, 2
.Ltmp183:
	or	s1, s1, s0
	srli	s0, s1, 4
	or	s1, s1, s0
	srli	s0, s1, 8
	or	s1, s1, s0
	srli	s0, s1, 16
	or	s0, s0, s1
	not	s0, s0
	srli	s1, s0, 1
	and	a0, a0, s1
	sub	s0, s0, a0
	and	a0, s0, a5
	srli	s0, s0, 2
	and	a5, a5, s0
	add	a0, a0, a5
	srli	a5, a0, 4
	add	a0, a0, a5
	and	a0, a0, a2
	mul	a0, a0, a4
	srli	a0, a0, 24
	addi	a0, a0, 32
	j	.LBB2_30
.Ltmp184:
.LBB2_29:
	srli	s1, t1, 1
.Ltmp185:
	or	s0, t1, s1
	srli	s1, s0, 2
	or	s1, s1, s0
	srli	s0, s1, 4
	or	s1, s1, s0
	srli	s0, s1, 8
	or	s1, s1, s0
	srli	s0, s1, 16
	or	s0, s0, s1
	not	s0, s0
	srli	s1, s0, 1
	and	a0, a0, s1
	sub	s0, s0, a0
	and	a0, s0, a5
	srli	s0, s0, 2
	and	a5, a5, s0
	add	a0, a0, a5
	srli	a5, a0, 4
	add	a0, a0, a5
	and	a0, a0, a2
	mul	a0, a0, a4
	srli	a0, a0, 24
.Ltmp186:
.LBB2_30:
	.loc	8 1157 5 is_stmt 1
	addi	a2, a0, 53
.Ltmp187:
	.loc	9 164 21
	andi	a4, a2, 63
	addi	s0, a4, -32
	li	a5, 12
	bltz	s0, .LBB2_32
.Ltmp188:
	.loc	9 0 21 is_stmt 0
	sll	t1, a7, a4
.Ltmp189:
	j	.LBB2_33
.Ltmp190:
.LBB2_32:
	sll	s1, t1, a2
	not	a4, a4
	srl	a4, t0, a4
	or	t1, s1, a4
.Ltmp191:
.LBB2_33:
	sub	t6, a5, a0
.Ltmp192:
	.loc	9 164 21
	sll	a0, a7, a2
.Ltmp193:
	srai	s0, s0, 31
	and	t0, s0, a0
.Ltmp194:
	.loc	9 0 21
	li	t3, -1
.Ltmp195:
	and	a4, a3, a6
.Ltmp196:
	.loc	7 95 8 is_stmt 1
	bnez	a1, .LBB2_41
.Ltmp197:
.LBB2_34:
	.loc	8 1181 5
	srli	s2, t5, 1
	lui	a0, 349525
	addi	s0, a0, 1365
	lui	a0, 209715
	addi	a5, a0, 819
	lui	a0, 61681
	addi	a0, a0, -241
	lui	a2, 4112
	addi	a2, a2, 257
	bnez	a4, .LBB2_36
.Ltmp198:
	.loc	8 0 5 is_stmt 0
	or	a1, t5, s2
.Ltmp199:
	srli	s1, a1, 2
	or	a1, a1, s1
	srli	s1, a1, 4
	or	a1, a1, s1
	srli	s1, a1, 8
	or	a1, a1, s1
	srli	s1, a1, 16
	or	a1, a1, s1
	not	a1, a1
	srli	s1, a1, 1
	and	s0, s0, s1
	sub	a1, a1, s0
	and	s0, a1, a5
	srli	a1, a1, 2
	and	a1, a1, a5
	add	a1, a1, s0
	srli	a5, a1, 4
	add	a1, a1, a5
	and	a0, a0, a1
	mul	a0, a0, a2
	srli	a0, a0, 24
	addi	a0, a0, 32
	j	.LBB2_37
.Ltmp200:
.LBB2_36:
	srli	s1, a4, 1
	or	a1, a4, s1
.Ltmp201:
	srli	s1, a1, 2
	or	a1, a1, s1
	srli	s1, a1, 4
	or	a1, a1, s1
	srli	s1, a1, 8
	or	a1, a1, s1
	srli	s1, a1, 16
	or	a1, a1, s1
	not	a1, a1
	srli	s1, a1, 1
	and	s0, s0, s1
	sub	a1, a1, s0
	and	s0, a1, a5
	srli	a1, a1, 2
	and	a1, a1, a5
	add	a1, a1, s0
	srli	a5, a1, 4
	add	a1, a1, a5
	and	a0, a0, a1
	mul	a0, a0, a2
	srli	a0, a0, 24
.Ltmp202:
.LBB2_37:
	.loc	8 1157 5 is_stmt 1
	addi	a2, a0, 53
.Ltmp203:
	.loc	9 164 21
	andi	s1, a2, 63
	addi	a5, s1, -32
	li	s0, 12
	bltz	a5, .LBB2_39
.Ltmp204:
	.loc	9 0 21 is_stmt 0
	sll	a4, t5, s1
.Ltmp205:
	j	.LBB2_40
.Ltmp206:
.LBB2_39:
	sll	a1, a4, a2
	not	a4, s1
.Ltmp207:
	srl	a4, s2, a4
	or	a4, a4, a1
.Ltmp208:
.LBB2_40:
	sub	a1, s0, a0
.Ltmp209:
	.loc	9 164 21
	sll	a0, t5, a2
.Ltmp210:
	srai	a5, a5, 31
	and	t5, a5, a0
.Ltmp211:
.LBB2_41:
	.loc	5 171 46 is_stmt 1
	addi	t3, t3, 1
	seqz	a0, t3
	add	t4, t4, a0
.Ltmp212:
	.loc	5 371 48
	xor	a3, a3, t2
.Ltmp213:
	.loc	5 470 17
	srli	a0, t0, 29
	slli	a5, t1, 3
	or	a5, a5, a0
.Ltmp214:
	.loc	5 0 17 is_stmt 0
	lui	t1, 2048
.Ltmp215:
	.loc	5 470 17
	srli	a0, t5, 29
	slli	a4, a4, 3
.Ltmp216:
	slli	s1, t5, 3
.Ltmp217:
	or	a0, a0, t1
	or	a0, a0, a4
.Ltmp218:
	.loc	7 116 8 is_stmt 1
	beq	t6, a1, .LBB2_51
.Ltmp219:
	.loc	7 0 0 is_stmt 0
	sub	a1, t6, a1
.Ltmp220:
	li	a4, 64
.Ltmp221:
	.loc	7 117 12 is_stmt 1
	bgeu	a1, a4, .LBB2_45
.Ltmp222:
	.loc	8 1181 5
	neg	a4, a1
.Ltmp223:
	.loc	5 470 17
	andi	s0, a4, 63
	addi	s2, s0, -32
	bltz	s2, .LBB2_46
.Ltmp224:
	.loc	5 0 17 is_stmt 0
	sll	t5, s1, s0
	j	.LBB2_47
.Ltmp225:
.LBB2_45:
	li	a0, 0
.Ltmp226:
	li	s1, 1
.Ltmp227:
	j	.LBB2_51
.Ltmp228:
.LBB2_46:
	sll	t5, a0, a4
	not	s0, s0
	srli	a2, s1, 1
	srl	a2, a2, s0
	or	t5, t5, a2
.Ltmp229:
.LBB2_47:
	.loc	5 470 17
	sll	a2, s1, a4
	srai	a4, s2, 31
	and	a2, a2, a4
.Ltmp230:
	.loc	6 1427 52 is_stmt 1
	or	a2, a2, t5
	snez	t5, a2
.Ltmp231:
	.loc	5 588 17
	addi	a4, a1, -32
	srl	s0, a0, a1
	bltz	a4, .LBB2_49
.Ltmp232:
	.loc	5 0 17 is_stmt 0
	mv	a1, s0
.Ltmp233:
	j	.LBB2_50
.Ltmp234:
.LBB2_49:
	srl	a2, s1, a1
	not	a1, a1
.Ltmp235:
	slli	a0, a0, 1
.Ltmp236:
	sll	a1, a0, a1
	or	a1, a1, a2
.Ltmp237:
.LBB2_50:
	.loc	5 588 17
	srai	a0, a4, 31
	and	a0, a0, s0
.Ltmp238:
	.loc	5 271 45 is_stmt 1
	or	s1, a1, t5
.Ltmp239:
.LBB2_51:
	.loc	7 0 0 is_stmt 0
	and	t5, a7, t3
	and	t2, t2, t4
.Ltmp240:
	slli	a4, t0, 3
.Ltmp241:
	or	a5, a5, t1
.Ltmp242:
	.loc	7 125 8 is_stmt 1
	bltz	a3, .LBB2_54
.Ltmp243:
	.loc	10 759 51
	add	a4, a4, s1
.Ltmp244:
	sltu	a3, a4, s1
	add	a0, a0, a5
.Ltmp245:
	add	a3, a3, a0
.Ltmp246:
	.loc	7 146 12
	slli	a0, a3, 7
	bgez	a0, .LBB2_59
.Ltmp247:
	.loc	5 171 46
	andi	s1, s1, 1
.Ltmp248:
	.loc	5 588 17
	srli	a4, a4, 1
	slli	a0, a3, 31
.Ltmp249:
	srli	a3, a3, 1
.Ltmp250:
	or	a4, a4, s1
.Ltmp251:
	.loc	5 271 45
	or	a4, a4, a0
.Ltmp252:
	.loc	7 149 13
	addi	t6, t6, 1
.Ltmp253:
	.loc	7 0 13 is_stmt 0
	j	.LBB2_59
.Ltmp254:
.LBB2_54:
	.loc	8 1181 5 is_stmt 1
	sltu	a1, a4, s1
	sub	a3, a5, a0
	sub	a3, a3, a1
.Ltmp255:
	sub	a4, a4, s1
.Ltmp256:
	.loc	6 1425 52
	or	a0, a4, a3
.Ltmp257:
	.loc	7 128 12
	beqz	a0, .LBB2_61
.Ltmp258:
	.loc	6 1509 52
	srli	a0, a3, 23
.Ltmp259:
	.loc	7 134 12
	bnez	a0, .LBB2_59
.Ltmp260:
	.loc	8 1181 5
	srli	a7, a4, 1
.Ltmp261:
	.loc	8 0 5 is_stmt 0
	lui	a0, 349525
	addi	s0, a0, 1365
	lui	a0, 209715
	addi	a5, a0, 819
	lui	a0, 61681
	addi	a0, a0, -241
	lui	a1, 4112
	addi	a2, a1, 257
	.loc	8 1181 5
	bnez	a3, .LBB2_62
.Ltmp262:
	.loc	8 0 5
	or	s1, a4, a7
.Ltmp263:
	srli	a1, s1, 2
	or	s1, s1, a1
	srli	a1, s1, 4
	or	s1, s1, a1
	srli	a1, s1, 8
	or	s1, s1, a1
	srli	a1, s1, 16
	or	a1, a1, s1
	not	s1, a1
	srli	a1, s1, 1
	and	a1, a1, s0
	sub	s1, s1, a1
	and	a1, s1, a5
	srli	s1, s1, 2
	and	a5, a5, s1
	add	a1, a1, a5
	srli	a5, a1, 4
	add	a1, a1, a5
	and	a0, a0, a1
	mul	a0, a0, a2
	srli	a0, a0, 24
	addi	a5, a0, 32
.Ltmp264:
	.loc	5 924 17 is_stmt 1
	addi	a2, a5, -40
.Ltmp265:
	.loc	7 136 17
	addi	a0, a5, -8
.Ltmp266:
	.loc	5 924 17
	bgez	a2, .LBB2_63
.Ltmp267:
.LBB2_58:
	.loc	5 0 17 is_stmt 0
	li	a1, 39
	sub	a1, a1, a5
	srl	a1, a7, a1
	sll	a3, a3, a0
.Ltmp268:
	or	a3, a3, a1
	j	.LBB2_64
.Ltmp269:
.LBB2_59:
	li	a0, 2046
	.loc	7 154 8 is_stmt 1
	bge	a0, t6, .LBB2_65
.Ltmp270:
	.loc	7 0 8 is_stmt 0
	lui	a0, 524032
.Ltmp271:
	.loc	5 271 45 is_stmt 1
	or	a3, t2, a0
.Ltmp272:
	.loc	5 0 45 is_stmt 0
	j	.LBB2_77
.Ltmp273:
.LBB2_61:
	li	t5, 0
.Ltmp274:
	li	a3, 0
.Ltmp275:
	j	.LBB2_77
.Ltmp276:
.LBB2_62:
	srli	a1, a3, 1
	or	s1, a3, a1
.Ltmp277:
	srli	a1, s1, 2
	or	s1, s1, a1
	srli	a1, s1, 4
	or	s1, s1, a1
	srli	a1, s1, 8
	or	s1, s1, a1
	srli	a1, s1, 16
	or	a1, a1, s1
	not	s1, a1
	srli	a1, s1, 1
	and	a1, a1, s0
	sub	s1, s1, a1
	and	a1, s1, a5
	srli	s1, s1, 2
	and	a5, a5, s1
	add	a1, a1, a5
	srli	a5, a1, 4
	add	a1, a1, a5
	and	a0, a0, a1
	mul	a5, a0, a2
	srli	a5, a5, 24
.Ltmp278:
	.loc	5 924 17 is_stmt 1
	addi	a2, a5, -40
.Ltmp279:
	.loc	7 136 17
	addi	a0, a5, -8
.Ltmp280:
	.loc	5 924 17
	bltz	a2, .LBB2_58
.Ltmp281:
.LBB2_63:
	.loc	5 0 17 is_stmt 0
	sll	a3, a4, a2
.Ltmp282:
.LBB2_64:
	.loc	5 924 17
	sll	a1, a4, a0
	srai	a2, a2, 31
	and	a4, a2, a1
.Ltmp283:
	.loc	7 138 13 is_stmt 1
	sub	t6, t6, a0
.Ltmp284:
.LBB2_65:
	.loc	7 0 13 is_stmt 0
	li	a7, -1
	.loc	7 158 8 is_stmt 1
	bgtz	t6, .LBB2_73
.Ltmp285:
	.loc	7 0 8 is_stmt 0
	li	a0, 1
.Ltmp286:
	.loc	8 1181 5 is_stmt 1
	addi	a2, t6, -1
.Ltmp287:
	.loc	5 470 17
	andi	a5, a2, 63
	addi	a1, a5, -32
.Ltmp288:
	.loc	7 161 21
	sub	a0, a0, t6
.Ltmp289:
	.loc	5 470 17
	bltz	a1, .LBB2_68
.Ltmp290:
	.loc	5 0 17 is_stmt 0
	sll	s0, a4, a5
	j	.LBB2_69
.Ltmp291:
.LBB2_68:
	sll	s1, a3, a2
	srli	s0, a4, 1
	not	a5, a5
	srl	s0, s0, a5
	or	s0, s0, s1
.Ltmp292:
.LBB2_69:
	.loc	5 470 17
	sll	a2, a4, a2
.Ltmp293:
	srai	a1, a1, 31
	and	a1, a1, a2
.Ltmp294:
	.loc	6 1427 52 is_stmt 1
	or	a1, a1, s0
	snez	t0, a1
.Ltmp295:
	.loc	5 588 17
	andi	a2, a0, 63
	srl	s0, a3, a0
	addi	a1, a2, -32
	srai	a5, a1, 31
.Ltmp296:
	bltz	a1, .LBB2_71
.Ltmp297:
	.loc	5 0 17 is_stmt 0
	srl	a4, a3, a2
.Ltmp298:
	j	.LBB2_72
.Ltmp299:
.LBB2_71:
	srl	a0, a4, a0
.Ltmp300:
	not	a1, a2
	slli	a3, a3, 1
	sll	a4, a3, a1
.Ltmp301:
	or	a4, a4, a0
.Ltmp302:
.LBB2_72:
	li	t6, 0
.Ltmp303:
	.loc	7 164 25 is_stmt 1
	and	a3, a5, s0
.Ltmp304:
	.loc	5 271 45
	or	a4, a4, t0
.Ltmp305:
.LBB2_73:
	.loc	7 170 35
	andi	a0, a4, 7
.Ltmp306:
	.loc	5 588 17
	srli	a4, a4, 3
.Ltmp307:
	slli	a2, a3, 29
	or	a2, a2, a4
	srli	a3, a3, 3
.Ltmp308:
	.loc	5 171 46
	and	a4, a2, a7
	and	a1, a3, a6
.Ltmp309:
	.loc	5 470 17
	slli	t6, t6, 20
.Ltmp310:
	.loc	5 790 53
	or	a3, t6, t2
.Ltmp311:
	.loc	5 790 53 is_stmt 0
	or	a3, a3, a1
	li	a1, 4
.Ltmp312:
	or	t5, a4, t5
.Ltmp313:
	.loc	7 181 8 is_stmt 1
	bgeu	a1, a0, .LBB2_75
.Ltmp314:
	.loc	10 759 51
	addi	t5, t5, 1
	seqz	a0, t5
.Ltmp315:
	add	a3, a3, a0
	j	.LBB2_77
.Ltmp316:
.LBB2_75:
	.loc	7 184 8
	bne	a0, a1, .LBB2_77
.Ltmp317:
	.loc	5 171 46
	andi	a2, a2, 1
.Ltmp318:
	.loc	10 759 51
	add	a2, a2, t5
.Ltmp319:
	sltu	a0, a2, t5
.Ltmp320:
	add	a3, a3, a0
	mv	t5, a2
.Ltmp321:
.LBB2_77:
	.loc	4 493 10
	mv	a0, t5
	mv	a1, a3
	lw	s0, 12(sp)
	lw	s1, 8(sp)
	lw	s2, 4(sp)
	.loc	4 493 10 epilogue_begin is_stmt 0
	addi	sp, sp, 16
	ret
.LBB2_78:
.Ltmp322:
	.loc	6 1425 52 is_stmt 1
	or	a2, t5, s1
.Ltmp323:
	.loc	7 62 16
	bnez	a2, .LBB2_77
.Ltmp324:
	.loc	5 171 46
	and	t5, t5, a0
.Ltmp325:
	and	a3, a3, a1
.Ltmp326:
	.loc	5 0 46 is_stmt 0
	j	.LBB2_77
.Ltmp327:
.LBB2_80:
	mv	t5, a0
.Ltmp328:
	mv	a3, a1
.Ltmp329:
	j	.LBB2_77
.Lfunc_end2:
	.size	_ZN17compiler_builtins5float3add8__adddf317ha1c90aff642e91b7E, .Lfunc_end2-_ZN17compiler_builtins5float3add8__adddf317ha1c90aff642e91b7E
	.cfi_endproc

	.section	.text.__adddf3,"ax",@progbits
	.hidden	__adddf3
	.globl	__adddf3
	.p2align	1
	.type	__adddf3,@function
__adddf3:
.Lfunc_begin3:
	.cfi_startproc
	.loc	4 500 17 prologue_end is_stmt 1
	tail	_ZN17compiler_builtins5float3add8__adddf317ha1c90aff642e91b7E
.Ltmp330:
.Lfunc_end3:
	.size	__adddf3, .Lfunc_end3-__adddf3
	.cfi_endproc

	.section	.text._ZN17compiler_builtins5float3cmp7__gesf217h27d9e607e4d5d7caE,"ax",@progbits
	.hidden	_ZN17compiler_builtins5float3cmp7__gesf217h27d9e607e4d5d7caE
	.globl	_ZN17compiler_builtins5float3cmp7__gesf217h27d9e607e4d5d7caE
	.p2align	1
	.type	_ZN17compiler_builtins5float3cmp7__gesf217h27d9e607e4d5d7caE,@function
_ZN17compiler_builtins5float3cmp7__gesf217h27d9e607e4d5d7caE:
.Lfunc_begin4:
	.loc	4 491 0
	.cfi_startproc
	lui	a2, 524288
	addi	a2, a2, -1
.Ltmp331:
	.loc	5 171 46 prologue_end
	and	a3, a0, a2
.Ltmp332:
	.loc	5 171 46 is_stmt 0
	and	a4, a1, a2
	lui	a2, 522240
.Ltmp333:
	.loc	6 1515 52 is_stmt 1
	sltu	a5, a2, a3
	sltu	a2, a2, a4
.Ltmp334:
	.file	14 "/Users/steve/.cargo/registry/src/index.crates.io-6f17d22bba15001f/compiler_builtins-0.1.105" "src/float/cmp.rs"
	.loc	14 50 8
	or	a5, a5, a2
	li	a2, -1
.Ltmp335:
	bnez	a5, .LBB4_5
.Ltmp336:
	.loc	5 271 45
	or	a3, a3, a4
.Ltmp337:
	.loc	14 55 8
	beqz	a3, .LBB4_6
.Ltmp338:
	.loc	5 171 46
	and	a3, a1, a0
.Ltmp339:
	.loc	14 64 8
	bltz	a3, .LBB4_7
.Ltmp340:
	.loc	14 65 12
	blt	a0, a1, .LBB4_5
.Ltmp341:
.LBB4_4:
	.loc	6 1425 52
	xor	a0, a0, a1
.Ltmp342:
	snez	a2, a0
.Ltmp343:
.LBB4_5:
	.loc	4 493 10
	mv	a0, a2
	ret
.Ltmp344:
.LBB4_6:
	li	a0, 0
.Ltmp345:
	ret
.Ltmp346:
.LBB4_7:
	.loc	14 76 15
	bge	a1, a0, .LBB4_4
	j	.LBB4_5
.Ltmp347:
.Lfunc_end4:
	.size	_ZN17compiler_builtins5float3cmp7__gesf217h27d9e607e4d5d7caE, .Lfunc_end4-_ZN17compiler_builtins5float3cmp7__gesf217h27d9e607e4d5d7caE
	.cfi_endproc

	.section	.text.__gesf2,"ax",@progbits
	.hidden	__gesf2
	.globl	__gesf2
	.p2align	1
	.type	__gesf2,@function
__gesf2:
.Lfunc_begin5:
	.loc	4 499 0
	.cfi_startproc
	lui	a2, 524288
	addi	a2, a2, -1
.Ltmp348:
	.loc	5 171 46 prologue_end
	and	a3, a0, a2
.Ltmp349:
	.loc	5 171 46 is_stmt 0
	and	a4, a1, a2
	lui	a2, 522240
.Ltmp350:
	.loc	6 1515 52 is_stmt 1
	sltu	a5, a2, a3
	sltu	a2, a2, a4
.Ltmp351:
	.loc	14 50 8
	or	a5, a5, a2
	li	a2, -1
.Ltmp352:
	bnez	a5, .LBB5_5
.Ltmp353:
	.loc	5 271 45
	or	a3, a3, a4
.Ltmp354:
	.loc	14 55 8
	beqz	a3, .LBB5_6
.Ltmp355:
	.loc	5 171 46
	and	a3, a1, a0
.Ltmp356:
	.loc	14 64 8
	bltz	a3, .LBB5_7
.Ltmp357:
	.loc	14 65 12
	blt	a0, a1, .LBB5_5
.Ltmp358:
.LBB5_4:
	.loc	6 1425 52
	xor	a0, a0, a1
.Ltmp359:
	snez	a2, a0
.Ltmp360:
.LBB5_5:
	.loc	4 501 14
	mv	a0, a2
	ret
.Ltmp361:
.LBB5_6:
	li	a0, 0
.Ltmp362:
	ret
.Ltmp363:
.LBB5_7:
	.loc	14 76 15
	bge	a1, a0, .LBB5_4
	j	.LBB5_5
.Ltmp364:
.Lfunc_end5:
	.size	__gesf2, .Lfunc_end5-__gesf2
	.cfi_endproc

	.section	.text._ZN17compiler_builtins5float3cmp10__unordsf217h5630d5cbee41b371E,"ax",@progbits
	.hidden	_ZN17compiler_builtins5float3cmp10__unordsf217h5630d5cbee41b371E
	.globl	_ZN17compiler_builtins5float3cmp10__unordsf217h5630d5cbee41b371E
	.p2align	1
	.type	_ZN17compiler_builtins5float3cmp10__unordsf217h5630d5cbee41b371E,@function
_ZN17compiler_builtins5float3cmp10__unordsf217h5630d5cbee41b371E:
.Lfunc_begin6:
	.loc	4 491 0
	.cfi_startproc
	lui	a2, 524288
	addi	a2, a2, -1
.Ltmp365:
	.loc	5 171 46 prologue_end
	and	a0, a0, a2
.Ltmp366:
	.loc	5 171 46 is_stmt 0
	and	a1, a1, a2
.Ltmp367:
	.loc	5 0 46
	lui	a2, 522240
.Ltmp368:
	.loc	6 1515 52 is_stmt 1
	sltu	a0, a2, a0
.Ltmp369:
	.loc	14 98 5
	sltu	a1, a2, a1
.Ltmp370:
	or	a0, a0, a1
.Ltmp371:
	.loc	4 493 10
	ret
.Ltmp372:
.Lfunc_end6:
	.size	_ZN17compiler_builtins5float3cmp10__unordsf217h5630d5cbee41b371E, .Lfunc_end6-_ZN17compiler_builtins5float3cmp10__unordsf217h5630d5cbee41b371E
	.cfi_endproc

	.section	.text.__unordsf2,"ax",@progbits
	.hidden	__unordsf2
	.globl	__unordsf2
	.p2align	1
	.type	__unordsf2,@function
__unordsf2:
.Lfunc_begin7:
	.loc	4 499 0
	.cfi_startproc
	lui	a2, 524288
	addi	a2, a2, -1
.Ltmp373:
	.loc	5 171 46 prologue_end
	and	a0, a0, a2
.Ltmp374:
	.loc	5 171 46 is_stmt 0
	and	a1, a1, a2
.Ltmp375:
	.loc	5 0 46
	lui	a2, 522240
.Ltmp376:
	.loc	6 1515 52 is_stmt 1
	sltu	a0, a2, a0
.Ltmp377:
	.loc	14 98 5
	sltu	a1, a2, a1
.Ltmp378:
	or	a0, a0, a1
.Ltmp379:
	.loc	4 501 14
	ret
.Ltmp380:
.Lfunc_end7:
	.size	__unordsf2, .Lfunc_end7-__unordsf2
	.cfi_endproc

	.section	.text._ZN17compiler_builtins5float3cmp7__eqsf217hd7a0e0726faf5488E,"ax",@progbits
	.hidden	_ZN17compiler_builtins5float3cmp7__eqsf217hd7a0e0726faf5488E
	.globl	_ZN17compiler_builtins5float3cmp7__eqsf217hd7a0e0726faf5488E
	.p2align	1
	.type	_ZN17compiler_builtins5float3cmp7__eqsf217hd7a0e0726faf5488E,@function
_ZN17compiler_builtins5float3cmp7__eqsf217hd7a0e0726faf5488E:
.Lfunc_begin8:
	.loc	4 491 0
	.cfi_startproc
	lui	a2, 524288
	addi	a2, a2, -1
.Ltmp381:
	.loc	5 171 46 prologue_end
	and	a3, a0, a2
.Ltmp382:
	.loc	5 171 46 is_stmt 0
	and	a4, a1, a2
	lui	a2, 522240
.Ltmp383:
	.loc	6 1515 52 is_stmt 1
	sltu	a5, a2, a3
	sltu	a2, a2, a4
.Ltmp384:
	.loc	14 50 8
	or	a5, a5, a2
	li	a2, 1
.Ltmp385:
	bnez	a5, .LBB8_5
.Ltmp386:
	.loc	5 271 45
	or	a3, a3, a4
.Ltmp387:
	.loc	14 55 8
	beqz	a3, .LBB8_6
.Ltmp388:
	.loc	5 171 46
	and	a2, a1, a0
.Ltmp389:
	.loc	14 64 8
	bltz	a2, .LBB8_7
.Ltmp390:
	.loc	14 0 8 is_stmt 0
	li	a2, -1
	.loc	14 65 12 is_stmt 1
	blt	a0, a1, .LBB8_5
.Ltmp391:
.LBB8_4:
	.loc	6 1425 52
	xor	a0, a0, a1
.Ltmp392:
	snez	a2, a0
.Ltmp393:
.LBB8_5:
	.loc	4 493 10
	mv	a0, a2
	ret
.Ltmp394:
.LBB8_6:
	li	a0, 0
.Ltmp395:
	ret
.Ltmp396:
.LBB8_7:
	.loc	4 0 10 is_stmt 0
	li	a2, -1
.Ltmp397:
	.loc	14 76 15 is_stmt 1
	bge	a1, a0, .LBB8_4
	j	.LBB8_5
.Ltmp398:
.Lfunc_end8:
	.size	_ZN17compiler_builtins5float3cmp7__eqsf217hd7a0e0726faf5488E, .Lfunc_end8-_ZN17compiler_builtins5float3cmp7__eqsf217hd7a0e0726faf5488E
	.cfi_endproc

	.section	.text.__eqsf2,"ax",@progbits
	.hidden	__eqsf2
	.globl	__eqsf2
	.p2align	1
	.type	__eqsf2,@function
__eqsf2:
.Lfunc_begin9:
	.loc	4 499 0
	.cfi_startproc
	lui	a2, 524288
	addi	a2, a2, -1
.Ltmp399:
	.loc	5 171 46 prologue_end
	and	a3, a0, a2
.Ltmp400:
	.loc	5 171 46 is_stmt 0
	and	a4, a1, a2
	lui	a2, 522240
.Ltmp401:
	.loc	6 1515 52 is_stmt 1
	sltu	a5, a2, a3
	sltu	a2, a2, a4
.Ltmp402:
	.loc	14 50 8
	or	a5, a5, a2
	li	a2, 1
.Ltmp403:
	bnez	a5, .LBB9_5
.Ltmp404:
	.loc	5 271 45
	or	a3, a3, a4
.Ltmp405:
	.loc	14 55 8
	beqz	a3, .LBB9_6
.Ltmp406:
	.loc	5 171 46
	and	a2, a1, a0
.Ltmp407:
	.loc	14 64 8
	bltz	a2, .LBB9_7
.Ltmp408:
	.loc	14 0 8 is_stmt 0
	li	a2, -1
	.loc	14 65 12 is_stmt 1
	blt	a0, a1, .LBB9_5
.Ltmp409:
.LBB9_4:
	.loc	6 1425 52
	xor	a0, a0, a1
.Ltmp410:
	snez	a2, a0
.Ltmp411:
.LBB9_5:
	.loc	4 501 14
	mv	a0, a2
	ret
.Ltmp412:
.LBB9_6:
	li	a0, 0
.Ltmp413:
	ret
.Ltmp414:
.LBB9_7:
	.loc	4 0 14 is_stmt 0
	li	a2, -1
.Ltmp415:
	.loc	14 76 15 is_stmt 1
	bge	a1, a0, .LBB9_4
	j	.LBB9_5
.Ltmp416:
.Lfunc_end9:
	.size	__eqsf2, .Lfunc_end9-__eqsf2
	.cfi_endproc

	.section	.text._ZN17compiler_builtins5float3cmp7__gedf217hd424b6a370da95aaE,"ax",@progbits
	.hidden	_ZN17compiler_builtins5float3cmp7__gedf217hd424b6a370da95aaE
	.globl	_ZN17compiler_builtins5float3cmp7__gedf217hd424b6a370da95aaE
	.p2align	1
	.type	_ZN17compiler_builtins5float3cmp7__gedf217hd424b6a370da95aaE,@function
_ZN17compiler_builtins5float3cmp7__gedf217hd424b6a370da95aaE:
.Lfunc_begin10:
	.loc	4 491 0
	.cfi_startproc
	lui	a4, 524288
	addi	a4, a4, -1
.Ltmp417:
	.loc	5 171 46 prologue_end
	and	t0, a1, a4
	lui	a7, 524032
.Ltmp418:
	.loc	5 171 46 is_stmt 0
	and	a4, a4, a3
.Ltmp419:
	.loc	6 1515 52 is_stmt 1
	beq	t0, a7, .LBB10_4
.Ltmp420:
	.loc	6 0 52 is_stmt 0
	sltu	a6, a7, t0
	bne	a4, a7, .LBB10_5
.Ltmp421:
.LBB10_2:
	snez	a5, a2
	.loc	14 50 8 is_stmt 1
	or	a5, a6, a5
	li	a6, -1
.Ltmp422:
	beqz	a5, .LBB10_6
.Ltmp423:
.LBB10_3:
	.loc	4 493 10
	mv	a0, a6
.Ltmp424:
	ret
.Ltmp425:
.LBB10_4:
	.loc	4 0 10 is_stmt 0
	snez	a6, a0
	beq	a4, a7, .LBB10_2
.Ltmp426:
.LBB10_5:
	sltu	a5, a7, a4
.Ltmp427:
	.loc	14 50 8 is_stmt 1
	or	a5, a6, a5
	li	a6, -1
.Ltmp428:
	bnez	a5, .LBB10_3
.Ltmp429:
.LBB10_6:
	.loc	5 271 45
	or	a5, a2, a0
	or	a4, a4, t0
.Ltmp430:
	.loc	6 1425 52
	or	a4, a4, a5
.Ltmp431:
	.loc	14 55 8
	beqz	a4, .LBB10_10
.Ltmp432:
	.loc	5 171 46
	and	a4, a3, a1
.Ltmp433:
	.loc	14 64 8
	bltz	a4, .LBB10_11
.Ltmp434:
	.loc	6 1509 52
	beq	a1, a3, .LBB10_13
.Ltmp435:
	.loc	6 0 52 is_stmt 0
	slt	a4, a1, a3
	.loc	14 65 12 is_stmt 1
	bnez	a4, .LBB10_3
	j	.LBB10_15
.Ltmp436:
.LBB10_10:
	.loc	4 493 10
	li	a0, 0
.Ltmp437:
	ret
.Ltmp438:
.LBB10_11:
	.loc	6 1515 52
	beq	a1, a3, .LBB10_14
.Ltmp439:
	.loc	6 0 52 is_stmt 0
	slt	a4, a3, a1
	.loc	14 76 15 is_stmt 1
	bnez	a4, .LBB10_3
	j	.LBB10_15
.Ltmp440:
.LBB10_13:
	.loc	14 0 15 is_stmt 0
	sltu	a4, a0, a2
	.loc	14 65 12 is_stmt 1
	bnez	a4, .LBB10_3
	j	.LBB10_15
.Ltmp441:
.LBB10_14:
	.loc	14 0 12 is_stmt 0
	sltu	a4, a2, a0
	.loc	14 76 15 is_stmt 1
	bnez	a4, .LBB10_3
.Ltmp442:
.LBB10_15:
	.loc	6 1425 52
	xor	a0, a0, a2
.Ltmp443:
	xor	a1, a1, a3
.Ltmp444:
	or	a0, a0, a1
	snez	a6, a0
.Ltmp445:
	.loc	4 493 10
	mv	a0, a6
	ret
.Ltmp446:
.Lfunc_end10:
	.size	_ZN17compiler_builtins5float3cmp7__gedf217hd424b6a370da95aaE, .Lfunc_end10-_ZN17compiler_builtins5float3cmp7__gedf217hd424b6a370da95aaE
	.cfi_endproc

	.section	.text.__gedf2,"ax",@progbits
	.hidden	__gedf2
	.globl	__gedf2
	.p2align	1
	.type	__gedf2,@function
__gedf2:
.Lfunc_begin11:
	.loc	4 499 0
	.cfi_startproc
	lui	a4, 524288
	addi	a4, a4, -1
.Ltmp447:
	.loc	5 171 46 prologue_end
	and	t0, a1, a4
	lui	a7, 524032
.Ltmp448:
	.loc	5 171 46 is_stmt 0
	and	a4, a4, a3
.Ltmp449:
	.loc	6 1515 52 is_stmt 1
	beq	t0, a7, .LBB11_4
.Ltmp450:
	.loc	6 0 52 is_stmt 0
	sltu	a6, a7, t0
	bne	a4, a7, .LBB11_5
.Ltmp451:
.LBB11_2:
	snez	a5, a2
	.loc	14 50 8 is_stmt 1
	or	a5, a6, a5
	li	a6, -1
.Ltmp452:
	beqz	a5, .LBB11_6
.Ltmp453:
.LBB11_3:
	.loc	4 501 14
	mv	a0, a6
.Ltmp454:
	ret
.Ltmp455:
.LBB11_4:
	.loc	4 0 14 is_stmt 0
	snez	a6, a0
	beq	a4, a7, .LBB11_2
.Ltmp456:
.LBB11_5:
	sltu	a5, a7, a4
.Ltmp457:
	.loc	14 50 8 is_stmt 1
	or	a5, a6, a5
	li	a6, -1
.Ltmp458:
	bnez	a5, .LBB11_3
.Ltmp459:
.LBB11_6:
	.loc	5 271 45
	or	a5, a2, a0
	or	a4, a4, t0
.Ltmp460:
	.loc	6 1425 52
	or	a4, a4, a5
.Ltmp461:
	.loc	14 55 8
	beqz	a4, .LBB11_10
.Ltmp462:
	.loc	5 171 46
	and	a4, a3, a1
.Ltmp463:
	.loc	14 64 8
	bltz	a4, .LBB11_11
.Ltmp464:
	.loc	6 1509 52
	beq	a1, a3, .LBB11_13
.Ltmp465:
	.loc	6 0 52 is_stmt 0
	slt	a4, a1, a3
	.loc	14 65 12 is_stmt 1
	bnez	a4, .LBB11_3
	j	.LBB11_15
.Ltmp466:
.LBB11_10:
	.loc	4 501 14
	li	a0, 0
.Ltmp467:
	ret
.Ltmp468:
.LBB11_11:
	.loc	6 1515 52
	beq	a1, a3, .LBB11_14
.Ltmp469:
	.loc	6 0 52 is_stmt 0
	slt	a4, a3, a1
	.loc	14 76 15 is_stmt 1
	bnez	a4, .LBB11_3
	j	.LBB11_15
.Ltmp470:
.LBB11_13:
	.loc	14 0 15 is_stmt 0
	sltu	a4, a0, a2
	.loc	14 65 12 is_stmt 1
	bnez	a4, .LBB11_3
	j	.LBB11_15
.Ltmp471:
.LBB11_14:
	.loc	14 0 12 is_stmt 0
	sltu	a4, a2, a0
	.loc	14 76 15 is_stmt 1
	bnez	a4, .LBB11_3
.Ltmp472:
.LBB11_15:
	.loc	6 1425 52
	xor	a0, a0, a2
.Ltmp473:
	xor	a1, a1, a3
.Ltmp474:
	or	a0, a0, a1
	snez	a6, a0
.Ltmp475:
	.loc	4 501 14
	mv	a0, a6
	ret
.Ltmp476:
.Lfunc_end11:
	.size	__gedf2, .Lfunc_end11-__gedf2
	.cfi_endproc

	.section	.text._ZN17compiler_builtins5float3cmp10__unorddf217h8cc00406971965d2E,"ax",@progbits
	.hidden	_ZN17compiler_builtins5float3cmp10__unorddf217h8cc00406971965d2E
	.globl	_ZN17compiler_builtins5float3cmp10__unorddf217h8cc00406971965d2E
	.p2align	1
	.type	_ZN17compiler_builtins5float3cmp10__unorddf217h8cc00406971965d2E,@function
_ZN17compiler_builtins5float3cmp10__unorddf217h8cc00406971965d2E:
.Lfunc_begin12:
	.loc	4 491 0
	.cfi_startproc
	lui	a4, 524288
	addi	a5, a4, -1
.Ltmp477:
	.loc	5 171 46 prologue_end
	and	a4, a1, a5
	lui	a1, 524032
.Ltmp478:
	.loc	5 171 46 is_stmt 0
	and	a3, a3, a5
.Ltmp479:
	.loc	6 1515 52 is_stmt 1
	beq	a4, a1, .LBB12_3
.Ltmp480:
	.loc	6 0 52 is_stmt 0
	sltu	a0, a1, a4
.Ltmp481:
	.loc	14 98 5 is_stmt 1
	bne	a3, a1, .LBB12_4
.Ltmp482:
.LBB12_2:
	.loc	14 0 5 is_stmt 0
	snez	a1, a2
	.loc	14 98 5
	or	a0, a0, a1
.Ltmp483:
	.loc	4 493 10 is_stmt 1
	ret
.Ltmp484:
.LBB12_3:
	.loc	4 0 10 is_stmt 0
	snez	a0, a0
.Ltmp485:
	.loc	14 98 5 is_stmt 1
	beq	a3, a1, .LBB12_2
.Ltmp486:
.LBB12_4:
	.loc	14 0 5 is_stmt 0
	sltu	a1, a1, a3
	.loc	14 98 5
	or	a0, a0, a1
.Ltmp487:
	.loc	4 493 10 is_stmt 1
	ret
.Ltmp488:
.Lfunc_end12:
	.size	_ZN17compiler_builtins5float3cmp10__unorddf217h8cc00406971965d2E, .Lfunc_end12-_ZN17compiler_builtins5float3cmp10__unorddf217h8cc00406971965d2E
	.cfi_endproc

	.section	.text.__unorddf2,"ax",@progbits
	.hidden	__unorddf2
	.globl	__unorddf2
	.p2align	1
	.type	__unorddf2,@function
__unorddf2:
.Lfunc_begin13:
	.loc	4 499 0
	.cfi_startproc
	lui	a4, 524288
	addi	a5, a4, -1
.Ltmp489:
	.loc	5 171 46 prologue_end
	and	a4, a1, a5
	lui	a1, 524032
.Ltmp490:
	.loc	5 171 46 is_stmt 0
	and	a3, a3, a5
.Ltmp491:
	.loc	6 1515 52 is_stmt 1
	beq	a4, a1, .LBB13_3
.Ltmp492:
	.loc	6 0 52 is_stmt 0
	sltu	a0, a1, a4
.Ltmp493:
	.loc	14 98 5 is_stmt 1
	bne	a3, a1, .LBB13_4
.Ltmp494:
.LBB13_2:
	.loc	14 0 5 is_stmt 0
	snez	a1, a2
	.loc	14 98 5
	or	a0, a0, a1
.Ltmp495:
	.loc	4 501 14 is_stmt 1
	ret
.Ltmp496:
.LBB13_3:
	.loc	4 0 14 is_stmt 0
	snez	a0, a0
.Ltmp497:
	.loc	14 98 5 is_stmt 1
	beq	a3, a1, .LBB13_2
.Ltmp498:
.LBB13_4:
	.loc	14 0 5 is_stmt 0
	sltu	a1, a1, a3
	.loc	14 98 5
	or	a0, a0, a1
.Ltmp499:
	.loc	4 501 14 is_stmt 1
	ret
.Ltmp500:
.Lfunc_end13:
	.size	__unorddf2, .Lfunc_end13-__unorddf2
	.cfi_endproc

	.section	.text._ZN17compiler_builtins5float3cmp7__eqdf217hb594bf21b8bc005bE,"ax",@progbits
	.hidden	_ZN17compiler_builtins5float3cmp7__eqdf217hb594bf21b8bc005bE
	.globl	_ZN17compiler_builtins5float3cmp7__eqdf217hb594bf21b8bc005bE
	.p2align	1
	.type	_ZN17compiler_builtins5float3cmp7__eqdf217hb594bf21b8bc005bE,@function
_ZN17compiler_builtins5float3cmp7__eqdf217hb594bf21b8bc005bE:
.Lfunc_begin14:
	.loc	4 491 0
	.cfi_startproc
	lui	a4, 524288
	addi	a5, a4, -1
.Ltmp501:
	.loc	5 171 46 prologue_end
	and	a6, a1, a5
	lui	a4, 524032
.Ltmp502:
	.loc	5 171 46 is_stmt 0
	and	t0, a3, a5
.Ltmp503:
	.loc	6 1515 52 is_stmt 1
	beq	a6, a4, .LBB14_4
.Ltmp504:
	.loc	6 0 52 is_stmt 0
	sltu	a7, a4, a6
	bne	t0, a4, .LBB14_5
.Ltmp505:
.LBB14_2:
	snez	a4, a2
	.loc	14 50 8 is_stmt 1
	or	a5, a7, a4
	li	a4, 1
.Ltmp506:
	beqz	a5, .LBB14_6
.Ltmp507:
.LBB14_3:
	.loc	4 493 10
	mv	a0, a4
.Ltmp508:
	ret
.Ltmp509:
.LBB14_4:
	.loc	4 0 10 is_stmt 0
	snez	a7, a0
	beq	t0, a4, .LBB14_2
.Ltmp510:
.LBB14_5:
	sltu	a4, a4, t0
.Ltmp511:
	.loc	14 50 8 is_stmt 1
	or	a5, a7, a4
	li	a4, 1
.Ltmp512:
	bnez	a5, .LBB14_3
.Ltmp513:
.LBB14_6:
	.loc	5 271 45
	or	a4, a2, a0
	or	a5, t0, a6
.Ltmp514:
	.loc	6 1425 52
	or	a4, a4, a5
.Ltmp515:
	.loc	14 55 8
	beqz	a4, .LBB14_3
.Ltmp516:
	.loc	5 171 46
	and	a4, a3, a1
.Ltmp517:
	.loc	14 64 8
	bltz	a4, .LBB14_10
.Ltmp518:
	.loc	6 1509 52
	beq	a1, a3, .LBB14_12
.Ltmp519:
	.loc	6 0 52 is_stmt 0
	slt	a5, a1, a3
	li	a4, -1
	bnez	a5, .LBB14_3
	j	.LBB14_14
.Ltmp520:
.LBB14_10:
	.loc	6 1515 52 is_stmt 1
	beq	a1, a3, .LBB14_13
.Ltmp521:
	.loc	6 0 52 is_stmt 0
	slt	a5, a3, a1
	li	a4, -1
	bnez	a5, .LBB14_3
	j	.LBB14_14
.Ltmp522:
.LBB14_12:
	sltu	a5, a0, a2
	li	a4, -1
	bnez	a5, .LBB14_3
	j	.LBB14_14
.Ltmp523:
.LBB14_13:
	sltu	a5, a2, a0
	li	a4, -1
	bnez	a5, .LBB14_3
.Ltmp524:
.LBB14_14:
	.loc	6 1425 52 is_stmt 1
	xor	a0, a0, a2
.Ltmp525:
	xor	a1, a1, a3
.Ltmp526:
	or	a0, a0, a1
	snez	a4, a0
.Ltmp527:
	.loc	4 493 10
	mv	a0, a4
	ret
.Ltmp528:
.Lfunc_end14:
	.size	_ZN17compiler_builtins5float3cmp7__eqdf217hb594bf21b8bc005bE, .Lfunc_end14-_ZN17compiler_builtins5float3cmp7__eqdf217hb594bf21b8bc005bE
	.cfi_endproc

	.section	.text.__eqdf2,"ax",@progbits
	.hidden	__eqdf2
	.globl	__eqdf2
	.p2align	1
	.type	__eqdf2,@function
__eqdf2:
.Lfunc_begin15:
	.loc	4 499 0
	.cfi_startproc
	lui	a4, 524288
	addi	a5, a4, -1
.Ltmp529:
	.loc	5 171 46 prologue_end
	and	a6, a1, a5
	lui	a4, 524032
.Ltmp530:
	.loc	5 171 46 is_stmt 0
	and	t0, a3, a5
.Ltmp531:
	.loc	6 1515 52 is_stmt 1
	beq	a6, a4, .LBB15_4
.Ltmp532:
	.loc	6 0 52 is_stmt 0
	sltu	a7, a4, a6
	bne	t0, a4, .LBB15_5
.Ltmp533:
.LBB15_2:
	snez	a4, a2
	.loc	14 50 8 is_stmt 1
	or	a5, a7, a4
	li	a4, 1
.Ltmp534:
	beqz	a5, .LBB15_6
.Ltmp535:
.LBB15_3:
	.loc	4 501 14
	mv	a0, a4
.Ltmp536:
	ret
.Ltmp537:
.LBB15_4:
	.loc	4 0 14 is_stmt 0
	snez	a7, a0
	beq	t0, a4, .LBB15_2
.Ltmp538:
.LBB15_5:
	sltu	a4, a4, t0
.Ltmp539:
	.loc	14 50 8 is_stmt 1
	or	a5, a7, a4
	li	a4, 1
.Ltmp540:
	bnez	a5, .LBB15_3
.Ltmp541:
.LBB15_6:
	.loc	5 271 45
	or	a4, a2, a0
	or	a5, t0, a6
.Ltmp542:
	.loc	6 1425 52
	or	a4, a4, a5
.Ltmp543:
	.loc	14 55 8
	beqz	a4, .LBB15_3
.Ltmp544:
	.loc	5 171 46
	and	a4, a3, a1
.Ltmp545:
	.loc	14 64 8
	bltz	a4, .LBB15_10
.Ltmp546:
	.loc	6 1509 52
	beq	a1, a3, .LBB15_12
.Ltmp547:
	.loc	6 0 52 is_stmt 0
	slt	a5, a1, a3
	li	a4, -1
	bnez	a5, .LBB15_3
	j	.LBB15_14
.Ltmp548:
.LBB15_10:
	.loc	6 1515 52 is_stmt 1
	beq	a1, a3, .LBB15_13
.Ltmp549:
	.loc	6 0 52 is_stmt 0
	slt	a5, a3, a1
	li	a4, -1
	bnez	a5, .LBB15_3
	j	.LBB15_14
.Ltmp550:
.LBB15_12:
	sltu	a5, a0, a2
	li	a4, -1
	bnez	a5, .LBB15_3
	j	.LBB15_14
.Ltmp551:
.LBB15_13:
	sltu	a5, a2, a0
	li	a4, -1
	bnez	a5, .LBB15_3
.Ltmp552:
.LBB15_14:
	.loc	6 1425 52 is_stmt 1
	xor	a0, a0, a2
.Ltmp553:
	xor	a1, a1, a3
.Ltmp554:
	or	a0, a0, a1
	snez	a4, a0
.Ltmp555:
	.loc	4 501 14
	mv	a0, a4
	ret
.Ltmp556:
.Lfunc_end15:
	.size	__eqdf2, .Lfunc_end15-__eqdf2
	.cfi_endproc

	.section	.text._ZN17compiler_builtins5float4conv13__floatunsisf17h97297e3b577561e8E,"ax",@progbits
	.hidden	_ZN17compiler_builtins5float4conv13__floatunsisf17h97297e3b577561e8E
	.globl	_ZN17compiler_builtins5float4conv13__floatunsisf17h97297e3b577561e8E
	.p2align	1
	.type	_ZN17compiler_builtins5float4conv13__floatunsisf17h97297e3b577561e8E,@function
_ZN17compiler_builtins5float4conv13__floatunsisf17h97297e3b577561e8E:
.Lfunc_begin16:
	.cfi_startproc
	.file	15 "/Users/steve/.cargo/registry/src/index.crates.io-6f17d22bba15001f/compiler_builtins-0.1.105" "src/float/conv.rs"
	.loc	15 9 12 prologue_end
	beqz	a0, .LBB16_2
.Ltmp557:
	.loc	8 1157 5
	srli	a1, a0, 1
	or	a1, a1, a0
	srli	a2, a1, 2
	or	a1, a1, a2
	srli	a2, a1, 4
	or	a1, a1, a2
	srli	a2, a1, 8
	or	a1, a1, a2
	srli	a2, a1, 16
	or	a1, a1, a2
	not	a1, a1
	srli	a2, a1, 1
	lui	a3, 349525
	addi	a3, a3, 1365
	and	a2, a2, a3
	sub	a1, a1, a2
	lui	a2, 209715
	addi	a2, a2, 819
	and	a3, a1, a2
	srli	a1, a1, 2
	and	a1, a1, a2
	add	a1, a1, a3
	srli	a2, a1, 4
	add	a1, a1, a2
	lui	a2, 61681
	addi	a2, a2, -241
	and	a1, a1, a2
	lui	a2, 4112
	addi	a2, a2, 257
	mul	a1, a1, a2
	srli	a1, a1, 24
.Ltmp558:
	.loc	15 13 17
	sll	a0, a0, a1
.Ltmp559:
	srli	a2, a0, 8
.Ltmp560:
	.loc	15 14 17
	slli	a0, a0, 24
.Ltmp561:
	.loc	15 15 28
	srli	a3, a0, 31
	.loc	15 15 38 is_stmt 0
	not	a4, a2
	.loc	15 15 27
	and	a3, a3, a4
	.loc	15 15 22
	sub	a0, a0, a3
.Ltmp562:
	.loc	15 15 21
	srli	a0, a0, 31
.Ltmp563:
	.loc	15 17 9 is_stmt 1
	slli	a1, a1, 23
.Ltmp564:
	sub	a2, a2, a1
.Ltmp565:
	.loc	15 0 9 is_stmt 0
	lui	a1, 321536
	.loc	15 17 9
	add	a1, a1, a2
	add	a0, a0, a1
.Ltmp566:
.LBB16_2:
	.loc	4 493 10 is_stmt 1
	ret
.Ltmp567:
.Lfunc_end16:
	.size	_ZN17compiler_builtins5float4conv13__floatunsisf17h97297e3b577561e8E, .Lfunc_end16-_ZN17compiler_builtins5float4conv13__floatunsisf17h97297e3b577561e8E
	.cfi_endproc

	.section	.text.__floatunsisf,"ax",@progbits
	.hidden	__floatunsisf
	.globl	__floatunsisf
	.p2align	1
	.type	__floatunsisf,@function
__floatunsisf:
.Lfunc_begin17:
	.cfi_startproc
	.loc	15 9 12 prologue_end
	beqz	a0, .LBB17_2
.Ltmp568:
	.loc	8 1157 5
	srli	a1, a0, 1
	or	a1, a1, a0
	srli	a2, a1, 2
	or	a1, a1, a2
	srli	a2, a1, 4
	or	a1, a1, a2
	srli	a2, a1, 8
	or	a1, a1, a2
	srli	a2, a1, 16
	or	a1, a1, a2
	not	a1, a1
	srli	a2, a1, 1
	lui	a3, 349525
	addi	a3, a3, 1365
	and	a2, a2, a3
	sub	a1, a1, a2
	lui	a2, 209715
	addi	a2, a2, 819
	and	a3, a1, a2
	srli	a1, a1, 2
	and	a1, a1, a2
	add	a1, a1, a3
	srli	a2, a1, 4
	add	a1, a1, a2
	lui	a2, 61681
	addi	a2, a2, -241
	and	a1, a1, a2
	lui	a2, 4112
	addi	a2, a2, 257
	mul	a1, a1, a2
	srli	a1, a1, 24
.Ltmp569:
	.loc	15 13 17
	sll	a0, a0, a1
.Ltmp570:
	srli	a2, a0, 8
.Ltmp571:
	.loc	15 14 17
	slli	a0, a0, 24
.Ltmp572:
	.loc	15 15 28
	srli	a3, a0, 31
	.loc	15 15 38 is_stmt 0
	not	a4, a2
	.loc	15 15 27
	and	a3, a3, a4
	.loc	15 15 22
	sub	a0, a0, a3
.Ltmp573:
	.loc	15 15 21
	srli	a0, a0, 31
.Ltmp574:
	.loc	15 17 9 is_stmt 1
	slli	a1, a1, 23
.Ltmp575:
	sub	a2, a2, a1
.Ltmp576:
	.loc	15 0 9 is_stmt 0
	lui	a1, 321536
	.loc	15 17 9
	add	a1, a1, a2
	add	a0, a0, a1
.Ltmp577:
.LBB17_2:
	.loc	4 501 14 is_stmt 1
	ret
.Ltmp578:
.Lfunc_end17:
	.size	__floatunsisf, .Lfunc_end17-__floatunsisf
	.cfi_endproc

	.section	.text._ZN17compiler_builtins5float4conv13__floatunsidf17hb46a4c2ac7783374E,"ax",@progbits
	.hidden	_ZN17compiler_builtins5float4conv13__floatunsidf17hb46a4c2ac7783374E
	.globl	_ZN17compiler_builtins5float4conv13__floatunsidf17hb46a4c2ac7783374E
	.p2align	1
	.type	_ZN17compiler_builtins5float4conv13__floatunsidf17hb46a4c2ac7783374E,@function
_ZN17compiler_builtins5float4conv13__floatunsidf17hb46a4c2ac7783374E:
.Lfunc_begin18:
	.cfi_startproc
	.loc	15 21 12 prologue_end
	beqz	a0, .LBB18_3
.Ltmp579:
	.loc	8 1157 5
	srli	a1, a0, 1
	or	a2, a0, a1
	srli	a3, a2, 2
	or	a2, a2, a3
	srli	a3, a2, 4
	or	a2, a2, a3
	srli	a3, a2, 8
	or	a2, a2, a3
	srli	a3, a2, 16
	or	a2, a2, a3
	not	a2, a2
	srli	a3, a2, 1
	lui	a4, 349525
	addi	a4, a4, 1365
	and	a3, a3, a4
	sub	a2, a2, a3
	lui	a3, 209715
	addi	a3, a3, 819
	and	a4, a2, a3
	srli	a2, a2, 2
	and	a2, a2, a3
	add	a2, a2, a4
	srli	a3, a2, 4
	add	a2, a2, a3
	lui	a3, 61681
	addi	a3, a3, -241
	and	a2, a2, a3
	lui	a3, 4112
	addi	a3, a3, 257
	mul	a2, a2, a3
	srli	a2, a2, 24
.Ltmp580:
	.loc	15 25 17
	addi	a3, a2, -11
	.loc	15 25 31 is_stmt 0
	addi	a4, a2, 21
	.loc	15 25 17
	bltz	a3, .LBB18_4
.Ltmp581:
	.loc	15 0 17
	sll	a1, a0, a3
	j	.LBB18_5
.Ltmp582:
.LBB18_3:
	li	a1, 0
.Ltmp583:
	.loc	4 493 10 is_stmt 1
	ret
.Ltmp584:
.LBB18_4:
	.loc	4 0 10 is_stmt 0
	li	a5, 10
	sub	a5, a5, a2
	srl	a1, a1, a5
.Ltmp585:
.LBB18_5:
	.loc	15 25 17 is_stmt 1
	sll	a0, a0, a4
.Ltmp586:
	srai	a3, a3, 31
	and	a0, a0, a3
	li	a3, 1053
.Ltmp587:
	.loc	15 26 17
	sub	a3, a3, a2
.Ltmp588:
	.loc	15 27 9
	slli	a3, a3, 20
.Ltmp589:
	add	a1, a1, a3
.Ltmp590:
	.loc	4 493 10
	ret
.Ltmp591:
.Lfunc_end18:
	.size	_ZN17compiler_builtins5float4conv13__floatunsidf17hb46a4c2ac7783374E, .Lfunc_end18-_ZN17compiler_builtins5float4conv13__floatunsidf17hb46a4c2ac7783374E
	.cfi_endproc

	.section	.text.__floatunsidf,"ax",@progbits
	.hidden	__floatunsidf
	.globl	__floatunsidf
	.p2align	1
	.type	__floatunsidf,@function
__floatunsidf:
.Lfunc_begin19:
	.cfi_startproc
	.loc	15 21 12 prologue_end
	beqz	a0, .LBB19_3
.Ltmp592:
	.loc	8 1157 5
	srli	a1, a0, 1
	or	a2, a0, a1
	srli	a3, a2, 2
	or	a2, a2, a3
	srli	a3, a2, 4
	or	a2, a2, a3
	srli	a3, a2, 8
	or	a2, a2, a3
	srli	a3, a2, 16
	or	a2, a2, a3
	not	a2, a2
	srli	a3, a2, 1
	lui	a4, 349525
	addi	a4, a4, 1365
	and	a3, a3, a4
	sub	a2, a2, a3
	lui	a3, 209715
	addi	a3, a3, 819
	and	a4, a2, a3
	srli	a2, a2, 2
	and	a2, a2, a3
	add	a2, a2, a4
	srli	a3, a2, 4
	add	a2, a2, a3
	lui	a3, 61681
	addi	a3, a3, -241
	and	a2, a2, a3
	lui	a3, 4112
	addi	a3, a3, 257
	mul	a2, a2, a3
	srli	a2, a2, 24
.Ltmp593:
	.loc	15 25 17
	addi	a3, a2, -11
	.loc	15 25 31 is_stmt 0
	addi	a4, a2, 21
	.loc	15 25 17
	bltz	a3, .LBB19_4
.Ltmp594:
	.loc	15 0 17
	sll	a1, a0, a3
	j	.LBB19_5
.Ltmp595:
.LBB19_3:
	li	a1, 0
.Ltmp596:
	.loc	4 501 14 is_stmt 1
	ret
.Ltmp597:
.LBB19_4:
	.loc	4 0 14 is_stmt 0
	li	a5, 10
	sub	a5, a5, a2
	srl	a1, a1, a5
.Ltmp598:
.LBB19_5:
	.loc	15 25 17 is_stmt 1
	sll	a0, a0, a4
.Ltmp599:
	srai	a3, a3, 31
	and	a0, a0, a3
	li	a3, 1053
.Ltmp600:
	.loc	15 26 17
	sub	a3, a3, a2
.Ltmp601:
	.loc	15 27 9
	slli	a3, a3, 20
.Ltmp602:
	add	a1, a1, a3
.Ltmp603:
	.loc	4 501 14
	ret
.Ltmp604:
.Lfunc_end19:
	.size	__floatunsidf, .Lfunc_end19-__floatunsidf
	.cfi_endproc

	.section	.text._ZN17compiler_builtins5float4conv13__floatundisf17h115aa132cea3aa01E,"ax",@progbits
	.hidden	_ZN17compiler_builtins5float4conv13__floatundisf17h115aa132cea3aa01E
	.globl	_ZN17compiler_builtins5float4conv13__floatundisf17h115aa132cea3aa01E
	.p2align	1
	.type	_ZN17compiler_builtins5float4conv13__floatundisf17h115aa132cea3aa01E,@function
_ZN17compiler_builtins5float4conv13__floatundisf17h115aa132cea3aa01E:
.Lfunc_begin20:
	.loc	4 491 0
	.cfi_startproc
	lui	a2, 349525
	addi	a2, a2, 1365
	lui	a3, 209715
	addi	a5, a3, 819
	lui	a3, 61681
	addi	a7, a3, -241
	lui	a4, 4112
	addi	t0, a4, 257
.Ltmp605:
	.loc	8 1181 5 prologue_end
	srli	a6, a0, 1
	bnez	a1, .LBB20_2
.Ltmp606:
	.loc	8 0 5 is_stmt 0
	or	a3, a0, a6
	srli	a4, a3, 2
	or	a3, a3, a4
	srli	a4, a3, 4
	or	a3, a3, a4
	srli	a4, a3, 8
	or	a3, a3, a4
	srli	a4, a3, 16
	or	a3, a3, a4
	not	a3, a3
	srli	a4, a3, 1
	and	a2, a2, a4
	sub	a3, a3, a2
	and	a2, a3, a5
	srli	a3, a3, 2
	and	a3, a3, a5
	add	a2, a2, a3
	srli	a3, a2, 4
	add	a2, a2, a3
	and	a2, a2, a7
	mul	a2, a2, t0
	srli	a2, a2, 24
	addi	a2, a2, 32
	j	.LBB20_3
.Ltmp607:
.LBB20_2:
	srli	a3, a1, 1
	or	a4, a1, a3
	srli	a3, a4, 2
	or	a3, a3, a4
	srli	a4, a3, 4
	or	a3, a3, a4
	srli	a4, a3, 8
	or	a3, a3, a4
	srli	a4, a3, 16
	or	a3, a3, a4
	not	a3, a3
	srli	a4, a3, 1
	and	a2, a2, a4
	sub	a3, a3, a2
	and	a2, a3, a5
	srli	a3, a3, 2
	and	a3, a3, a5
	add	a2, a2, a3
	srli	a3, a2, 4
	add	a2, a2, a3
	and	a2, a2, a7
	mul	a2, a2, t0
	srli	a2, a2, 24
.Ltmp608:
.LBB20_3:
	.loc	15 36 20 is_stmt 1
	or	a3, a0, a1
	seqz	a3, a3
	slli	a4, a2, 23
	lui	a5, 387072
	sub	a7, a5, a4
	addi	a3, a3, -1
.Ltmp609:
	.loc	8 1181 5
	andi	a5, a2, 63
	addi	a4, a5, -32
.Ltmp610:
	.loc	15 36 20
	and	a3, a3, a7
.Ltmp611:
	.loc	8 1181 5
	bltz	a4, .LBB20_5
.Ltmp612:
	.loc	8 0 5 is_stmt 0
	sll	a1, a0, a5
.Ltmp613:
	j	.LBB20_6
.Ltmp614:
.LBB20_5:
	sll	a1, a1, a2
.Ltmp615:
	not	a5, a5
	srl	a5, a6, a5
	or	a1, a1, a5
.Ltmp616:
.LBB20_6:
	.loc	8 1181 5
	sll	a0, a0, a2
.Ltmp617:
	srai	a4, a4, 31
	and	a0, a0, a4
.Ltmp618:
	.loc	15 34 18 is_stmt 1
	srli	a2, a0, 8
.Ltmp619:
	slli	a4, a1, 24
	or	a2, a2, a4
.Ltmp620:
	.loc	15 33 17
	srli	a1, a1, 8
.Ltmp621:
	.loc	15 34 27
	slli	a0, a0, 16
.Ltmp622:
	srli	a0, a0, 16
	.loc	15 34 17 is_stmt 0
	or	a0, a0, a2
.Ltmp623:
	.loc	15 35 28 is_stmt 1
	srli	a4, a4, 31
	.loc	15 35 38 is_stmt 0
	not	a2, a1
	.loc	15 35 27
	and	a2, a2, a4
	.loc	15 35 22
	sub	a0, a0, a2
.Ltmp624:
	.loc	15 35 21
	srli	a0, a0, 31
	.loc	15 35 17
	add	a1, a1, a3
.Ltmp625:
	.loc	15 37 9 is_stmt 1
	add	a0, a0, a1
.Ltmp626:
	.loc	4 493 10
	ret
.Ltmp627:
.Lfunc_end20:
	.size	_ZN17compiler_builtins5float4conv13__floatundisf17h115aa132cea3aa01E, .Lfunc_end20-_ZN17compiler_builtins5float4conv13__floatundisf17h115aa132cea3aa01E
	.cfi_endproc

	.section	.text.__floatundisf,"ax",@progbits
	.hidden	__floatundisf
	.globl	__floatundisf
	.p2align	1
	.type	__floatundisf,@function
__floatundisf:
.Lfunc_begin21:
	.loc	4 499 0
	.cfi_startproc
	lui	a2, 349525
	addi	a2, a2, 1365
	lui	a3, 209715
	addi	a5, a3, 819
	lui	a3, 61681
	addi	a7, a3, -241
	lui	a4, 4112
	addi	t0, a4, 257
.Ltmp628:
	.loc	8 1181 5 prologue_end
	srli	a6, a0, 1
	bnez	a1, .LBB21_2
.Ltmp629:
	.loc	8 0 5 is_stmt 0
	or	a3, a0, a6
	srli	a4, a3, 2
	or	a3, a3, a4
	srli	a4, a3, 4
	or	a3, a3, a4
	srli	a4, a3, 8
	or	a3, a3, a4
	srli	a4, a3, 16
	or	a3, a3, a4
	not	a3, a3
	srli	a4, a3, 1
	and	a2, a2, a4
	sub	a3, a3, a2
	and	a2, a3, a5
	srli	a3, a3, 2
	and	a3, a3, a5
	add	a2, a2, a3
	srli	a3, a2, 4
	add	a2, a2, a3
	and	a2, a2, a7
	mul	a2, a2, t0
	srli	a2, a2, 24
	addi	a2, a2, 32
	j	.LBB21_3
.Ltmp630:
.LBB21_2:
	srli	a3, a1, 1
	or	a4, a1, a3
	srli	a3, a4, 2
	or	a3, a3, a4
	srli	a4, a3, 4
	or	a3, a3, a4
	srli	a4, a3, 8
	or	a3, a3, a4
	srli	a4, a3, 16
	or	a3, a3, a4
	not	a3, a3
	srli	a4, a3, 1
	and	a2, a2, a4
	sub	a3, a3, a2
	and	a2, a3, a5
	srli	a3, a3, 2
	and	a3, a3, a5
	add	a2, a2, a3
	srli	a3, a2, 4
	add	a2, a2, a3
	and	a2, a2, a7
	mul	a2, a2, t0
	srli	a2, a2, 24
.Ltmp631:
.LBB21_3:
	.loc	15 36 20 is_stmt 1
	or	a3, a0, a1
	seqz	a3, a3
	slli	a4, a2, 23
	lui	a5, 387072
	sub	a7, a5, a4
	addi	a3, a3, -1
.Ltmp632:
	.loc	8 1181 5
	andi	a5, a2, 63
	addi	a4, a5, -32
.Ltmp633:
	.loc	15 36 20
	and	a3, a3, a7
.Ltmp634:
	.loc	8 1181 5
	bltz	a4, .LBB21_5
.Ltmp635:
	.loc	8 0 5 is_stmt 0
	sll	a1, a0, a5
.Ltmp636:
	j	.LBB21_6
.Ltmp637:
.LBB21_5:
	sll	a1, a1, a2
.Ltmp638:
	not	a5, a5
	srl	a5, a6, a5
	or	a1, a1, a5
.Ltmp639:
.LBB21_6:
	.loc	8 1181 5
	sll	a0, a0, a2
.Ltmp640:
	srai	a4, a4, 31
	and	a0, a0, a4
.Ltmp641:
	.loc	15 34 18 is_stmt 1
	srli	a2, a0, 8
.Ltmp642:
	slli	a4, a1, 24
	or	a2, a2, a4
.Ltmp643:
	.loc	15 33 17
	srli	a1, a1, 8
.Ltmp644:
	.loc	15 34 27
	slli	a0, a0, 16
.Ltmp645:
	srli	a0, a0, 16
	.loc	15 34 17 is_stmt 0
	or	a0, a0, a2
.Ltmp646:
	.loc	15 35 28 is_stmt 1
	srli	a4, a4, 31
	.loc	15 35 38 is_stmt 0
	not	a2, a1
	.loc	15 35 27
	and	a2, a2, a4
	.loc	15 35 22
	sub	a0, a0, a2
.Ltmp647:
	.loc	15 35 21
	srli	a0, a0, 31
	.loc	15 35 17
	add	a1, a1, a3
.Ltmp648:
	.loc	15 37 9 is_stmt 1
	add	a0, a0, a1
.Ltmp649:
	.loc	4 501 14
	ret
.Ltmp650:
.Lfunc_end21:
	.size	__floatundisf, .Lfunc_end21-__floatundisf
	.cfi_endproc

	.section	.text._ZN17compiler_builtins5float4conv13__floatundidf17hebb7878abb6b808aE,"ax",@progbits
	.hidden	_ZN17compiler_builtins5float4conv13__floatundidf17hebb7878abb6b808aE
	.globl	_ZN17compiler_builtins5float4conv13__floatundidf17hebb7878abb6b808aE
	.p2align	1
	.type	_ZN17compiler_builtins5float4conv13__floatundidf17hebb7878abb6b808aE,@function
_ZN17compiler_builtins5float4conv13__floatundidf17hebb7878abb6b808aE:
.Lfunc_begin22:
	.cfi_startproc
	.loc	15 41 12 prologue_end
	or	a2, a0, a1
	beqz	a2, .LBB22_4
.Ltmp651:
	.loc	8 1181 5
	srli	a6, a0, 1
	lui	a2, 349525
	addi	a2, a2, 1365
	lui	a3, 209715
	addi	a5, a3, 819
	lui	a3, 61681
	addi	a7, a3, -241
	lui	a4, 4112
	addi	t0, a4, 257
	bnez	a1, .LBB22_5
.Ltmp652:
	.loc	8 0 5 is_stmt 0
	or	a3, a0, a6
	srli	a4, a3, 2
	or	a3, a3, a4
	srli	a4, a3, 4
	or	a3, a3, a4
	srli	a4, a3, 8
	or	a3, a3, a4
	srli	a4, a3, 16
	or	a3, a3, a4
	not	a3, a3
	srli	a4, a3, 1
	and	a2, a2, a4
	sub	a3, a3, a2
	and	a2, a3, a5
	srli	a3, a3, 2
	and	a3, a3, a5
	add	a2, a2, a3
	srli	a3, a2, 4
	add	a2, a2, a3
	and	a2, a2, a7
	mul	a2, a2, t0
	srli	a2, a2, 24
	addi	a2, a2, 32
.Ltmp653:
	.loc	15 45 17 is_stmt 1
	addi	a3, a2, -32
	sll	a0, a0, a2
.Ltmp654:
	bgez	a3, .LBB22_6
.Ltmp655:
.LBB22_3:
	.loc	15 0 17 is_stmt 0
	sll	a1, a1, a2
.Ltmp656:
	not	a4, a2
	srl	a4, a6, a4
	or	a1, a1, a4
	j	.LBB22_7
.LBB22_4:
.Ltmp657:
	li	a0, 0
.Ltmp658:
	li	a1, 0
.Ltmp659:
	.loc	4 493 10 is_stmt 1
	ret
.Ltmp660:
.LBB22_5:
	.loc	4 0 10 is_stmt 0
	srli	a3, a1, 1
	or	a4, a1, a3
	srli	a3, a4, 2
	or	a3, a3, a4
	srli	a4, a3, 4
	or	a3, a3, a4
	srli	a4, a3, 8
	or	a3, a3, a4
	srli	a4, a3, 16
	or	a3, a3, a4
	not	a3, a3
	srli	a4, a3, 1
	and	a2, a2, a4
	sub	a3, a3, a2
	and	a2, a3, a5
	srli	a3, a3, 2
	and	a3, a3, a5
	add	a2, a2, a3
	srli	a3, a2, 4
	add	a2, a2, a3
	and	a2, a2, a7
	mul	a2, a2, t0
	srli	a2, a2, 24
.Ltmp661:
	.loc	15 45 17 is_stmt 1
	addi	a3, a2, -32
	sll	a0, a0, a2
.Ltmp662:
	bltz	a3, .LBB22_3
.Ltmp663:
.LBB22_6:
	.loc	15 0 17 is_stmt 0
	mv	a1, a0
.Ltmp664:
.LBB22_7:
	.loc	15 45 17
	srai	a3, a3, 31
	and	a0, a0, a3
	srli	a3, a0, 11
	slli	a4, a1, 21
	or	a3, a3, a4
	srli	a1, a1, 11
.Ltmp665:
	.loc	15 46 17 is_stmt 1
	slli	a0, a0, 21
.Ltmp666:
	.loc	15 47 28
	srli	a4, a0, 31
	.loc	15 47 38 is_stmt 0
	not	a5, a3
	.loc	15 47 27
	and	a4, a4, a5
	.loc	15 47 22
	sub	a0, a0, a4
.Ltmp667:
	.loc	15 47 21
	srli	a0, a0, 31
.Ltmp668:
	.loc	15 49 9 is_stmt 1
	slli	a2, a2, 20
.Ltmp669:
	sub	a1, a1, a2
.Ltmp670:
	add	a0, a0, a3
	sltu	a2, a0, a3
	lui	a3, 277760
.Ltmp671:
	add	a1, a1, a3
	add	a1, a1, a2
.Ltmp672:
	.loc	4 493 10
	ret
.Ltmp673:
.Lfunc_end22:
	.size	_ZN17compiler_builtins5float4conv13__floatundidf17hebb7878abb6b808aE, .Lfunc_end22-_ZN17compiler_builtins5float4conv13__floatundidf17hebb7878abb6b808aE
	.cfi_endproc

	.section	.text.__floatundidf,"ax",@progbits
	.hidden	__floatundidf
	.globl	__floatundidf
	.p2align	1
	.type	__floatundidf,@function
__floatundidf:
.Lfunc_begin23:
	.cfi_startproc
	.loc	15 41 12 prologue_end
	or	a2, a0, a1
	beqz	a2, .LBB23_4
.Ltmp674:
	.loc	8 1181 5
	srli	a6, a0, 1
	lui	a2, 349525
	addi	a2, a2, 1365
	lui	a3, 209715
	addi	a5, a3, 819
	lui	a3, 61681
	addi	a7, a3, -241
	lui	a4, 4112
	addi	t0, a4, 257
	bnez	a1, .LBB23_5
.Ltmp675:
	.loc	8 0 5 is_stmt 0
	or	a3, a0, a6
	srli	a4, a3, 2
	or	a3, a3, a4
	srli	a4, a3, 4
	or	a3, a3, a4
	srli	a4, a3, 8
	or	a3, a3, a4
	srli	a4, a3, 16
	or	a3, a3, a4
	not	a3, a3
	srli	a4, a3, 1
	and	a2, a2, a4
	sub	a3, a3, a2
	and	a2, a3, a5
	srli	a3, a3, 2
	and	a3, a3, a5
	add	a2, a2, a3
	srli	a3, a2, 4
	add	a2, a2, a3
	and	a2, a2, a7
	mul	a2, a2, t0
	srli	a2, a2, 24
	addi	a2, a2, 32
.Ltmp676:
	.loc	15 45 17 is_stmt 1
	addi	a3, a2, -32
	sll	a0, a0, a2
.Ltmp677:
	bgez	a3, .LBB23_6
.Ltmp678:
.LBB23_3:
	.loc	15 0 17 is_stmt 0
	sll	a1, a1, a2
.Ltmp679:
	not	a4, a2
	srl	a4, a6, a4
	or	a1, a1, a4
	j	.LBB23_7
.LBB23_4:
.Ltmp680:
	li	a0, 0
.Ltmp681:
	li	a1, 0
.Ltmp682:
	.loc	4 501 14 is_stmt 1
	ret
.Ltmp683:
.LBB23_5:
	.loc	4 0 14 is_stmt 0
	srli	a3, a1, 1
	or	a4, a1, a3
	srli	a3, a4, 2
	or	a3, a3, a4
	srli	a4, a3, 4
	or	a3, a3, a4
	srli	a4, a3, 8
	or	a3, a3, a4
	srli	a4, a3, 16
	or	a3, a3, a4
	not	a3, a3
	srli	a4, a3, 1
	and	a2, a2, a4
	sub	a3, a3, a2
	and	a2, a3, a5
	srli	a3, a3, 2
	and	a3, a3, a5
	add	a2, a2, a3
	srli	a3, a2, 4
	add	a2, a2, a3
	and	a2, a2, a7
	mul	a2, a2, t0
	srli	a2, a2, 24
.Ltmp684:
	.loc	15 45 17 is_stmt 1
	addi	a3, a2, -32
	sll	a0, a0, a2
.Ltmp685:
	bltz	a3, .LBB23_3
.Ltmp686:
.LBB23_6:
	.loc	15 0 17 is_stmt 0
	mv	a1, a0
.Ltmp687:
.LBB23_7:
	.loc	15 45 17
	srai	a3, a3, 31
	and	a0, a0, a3
	srli	a3, a0, 11
	slli	a4, a1, 21
	or	a3, a3, a4
	srli	a1, a1, 11
.Ltmp688:
	.loc	15 46 17 is_stmt 1
	slli	a0, a0, 21
.Ltmp689:
	.loc	15 47 28
	srli	a4, a0, 31
	.loc	15 47 38 is_stmt 0
	not	a5, a3
	.loc	15 47 27
	and	a4, a4, a5
	.loc	15 47 22
	sub	a0, a0, a4
.Ltmp690:
	.loc	15 47 21
	srli	a0, a0, 31
.Ltmp691:
	.loc	15 49 9 is_stmt 1
	slli	a2, a2, 20
.Ltmp692:
	sub	a1, a1, a2
.Ltmp693:
	add	a0, a0, a3
	sltu	a2, a0, a3
	lui	a3, 277760
.Ltmp694:
	add	a1, a1, a3
	add	a1, a1, a2
.Ltmp695:
	.loc	4 501 14
	ret
.Ltmp696:
.Lfunc_end23:
	.size	__floatundidf, .Lfunc_end23-__floatundidf
	.cfi_endproc

	.section	.text._ZN17compiler_builtins5float4conv13__floatuntisf17hd0593db5a4c251e5E,"ax",@progbits
	.hidden	_ZN17compiler_builtins5float4conv13__floatuntisf17hd0593db5a4c251e5E
	.globl	_ZN17compiler_builtins5float4conv13__floatuntisf17hd0593db5a4c251e5E
	.p2align	1
	.type	_ZN17compiler_builtins5float4conv13__floatuntisf17hd0593db5a4c251e5E,@function
_ZN17compiler_builtins5float4conv13__floatuntisf17hd0593db5a4c251e5E:
.Lfunc_begin24:
	.loc	4 491 0
	.cfi_startproc
	lw	t2, 4(a0)
	lw	a2, 8(a0)
	lw	a1, 12(a0)
.Ltmp697:
	lui	a4, 349525
	addi	t1, a4, 1365
	lui	a4, 209715
	addi	a4, a4, 819
	lui	a5, 61681
	addi	a6, a5, -241
	lui	a5, 4112
	addi	a7, a5, 257
.Ltmp698:
	.loc	8 1205 5 prologue_end
	bnez	a1, .LBB24_3
.Ltmp699:
	.loc	8 0 5 is_stmt 0
	srli	a3, a2, 1
	or	a3, a3, a2
	srli	a5, a3, 2
	or	a3, a3, a5
	srli	a5, a3, 4
	or	a3, a3, a5
	srli	a5, a3, 8
	or	a3, a3, a5
	srli	a5, a3, 16
	or	a3, a3, a5
	not	a3, a3
	srli	a5, a3, 1
	and	a5, a5, t1
	sub	a3, a3, a5
	and	a5, a3, a4
	srli	a3, a3, 2
	and	a3, a3, a4
	add	a3, a3, a5
	srli	a5, a3, 4
	add	a3, a3, a5
	and	a3, a3, a6
	mul	a3, a3, a7
	srli	a3, a3, 24
	addi	t0, a3, 32
	lw	a5, 0(a0)
	.loc	8 1205 5
	beqz	t2, .LBB24_4
.LBB24_2:
	.loc	8 0 5
	srli	a0, t2, 1
	or	a0, t2, a0
	srli	a3, a0, 2
	or	a0, a0, a3
	srli	a3, a0, 4
	or	a0, a0, a3
	srli	a3, a0, 8
	or	a0, a0, a3
	srli	a3, a0, 16
	or	a0, a0, a3
	not	a0, a0
	srli	a3, a0, 1
	and	a3, a3, t1
	sub	a0, a0, a3
	and	a3, a0, a4
	srli	a0, a0, 2
	and	a0, a0, a4
	add	a0, a0, a3
	srli	a3, a0, 4
	add	a0, a0, a3
	and	a0, a0, a6
	mul	a0, a0, a7
	srli	a0, a0, 24
	.loc	8 1205 5
	or	a3, a2, a1
	beqz	a3, .LBB24_5
	j	.LBB24_6
.LBB24_3:
	.loc	8 0 5
	srli	a5, a1, 1
	or	a3, a1, a5
	srli	a5, a3, 2
	or	a3, a3, a5
	srli	a5, a3, 4
	or	a3, a3, a5
	srli	a5, a3, 8
	or	a3, a3, a5
	srli	a5, a3, 16
	or	a3, a3, a5
	not	a3, a3
	srli	a5, a3, 1
	and	a5, a5, t1
	sub	a3, a3, a5
	and	a5, a3, a4
	srli	a3, a3, 2
	and	a3, a3, a4
	add	a3, a3, a5
	srli	a5, a3, 4
	add	a3, a3, a5
	and	a3, a3, a6
	mul	a3, a3, a7
	srli	t0, a3, 24
	lw	a5, 0(a0)
	.loc	8 1205 5
	bnez	t2, .LBB24_2
.LBB24_4:
	.loc	8 0 5
	srli	a0, a5, 1
	or	a0, a0, a5
	srli	a3, a0, 2
	or	a0, a0, a3
	srli	a3, a0, 4
	or	a0, a0, a3
	srli	a3, a0, 8
	or	a0, a0, a3
	srli	a3, a0, 16
	or	a0, a0, a3
	not	a0, a0
	srli	a3, a0, 1
	and	a3, a3, t1
	sub	a0, a0, a3
	and	a3, a0, a4
	srli	a0, a0, 2
	and	a0, a0, a4
	add	a0, a0, a3
	srli	a3, a0, 4
	add	a0, a0, a3
	and	a0, a0, a6
	mul	a0, a0, a7
	srli	a0, a0, 24
	addi	a0, a0, 32
	.loc	8 1205 5
	or	a3, a2, a1
	bnez	a3, .LBB24_6
.Ltmp700:
.LBB24_5:
	.loc	8 0 5
	addi	t0, a0, 64
.LBB24_6:
.Ltmp701:
	addi	sp, sp, -32
	.cfi_def_cfa_offset 32
.Ltmp702:
	.loc	15 58 20 is_stmt 1
	or	a0, t2, a1
	or	a3, a5, a2
	or	a0, a0, a3
	seqz	a0, a0
	slli	a3, t0, 23
	lui	a4, 518144
	sub	a4, a4, a3
	addi	a0, a0, -1
	and	a6, a0, a4
.Ltmp703:
	.loc	8 1205 5
	sb	zero, 15(sp)
	sb	zero, 14(sp)
	sb	zero, 13(sp)
	sb	zero, 12(sp)
	sb	zero, 11(sp)
	sb	zero, 10(sp)
	sb	zero, 9(sp)
	sb	zero, 8(sp)
	sb	zero, 7(sp)
	sb	zero, 6(sp)
	sb	zero, 5(sp)
	sb	zero, 4(sp)
	sb	zero, 3(sp)
	sb	zero, 2(sp)
	sb	zero, 1(sp)
	sb	zero, 0(sp)
	sb	a1, 28(sp)
	sb	a2, 24(sp)
	sb	t2, 20(sp)
	sb	a5, 16(sp)
	srli	a3, a1, 24
	sb	a3, 31(sp)
	srli	a3, a1, 16
	sb	a3, 30(sp)
	srli	a1, a1, 8
	sb	a1, 29(sp)
	srli	a1, a2, 24
	sb	a1, 27(sp)
	srli	a1, a2, 16
	sb	a1, 26(sp)
	srli	a2, a2, 8
	sb	a2, 25(sp)
	srli	a1, t2, 24
	sb	a1, 23(sp)
	srli	a1, t2, 16
	sb	a1, 22(sp)
	srli	a1, t2, 8
	sb	a1, 21(sp)
	srli	a1, a5, 24
	sb	a1, 19(sp)
	srli	a1, a5, 16
	sb	a1, 18(sp)
	srli	a5, a5, 8
	sb	a5, 17(sp)
	slli	a1, t0, 25
	srli	a1, a1, 28
	addi	a2, sp, 16
	sub	a2, a2, a1
	lbu	a1, 13(a2)
	lbu	a3, 12(a2)
	lbu	a4, 14(a2)
	lbu	a5, 15(a2)
	slli	a1, a1, 8
	or	a1, a1, a3
	slli	a4, a4, 16
	slli	a5, a5, 24
	or	a4, a4, a5
	or	a7, a4, a1
	andi	a3, t0, 7
	lbu	a4, 9(a2)
	lbu	a5, 8(a2)
	lbu	a0, 10(a2)
	lbu	a1, 11(a2)
	slli	a4, a4, 8
	or	a4, a4, a5
	slli	a0, a0, 16
	slli	a1, a1, 24
	or	a0, a0, a1
	or	t3, a0, a4
	srli	a1, t3, 1
	xori	a4, a3, 31
	srl	t0, a1, a4
.Ltmp704:
	lbu	t2, 1(a2)
	lbu	t1, 0(a2)
	lbu	a1, 2(a2)
	lbu	a5, 3(a2)
	slli	t2, t2, 8
	or	a0, t2, t1
	slli	a1, a1, 16
	slli	a5, a5, 24
	or	a1, a1, a5
	or	t1, a1, a0
	lbu	a1, 5(a2)
	lbu	a5, 4(a2)
	srli	a0, t1, 1
	srl	t2, a0, a4
	slli	a1, a1, 8
	or	a1, a1, a5
	lbu	a4, 6(a2)
	lbu	a2, 7(a2)
	sll	a5, a7, a3
	or	a0, a5, t0
	slli	a4, a4, 16
	slli	a2, a2, 24
	or	a2, a2, a4
	or	a1, a1, a2
	srli	a2, a1, 1
	not	a4, a3
	srl	a7, a2, a4
	sll	a4, t3, a3
.Ltmp705:
	.loc	15 56 17
	slli	a0, a0, 24
.Ltmp706:
	srli	a4, a4, 8
	or	a4, a4, a0
.Ltmp707:
	.loc	15 55 17
	srli	a5, a5, 8
.Ltmp708:
	.loc	15 56 36
	or	a2, t3, t1
	or	a1, a1, a2
	sll	a1, a1, a3
	or	a2, a7, t2
	or	a1, a1, a2
	snez	a1, a1
.Ltmp709:
	.loc	15 56 17 is_stmt 0
	or	a1, a1, a4
.Ltmp710:
	.loc	15 57 28 is_stmt 1
	srli	a0, a0, 31
	.loc	15 57 38 is_stmt 0
	not	a2, a5
	.loc	15 57 27
	and	a0, a0, a2
	.loc	15 57 22
	sub	a1, a1, a0
	.loc	15 57 21
	srli	a0, a1, 31
	.loc	15 57 17
	add	a5, a5, a6
.Ltmp711:
	.loc	15 59 9 is_stmt 1
	add	a0, a0, a5
.Ltmp712:
	.loc	4 493 10 epilogue_begin
	addi	sp, sp, 32
	ret
.Ltmp713:
.Lfunc_end24:
	.size	_ZN17compiler_builtins5float4conv13__floatuntisf17hd0593db5a4c251e5E, .Lfunc_end24-_ZN17compiler_builtins5float4conv13__floatuntisf17hd0593db5a4c251e5E
	.cfi_endproc

	.section	.text.__floatuntisf,"ax",@progbits
	.hidden	__floatuntisf
	.globl	__floatuntisf
	.p2align	1
	.type	__floatuntisf,@function
__floatuntisf:
.Lfunc_begin25:
	.loc	4 499 0
	.cfi_startproc
	lw	t2, 4(a0)
	lw	a2, 8(a0)
	lw	a1, 12(a0)
.Ltmp714:
	lui	a4, 349525
	addi	t1, a4, 1365
	lui	a4, 209715
	addi	a4, a4, 819
	lui	a5, 61681
	addi	a6, a5, -241
	lui	a5, 4112
	addi	a7, a5, 257
.Ltmp715:
	.loc	8 1205 5 prologue_end
	bnez	a1, .LBB25_3
.Ltmp716:
	.loc	8 0 5 is_stmt 0
	srli	a3, a2, 1
	or	a3, a3, a2
	srli	a5, a3, 2
	or	a3, a3, a5
	srli	a5, a3, 4
	or	a3, a3, a5
	srli	a5, a3, 8
	or	a3, a3, a5
	srli	a5, a3, 16
	or	a3, a3, a5
	not	a3, a3
	srli	a5, a3, 1
	and	a5, a5, t1
	sub	a3, a3, a5
	and	a5, a3, a4
	srli	a3, a3, 2
	and	a3, a3, a4
	add	a3, a3, a5
	srli	a5, a3, 4
	add	a3, a3, a5
	and	a3, a3, a6
	mul	a3, a3, a7
	srli	a3, a3, 24
	addi	t0, a3, 32
	lw	a5, 0(a0)
	.loc	8 1205 5
	beqz	t2, .LBB25_4
.LBB25_2:
	.loc	8 0 5
	srli	a0, t2, 1
	or	a0, t2, a0
	srli	a3, a0, 2
	or	a0, a0, a3
	srli	a3, a0, 4
	or	a0, a0, a3
	srli	a3, a0, 8
	or	a0, a0, a3
	srli	a3, a0, 16
	or	a0, a0, a3
	not	a0, a0
	srli	a3, a0, 1
	and	a3, a3, t1
	sub	a0, a0, a3
	and	a3, a0, a4
	srli	a0, a0, 2
	and	a0, a0, a4
	add	a0, a0, a3
	srli	a3, a0, 4
	add	a0, a0, a3
	and	a0, a0, a6
	mul	a0, a0, a7
	srli	a0, a0, 24
	.loc	8 1205 5
	or	a3, a2, a1
	beqz	a3, .LBB25_5
	j	.LBB25_6
.LBB25_3:
	.loc	8 0 5
	srli	a5, a1, 1
	or	a3, a1, a5
	srli	a5, a3, 2
	or	a3, a3, a5
	srli	a5, a3, 4
	or	a3, a3, a5
	srli	a5, a3, 8
	or	a3, a3, a5
	srli	a5, a3, 16
	or	a3, a3, a5
	not	a3, a3
	srli	a5, a3, 1
	and	a5, a5, t1
	sub	a3, a3, a5
	and	a5, a3, a4
	srli	a3, a3, 2
	and	a3, a3, a4
	add	a3, a3, a5
	srli	a5, a3, 4
	add	a3, a3, a5
	and	a3, a3, a6
	mul	a3, a3, a7
	srli	t0, a3, 24
	lw	a5, 0(a0)
	.loc	8 1205 5
	bnez	t2, .LBB25_2
.LBB25_4:
	.loc	8 0 5
	srli	a0, a5, 1
	or	a0, a0, a5
	srli	a3, a0, 2
	or	a0, a0, a3
	srli	a3, a0, 4
	or	a0, a0, a3
	srli	a3, a0, 8
	or	a0, a0, a3
	srli	a3, a0, 16
	or	a0, a0, a3
	not	a0, a0
	srli	a3, a0, 1
	and	a3, a3, t1
	sub	a0, a0, a3
	and	a3, a0, a4
	srli	a0, a0, 2
	and	a0, a0, a4
	add	a0, a0, a3
	srli	a3, a0, 4
	add	a0, a0, a3
	and	a0, a0, a6
	mul	a0, a0, a7
	srli	a0, a0, 24
	addi	a0, a0, 32
	.loc	8 1205 5
	or	a3, a2, a1
	bnez	a3, .LBB25_6
.Ltmp717:
.LBB25_5:
	.loc	8 0 5
	addi	t0, a0, 64
.LBB25_6:
.Ltmp718:
	addi	sp, sp, -32
	.cfi_def_cfa_offset 32
.Ltmp719:
	.loc	15 58 20 is_stmt 1
	or	a0, t2, a1
	or	a3, a5, a2
	or	a0, a0, a3
	seqz	a0, a0
	slli	a3, t0, 23
	lui	a4, 518144
	sub	a4, a4, a3
	addi	a0, a0, -1
	and	a6, a0, a4
.Ltmp720:
	.loc	8 1205 5
	sb	zero, 15(sp)
	sb	zero, 14(sp)
	sb	zero, 13(sp)
	sb	zero, 12(sp)
	sb	zero, 11(sp)
	sb	zero, 10(sp)
	sb	zero, 9(sp)
	sb	zero, 8(sp)
	sb	zero, 7(sp)
	sb	zero, 6(sp)
	sb	zero, 5(sp)
	sb	zero, 4(sp)
	sb	zero, 3(sp)
	sb	zero, 2(sp)
	sb	zero, 1(sp)
	sb	zero, 0(sp)
	sb	a1, 28(sp)
	sb	a2, 24(sp)
	sb	t2, 20(sp)
	sb	a5, 16(sp)
	srli	a3, a1, 24
	sb	a3, 31(sp)
	srli	a3, a1, 16
	sb	a3, 30(sp)
	srli	a1, a1, 8
	sb	a1, 29(sp)
	srli	a1, a2, 24
	sb	a1, 27(sp)
	srli	a1, a2, 16
	sb	a1, 26(sp)
	srli	a2, a2, 8
	sb	a2, 25(sp)
	srli	a1, t2, 24
	sb	a1, 23(sp)
	srli	a1, t2, 16
	sb	a1, 22(sp)
	srli	a1, t2, 8
	sb	a1, 21(sp)
	srli	a1, a5, 24
	sb	a1, 19(sp)
	srli	a1, a5, 16
	sb	a1, 18(sp)
	srli	a5, a5, 8
	sb	a5, 17(sp)
	slli	a1, t0, 25
	srli	a1, a1, 28
	addi	a2, sp, 16
	sub	a2, a2, a1
	lbu	a1, 13(a2)
	lbu	a3, 12(a2)
	lbu	a4, 14(a2)
	lbu	a5, 15(a2)
	slli	a1, a1, 8
	or	a1, a1, a3
	slli	a4, a4, 16
	slli	a5, a5, 24
	or	a4, a4, a5
	or	a7, a4, a1
	andi	a3, t0, 7
	lbu	a4, 9(a2)
	lbu	a5, 8(a2)
	lbu	a0, 10(a2)
	lbu	a1, 11(a2)
	slli	a4, a4, 8
	or	a4, a4, a5
	slli	a0, a0, 16
	slli	a1, a1, 24
	or	a0, a0, a1
	or	t3, a0, a4
	srli	a1, t3, 1
	xori	a4, a3, 31
	srl	t0, a1, a4
.Ltmp721:
	lbu	t2, 1(a2)
	lbu	t1, 0(a2)
	lbu	a1, 2(a2)
	lbu	a5, 3(a2)
	slli	t2, t2, 8
	or	a0, t2, t1
	slli	a1, a1, 16
	slli	a5, a5, 24
	or	a1, a1, a5
	or	t1, a1, a0
	lbu	a1, 5(a2)
	lbu	a5, 4(a2)
	srli	a0, t1, 1
	srl	t2, a0, a4
	slli	a1, a1, 8
	or	a1, a1, a5
	lbu	a4, 6(a2)
	lbu	a2, 7(a2)
	sll	a5, a7, a3
	or	a0, a5, t0
	slli	a4, a4, 16
	slli	a2, a2, 24
	or	a2, a2, a4
	or	a1, a1, a2
	srli	a2, a1, 1
	not	a4, a3
	srl	a7, a2, a4
	sll	a4, t3, a3
.Ltmp722:
	.loc	15 56 17
	slli	a0, a0, 24
.Ltmp723:
	srli	a4, a4, 8
	or	a4, a4, a0
.Ltmp724:
	.loc	15 55 17
	srli	a5, a5, 8
.Ltmp725:
	.loc	15 56 36
	or	a2, t3, t1
	or	a1, a1, a2
	sll	a1, a1, a3
	or	a2, a7, t2
	or	a1, a1, a2
	snez	a1, a1
.Ltmp726:
	.loc	15 56 17 is_stmt 0
	or	a1, a1, a4
.Ltmp727:
	.loc	15 57 28 is_stmt 1
	srli	a0, a0, 31
	.loc	15 57 38 is_stmt 0
	not	a2, a5
	.loc	15 57 27
	and	a0, a0, a2
	.loc	15 57 22
	sub	a1, a1, a0
	.loc	15 57 21
	srli	a0, a1, 31
	.loc	15 57 17
	add	a5, a5, a6
.Ltmp728:
	.loc	15 59 9 is_stmt 1
	add	a0, a0, a5
.Ltmp729:
	.loc	4 501 14 epilogue_begin
	addi	sp, sp, 32
	ret
.Ltmp730:
.Lfunc_end25:
	.size	__floatuntisf, .Lfunc_end25-__floatuntisf
	.cfi_endproc

	.section	.text._ZN17compiler_builtins5float4conv13__floatuntidf17haa67465ef9a8368eE,"ax",@progbits
	.hidden	_ZN17compiler_builtins5float4conv13__floatuntidf17haa67465ef9a8368eE
	.globl	_ZN17compiler_builtins5float4conv13__floatuntidf17haa67465ef9a8368eE
	.p2align	1
	.type	_ZN17compiler_builtins5float4conv13__floatuntidf17haa67465ef9a8368eE,@function
_ZN17compiler_builtins5float4conv13__floatuntidf17haa67465ef9a8368eE:
.Lfunc_begin26:
	.loc	4 491 0
	.cfi_startproc
	lw	t2, 4(a0)
	lw	a2, 8(a0)
	lw	a1, 12(a0)
.Ltmp731:
	lui	a4, 349525
	addi	t1, a4, 1365
	lui	a4, 209715
	addi	a4, a4, 819
	lui	a5, 61681
	addi	a6, a5, -241
	lui	a5, 4112
	addi	a7, a5, 257
.Ltmp732:
	.loc	8 1205 5 prologue_end
	bnez	a1, .LBB26_3
.Ltmp733:
	.loc	8 0 5 is_stmt 0
	srli	a3, a2, 1
	or	a3, a3, a2
	srli	a5, a3, 2
	or	a3, a3, a5
	srli	a5, a3, 4
	or	a3, a3, a5
	srli	a5, a3, 8
	or	a3, a3, a5
	srli	a5, a3, 16
	or	a3, a3, a5
	not	a3, a3
	srli	a5, a3, 1
	and	a5, a5, t1
	sub	a3, a3, a5
	and	a5, a3, a4
	srli	a3, a3, 2
	and	a3, a3, a4
	add	a3, a3, a5
	srli	a5, a3, 4
	add	a3, a3, a5
	and	a3, a3, a6
	mul	a3, a3, a7
	srli	a3, a3, 24
	addi	t0, a3, 32
	lw	a5, 0(a0)
	.loc	8 1205 5
	beqz	t2, .LBB26_4
.LBB26_2:
	.loc	8 0 5
	srli	a0, t2, 1
	or	a0, t2, a0
	srli	a3, a0, 2
	or	a0, a0, a3
	srli	a3, a0, 4
	or	a0, a0, a3
	srli	a3, a0, 8
	or	a0, a0, a3
	srli	a3, a0, 16
	or	a0, a0, a3
	not	a0, a0
	srli	a3, a0, 1
	and	a3, a3, t1
	sub	a0, a0, a3
	and	a3, a0, a4
	srli	a0, a0, 2
	and	a0, a0, a4
	add	a0, a0, a3
	srli	a3, a0, 4
	add	a0, a0, a3
	and	a0, a0, a6
	mul	a0, a0, a7
	srli	a0, a0, 24
	.loc	8 1205 5
	or	a3, a2, a1
	beqz	a3, .LBB26_5
	j	.LBB26_6
.LBB26_3:
	.loc	8 0 5
	srli	a5, a1, 1
	or	a3, a1, a5
	srli	a5, a3, 2
	or	a3, a3, a5
	srli	a5, a3, 4
	or	a3, a3, a5
	srli	a5, a3, 8
	or	a3, a3, a5
	srli	a5, a3, 16
	or	a3, a3, a5
	not	a3, a3
	srli	a5, a3, 1
	and	a5, a5, t1
	sub	a3, a3, a5
	and	a5, a3, a4
	srli	a3, a3, 2
	and	a3, a3, a4
	add	a3, a3, a5
	srli	a5, a3, 4
	add	a3, a3, a5
	and	a3, a3, a6
	mul	a3, a3, a7
	srli	t0, a3, 24
	lw	a5, 0(a0)
	.loc	8 1205 5
	bnez	t2, .LBB26_2
.LBB26_4:
	.loc	8 0 5
	srli	a0, a5, 1
	or	a0, a0, a5
	srli	a3, a0, 2
	or	a0, a0, a3
	srli	a3, a0, 4
	or	a0, a0, a3
	srli	a3, a0, 8
	or	a0, a0, a3
	srli	a3, a0, 16
	or	a0, a0, a3
	not	a0, a0
	srli	a3, a0, 1
	and	a3, a3, t1
	sub	a0, a0, a3
	and	a3, a0, a4
	srli	a0, a0, 2
	and	a0, a0, a4
	add	a0, a0, a3
	srli	a3, a0, 4
	add	a0, a0, a3
	and	a0, a0, a6
	mul	a0, a0, a7
	srli	a0, a0, 24
	addi	a0, a0, 32
	.loc	8 1205 5
	or	a3, a2, a1
	bnez	a3, .LBB26_6
.Ltmp734:
.LBB26_5:
	.loc	8 0 5
	addi	t0, a0, 64
.LBB26_6:
.Ltmp735:
	addi	sp, sp, -32
	.cfi_def_cfa_offset 32
.Ltmp736:
	.loc	15 68 20 is_stmt 1
	or	a0, t2, a1
	or	a3, a5, a2
	or	a0, a0, a3
	seqz	a0, a0
	slli	a3, t0, 20
	lui	a4, 294144
	sub	a4, a4, a3
	addi	a0, a0, -1
	and	a6, a0, a4
.Ltmp737:
	.loc	8 1205 5
	sb	zero, 15(sp)
	sb	zero, 14(sp)
	sb	zero, 13(sp)
	sb	zero, 12(sp)
	sb	zero, 11(sp)
	sb	zero, 10(sp)
	sb	zero, 9(sp)
	sb	zero, 8(sp)
	sb	zero, 7(sp)
	sb	zero, 6(sp)
	sb	zero, 5(sp)
	sb	zero, 4(sp)
	sb	zero, 3(sp)
	sb	zero, 2(sp)
	sb	zero, 1(sp)
	sb	zero, 0(sp)
	sb	a1, 28(sp)
	sb	a2, 24(sp)
	sb	t2, 20(sp)
	sb	a5, 16(sp)
	srli	a3, a1, 24
	sb	a3, 31(sp)
	srli	a3, a1, 16
	sb	a3, 30(sp)
	srli	a1, a1, 8
	sb	a1, 29(sp)
	srli	a1, a2, 24
	sb	a1, 27(sp)
	srli	a1, a2, 16
	sb	a1, 26(sp)
	srli	a2, a2, 8
	sb	a2, 25(sp)
	srli	a1, t2, 24
	sb	a1, 23(sp)
	srli	a1, t2, 16
	sb	a1, 22(sp)
	srli	a1, t2, 8
	sb	a1, 21(sp)
	srli	a1, a5, 24
	sb	a1, 19(sp)
	srli	a1, a5, 16
	sb	a1, 18(sp)
	srli	a5, a5, 8
	sb	a5, 17(sp)
	slli	a1, t0, 25
	srli	a1, a1, 28
	addi	a2, sp, 16
	sub	a2, a2, a1
	lbu	a1, 5(a2)
	lbu	a3, 4(a2)
	lbu	a4, 6(a2)
	lbu	a5, 7(a2)
	slli	a1, a1, 8
	or	a1, a1, a3
	slli	a4, a4, 16
	slli	a5, a5, 24
	or	a4, a4, a5
	or	t1, a4, a1
	andi	a3, t0, 7
	sll	a7, t1, a3
	lbu	a5, 1(a2)
	lbu	a0, 0(a2)
	lbu	a4, 2(a2)
	lbu	a1, 3(a2)
	slli	a5, a5, 8
	or	a0, a0, a5
	slli	a4, a4, 16
	slli	a1, a1, 24
	or	a1, a1, a4
	or	t2, a1, a0
	srli	t0, t2, 1
.Ltmp738:
	lbu	a4, 13(a2)
	lbu	a5, 12(a2)
	lbu	a1, 14(a2)
	lbu	a0, 15(a2)
	slli	a4, a4, 8
	or	a4, a4, a5
	slli	a1, a1, 16
	slli	a0, a0, 24
	or	a0, a0, a1
	or	t3, a0, a4
	lbu	a1, 9(a2)
	lbu	a4, 8(a2)
	xori	a5, a3, 31
	srl	a0, t0, a5
	slli	a1, a1, 8
	or	a1, a1, a4
	lbu	a4, 10(a2)
	lbu	a2, 11(a2)
	or	t0, a7, a0
	sll	a0, t3, a3
	slli	a4, a4, 16
	slli	a2, a2, 24
	or	a2, a2, a4
	or	a1, a1, a2
	srli	a2, a1, 1
	srl	a2, a2, a5
	or	a2, a2, a0
	sll	a1, a1, a3
	srli	a4, t1, 1
	not	a5, a3
	srl	a4, a4, a5
	or	a4, a4, a1
	sll	a3, t2, a3
.Ltmp739:
	.loc	15 66 18
	slli	a4, a4, 21
.Ltmp740:
	srli	a5, a7, 11
	or	a5, a5, a4
.Ltmp741:
	.loc	15 65 17
	slli	a2, a2, 21
.Ltmp742:
	srli	a1, a1, 11
	or	a1, a1, a2
.Ltmp743:
	.loc	15 66 18
	slli	t0, t0, 21
.Ltmp744:
	srli	a2, a3, 11
.Ltmp745:
	.loc	15 65 17
	srli	a0, a0, 11
.Ltmp746:
	.loc	15 66 18
	or	a2, a2, a3
.Ltmp747:
	.loc	15 66 17 is_stmt 0
	or	a2, a2, t0
.Ltmp748:
	.loc	15 67 28 is_stmt 1
	srli	a4, a4, 31
	.loc	15 67 38 is_stmt 0
	not	a3, a1
.Ltmp749:
	.loc	15 67 27
	and	a3, a3, a4
	.loc	15 67 22
	sltu	a2, a2, a3
.Ltmp750:
	sub	a5, a5, a2
	.loc	15 67 21
	srli	a5, a5, 31
	.loc	15 67 17
	add	a6, a6, a0
.Ltmp751:
	.loc	15 69 9 is_stmt 1
	add	a0, a1, a5
.Ltmp752:
	sltu	a1, a0, a1
.Ltmp753:
	add	a1, a1, a6
.Ltmp754:
	.loc	4 493 10 epilogue_begin
	addi	sp, sp, 32
	ret
.Ltmp755:
.Lfunc_end26:
	.size	_ZN17compiler_builtins5float4conv13__floatuntidf17haa67465ef9a8368eE, .Lfunc_end26-_ZN17compiler_builtins5float4conv13__floatuntidf17haa67465ef9a8368eE
	.cfi_endproc

	.section	.text.__floatuntidf,"ax",@progbits
	.hidden	__floatuntidf
	.globl	__floatuntidf
	.p2align	1
	.type	__floatuntidf,@function
__floatuntidf:
.Lfunc_begin27:
	.loc	4 499 0
	.cfi_startproc
	lw	t2, 4(a0)
	lw	a2, 8(a0)
	lw	a1, 12(a0)
.Ltmp756:
	lui	a4, 349525
	addi	t1, a4, 1365
	lui	a4, 209715
	addi	a4, a4, 819
	lui	a5, 61681
	addi	a6, a5, -241
	lui	a5, 4112
	addi	a7, a5, 257
.Ltmp757:
	.loc	8 1205 5 prologue_end
	bnez	a1, .LBB27_3
.Ltmp758:
	.loc	8 0 5 is_stmt 0
	srli	a3, a2, 1
	or	a3, a3, a2
	srli	a5, a3, 2
	or	a3, a3, a5
	srli	a5, a3, 4
	or	a3, a3, a5
	srli	a5, a3, 8
	or	a3, a3, a5
	srli	a5, a3, 16
	or	a3, a3, a5
	not	a3, a3
	srli	a5, a3, 1
	and	a5, a5, t1
	sub	a3, a3, a5
	and	a5, a3, a4
	srli	a3, a3, 2
	and	a3, a3, a4
	add	a3, a3, a5
	srli	a5, a3, 4
	add	a3, a3, a5
	and	a3, a3, a6
	mul	a3, a3, a7
	srli	a3, a3, 24
	addi	t0, a3, 32
	lw	a5, 0(a0)
	.loc	8 1205 5
	beqz	t2, .LBB27_4
.LBB27_2:
	.loc	8 0 5
	srli	a0, t2, 1
	or	a0, t2, a0
	srli	a3, a0, 2
	or	a0, a0, a3
	srli	a3, a0, 4
	or	a0, a0, a3
	srli	a3, a0, 8
	or	a0, a0, a3
	srli	a3, a0, 16
	or	a0, a0, a3
	not	a0, a0
	srli	a3, a0, 1
	and	a3, a3, t1
	sub	a0, a0, a3
	and	a3, a0, a4
	srli	a0, a0, 2
	and	a0, a0, a4
	add	a0, a0, a3
	srli	a3, a0, 4
	add	a0, a0, a3
	and	a0, a0, a6
	mul	a0, a0, a7
	srli	a0, a0, 24
	.loc	8 1205 5
	or	a3, a2, a1
	beqz	a3, .LBB27_5
	j	.LBB27_6
.LBB27_3:
	.loc	8 0 5
	srli	a5, a1, 1
	or	a3, a1, a5
	srli	a5, a3, 2
	or	a3, a3, a5
	srli	a5, a3, 4
	or	a3, a3, a5
	srli	a5, a3, 8
	or	a3, a3, a5
	srli	a5, a3, 16
	or	a3, a3, a5
	not	a3, a3
	srli	a5, a3, 1
	and	a5, a5, t1
	sub	a3, a3, a5
	and	a5, a3, a4
	srli	a3, a3, 2
	and	a3, a3, a4
	add	a3, a3, a5
	srli	a5, a3, 4
	add	a3, a3, a5
	and	a3, a3, a6
	mul	a3, a3, a7
	srli	t0, a3, 24
	lw	a5, 0(a0)
	.loc	8 1205 5
	bnez	t2, .LBB27_2
.LBB27_4:
	.loc	8 0 5
	srli	a0, a5, 1
	or	a0, a0, a5
	srli	a3, a0, 2
	or	a0, a0, a3
	srli	a3, a0, 4
	or	a0, a0, a3
	srli	a3, a0, 8
	or	a0, a0, a3
	srli	a3, a0, 16
	or	a0, a0, a3
	not	a0, a0
	srli	a3, a0, 1
	and	a3, a3, t1
	sub	a0, a0, a3
	and	a3, a0, a4
	srli	a0, a0, 2
	and	a0, a0, a4
	add	a0, a0, a3
	srli	a3, a0, 4
	add	a0, a0, a3
	and	a0, a0, a6
	mul	a0, a0, a7
	srli	a0, a0, 24
	addi	a0, a0, 32
	.loc	8 1205 5
	or	a3, a2, a1
	bnez	a3, .LBB27_6
.Ltmp759:
.LBB27_5:
	.loc	8 0 5
	addi	t0, a0, 64
.LBB27_6:
.Ltmp760:
	addi	sp, sp, -32
	.cfi_def_cfa_offset 32
.Ltmp761:
	.loc	15 68 20 is_stmt 1
	or	a0, t2, a1
	or	a3, a5, a2
	or	a0, a0, a3
	seqz	a0, a0
	slli	a3, t0, 20
	lui	a4, 294144
	sub	a4, a4, a3
	addi	a0, a0, -1
	and	a6, a0, a4
.Ltmp762:
	.loc	8 1205 5
	sb	zero, 15(sp)
	sb	zero, 14(sp)
	sb	zero, 13(sp)
	sb	zero, 12(sp)
	sb	zero, 11(sp)
	sb	zero, 10(sp)
	sb	zero, 9(sp)
	sb	zero, 8(sp)
	sb	zero, 7(sp)
	sb	zero, 6(sp)
	sb	zero, 5(sp)
	sb	zero, 4(sp)
	sb	zero, 3(sp)
	sb	zero, 2(sp)
	sb	zero, 1(sp)
	sb	zero, 0(sp)
	sb	a1, 28(sp)
	sb	a2, 24(sp)
	sb	t2, 20(sp)
	sb	a5, 16(sp)
	srli	a3, a1, 24
	sb	a3, 31(sp)
	srli	a3, a1, 16
	sb	a3, 30(sp)
	srli	a1, a1, 8
	sb	a1, 29(sp)
	srli	a1, a2, 24
	sb	a1, 27(sp)
	srli	a1, a2, 16
	sb	a1, 26(sp)
	srli	a2, a2, 8
	sb	a2, 25(sp)
	srli	a1, t2, 24
	sb	a1, 23(sp)
	srli	a1, t2, 16
	sb	a1, 22(sp)
	srli	a1, t2, 8
	sb	a1, 21(sp)
	srli	a1, a5, 24
	sb	a1, 19(sp)
	srli	a1, a5, 16
	sb	a1, 18(sp)
	srli	a5, a5, 8
	sb	a5, 17(sp)
	slli	a1, t0, 25
	srli	a1, a1, 28
	addi	a2, sp, 16
	sub	a2, a2, a1
	lbu	a1, 5(a2)
	lbu	a3, 4(a2)
	lbu	a4, 6(a2)
	lbu	a5, 7(a2)
	slli	a1, a1, 8
	or	a1, a1, a3
	slli	a4, a4, 16
	slli	a5, a5, 24
	or	a4, a4, a5
	or	t1, a4, a1
	andi	a3, t0, 7
	sll	a7, t1, a3
	lbu	a5, 1(a2)
	lbu	a0, 0(a2)
	lbu	a4, 2(a2)
	lbu	a1, 3(a2)
	slli	a5, a5, 8
	or	a0, a0, a5
	slli	a4, a4, 16
	slli	a1, a1, 24
	or	a1, a1, a4
	or	t2, a1, a0
	srli	t0, t2, 1
.Ltmp763:
	lbu	a4, 13(a2)
	lbu	a5, 12(a2)
	lbu	a1, 14(a2)
	lbu	a0, 15(a2)
	slli	a4, a4, 8
	or	a4, a4, a5
	slli	a1, a1, 16
	slli	a0, a0, 24
	or	a0, a0, a1
	or	t3, a0, a4
	lbu	a1, 9(a2)
	lbu	a4, 8(a2)
	xori	a5, a3, 31
	srl	a0, t0, a5
	slli	a1, a1, 8
	or	a1, a1, a4
	lbu	a4, 10(a2)
	lbu	a2, 11(a2)
	or	t0, a7, a0
	sll	a0, t3, a3
	slli	a4, a4, 16
	slli	a2, a2, 24
	or	a2, a2, a4
	or	a1, a1, a2
	srli	a2, a1, 1
	srl	a2, a2, a5
	or	a2, a2, a0
	sll	a1, a1, a3
	srli	a4, t1, 1
	not	a5, a3
	srl	a4, a4, a5
	or	a4, a4, a1
	sll	a3, t2, a3
.Ltmp764:
	.loc	15 66 18
	slli	a4, a4, 21
.Ltmp765:
	srli	a5, a7, 11
	or	a5, a5, a4
.Ltmp766:
	.loc	15 65 17
	slli	a2, a2, 21
.Ltmp767:
	srli	a1, a1, 11
	or	a1, a1, a2
.Ltmp768:
	.loc	15 66 18
	slli	t0, t0, 21
.Ltmp769:
	srli	a2, a3, 11
.Ltmp770:
	.loc	15 65 17
	srli	a0, a0, 11
.Ltmp771:
	.loc	15 66 18
	or	a2, a2, a3
.Ltmp772:
	.loc	15 66 17 is_stmt 0
	or	a2, a2, t0
.Ltmp773:
	.loc	15 67 28 is_stmt 1
	srli	a4, a4, 31
	.loc	15 67 38 is_stmt 0
	not	a3, a1
.Ltmp774:
	.loc	15 67 27
	and	a3, a3, a4
	.loc	15 67 22
	sltu	a2, a2, a3
.Ltmp775:
	sub	a5, a5, a2
	.loc	15 67 21
	srli	a5, a5, 31
	.loc	15 67 17
	add	a6, a6, a0
.Ltmp776:
	.loc	15 69 9 is_stmt 1
	add	a0, a1, a5
.Ltmp777:
	sltu	a1, a0, a1
.Ltmp778:
	add	a1, a1, a6
.Ltmp779:
	.loc	4 501 14 epilogue_begin
	addi	sp, sp, 32
	ret
.Ltmp780:
.Lfunc_end27:
	.size	__floatuntidf, .Lfunc_end27-__floatuntidf
	.cfi_endproc

	.section	.text._ZN17compiler_builtins5float4conv11__floatsisf17h09112a3511a6ce7dE,"ax",@progbits
	.hidden	_ZN17compiler_builtins5float4conv11__floatsisf17h09112a3511a6ce7dE
	.globl	_ZN17compiler_builtins5float4conv11__floatsisf17h09112a3511a6ce7dE
	.p2align	1
	.type	_ZN17compiler_builtins5float4conv11__floatsisf17h09112a3511a6ce7dE,@function
_ZN17compiler_builtins5float4conv11__floatsisf17h09112a3511a6ce7dE:
.Lfunc_begin28:
	.cfi_startproc
	.loc	15 9 12 prologue_end
	beqz	a0, .LBB28_2
.Ltmp781:
	.loc	8 347 5
	srai	a1, a0, 31
	xor	a2, a0, a1
	sub	a2, a2, a1
.Ltmp782:
	.loc	8 1157 5
	srli	a1, a2, 1
	or	a1, a1, a2
	srli	a3, a1, 2
	or	a1, a1, a3
	srli	a3, a1, 4
	or	a1, a1, a3
	srli	a3, a1, 8
	or	a1, a1, a3
	srli	a3, a1, 16
	or	a1, a1, a3
	not	a1, a1
	srli	a3, a1, 1
	lui	a4, 349525
	addi	a4, a4, 1365
	and	a3, a3, a4
	sub	a1, a1, a3
	lui	a3, 209715
	addi	a3, a3, 819
	and	a4, a1, a3
	srli	a1, a1, 2
	and	a1, a1, a3
	add	a1, a1, a4
	srli	a3, a1, 4
	add	a1, a1, a3
	lui	a3, 61681
	addi	a3, a3, -241
	and	a1, a1, a3
	lui	a3, 4112
	addi	a3, a3, 257
	mul	a1, a1, a3
	srli	a1, a1, 24
.Ltmp783:
	.loc	15 13 17
	sll	a2, a2, a1
.Ltmp784:
	srli	a3, a2, 8
.Ltmp785:
	.loc	15 14 17
	slli	a2, a2, 24
.Ltmp786:
	.loc	15 15 28
	srli	a4, a2, 31
	.loc	15 15 38 is_stmt 0
	not	a5, a3
	.loc	15 15 27
	and	a4, a4, a5
	.loc	15 15 22
	sub	a2, a2, a4
.Ltmp787:
	.loc	15 15 21
	srli	a2, a2, 31
.Ltmp788:
	.loc	15 17 9 is_stmt 1
	slli	a1, a1, 23
.Ltmp789:
	sub	a3, a3, a1
.Ltmp790:
	.loc	15 0 9 is_stmt 0
	lui	a1, 321536
	.loc	15 17 9
	add	a1, a1, a3
	add	a1, a1, a2
	lui	a2, 524288
.Ltmp791:
	.loc	15 110 24 is_stmt 1
	and	a0, a0, a2
.Ltmp792:
	.loc	15 111 24
	or	a0, a0, a1
.Ltmp793:
	.loc	4 493 10
	ret
.Ltmp794:
.LBB28_2:
	.loc	4 0 10 is_stmt 0
	lui	a2, 524288
	.loc	15 110 24 is_stmt 1
	and	a0, a0, a2
.Ltmp795:
	.loc	15 111 24
	or	a0, zero, a0
.Ltmp796:
	.loc	4 493 10
	ret
.Ltmp797:
.Lfunc_end28:
	.size	_ZN17compiler_builtins5float4conv11__floatsisf17h09112a3511a6ce7dE, .Lfunc_end28-_ZN17compiler_builtins5float4conv11__floatsisf17h09112a3511a6ce7dE
	.cfi_endproc

	.section	.text.__floatsisf,"ax",@progbits
	.hidden	__floatsisf
	.globl	__floatsisf
	.p2align	1
	.type	__floatsisf,@function
__floatsisf:
.Lfunc_begin29:
	.cfi_startproc
	.loc	15 9 12 prologue_end
	beqz	a0, .LBB29_2
.Ltmp798:
	.loc	8 347 5
	srai	a1, a0, 31
	xor	a2, a0, a1
	sub	a2, a2, a1
.Ltmp799:
	.loc	8 1157 5
	srli	a1, a2, 1
	or	a1, a1, a2
	srli	a3, a1, 2
	or	a1, a1, a3
	srli	a3, a1, 4
	or	a1, a1, a3
	srli	a3, a1, 8
	or	a1, a1, a3
	srli	a3, a1, 16
	or	a1, a1, a3
	not	a1, a1
	srli	a3, a1, 1
	lui	a4, 349525
	addi	a4, a4, 1365
	and	a3, a3, a4
	sub	a1, a1, a3
	lui	a3, 209715
	addi	a3, a3, 819
	and	a4, a1, a3
	srli	a1, a1, 2
	and	a1, a1, a3
	add	a1, a1, a4
	srli	a3, a1, 4
	add	a1, a1, a3
	lui	a3, 61681
	addi	a3, a3, -241
	and	a1, a1, a3
	lui	a3, 4112
	addi	a3, a3, 257
	mul	a1, a1, a3
	srli	a1, a1, 24
.Ltmp800:
	.loc	15 13 17
	sll	a2, a2, a1
.Ltmp801:
	srli	a3, a2, 8
.Ltmp802:
	.loc	15 14 17
	slli	a2, a2, 24
.Ltmp803:
	.loc	15 15 28
	srli	a4, a2, 31
	.loc	15 15 38 is_stmt 0
	not	a5, a3
	.loc	15 15 27
	and	a4, a4, a5
	.loc	15 15 22
	sub	a2, a2, a4
.Ltmp804:
	.loc	15 15 21
	srli	a2, a2, 31
.Ltmp805:
	.loc	15 17 9 is_stmt 1
	slli	a1, a1, 23
.Ltmp806:
	sub	a3, a3, a1
.Ltmp807:
	.loc	15 0 9 is_stmt 0
	lui	a1, 321536
	.loc	15 17 9
	add	a1, a1, a3
	add	a1, a1, a2
	lui	a2, 524288
.Ltmp808:
	.loc	15 110 24 is_stmt 1
	and	a0, a0, a2
.Ltmp809:
	.loc	15 111 24
	or	a0, a0, a1
.Ltmp810:
	.loc	4 501 14
	ret
.Ltmp811:
.LBB29_2:
	.loc	4 0 14 is_stmt 0
	lui	a2, 524288
.Ltmp812:
	.loc	15 110 24 is_stmt 1
	and	a0, a0, a2
.Ltmp813:
	.loc	15 111 24
	or	a0, zero, a0
.Ltmp814:
	.loc	4 501 14
	ret
.Ltmp815:
.Lfunc_end29:
	.size	__floatsisf, .Lfunc_end29-__floatsisf
	.cfi_endproc

	.section	.text._ZN17compiler_builtins5float4conv11__floatsidf17h1b1e6e8b0d905c8dE,"ax",@progbits
	.hidden	_ZN17compiler_builtins5float4conv11__floatsidf17h1b1e6e8b0d905c8dE
	.globl	_ZN17compiler_builtins5float4conv11__floatsidf17h1b1e6e8b0d905c8dE
	.p2align	1
	.type	_ZN17compiler_builtins5float4conv11__floatsidf17h1b1e6e8b0d905c8dE,@function
_ZN17compiler_builtins5float4conv11__floatsidf17h1b1e6e8b0d905c8dE:
.Lfunc_begin30:
	.cfi_startproc
	.loc	15 21 12 prologue_end
	beqz	a0, .LBB30_3
.Ltmp816:
	.loc	8 347 5
	srai	a1, a0, 31
	xor	a2, a0, a1
	sub	a1, a2, a1
.Ltmp817:
	.loc	8 1157 5
	srli	a6, a1, 1
	or	a2, a1, a6
	srli	a3, a2, 2
	or	a2, a2, a3
	srli	a3, a2, 4
	or	a2, a2, a3
	srli	a3, a2, 8
	or	a2, a2, a3
	srli	a3, a2, 16
	or	a2, a2, a3
	not	a2, a2
	srli	a3, a2, 1
	lui	a4, 349525
	addi	a4, a4, 1365
	and	a3, a3, a4
	sub	a2, a2, a3
	lui	a3, 209715
	addi	a3, a3, 819
	and	a4, a2, a3
	srli	a2, a2, 2
	and	a2, a2, a3
	add	a2, a2, a4
	srli	a3, a2, 4
	add	a2, a2, a3
	lui	a3, 61681
	addi	a3, a3, -241
	and	a2, a2, a3
	lui	a3, 4112
	addi	a3, a3, 257
	mul	a3, a2, a3
	srli	a3, a3, 24
.Ltmp818:
	.loc	15 25 17
	addi	a4, a3, -11
	.loc	15 25 31 is_stmt 0
	addi	a2, a3, 21
	.loc	15 25 17
	bltz	a4, .LBB30_4
.Ltmp819:
	.loc	15 0 17
	sll	a5, a1, a4
	j	.LBB30_5
.Ltmp820:
.LBB30_3:
	li	a2, 0
	li	a5, 0
	j	.LBB30_6
.Ltmp821:
.LBB30_4:
	li	a5, 10
	sub	a5, a5, a3
	srl	a5, a6, a5
.Ltmp822:
.LBB30_5:
	.loc	15 25 17
	sll	a1, a1, a2
.Ltmp823:
	srai	a2, a4, 31
	and	a2, a2, a1
	li	a1, 1053
.Ltmp824:
	.loc	15 26 17 is_stmt 1
	sub	a1, a1, a3
.Ltmp825:
	.loc	15 27 9
	slli	a1, a1, 20
.Ltmp826:
	add	a5, a5, a1
.Ltmp827:
.LBB30_6:
	.loc	15 0 9 is_stmt 0
	lui	a1, 524288
	.loc	15 116 24 is_stmt 1
	and	a0, a0, a1
.Ltmp828:
	.loc	15 117 24
	or	a1, a5, a0
.Ltmp829:
	.loc	4 493 10
	mv	a0, a2
.Ltmp830:
	ret
.Ltmp831:
.Lfunc_end30:
	.size	_ZN17compiler_builtins5float4conv11__floatsidf17h1b1e6e8b0d905c8dE, .Lfunc_end30-_ZN17compiler_builtins5float4conv11__floatsidf17h1b1e6e8b0d905c8dE
	.cfi_endproc

	.section	.text.__floatsidf,"ax",@progbits
	.hidden	__floatsidf
	.globl	__floatsidf
	.p2align	1
	.type	__floatsidf,@function
__floatsidf:
.Lfunc_begin31:
	.cfi_startproc
	.loc	15 21 12 prologue_end
	beqz	a0, .LBB31_3
.Ltmp832:
	.loc	8 347 5
	srai	a1, a0, 31
	xor	a2, a0, a1
	sub	a1, a2, a1
.Ltmp833:
	.loc	8 1157 5
	srli	a6, a1, 1
	or	a2, a1, a6
	srli	a3, a2, 2
	or	a2, a2, a3
	srli	a3, a2, 4
	or	a2, a2, a3
	srli	a3, a2, 8
	or	a2, a2, a3
	srli	a3, a2, 16
	or	a2, a2, a3
	not	a2, a2
	srli	a3, a2, 1
	lui	a4, 349525
	addi	a4, a4, 1365
	and	a3, a3, a4
	sub	a2, a2, a3
	lui	a3, 209715
	addi	a3, a3, 819
	and	a4, a2, a3
	srli	a2, a2, 2
	and	a2, a2, a3
	add	a2, a2, a4
	srli	a3, a2, 4
	add	a2, a2, a3
	lui	a3, 61681
	addi	a3, a3, -241
	and	a2, a2, a3
	lui	a3, 4112
	addi	a3, a3, 257
	mul	a3, a2, a3
	srli	a3, a3, 24
.Ltmp834:
	.loc	15 25 17
	addi	a4, a3, -11
	.loc	15 25 31 is_stmt 0
	addi	a2, a3, 21
	.loc	15 25 17
	bltz	a4, .LBB31_4
.Ltmp835:
	.loc	15 0 17
	sll	a5, a1, a4
	j	.LBB31_5
.Ltmp836:
.LBB31_3:
	li	a2, 0
	li	a5, 0
	j	.LBB31_6
.Ltmp837:
.LBB31_4:
	li	a5, 10
	sub	a5, a5, a3
	srl	a5, a6, a5
.Ltmp838:
.LBB31_5:
	.loc	15 25 17
	sll	a1, a1, a2
.Ltmp839:
	srai	a2, a4, 31
	and	a2, a2, a1
	li	a1, 1053
.Ltmp840:
	.loc	15 26 17 is_stmt 1
	sub	a1, a1, a3
.Ltmp841:
	.loc	15 27 9
	slli	a1, a1, 20
.Ltmp842:
	add	a5, a5, a1
.Ltmp843:
.LBB31_6:
	.loc	15 0 9 is_stmt 0
	lui	a1, 524288
	.loc	15 116 24 is_stmt 1
	and	a0, a0, a1
.Ltmp844:
	.loc	15 117 24
	or	a1, a5, a0
.Ltmp845:
	.loc	4 501 14
	mv	a0, a2
.Ltmp846:
	ret
.Ltmp847:
.Lfunc_end31:
	.size	__floatsidf, .Lfunc_end31-__floatsidf
	.cfi_endproc

	.section	.text._ZN17compiler_builtins5float4conv11__floatdisf17h6583a275632dec0dE,"ax",@progbits
	.hidden	_ZN17compiler_builtins5float4conv11__floatdisf17h6583a275632dec0dE
	.globl	_ZN17compiler_builtins5float4conv11__floatdisf17h6583a275632dec0dE
	.p2align	1
	.type	_ZN17compiler_builtins5float4conv11__floatdisf17h6583a275632dec0dE,@function
_ZN17compiler_builtins5float4conv11__floatdisf17h6583a275632dec0dE:
.Lfunc_begin32:
	.cfi_startproc
	.loc	8 370 5 prologue_end
	bltz	a1, .LBB32_2
.Ltmp848:
	.loc	8 0 5 is_stmt 0
	mv	t2, a1
	mv	t3, a0
	j	.LBB32_3
.Ltmp849:
.LBB32_2:
	snez	a2, a0
.Ltmp850:
	neg	a3, a1
	sub	t2, a3, a2
	neg	t3, a0
.Ltmp851:
.LBB32_3:
	lui	a6, 524288
.Ltmp852:
	.loc	8 1181 5 is_stmt 1
	srli	a7, t3, 1
	lui	a4, 349525
	addi	a5, a4, 1365
	lui	a4, 209715
	addi	a4, a4, 819
	lui	a3, 61681
	addi	t1, a3, -241
	lui	a3, 4112
	addi	t0, a3, 257
	bnez	t2, .LBB32_5
.Ltmp853:
	.loc	8 0 5 is_stmt 0
	or	a2, t3, a7
	srli	a3, a2, 2
	or	a2, a2, a3
	srli	a3, a2, 4
	or	a2, a2, a3
	srli	a3, a2, 8
	or	a2, a2, a3
	srli	a3, a2, 16
	or	a2, a2, a3
	not	a2, a2
	srli	a3, a2, 1
	and	a3, a3, a5
	sub	a2, a2, a3
	and	a3, a2, a4
	srli	a2, a2, 2
	and	a2, a2, a4
	add	a2, a2, a3
	srli	a3, a2, 4
	add	a2, a2, a3
	and	a2, a2, t1
	mul	a2, a2, t0
	srli	a2, a2, 24
	addi	a5, a2, 32
	j	.LBB32_6
.Ltmp854:
.LBB32_5:
	srli	a3, t2, 1
	or	a2, t2, a3
	srli	a3, a2, 2
	or	a2, a2, a3
	srli	a3, a2, 4
	or	a2, a2, a3
	srli	a3, a2, 8
	or	a2, a2, a3
	srli	a3, a2, 16
	or	a2, a2, a3
	not	a2, a2
	srli	a3, a2, 1
	and	a3, a3, a5
	sub	a2, a2, a3
	and	a3, a2, a4
	srli	a2, a2, 2
	and	a2, a2, a4
	add	a2, a2, a3
	srli	a3, a2, 4
	add	a2, a2, a3
	and	a2, a2, t1
	mul	a5, a2, t0
	srli	a5, a5, 24
.Ltmp855:
.LBB32_6:
	and	a6, a1, a6
.Ltmp856:
	.loc	15 36 20 is_stmt 1
	or	a0, a0, a1
.Ltmp857:
	seqz	a0, a0
	slli	a1, a5, 23
.Ltmp858:
	.loc	15 0 20 is_stmt 0
	lui	a2, 387072
	.loc	15 36 20
	sub	a2, a2, a1
	addi	a0, a0, -1
.Ltmp859:
	.loc	8 1181 5 is_stmt 1
	andi	a1, a5, 63
	addi	a4, a1, -32
.Ltmp860:
	.loc	15 36 20
	and	a0, a0, a2
.Ltmp861:
	.loc	8 1181 5
	bltz	a4, .LBB32_8
.Ltmp862:
	.loc	8 0 5 is_stmt 0
	sll	a3, t3, a1
	j	.LBB32_9
.Ltmp863:
.LBB32_8:
	sll	a2, t2, a5
	not	a1, a1
	srl	a3, a7, a1
	or	a3, a3, a2
.Ltmp864:
.LBB32_9:
	.loc	8 1181 5
	sll	a1, t3, a5
	srai	a4, a4, 31
	and	a1, a1, a4
.Ltmp865:
	.loc	15 34 18 is_stmt 1
	srli	a2, a1, 8
	slli	a4, a3, 24
	or	a2, a2, a4
.Ltmp866:
	.loc	15 33 17
	srli	a3, a3, 8
.Ltmp867:
	.loc	15 34 27
	slli	a1, a1, 16
.Ltmp868:
	srli	a1, a1, 16
	.loc	15 34 17 is_stmt 0
	or	a1, a1, a2
.Ltmp869:
	.loc	15 35 28 is_stmt 1
	srli	a4, a4, 31
	.loc	15 35 38 is_stmt 0
	not	a2, a3
	.loc	15 35 27
	and	a2, a2, a4
	.loc	15 35 22
	sub	a1, a1, a2
.Ltmp870:
	.loc	15 35 21
	srli	a1, a1, 31
	.loc	15 35 17
	add	a0, a0, a3
.Ltmp871:
	.loc	15 37 9 is_stmt 1
	add	a0, a0, a1
.Ltmp872:
	.loc	15 123 24
	or	a0, a0, a6
.Ltmp873:
	.loc	4 493 10
	ret
.Ltmp874:
.Lfunc_end32:
	.size	_ZN17compiler_builtins5float4conv11__floatdisf17h6583a275632dec0dE, .Lfunc_end32-_ZN17compiler_builtins5float4conv11__floatdisf17h6583a275632dec0dE
	.cfi_endproc

	.section	.text.__floatdisf,"ax",@progbits
	.hidden	__floatdisf
	.globl	__floatdisf
	.p2align	1
	.type	__floatdisf,@function
__floatdisf:
.Lfunc_begin33:
	.cfi_startproc
	.loc	8 370 5 prologue_end
	bltz	a1, .LBB33_2
.Ltmp875:
	.loc	8 0 5 is_stmt 0
	mv	t2, a1
	mv	t3, a0
	j	.LBB33_3
.Ltmp876:
.LBB33_2:
	snez	a2, a0
.Ltmp877:
	neg	a3, a1
	sub	t2, a3, a2
	neg	t3, a0
.Ltmp878:
.LBB33_3:
	lui	a6, 524288
.Ltmp879:
	.loc	8 1181 5 is_stmt 1
	srli	a7, t3, 1
	lui	a4, 349525
	addi	a5, a4, 1365
	lui	a4, 209715
	addi	a4, a4, 819
	lui	a3, 61681
	addi	t1, a3, -241
	lui	a3, 4112
	addi	t0, a3, 257
	bnez	t2, .LBB33_5
.Ltmp880:
	.loc	8 0 5 is_stmt 0
	or	a2, t3, a7
	srli	a3, a2, 2
	or	a2, a2, a3
	srli	a3, a2, 4
	or	a2, a2, a3
	srli	a3, a2, 8
	or	a2, a2, a3
	srli	a3, a2, 16
	or	a2, a2, a3
	not	a2, a2
	srli	a3, a2, 1
	and	a3, a3, a5
	sub	a2, a2, a3
	and	a3, a2, a4
	srli	a2, a2, 2
	and	a2, a2, a4
	add	a2, a2, a3
	srli	a3, a2, 4
	add	a2, a2, a3
	and	a2, a2, t1
	mul	a2, a2, t0
	srli	a2, a2, 24
	addi	a5, a2, 32
	j	.LBB33_6
.Ltmp881:
.LBB33_5:
	srli	a3, t2, 1
	or	a2, t2, a3
	srli	a3, a2, 2
	or	a2, a2, a3
	srli	a3, a2, 4
	or	a2, a2, a3
	srli	a3, a2, 8
	or	a2, a2, a3
	srli	a3, a2, 16
	or	a2, a2, a3
	not	a2, a2
	srli	a3, a2, 1
	and	a3, a3, a5
	sub	a2, a2, a3
	and	a3, a2, a4
	srli	a2, a2, 2
	and	a2, a2, a4
	add	a2, a2, a3
	srli	a3, a2, 4
	add	a2, a2, a3
	and	a2, a2, t1
	mul	a5, a2, t0
	srli	a5, a5, 24
.Ltmp882:
.LBB33_6:
	and	a6, a1, a6
.Ltmp883:
	.loc	15 36 20 is_stmt 1
	or	a0, a0, a1
.Ltmp884:
	seqz	a0, a0
	slli	a1, a5, 23
.Ltmp885:
	.loc	15 0 20 is_stmt 0
	lui	a2, 387072
	.loc	15 36 20
	sub	a2, a2, a1
	addi	a0, a0, -1
.Ltmp886:
	.loc	8 1181 5 is_stmt 1
	andi	a1, a5, 63
	addi	a4, a1, -32
.Ltmp887:
	.loc	15 36 20
	and	a0, a0, a2
.Ltmp888:
	.loc	8 1181 5
	bltz	a4, .LBB33_8
.Ltmp889:
	.loc	8 0 5 is_stmt 0
	sll	a3, t3, a1
	j	.LBB33_9
.Ltmp890:
.LBB33_8:
	sll	a2, t2, a5
	not	a1, a1
	srl	a3, a7, a1
	or	a3, a3, a2
.Ltmp891:
.LBB33_9:
	.loc	8 1181 5
	sll	a1, t3, a5
	srai	a4, a4, 31
	and	a1, a1, a4
.Ltmp892:
	.loc	15 34 18 is_stmt 1
	srli	a2, a1, 8
	slli	a4, a3, 24
	or	a2, a2, a4
.Ltmp893:
	.loc	15 33 17
	srli	a3, a3, 8
.Ltmp894:
	.loc	15 34 27
	slli	a1, a1, 16
.Ltmp895:
	srli	a1, a1, 16
	.loc	15 34 17 is_stmt 0
	or	a1, a1, a2
.Ltmp896:
	.loc	15 35 28 is_stmt 1
	srli	a4, a4, 31
	.loc	15 35 38 is_stmt 0
	not	a2, a3
	.loc	15 35 27
	and	a2, a2, a4
	.loc	15 35 22
	sub	a1, a1, a2
.Ltmp897:
	.loc	15 35 21
	srli	a1, a1, 31
	.loc	15 35 17
	add	a0, a0, a3
.Ltmp898:
	.loc	15 37 9 is_stmt 1
	add	a0, a0, a1
.Ltmp899:
	.loc	15 123 24
	or	a0, a0, a6
.Ltmp900:
	.loc	4 501 14
	ret
.Ltmp901:
.Lfunc_end33:
	.size	__floatdisf, .Lfunc_end33-__floatdisf
	.cfi_endproc

	.section	.text._ZN17compiler_builtins5float4conv11__floatdidf17h20995067b1795512E,"ax",@progbits
	.hidden	_ZN17compiler_builtins5float4conv11__floatdidf17h20995067b1795512E
	.globl	_ZN17compiler_builtins5float4conv11__floatdidf17h20995067b1795512E
	.p2align	1
	.type	_ZN17compiler_builtins5float4conv11__floatdidf17h20995067b1795512E,@function
_ZN17compiler_builtins5float4conv11__floatdidf17h20995067b1795512E:
.Lfunc_begin34:
	.cfi_startproc
	.loc	15 41 12 prologue_end
	or	a2, a0, a1
	beqz	a2, .LBB34_3
.Ltmp902:
	.loc	8 370 5
	bltz	a1, .LBB34_4
.Ltmp903:
	.loc	8 0 5 is_stmt 0
	mv	t0, a1
	j	.LBB34_5
.Ltmp904:
.LBB34_3:
	li	a0, 0
.Ltmp905:
	lui	a3, 524288
	.loc	15 128 24 is_stmt 1
	and	a1, a1, a3
.Ltmp906:
	.loc	15 129 24
	or	a1, a1, a2
.Ltmp907:
	.loc	4 493 10
	ret
.Ltmp908:
.LBB34_4:
	.loc	4 0 10 is_stmt 0
	snez	a2, a0
	neg	a3, a1
	sub	t0, a3, a2
	neg	a0, a0
.Ltmp909:
.LBB34_5:
	.loc	8 1181 5 is_stmt 1
	srli	a6, a0, 1
	lui	a3, 349525
	addi	a4, a3, 1365
	lui	a3, 209715
	addi	a3, a3, 819
	lui	a5, 61681
	addi	a7, a5, -241
	lui	a5, 4112
	addi	t1, a5, 257
	bnez	t0, .LBB34_8
.Ltmp910:
	.loc	8 0 5 is_stmt 0
	or	a2, a0, a6
	srli	a5, a2, 2
	or	a2, a2, a5
	srli	a5, a2, 4
	or	a2, a2, a5
	srli	a5, a2, 8
	or	a2, a2, a5
	srli	a5, a2, 16
	or	a2, a2, a5
	not	a2, a2
	srli	a5, a2, 1
	and	a4, a4, a5
	sub	a2, a2, a4
	and	a4, a2, a3
	srli	a2, a2, 2
	and	a2, a2, a3
	add	a2, a2, a4
	srli	a3, a2, 4
	add	a2, a2, a3
	and	a2, a2, a7
	mul	a2, a2, t1
	srli	a2, a2, 24
	addi	a3, a2, 32
.Ltmp911:
	.loc	15 45 17 is_stmt 1
	addi	a4, a3, -32
	sll	a0, a0, a3
.Ltmp912:
	bgez	a4, .LBB34_9
.Ltmp913:
.LBB34_7:
	.loc	15 0 17 is_stmt 0
	sll	a2, t0, a3
	not	a5, a3
	srl	a5, a6, a5
	or	a2, a2, a5
	j	.LBB34_10
.Ltmp914:
.LBB34_8:
	srli	a2, t0, 1
	or	a5, t0, a2
	srli	a2, a5, 2
	or	a2, a2, a5
	srli	a5, a2, 4
	or	a2, a2, a5
	srli	a5, a2, 8
	or	a2, a2, a5
	srli	a5, a2, 16
	or	a2, a2, a5
	not	a2, a2
	srli	a5, a2, 1
	and	a4, a4, a5
	sub	a2, a2, a4
	and	a4, a2, a3
	srli	a2, a2, 2
	and	a2, a2, a3
	add	a2, a2, a4
	srli	a3, a2, 4
	add	a2, a2, a3
	and	a2, a2, a7
	mul	a3, a2, t1
	srli	a3, a3, 24
.Ltmp915:
	.loc	15 45 17
	addi	a4, a3, -32
	sll	a0, a0, a3
.Ltmp916:
	bltz	a4, .LBB34_7
.Ltmp917:
.LBB34_9:
	.loc	15 0 17
	mv	a2, a0
.Ltmp918:
.LBB34_10:
	.loc	15 45 17
	srai	a4, a4, 31
	and	a0, a0, a4
	srli	a4, a0, 11
	slli	a5, a2, 21
	or	a4, a4, a5
	srli	a6, a2, 11
.Ltmp919:
	.loc	15 46 17 is_stmt 1
	slli	a0, a0, 21
.Ltmp920:
	.loc	15 47 28
	srli	a5, a0, 31
	.loc	15 47 38 is_stmt 0
	not	a2, a4
	.loc	15 47 27
	and	a2, a2, a5
	.loc	15 47 22
	sub	a0, a0, a2
.Ltmp921:
	.loc	15 47 21
	srli	a0, a0, 31
.Ltmp922:
	.loc	15 49 9 is_stmt 1
	slli	a3, a3, 20
.Ltmp923:
	sub	a2, a6, a3
	add	a0, a0, a4
	sltu	a3, a0, a4
	lui	a4, 277760
.Ltmp924:
	add	a2, a2, a4
	add	a2, a2, a3
	lui	a3, 524288
.Ltmp925:
	.loc	15 128 24
	and	a1, a1, a3
.Ltmp926:
	.loc	15 129 24
	or	a1, a1, a2
.Ltmp927:
	.loc	4 493 10
	ret
.Ltmp928:
.Lfunc_end34:
	.size	_ZN17compiler_builtins5float4conv11__floatdidf17h20995067b1795512E, .Lfunc_end34-_ZN17compiler_builtins5float4conv11__floatdidf17h20995067b1795512E
	.cfi_endproc

	.section	.text.__floatdidf,"ax",@progbits
	.hidden	__floatdidf
	.globl	__floatdidf
	.p2align	1
	.type	__floatdidf,@function
__floatdidf:
.Lfunc_begin35:
	.cfi_startproc
	.loc	15 41 12 prologue_end
	or	a2, a0, a1
	beqz	a2, .LBB35_3
.Ltmp929:
	.loc	8 370 5
	bltz	a1, .LBB35_4
.Ltmp930:
	.loc	8 0 5 is_stmt 0
	mv	t0, a1
	j	.LBB35_5
.Ltmp931:
.LBB35_3:
	li	a0, 0
.Ltmp932:
	lui	a3, 524288
	.loc	15 128 24 is_stmt 1
	and	a1, a1, a3
.Ltmp933:
	.loc	15 129 24
	or	a1, a1, a2
.Ltmp934:
	.loc	4 501 14
	ret
.Ltmp935:
.LBB35_4:
	.loc	4 0 14 is_stmt 0
	snez	a2, a0
	neg	a3, a1
	sub	t0, a3, a2
	neg	a0, a0
.Ltmp936:
.LBB35_5:
	.loc	8 1181 5 is_stmt 1
	srli	a6, a0, 1
	lui	a3, 349525
	addi	a4, a3, 1365
	lui	a3, 209715
	addi	a3, a3, 819
	lui	a5, 61681
	addi	a7, a5, -241
	lui	a5, 4112
	addi	t1, a5, 257
	bnez	t0, .LBB35_8
.Ltmp937:
	.loc	8 0 5 is_stmt 0
	or	a2, a0, a6
	srli	a5, a2, 2
	or	a2, a2, a5
	srli	a5, a2, 4
	or	a2, a2, a5
	srli	a5, a2, 8
	or	a2, a2, a5
	srli	a5, a2, 16
	or	a2, a2, a5
	not	a2, a2
	srli	a5, a2, 1
	and	a4, a4, a5
	sub	a2, a2, a4
	and	a4, a2, a3
	srli	a2, a2, 2
	and	a2, a2, a3
	add	a2, a2, a4
	srli	a3, a2, 4
	add	a2, a2, a3
	and	a2, a2, a7
	mul	a2, a2, t1
	srli	a2, a2, 24
	addi	a3, a2, 32
.Ltmp938:
	.loc	15 45 17 is_stmt 1
	addi	a4, a3, -32
	sll	a0, a0, a3
.Ltmp939:
	bgez	a4, .LBB35_9
.Ltmp940:
.LBB35_7:
	.loc	15 0 17 is_stmt 0
	sll	a2, t0, a3
	not	a5, a3
	srl	a5, a6, a5
	or	a2, a2, a5
	j	.LBB35_10
.Ltmp941:
.LBB35_8:
	srli	a2, t0, 1
	or	a5, t0, a2
	srli	a2, a5, 2
	or	a2, a2, a5
	srli	a5, a2, 4
	or	a2, a2, a5
	srli	a5, a2, 8
	or	a2, a2, a5
	srli	a5, a2, 16
	or	a2, a2, a5
	not	a2, a2
	srli	a5, a2, 1
	and	a4, a4, a5
	sub	a2, a2, a4
	and	a4, a2, a3
	srli	a2, a2, 2
	and	a2, a2, a3
	add	a2, a2, a4
	srli	a3, a2, 4
	add	a2, a2, a3
	and	a2, a2, a7
	mul	a3, a2, t1
	srli	a3, a3, 24
.Ltmp942:
	.loc	15 45 17
	addi	a4, a3, -32
	sll	a0, a0, a3
.Ltmp943:
	bltz	a4, .LBB35_7
.Ltmp944:
.LBB35_9:
	.loc	15 0 17
	mv	a2, a0
.Ltmp945:
.LBB35_10:
	.loc	15 45 17
	srai	a4, a4, 31
	and	a0, a0, a4
	srli	a4, a0, 11
	slli	a5, a2, 21
	or	a4, a4, a5
	srli	a6, a2, 11
.Ltmp946:
	.loc	15 46 17 is_stmt 1
	slli	a0, a0, 21
.Ltmp947:
	.loc	15 47 28
	srli	a5, a0, 31
	.loc	15 47 38 is_stmt 0
	not	a2, a4
	.loc	15 47 27
	and	a2, a2, a5
	.loc	15 47 22
	sub	a0, a0, a2
.Ltmp948:
	.loc	15 47 21
	srli	a0, a0, 31
.Ltmp949:
	.loc	15 49 9 is_stmt 1
	slli	a3, a3, 20
.Ltmp950:
	sub	a2, a6, a3
	add	a0, a0, a4
	sltu	a3, a0, a4
	lui	a4, 277760
.Ltmp951:
	add	a2, a2, a4
	add	a2, a2, a3
	lui	a3, 524288
.Ltmp952:
	.loc	15 128 24
	and	a1, a1, a3
.Ltmp953:
	.loc	15 129 24
	or	a1, a1, a2
.Ltmp954:
	.loc	4 501 14
	ret
.Ltmp955:
.Lfunc_end35:
	.size	__floatdidf, .Lfunc_end35-__floatdidf
	.cfi_endproc

	.section	.text._ZN17compiler_builtins5float4conv11__floattisf17h1d935422152b19dbE,"ax",@progbits
	.hidden	_ZN17compiler_builtins5float4conv11__floattisf17h1d935422152b19dbE
	.globl	_ZN17compiler_builtins5float4conv11__floattisf17h1d935422152b19dbE
	.p2align	1
	.type	_ZN17compiler_builtins5float4conv11__floattisf17h1d935422152b19dbE,@function
_ZN17compiler_builtins5float4conv11__floattisf17h1d935422152b19dbE:
.Lfunc_begin36:
	.loc	4 491 0
	.cfi_startproc
	lw	t3, 12(a0)
	lw	a6, 4(a0)
	lw	t0, 0(a0)
	lw	a7, 8(a0)
.Ltmp956:
	.loc	8 393 5 prologue_end
	bltz	t3, .LBB36_2
.Ltmp957:
	.loc	8 0 5 is_stmt 0
	mv	t6, t3
	mv	a2, a7
	mv	a1, a6
	mv	a3, t0
	j	.LBB36_3
.LBB36_2:
	neg	a1, a7
	or	a0, t0, a6
	snez	a2, a0
	sltu	a0, a1, a2
	snez	a3, a7
	add	a3, a3, t3
	neg	a3, a3
	sub	t6, a3, a0
	sub	a2, a1, a2
	snez	a1, t0
	neg	a3, a6
	sub	a1, a3, a1
	neg	a3, t0
.LBB36_3:
.Ltmp958:
	lui	a4, 349525
	addi	t4, a4, 1365
	lui	a4, 209715
	addi	a4, a4, 819
	lui	a5, 61681
	addi	t1, a5, -241
	lui	a5, 4112
	addi	t2, a5, 257
.Ltmp959:
	.loc	8 1205 5 is_stmt 1
	bnez	t6, .LBB36_6
.Ltmp960:
	.loc	8 0 5 is_stmt 0
	srli	a0, a2, 1
	or	a0, a0, a2
	srli	a5, a0, 2
	or	a0, a0, a5
	srli	a5, a0, 4
	or	a0, a0, a5
	srli	a5, a0, 8
	or	a0, a0, a5
	srli	a5, a0, 16
	or	a0, a0, a5
	not	a0, a0
	srli	a5, a0, 1
	and	a5, a5, t4
	sub	a0, a0, a5
	and	a5, a0, a4
	srli	a0, a0, 2
	and	a0, a0, a4
	add	a0, a0, a5
	srli	a5, a0, 4
	add	a0, a0, a5
	and	a0, a0, t1
	mul	a0, a0, t2
	srli	a0, a0, 24
	addi	a5, a0, 32
	addi	sp, sp, -48
	.cfi_def_cfa_offset 48
	sw	s0, 44(sp)
	.cfi_offset s0, -4
	lui	t5, 524288
.Ltmp961:
	.loc	8 1205 5
	beqz	a1, .LBB36_7
.Ltmp962:
.LBB36_5:
	.loc	8 0 5
	srli	a0, a1, 1
	or	a0, a0, a1
	srli	s0, a0, 2
	or	a0, a0, s0
	srli	s0, a0, 4
	or	a0, a0, s0
	srli	s0, a0, 8
	or	a0, a0, s0
	srli	s0, a0, 16
	or	a0, a0, s0
	not	a0, a0
	srli	s0, a0, 1
	and	s0, s0, t4
	sub	a0, a0, s0
	and	s0, a0, a4
	srli	a0, a0, 2
	and	a0, a0, a4
	add	a0, a0, s0
	srli	a4, a0, 4
	add	a0, a0, a4
	and	a0, a0, t1
	mul	a4, a0, t2
	srli	a4, a4, 24
	.loc	8 1205 5
	or	a0, a2, t6
.Ltmp963:
	.loc	4 0 0
	and	t1, t3, t5
.Ltmp964:
	.loc	8 1205 5
	beqz	a0, .LBB36_8
	j	.LBB36_9
.Ltmp965:
.LBB36_6:
	.loc	8 0 5
	srli	a5, t6, 1
	or	a0, t6, a5
	srli	a5, a0, 2
	or	a0, a0, a5
	srli	a5, a0, 4
	or	a0, a0, a5
	srli	a5, a0, 8
	or	a0, a0, a5
	srli	a5, a0, 16
	or	a0, a0, a5
	not	a0, a0
	srli	a5, a0, 1
	and	a5, a5, t4
	sub	a0, a0, a5
	and	a5, a0, a4
	srli	a0, a0, 2
	and	a0, a0, a4
	add	a0, a0, a5
	srli	a5, a0, 4
	add	a0, a0, a5
	and	a0, a0, t1
	mul	a5, a0, t2
	srli	a5, a5, 24
	addi	sp, sp, -48
	.cfi_def_cfa_offset 48
	sw	s0, 44(sp)
	.cfi_offset s0, -4
	lui	t5, 524288
.Ltmp966:
	.loc	8 1205 5
	bnez	a1, .LBB36_5
.Ltmp967:
.LBB36_7:
	.loc	8 0 5
	srli	a0, a3, 1
	or	a0, a0, a3
	srli	s0, a0, 2
	or	a0, a0, s0
	srli	s0, a0, 4
	or	a0, a0, s0
	srli	s0, a0, 8
	or	a0, a0, s0
	srli	s0, a0, 16
	or	a0, a0, s0
	not	a0, a0
	srli	s0, a0, 1
	and	s0, s0, t4
	sub	a0, a0, s0
	and	s0, a0, a4
	srli	a0, a0, 2
	and	a0, a0, a4
	add	a0, a0, s0
	srli	a4, a0, 4
	add	a0, a0, a4
	and	a0, a0, t1
	mul	a0, a0, t2
	srli	a0, a0, 24
	addi	a4, a0, 32
	.loc	8 1205 5
	or	a0, a2, t6
.Ltmp968:
	.loc	4 0 0
	and	t1, t3, t5
.Ltmp969:
	.loc	8 1205 5
	bnez	a0, .LBB36_9
.Ltmp970:
.LBB36_8:
	.loc	8 0 5
	addi	a5, a4, 64
.Ltmp971:
.LBB36_9:
	.loc	15 58 20 is_stmt 1
	or	a0, a6, t3
	or	a4, t0, a7
	or	a0, a0, a4
	seqz	a0, a0
	slli	a4, a5, 23
	lui	s0, 518144
	sub	s0, s0, a4
	addi	a0, a0, -1
	and	a6, a0, s0
.Ltmp972:
	.loc	8 1205 5
	sb	zero, 27(sp)
	sb	zero, 26(sp)
	sb	zero, 25(sp)
	sb	zero, 24(sp)
	sb	zero, 23(sp)
	sb	zero, 22(sp)
	sb	zero, 21(sp)
	sb	zero, 20(sp)
	sb	zero, 19(sp)
	sb	zero, 18(sp)
	sb	zero, 17(sp)
	sb	zero, 16(sp)
	sb	zero, 15(sp)
	sb	zero, 14(sp)
	sb	zero, 13(sp)
	sb	zero, 12(sp)
	sb	a3, 28(sp)
	srli	a0, a3, 24
	sb	a0, 31(sp)
	srli	a0, a3, 16
	sb	a0, 30(sp)
	srli	a3, a3, 8
.Ltmp973:
	sb	a3, 29(sp)
	sb	a2, 36(sp)
	sb	a1, 32(sp)
	srli	a0, a2, 24
	sb	a0, 39(sp)
	srli	a0, a2, 16
	sb	a0, 38(sp)
	srli	a2, a2, 8
.Ltmp974:
	sb	a2, 37(sp)
	srli	a0, a1, 24
	sb	a0, 35(sp)
	srli	a0, a1, 16
	sb	a0, 34(sp)
	srli	a1, a1, 8
.Ltmp975:
	sb	a1, 33(sp)
	sb	t6, 40(sp)
	srli	a0, t6, 24
	sb	a0, 43(sp)
	srli	a0, t6, 16
	sb	a0, 42(sp)
	srli	a0, t6, 8
	sb	a0, 41(sp)
	slli	a0, a5, 25
	srli	a0, a0, 28
	addi	a1, sp, 28
	sub	a1, a1, a0
	lbu	a0, 13(a1)
	lbu	a2, 12(a1)
	lbu	a3, 14(a1)
	lbu	s0, 15(a1)
	slli	a0, a0, 8
	or	a0, a0, a2
	slli	a3, a3, 16
	slli	s0, s0, 24
	or	a3, a3, s0
	or	a7, a3, a0
	andi	a5, a5, 7
.Ltmp976:
	lbu	a2, 9(a1)
	lbu	a3, 8(a1)
	lbu	s0, 10(a1)
	lbu	a4, 11(a1)
	slli	a2, a2, 8
	or	a2, a2, a3
	slli	s0, s0, 16
	slli	a4, a4, 24
	or	a4, a4, s0
	or	a2, a2, a4
	srli	a3, a2, 1
	xori	a4, a5, 31
	srl	t0, a3, a4
	lbu	s0, 1(a1)
	lbu	t2, 0(a1)
	lbu	a3, 2(a1)
	lbu	a0, 3(a1)
	slli	s0, s0, 8
	or	s0, s0, t2
	slli	a3, a3, 16
	slli	a0, a0, 24
	or	a0, a0, a3
	or	t2, a0, s0
	lbu	a3, 5(a1)
	lbu	s0, 4(a1)
	srli	a0, t2, 1
	srl	t3, a0, a4
	slli	a3, a3, 8
	or	a3, a3, s0
	lbu	a4, 6(a1)
	lbu	a1, 7(a1)
	sll	s0, a7, a5
	or	a0, s0, t0
	slli	a4, a4, 16
	slli	a1, a1, 24
	or	a1, a1, a4
	or	a1, a1, a3
	srli	a3, a1, 1
	not	a4, a5
	srl	a3, a3, a4
	sll	a4, a2, a5
.Ltmp977:
	.loc	15 56 17
	slli	a0, a0, 24
.Ltmp978:
	srli	a4, a4, 8
	or	a4, a4, a0
.Ltmp979:
	.loc	15 55 17
	srli	s0, s0, 8
.Ltmp980:
	.loc	15 56 36
	or	a2, a2, t2
	or	a1, a1, a2
	sll	a1, a1, a5
	or	a2, a3, t3
	or	a1, a1, a2
	snez	a1, a1
.Ltmp981:
	.loc	15 56 17 is_stmt 0
	or	a1, a1, a4
.Ltmp982:
	.loc	15 57 28 is_stmt 1
	srli	a0, a0, 31
	.loc	15 57 38 is_stmt 0
	not	a2, s0
	.loc	15 57 27
	and	a0, a0, a2
	.loc	15 57 22
	sub	a1, a1, a0
	.loc	15 57 21
	srli	a1, a1, 31
	.loc	15 57 17
	add	a6, a6, s0
.Ltmp983:
	.loc	15 59 9 is_stmt 1
	add	a1, a1, a6
.Ltmp984:
	.loc	15 135 24
	or	a0, a1, t1
.Ltmp985:
	.loc	4 493 10
	lw	s0, 44(sp)
.Ltmp986:
	.loc	4 493 10 epilogue_begin is_stmt 0
	addi	sp, sp, 48
	ret
.Ltmp987:
.Lfunc_end36:
	.size	_ZN17compiler_builtins5float4conv11__floattisf17h1d935422152b19dbE, .Lfunc_end36-_ZN17compiler_builtins5float4conv11__floattisf17h1d935422152b19dbE
	.cfi_endproc

	.section	.text.__floattisf,"ax",@progbits
	.hidden	__floattisf
	.globl	__floattisf
	.p2align	1
	.type	__floattisf,@function
__floattisf:
.Lfunc_begin37:
	.loc	4 499 0 is_stmt 1
	.cfi_startproc
	lw	t3, 12(a0)
	lw	a6, 4(a0)
	lw	t0, 0(a0)
	lw	a7, 8(a0)
.Ltmp988:
	.loc	8 393 5 prologue_end
	bltz	t3, .LBB37_2
.Ltmp989:
	.loc	8 0 5 is_stmt 0
	mv	t6, t3
	mv	a2, a7
	mv	a1, a6
	mv	a3, t0
	j	.LBB37_3
.LBB37_2:
	neg	a1, a7
	or	a0, t0, a6
	snez	a2, a0
	sltu	a0, a1, a2
	snez	a3, a7
	add	a3, a3, t3
	neg	a3, a3
	sub	t6, a3, a0
	sub	a2, a1, a2
	snez	a1, t0
	neg	a3, a6
	sub	a1, a3, a1
	neg	a3, t0
.LBB37_3:
.Ltmp990:
	lui	a4, 349525
	addi	t4, a4, 1365
	lui	a4, 209715
	addi	a4, a4, 819
	lui	a5, 61681
	addi	t1, a5, -241
	lui	a5, 4112
	addi	t2, a5, 257
.Ltmp991:
	.loc	8 1205 5 is_stmt 1
	bnez	t6, .LBB37_6
.Ltmp992:
	.loc	8 0 5 is_stmt 0
	srli	a0, a2, 1
	or	a0, a0, a2
	srli	a5, a0, 2
	or	a0, a0, a5
	srli	a5, a0, 4
	or	a0, a0, a5
	srli	a5, a0, 8
	or	a0, a0, a5
	srli	a5, a0, 16
	or	a0, a0, a5
	not	a0, a0
	srli	a5, a0, 1
	and	a5, a5, t4
	sub	a0, a0, a5
	and	a5, a0, a4
	srli	a0, a0, 2
	and	a0, a0, a4
	add	a0, a0, a5
	srli	a5, a0, 4
	add	a0, a0, a5
	and	a0, a0, t1
	mul	a0, a0, t2
	srli	a0, a0, 24
	addi	a5, a0, 32
	addi	sp, sp, -48
	.cfi_def_cfa_offset 48
	sw	s0, 44(sp)
	.cfi_offset s0, -4
	lui	t5, 524288
.Ltmp993:
	.loc	8 1205 5
	beqz	a1, .LBB37_7
.Ltmp994:
.LBB37_5:
	.loc	8 0 5
	srli	a0, a1, 1
	or	a0, a0, a1
	srli	s0, a0, 2
	or	a0, a0, s0
	srli	s0, a0, 4
	or	a0, a0, s0
	srli	s0, a0, 8
	or	a0, a0, s0
	srli	s0, a0, 16
	or	a0, a0, s0
	not	a0, a0
	srli	s0, a0, 1
	and	s0, s0, t4
	sub	a0, a0, s0
	and	s0, a0, a4
	srli	a0, a0, 2
	and	a0, a0, a4
	add	a0, a0, s0
	srli	a4, a0, 4
	add	a0, a0, a4
	and	a0, a0, t1
	mul	a4, a0, t2
	srli	a4, a4, 24
	.loc	8 1205 5
	or	a0, a2, t6
.Ltmp995:
	.loc	4 0 0
	and	t1, t3, t5
.Ltmp996:
	.loc	8 1205 5
	beqz	a0, .LBB37_8
	j	.LBB37_9
.Ltmp997:
.LBB37_6:
	.loc	8 0 5
	srli	a5, t6, 1
	or	a0, t6, a5
	srli	a5, a0, 2
	or	a0, a0, a5
	srli	a5, a0, 4
	or	a0, a0, a5
	srli	a5, a0, 8
	or	a0, a0, a5
	srli	a5, a0, 16
	or	a0, a0, a5
	not	a0, a0
	srli	a5, a0, 1
	and	a5, a5, t4
	sub	a0, a0, a5
	and	a5, a0, a4
	srli	a0, a0, 2
	and	a0, a0, a4
	add	a0, a0, a5
	srli	a5, a0, 4
	add	a0, a0, a5
	and	a0, a0, t1
	mul	a5, a0, t2
	srli	a5, a5, 24
	addi	sp, sp, -48
	.cfi_def_cfa_offset 48
	sw	s0, 44(sp)
	.cfi_offset s0, -4
	lui	t5, 524288
.Ltmp998:
	.loc	8 1205 5
	bnez	a1, .LBB37_5
.Ltmp999:
.LBB37_7:
	.loc	8 0 5
	srli	a0, a3, 1
	or	a0, a0, a3
	srli	s0, a0, 2
	or	a0, a0, s0
	srli	s0, a0, 4
	or	a0, a0, s0
	srli	s0, a0, 8
	or	a0, a0, s0
	srli	s0, a0, 16
	or	a0, a0, s0
	not	a0, a0
	srli	s0, a0, 1
	and	s0, s0, t4
	sub	a0, a0, s0
	and	s0, a0, a4
	srli	a0, a0, 2
	and	a0, a0, a4
	add	a0, a0, s0
	srli	a4, a0, 4
	add	a0, a0, a4
	and	a0, a0, t1
	mul	a0, a0, t2
	srli	a0, a0, 24
	addi	a4, a0, 32
	.loc	8 1205 5
	or	a0, a2, t6
.Ltmp1000:
	.loc	4 0 0
	and	t1, t3, t5
.Ltmp1001:
	.loc	8 1205 5
	bnez	a0, .LBB37_9
.Ltmp1002:
.LBB37_8:
	.loc	8 0 5
	addi	a5, a4, 64
.Ltmp1003:
.LBB37_9:
	.loc	15 58 20 is_stmt 1
	or	a0, a6, t3
	or	a4, t0, a7
	or	a0, a0, a4
	seqz	a0, a0
	slli	a4, a5, 23
	lui	s0, 518144
	sub	s0, s0, a4
	addi	a0, a0, -1
	and	a6, a0, s0
.Ltmp1004:
	.loc	8 1205 5
	sb	zero, 27(sp)
	sb	zero, 26(sp)
	sb	zero, 25(sp)
	sb	zero, 24(sp)
	sb	zero, 23(sp)
	sb	zero, 22(sp)
	sb	zero, 21(sp)
	sb	zero, 20(sp)
	sb	zero, 19(sp)
	sb	zero, 18(sp)
	sb	zero, 17(sp)
	sb	zero, 16(sp)
	sb	zero, 15(sp)
	sb	zero, 14(sp)
	sb	zero, 13(sp)
	sb	zero, 12(sp)
	sb	a3, 28(sp)
	srli	a0, a3, 24
	sb	a0, 31(sp)
	srli	a0, a3, 16
	sb	a0, 30(sp)
	srli	a3, a3, 8
.Ltmp1005:
	sb	a3, 29(sp)
	sb	a2, 36(sp)
	sb	a1, 32(sp)
	srli	a0, a2, 24
	sb	a0, 39(sp)
	srli	a0, a2, 16
	sb	a0, 38(sp)
	srli	a2, a2, 8
.Ltmp1006:
	sb	a2, 37(sp)
	srli	a0, a1, 24
	sb	a0, 35(sp)
	srli	a0, a1, 16
	sb	a0, 34(sp)
	srli	a1, a1, 8
.Ltmp1007:
	sb	a1, 33(sp)
	sb	t6, 40(sp)
	srli	a0, t6, 24
	sb	a0, 43(sp)
	srli	a0, t6, 16
	sb	a0, 42(sp)
	srli	a0, t6, 8
	sb	a0, 41(sp)
	slli	a0, a5, 25
	srli	a0, a0, 28
	addi	a1, sp, 28
	sub	a1, a1, a0
	lbu	a0, 13(a1)
	lbu	a2, 12(a1)
	lbu	a3, 14(a1)
	lbu	s0, 15(a1)
	slli	a0, a0, 8
	or	a0, a0, a2
	slli	a3, a3, 16
	slli	s0, s0, 24
	or	a3, a3, s0
	or	a7, a3, a0
	andi	a5, a5, 7
.Ltmp1008:
	lbu	a2, 9(a1)
	lbu	a3, 8(a1)
	lbu	s0, 10(a1)
	lbu	a4, 11(a1)
	slli	a2, a2, 8
	or	a2, a2, a3
	slli	s0, s0, 16
	slli	a4, a4, 24
	or	a4, a4, s0
	or	a2, a2, a4
	srli	a3, a2, 1
	xori	a4, a5, 31
	srl	t0, a3, a4
	lbu	s0, 1(a1)
	lbu	t2, 0(a1)
	lbu	a3, 2(a1)
	lbu	a0, 3(a1)
	slli	s0, s0, 8
	or	s0, s0, t2
	slli	a3, a3, 16
	slli	a0, a0, 24
	or	a0, a0, a3
	or	t2, a0, s0
	lbu	a3, 5(a1)
	lbu	s0, 4(a1)
	srli	a0, t2, 1
	srl	t3, a0, a4
	slli	a3, a3, 8
	or	a3, a3, s0
	lbu	a4, 6(a1)
	lbu	a1, 7(a1)
	sll	s0, a7, a5
	or	a0, s0, t0
	slli	a4, a4, 16
	slli	a1, a1, 24
	or	a1, a1, a4
	or	a1, a1, a3
	srli	a3, a1, 1
	not	a4, a5
	srl	a3, a3, a4
	sll	a4, a2, a5
.Ltmp1009:
	.loc	15 56 17
	slli	a0, a0, 24
.Ltmp1010:
	srli	a4, a4, 8
	or	a4, a4, a0
.Ltmp1011:
	.loc	15 55 17
	srli	s0, s0, 8
.Ltmp1012:
	.loc	15 56 36
	or	a2, a2, t2
	or	a1, a1, a2
	sll	a1, a1, a5
	or	a2, a3, t3
	or	a1, a1, a2
	snez	a1, a1
.Ltmp1013:
	.loc	15 56 17 is_stmt 0
	or	a1, a1, a4
.Ltmp1014:
	.loc	15 57 28 is_stmt 1
	srli	a0, a0, 31
	.loc	15 57 38 is_stmt 0
	not	a2, s0
	.loc	15 57 27
	and	a0, a0, a2
	.loc	15 57 22
	sub	a1, a1, a0
	.loc	15 57 21
	srli	a1, a1, 31
	.loc	15 57 17
	add	a6, a6, s0
.Ltmp1015:
	.loc	15 59 9 is_stmt 1
	add	a1, a1, a6
.Ltmp1016:
	.loc	15 135 24
	or	a0, a1, t1
.Ltmp1017:
	.loc	4 501 14
	lw	s0, 44(sp)
.Ltmp1018:
	.loc	4 501 14 epilogue_begin is_stmt 0
	addi	sp, sp, 48
	ret
.Ltmp1019:
.Lfunc_end37:
	.size	__floattisf, .Lfunc_end37-__floattisf
	.cfi_endproc

	.section	.text._ZN17compiler_builtins5float4conv11__floattidf17hd0db1f58174f27c8E,"ax",@progbits
	.hidden	_ZN17compiler_builtins5float4conv11__floattidf17hd0db1f58174f27c8E
	.globl	_ZN17compiler_builtins5float4conv11__floattidf17hd0db1f58174f27c8E
	.p2align	1
	.type	_ZN17compiler_builtins5float4conv11__floattidf17hd0db1f58174f27c8E,@function
_ZN17compiler_builtins5float4conv11__floattidf17hd0db1f58174f27c8E:
.Lfunc_begin38:
	.loc	4 491 0 is_stmt 1
	.cfi_startproc
	lw	t3, 12(a0)
	lw	a6, 4(a0)
	lw	t1, 0(a0)
	lw	a7, 8(a0)
.Ltmp1020:
	.loc	8 393 5 prologue_end
	bltz	t3, .LBB38_2
.Ltmp1021:
	.loc	8 0 5 is_stmt 0
	mv	t6, t3
	mv	a2, a7
	mv	a1, a6
	mv	a3, t1
	j	.LBB38_3
.Ltmp1022:
.LBB38_2:
	neg	a1, a7
	or	a0, t1, a6
	snez	a2, a0
	sltu	a0, a1, a2
	snez	a3, a7
	add	a3, a3, t3
	neg	a3, a3
	sub	t6, a3, a0
	sub	a2, a1, a2
	snez	a1, t1
	neg	a3, a6
	sub	a1, a3, a1
	neg	a3, t1
.Ltmp1023:
.LBB38_3:
	lui	a4, 349525
	addi	t4, a4, 1365
	lui	a4, 209715
	addi	a4, a4, 819
	lui	a5, 61681
	addi	t0, a5, -241
	lui	a5, 4112
	addi	t2, a5, 257
.Ltmp1024:
	.loc	8 1205 5 is_stmt 1
	bnez	t6, .LBB38_6
.Ltmp1025:
	.loc	8 0 5 is_stmt 0
	srli	a0, a2, 1
	or	a0, a0, a2
	srli	a5, a0, 2
	or	a0, a0, a5
	srli	a5, a0, 4
	or	a0, a0, a5
	srli	a5, a0, 8
	or	a0, a0, a5
	srli	a5, a0, 16
	or	a0, a0, a5
	not	a0, a0
	srli	a5, a0, 1
	and	a5, a5, t4
	sub	a0, a0, a5
	and	a5, a0, a4
	srli	a0, a0, 2
	and	a0, a0, a4
	add	a0, a0, a5
	srli	a5, a0, 4
	add	a0, a0, a5
	and	a0, a0, t0
	mul	a0, a0, t2
	srli	a0, a0, 24
	addi	a5, a0, 32
	addi	sp, sp, -48
	.cfi_def_cfa_offset 48
	sw	s0, 44(sp)
	.cfi_offset s0, -4
	lui	t5, 524288
.Ltmp1026:
	.loc	8 1205 5
	beqz	a1, .LBB38_7
.Ltmp1027:
.LBB38_5:
	.loc	8 0 5
	srli	a0, a1, 1
	or	a0, a0, a1
	srli	s0, a0, 2
	or	a0, a0, s0
	srli	s0, a0, 4
	or	a0, a0, s0
	srli	s0, a0, 8
	or	a0, a0, s0
	srli	s0, a0, 16
	or	a0, a0, s0
	not	a0, a0
	srli	s0, a0, 1
	and	s0, s0, t4
	sub	a0, a0, s0
	and	s0, a0, a4
	srli	a0, a0, 2
	and	a0, a0, a4
	add	a0, a0, s0
	srli	a4, a0, 4
	add	a0, a0, a4
	and	a0, a0, t0
	mul	a4, a0, t2
	srli	a4, a4, 24
	.loc	8 1205 5
	or	a0, a2, t6
.Ltmp1028:
	.loc	4 0 0
	and	t0, t3, t5
.Ltmp1029:
	.loc	8 1205 5
	beqz	a0, .LBB38_8
	j	.LBB38_9
.Ltmp1030:
.LBB38_6:
	.loc	8 0 5
	srli	a5, t6, 1
	or	a0, t6, a5
	srli	a5, a0, 2
	or	a0, a0, a5
	srli	a5, a0, 4
	or	a0, a0, a5
	srli	a5, a0, 8
	or	a0, a0, a5
	srli	a5, a0, 16
	or	a0, a0, a5
	not	a0, a0
	srli	a5, a0, 1
	and	a5, a5, t4
	sub	a0, a0, a5
	and	a5, a0, a4
	srli	a0, a0, 2
	and	a0, a0, a4
	add	a0, a0, a5
	srli	a5, a0, 4
	add	a0, a0, a5
	and	a0, a0, t0
	mul	a5, a0, t2
	srli	a5, a5, 24
	addi	sp, sp, -48
	.cfi_def_cfa_offset 48
	sw	s0, 44(sp)
	.cfi_offset s0, -4
	lui	t5, 524288
.Ltmp1031:
	.loc	8 1205 5
	bnez	a1, .LBB38_5
.Ltmp1032:
.LBB38_7:
	.loc	8 0 5
	srli	a0, a3, 1
	or	a0, a0, a3
	srli	s0, a0, 2
	or	a0, a0, s0
	srli	s0, a0, 4
	or	a0, a0, s0
	srli	s0, a0, 8
	or	a0, a0, s0
	srli	s0, a0, 16
	or	a0, a0, s0
	not	a0, a0
	srli	s0, a0, 1
	and	s0, s0, t4
	sub	a0, a0, s0
	and	s0, a0, a4
	srli	a0, a0, 2
	and	a0, a0, a4
	add	a0, a0, s0
	srli	a4, a0, 4
	add	a0, a0, a4
	and	a0, a0, t0
	mul	a0, a0, t2
	srli	a0, a0, 24
	addi	a4, a0, 32
	.loc	8 1205 5
	or	a0, a2, t6
.Ltmp1033:
	.loc	4 0 0
	and	t0, t3, t5
.Ltmp1034:
	.loc	8 1205 5
	bnez	a0, .LBB38_9
.Ltmp1035:
.LBB38_8:
	.loc	8 0 5
	addi	a5, a4, 64
.Ltmp1036:
.LBB38_9:
	.loc	15 68 20 is_stmt 1
	or	a0, a6, t3
	or	a4, t1, a7
	or	a0, a0, a4
	seqz	a0, a0
	slli	a4, a5, 20
	lui	s0, 294144
	sub	s0, s0, a4
	addi	a0, a0, -1
	and	a6, a0, s0
.Ltmp1037:
	.loc	8 1205 5
	sb	zero, 27(sp)
	sb	zero, 26(sp)
	sb	zero, 25(sp)
	sb	zero, 24(sp)
	sb	zero, 23(sp)
	sb	zero, 22(sp)
	sb	zero, 21(sp)
	sb	zero, 20(sp)
	sb	zero, 19(sp)
	sb	zero, 18(sp)
	sb	zero, 17(sp)
	sb	zero, 16(sp)
	sb	zero, 15(sp)
	sb	zero, 14(sp)
	sb	zero, 13(sp)
	sb	zero, 12(sp)
	sb	a3, 28(sp)
	srli	a0, a3, 24
	sb	a0, 31(sp)
	srli	a0, a3, 16
	sb	a0, 30(sp)
	srli	a3, a3, 8
.Ltmp1038:
	sb	a3, 29(sp)
	sb	a2, 36(sp)
	sb	a1, 32(sp)
	srli	a0, a2, 24
	sb	a0, 39(sp)
	srli	a0, a2, 16
	sb	a0, 38(sp)
	srli	a2, a2, 8
.Ltmp1039:
	sb	a2, 37(sp)
	srli	a0, a1, 24
	sb	a0, 35(sp)
	srli	a0, a1, 16
	sb	a0, 34(sp)
	srli	a1, a1, 8
.Ltmp1040:
	sb	a1, 33(sp)
	sb	t6, 40(sp)
	srli	a0, t6, 24
	sb	a0, 43(sp)
	srli	a0, t6, 16
	sb	a0, 42(sp)
	srli	a0, t6, 8
	sb	a0, 41(sp)
	slli	a0, a5, 25
	srli	a0, a0, 28
	addi	a1, sp, 28
	sub	a1, a1, a0
	lbu	a0, 5(a1)
	lbu	a2, 4(a1)
	lbu	a3, 6(a1)
	lbu	s0, 7(a1)
	slli	a0, a0, 8
	or	a0, a0, a2
	slli	a3, a3, 16
	slli	s0, s0, 24
	or	a3, a3, s0
	or	t1, a3, a0
	andi	a5, a5, 7
.Ltmp1041:
	sll	a7, t1, a5
	lbu	a3, 1(a1)
	lbu	s0, 0(a1)
	lbu	a4, 2(a1)
	lbu	a2, 3(a1)
	slli	a3, a3, 8
	or	a3, a3, s0
	slli	a4, a4, 16
	slli	a2, a2, 24
	or	a2, a2, a4
	or	t3, a2, a3
	srli	t2, t3, 1
	lbu	a4, 13(a1)
	lbu	s0, 12(a1)
	lbu	a0, 14(a1)
	lbu	a3, 15(a1)
	slli	a4, a4, 8
	or	a4, a4, s0
	slli	a0, a0, 16
	slli	a3, a3, 24
	or	a0, a0, a3
	or	a0, a0, a4
	lbu	a3, 9(a1)
	lbu	a4, 8(a1)
	xori	s0, a5, 31
	srl	a2, t2, s0
	slli	a3, a3, 8
	or	a3, a3, a4
	lbu	a4, 10(a1)
	lbu	a1, 11(a1)
	or	a2, a7, a2
	sll	a0, a0, a5
	slli	a4, a4, 16
	slli	a1, a1, 24
	or	a1, a1, a4
	or	a1, a1, a3
	srli	a3, a1, 1
	srl	a3, a3, s0
	or	a3, a3, a0
	sll	a1, a1, a5
	srli	a4, t1, 1
	not	s0, a5
	srl	a4, a4, s0
	or	a4, a4, a1
	sll	a5, t3, a5
.Ltmp1042:
	.loc	15 66 18
	slli	a4, a4, 21
.Ltmp1043:
	srli	s0, a7, 11
	or	s0, s0, a4
.Ltmp1044:
	.loc	15 65 17
	slli	a3, a3, 21
.Ltmp1045:
	srli	a1, a1, 11
	or	a1, a1, a3
.Ltmp1046:
	.loc	15 66 18
	slli	a2, a2, 21
.Ltmp1047:
	srli	a3, a5, 11
.Ltmp1048:
	.loc	15 65 17
	srli	a0, a0, 11
.Ltmp1049:
	.loc	15 66 18
	or	a3, a3, a5
.Ltmp1050:
	.loc	15 66 17 is_stmt 0
	or	a2, a2, a3
.Ltmp1051:
	.loc	15 67 28 is_stmt 1
	srli	a4, a4, 31
	.loc	15 67 38 is_stmt 0
	not	a3, a1
	.loc	15 67 27
	and	a3, a3, a4
	.loc	15 67 22
	sltu	a2, a2, a3
.Ltmp1052:
	sub	s0, s0, a2
	.loc	15 67 21
	srli	s0, s0, 31
	.loc	15 67 17
	add	a6, a6, a0
.Ltmp1053:
	.loc	15 69 9 is_stmt 1
	add	a0, a1, s0
.Ltmp1054:
	sltu	a1, a0, a1
.Ltmp1055:
	add	a1, a1, a6
.Ltmp1056:
	.loc	15 141 24
	or	a1, a1, t0
.Ltmp1057:
	.loc	4 493 10
	lw	s0, 44(sp)
	.loc	4 493 10 epilogue_begin is_stmt 0
	addi	sp, sp, 48
	ret
.Ltmp1058:
.Lfunc_end38:
	.size	_ZN17compiler_builtins5float4conv11__floattidf17hd0db1f58174f27c8E, .Lfunc_end38-_ZN17compiler_builtins5float4conv11__floattidf17hd0db1f58174f27c8E
	.cfi_endproc

	.section	.text.__floattidf,"ax",@progbits
	.hidden	__floattidf
	.globl	__floattidf
	.p2align	1
	.type	__floattidf,@function
__floattidf:
.Lfunc_begin39:
	.loc	4 499 0 is_stmt 1
	.cfi_startproc
	lw	t3, 12(a0)
	lw	a6, 4(a0)
	lw	t1, 0(a0)
	lw	a7, 8(a0)
.Ltmp1059:
	.loc	8 393 5 prologue_end
	bltz	t3, .LBB39_2
.Ltmp1060:
	.loc	8 0 5 is_stmt 0
	mv	t6, t3
	mv	a2, a7
	mv	a1, a6
	mv	a3, t1
	j	.LBB39_3
.Ltmp1061:
.LBB39_2:
	neg	a1, a7
	or	a0, t1, a6
	snez	a2, a0
	sltu	a0, a1, a2
	snez	a3, a7
	add	a3, a3, t3
	neg	a3, a3
	sub	t6, a3, a0
	sub	a2, a1, a2
	snez	a1, t1
	neg	a3, a6
	sub	a1, a3, a1
	neg	a3, t1
.Ltmp1062:
.LBB39_3:
	lui	a4, 349525
	addi	t4, a4, 1365
	lui	a4, 209715
	addi	a4, a4, 819
	lui	a5, 61681
	addi	t0, a5, -241
	lui	a5, 4112
	addi	t2, a5, 257
.Ltmp1063:
	.loc	8 1205 5 is_stmt 1
	bnez	t6, .LBB39_6
.Ltmp1064:
	.loc	8 0 5 is_stmt 0
	srli	a0, a2, 1
	or	a0, a0, a2
	srli	a5, a0, 2
	or	a0, a0, a5
	srli	a5, a0, 4
	or	a0, a0, a5
	srli	a5, a0, 8
	or	a0, a0, a5
	srli	a5, a0, 16
	or	a0, a0, a5
	not	a0, a0
	srli	a5, a0, 1
	and	a5, a5, t4
	sub	a0, a0, a5
	and	a5, a0, a4
	srli	a0, a0, 2
	and	a0, a0, a4
	add	a0, a0, a5
	srli	a5, a0, 4
	add	a0, a0, a5
	and	a0, a0, t0
	mul	a0, a0, t2
	srli	a0, a0, 24
	addi	a5, a0, 32
	addi	sp, sp, -48
	.cfi_def_cfa_offset 48
	sw	s0, 44(sp)
	.cfi_offset s0, -4
	lui	t5, 524288
.Ltmp1065:
	.loc	8 1205 5
	beqz	a1, .LBB39_7
.Ltmp1066:
.LBB39_5:
	.loc	8 0 5
	srli	a0, a1, 1
	or	a0, a0, a1
	srli	s0, a0, 2
	or	a0, a0, s0
	srli	s0, a0, 4
	or	a0, a0, s0
	srli	s0, a0, 8
	or	a0, a0, s0
	srli	s0, a0, 16
	or	a0, a0, s0
	not	a0, a0
	srli	s0, a0, 1
	and	s0, s0, t4
	sub	a0, a0, s0
	and	s0, a0, a4
	srli	a0, a0, 2
	and	a0, a0, a4
	add	a0, a0, s0
	srli	a4, a0, 4
	add	a0, a0, a4
	and	a0, a0, t0
	mul	a4, a0, t2
	srli	a4, a4, 24
	.loc	8 1205 5
	or	a0, a2, t6
.Ltmp1067:
	.loc	4 0 0
	and	t0, t3, t5
.Ltmp1068:
	.loc	8 1205 5
	beqz	a0, .LBB39_8
	j	.LBB39_9
.Ltmp1069:
.LBB39_6:
	.loc	8 0 5
	srli	a5, t6, 1
	or	a0, t6, a5
	srli	a5, a0, 2
	or	a0, a0, a5
	srli	a5, a0, 4
	or	a0, a0, a5
	srli	a5, a0, 8
	or	a0, a0, a5
	srli	a5, a0, 16
	or	a0, a0, a5
	not	a0, a0
	srli	a5, a0, 1
	and	a5, a5, t4
	sub	a0, a0, a5
	and	a5, a0, a4
	srli	a0, a0, 2
	and	a0, a0, a4
	add	a0, a0, a5
	srli	a5, a0, 4
	add	a0, a0, a5
	and	a0, a0, t0
	mul	a5, a0, t2
	srli	a5, a5, 24
	addi	sp, sp, -48
	.cfi_def_cfa_offset 48
	sw	s0, 44(sp)
	.cfi_offset s0, -4
	lui	t5, 524288
.Ltmp1070:
	.loc	8 1205 5
	bnez	a1, .LBB39_5
.Ltmp1071:
.LBB39_7:
	.loc	8 0 5
	srli	a0, a3, 1
	or	a0, a0, a3
	srli	s0, a0, 2
	or	a0, a0, s0
	srli	s0, a0, 4
	or	a0, a0, s0
	srli	s0, a0, 8
	or	a0, a0, s0
	srli	s0, a0, 16
	or	a0, a0, s0
	not	a0, a0
	srli	s0, a0, 1
	and	s0, s0, t4
	sub	a0, a0, s0
	and	s0, a0, a4
	srli	a0, a0, 2
	and	a0, a0, a4
	add	a0, a0, s0
	srli	a4, a0, 4
	add	a0, a0, a4
	and	a0, a0, t0
	mul	a0, a0, t2
	srli	a0, a0, 24
	addi	a4, a0, 32
	.loc	8 1205 5
	or	a0, a2, t6
.Ltmp1072:
	.loc	4 0 0
	and	t0, t3, t5
.Ltmp1073:
	.loc	8 1205 5
	bnez	a0, .LBB39_9
.Ltmp1074:
.LBB39_8:
	.loc	8 0 5
	addi	a5, a4, 64
.Ltmp1075:
.LBB39_9:
	.loc	15 68 20 is_stmt 1
	or	a0, a6, t3
	or	a4, t1, a7
	or	a0, a0, a4
	seqz	a0, a0
	slli	a4, a5, 20
	lui	s0, 294144
	sub	s0, s0, a4
	addi	a0, a0, -1
	and	a6, a0, s0
.Ltmp1076:
	.loc	8 1205 5
	sb	zero, 27(sp)
	sb	zero, 26(sp)
	sb	zero, 25(sp)
	sb	zero, 24(sp)
	sb	zero, 23(sp)
	sb	zero, 22(sp)
	sb	zero, 21(sp)
	sb	zero, 20(sp)
	sb	zero, 19(sp)
	sb	zero, 18(sp)
	sb	zero, 17(sp)
	sb	zero, 16(sp)
	sb	zero, 15(sp)
	sb	zero, 14(sp)
	sb	zero, 13(sp)
	sb	zero, 12(sp)
	sb	a3, 28(sp)
	srli	a0, a3, 24
	sb	a0, 31(sp)
	srli	a0, a3, 16
	sb	a0, 30(sp)
	srli	a3, a3, 8
.Ltmp1077:
	sb	a3, 29(sp)
	sb	a2, 36(sp)
	sb	a1, 32(sp)
	srli	a0, a2, 24
	sb	a0, 39(sp)
	srli	a0, a2, 16
	sb	a0, 38(sp)
	srli	a2, a2, 8
.Ltmp1078:
	sb	a2, 37(sp)
	srli	a0, a1, 24
	sb	a0, 35(sp)
	srli	a0, a1, 16
	sb	a0, 34(sp)
	srli	a1, a1, 8
.Ltmp1079:
	sb	a1, 33(sp)
	sb	t6, 40(sp)
	srli	a0, t6, 24
	sb	a0, 43(sp)
	srli	a0, t6, 16
	sb	a0, 42(sp)
	srli	a0, t6, 8
	sb	a0, 41(sp)
	slli	a0, a5, 25
	srli	a0, a0, 28
	addi	a1, sp, 28
	sub	a1, a1, a0
	lbu	a0, 5(a1)
	lbu	a2, 4(a1)
	lbu	a3, 6(a1)
	lbu	s0, 7(a1)
	slli	a0, a0, 8
	or	a0, a0, a2
	slli	a3, a3, 16
	slli	s0, s0, 24
	or	a3, a3, s0
	or	t1, a3, a0
	andi	a5, a5, 7
.Ltmp1080:
	sll	a7, t1, a5
	lbu	a3, 1(a1)
	lbu	s0, 0(a1)
	lbu	a4, 2(a1)
	lbu	a2, 3(a1)
	slli	a3, a3, 8
	or	a3, a3, s0
	slli	a4, a4, 16
	slli	a2, a2, 24
	or	a2, a2, a4
	or	t3, a2, a3
	srli	t2, t3, 1
	lbu	a4, 13(a1)
	lbu	s0, 12(a1)
	lbu	a0, 14(a1)
	lbu	a3, 15(a1)
	slli	a4, a4, 8
	or	a4, a4, s0
	slli	a0, a0, 16
	slli	a3, a3, 24
	or	a0, a0, a3
	or	a0, a0, a4
	lbu	a3, 9(a1)
	lbu	a4, 8(a1)
	xori	s0, a5, 31
	srl	a2, t2, s0
	slli	a3, a3, 8
	or	a3, a3, a4
	lbu	a4, 10(a1)
	lbu	a1, 11(a1)
	or	a2, a7, a2
	sll	a0, a0, a5
	slli	a4, a4, 16
	slli	a1, a1, 24
	or	a1, a1, a4
	or	a1, a1, a3
	srli	a3, a1, 1
	srl	a3, a3, s0
	or	a3, a3, a0
	sll	a1, a1, a5
	srli	a4, t1, 1
	not	s0, a5
	srl	a4, a4, s0
	or	a4, a4, a1
	sll	a5, t3, a5
.Ltmp1081:
	.loc	15 66 18
	slli	a4, a4, 21
.Ltmp1082:
	srli	s0, a7, 11
	or	s0, s0, a4
.Ltmp1083:
	.loc	15 65 17
	slli	a3, a3, 21
.Ltmp1084:
	srli	a1, a1, 11
	or	a1, a1, a3
.Ltmp1085:
	.loc	15 66 18
	slli	a2, a2, 21
.Ltmp1086:
	srli	a3, a5, 11
.Ltmp1087:
	.loc	15 65 17
	srli	a0, a0, 11
.Ltmp1088:
	.loc	15 66 18
	or	a3, a3, a5
.Ltmp1089:
	.loc	15 66 17 is_stmt 0
	or	a2, a2, a3
.Ltmp1090:
	.loc	15 67 28 is_stmt 1
	srli	a4, a4, 31
	.loc	15 67 38 is_stmt 0
	not	a3, a1
	.loc	15 67 27
	and	a3, a3, a4
	.loc	15 67 22
	sltu	a2, a2, a3
.Ltmp1091:
	sub	s0, s0, a2
	.loc	15 67 21
	srli	s0, s0, 31
	.loc	15 67 17
	add	a6, a6, a0
.Ltmp1092:
	.loc	15 69 9 is_stmt 1
	add	a0, a1, s0
.Ltmp1093:
	sltu	a1, a0, a1
.Ltmp1094:
	add	a1, a1, a6
.Ltmp1095:
	.loc	15 141 24
	or	a1, a1, t0
.Ltmp1096:
	.loc	4 501 14
	lw	s0, 44(sp)
	.loc	4 501 14 epilogue_begin is_stmt 0
	addi	sp, sp, 48
	ret
.Ltmp1097:
.Lfunc_end39:
	.size	__floattidf, .Lfunc_end39-__floattidf
	.cfi_endproc

	.section	.text.__fixunssfsi,"ax",@progbits
	.hidden	__fixunssfsi
	.globl	__fixunssfsi
	.p2align	1
	.type	__fixunssfsi,@function
__fixunssfsi:
.Lfunc_begin40:
	.cfi_startproc
	.loc	15 150 12 prologue_end is_stmt 1
	srli	a1, a0, 23
	li	a2, 127
	bgeu	a1, a2, .LBB40_2
.Ltmp1098:
	.loc	15 0 12 is_stmt 0
	li	a0, 0
.Ltmp1099:
	.loc	4 501 14 is_stmt 1
	ret
.LBB40_2:
.Ltmp1100:
	.loc	4 0 14 is_stmt 0
	li	a2, 159
.Ltmp1101:
	.loc	15 152 19 is_stmt 1
	bgeu	a1, a2, .LBB40_4
.Ltmp1102:
	.loc	15 153 31
	slli	a0, a0, 8
.Ltmp1103:
	.loc	15 0 31 is_stmt 0
	lui	a2, 524288
	.loc	15 153 21
	or	a0, a0, a2
	li	a2, 30
.Ltmp1104:
	.loc	15 154 21 is_stmt 1
	sub	a2, a2, a1
.Ltmp1105:
	.loc	15 155 13
	srl	a0, a0, a2
.Ltmp1106:
	.loc	4 501 14
	ret
.Ltmp1107:
.LBB40_4:
	.loc	4 0 14 is_stmt 0
	lui	a1, 522240
	addi	a1, a1, 1
.Ltmp1108:
	.loc	15 156 19 is_stmt 1
	sltu	a0, a0, a1
.Ltmp1109:
	.loc	15 156 16 is_stmt 0
	neg	a0, a0
.Ltmp1110:
	.loc	4 501 14 is_stmt 1
	ret
.Ltmp1111:
.Lfunc_end40:
	.size	__fixunssfsi, .Lfunc_end40-__fixunssfsi
	.cfi_endproc

	.section	.text.__fixunssfdi,"ax",@progbits
	.hidden	__fixunssfdi
	.globl	__fixunssfdi
	.p2align	1
	.type	__fixunssfdi,@function
__fixunssfdi:
.Lfunc_begin41:
	.cfi_startproc
	.loc	15 166 12 prologue_end
	srli	a1, a0, 23
	li	a2, 127
	bgeu	a1, a2, .LBB41_2
.Ltmp1112:
	.loc	15 0 12 is_stmt 0
	li	a0, 0
.Ltmp1113:
	li	a1, 0
	.loc	4 501 14 is_stmt 1
	ret
.LBB41_2:
.Ltmp1114:
	.loc	4 0 14 is_stmt 0
	li	a2, 191
.Ltmp1115:
	.loc	15 168 19 is_stmt 1
	bgeu	a1, a2, .LBB41_5
.Ltmp1116:
	.loc	15 169 31
	slli	a3, a0, 8
	lui	a5, 524288
	li	a2, 62
.Ltmp1117:
	.loc	15 170 21
	sub	a1, a2, a1
.Ltmp1118:
	.loc	15 171 13
	andi	a4, a1, 63
	addi	a2, a4, -32
.Ltmp1119:
	.loc	15 169 21
	or	a3, a3, a5
.Ltmp1120:
	.loc	15 171 13
	bltz	a2, .LBB41_6
.Ltmp1121:
	.loc	15 0 13 is_stmt 0
	srl	a0, a3, a4
.Ltmp1122:
	.loc	15 171 13
	srl	a1, a3, a1
	srai	a2, a2, 31
	and	a1, a1, a2
.Ltmp1123:
	.loc	4 501 14 is_stmt 1
	ret
.Ltmp1124:
.LBB41_5:
	.loc	4 0 14 is_stmt 0
	lui	a1, 522240
	addi	a1, a1, 1
.Ltmp1125:
	.loc	15 172 19 is_stmt 1
	sltu	a0, a0, a1
.Ltmp1126:
	.loc	15 172 16 is_stmt 0
	neg	a0, a0
	mv	a1, a0
.Ltmp1127:
	.loc	4 501 14 is_stmt 1
	ret
.LBB41_6:
.Ltmp1128:
	.loc	4 0 14 is_stmt 0
	not	a4, a4
	slli	a0, a0, 9
.Ltmp1129:
	sll	a0, a0, a4
.Ltmp1130:
	.loc	15 171 13 is_stmt 1
	srl	a1, a3, a1
	srai	a2, a2, 31
	and	a1, a1, a2
.Ltmp1131:
	.loc	4 501 14
	ret
.Ltmp1132:
.Lfunc_end41:
	.size	__fixunssfdi, .Lfunc_end41-__fixunssfdi
	.cfi_endproc

	.section	.text.__fixunssfti,"ax",@progbits
	.hidden	__fixunssfti
	.globl	__fixunssfti
	.p2align	1
	.type	__fixunssfti,@function
__fixunssfti:
.Lfunc_begin42:
	.loc	4 499 0
	.cfi_startproc
	addi	sp, sp, -32
	.cfi_def_cfa_offset 32
.Ltmp1133:
	.loc	15 182 12 prologue_end
	srli	a2, a1, 23
	li	a3, 127
.Ltmp1134:
	bgeu	a2, a3, .LBB42_2
.Ltmp1135:
	.loc	15 0 12 is_stmt 0
	li	a3, 0
	li	a2, 0
	li	a1, 0
.Ltmp1136:
	li	a4, 0
	j	.LBB42_5
.LBB42_2:
.Ltmp1137:
	li	a3, 255
	.loc	15 184 19 is_stmt 1
	bgeu	a2, a3, .LBB42_4
.Ltmp1138:
	.loc	15 0 19 is_stmt 0
	li	a3, 126
.Ltmp1139:
	.loc	15 186 21 is_stmt 1
	sub	a6, a3, a2
.Ltmp1140:
	.loc	15 187 13
	sb	zero, 31(sp)
	sb	zero, 30(sp)
	sb	zero, 29(sp)
	sb	zero, 28(sp)
	sb	zero, 27(sp)
	sb	zero, 26(sp)
	sb	zero, 25(sp)
	sb	zero, 24(sp)
	sb	zero, 23(sp)
	sb	zero, 22(sp)
	sb	zero, 21(sp)
	sb	zero, 20(sp)
	sb	zero, 19(sp)
	sb	zero, 18(sp)
	sb	zero, 17(sp)
	sb	zero, 16(sp)
	sb	a1, 13(sp)
	sb	zero, 12(sp)
	sb	zero, 11(sp)
	sb	zero, 10(sp)
	sb	zero, 9(sp)
	sb	zero, 8(sp)
	sb	zero, 7(sp)
	sb	zero, 6(sp)
	sb	zero, 5(sp)
	sb	zero, 4(sp)
	sb	zero, 3(sp)
	sb	zero, 2(sp)
	sb	zero, 1(sp)
	sb	zero, 0(sp)
	srli	a2, a1, 8
.Ltmp1141:
	sb	a2, 14(sp)
	srli	a1, a1, 16
.Ltmp1142:
	ori	a1, a1, 128
	sb	a1, 15(sp)
	slli	a1, a6, 25
	srli	a1, a1, 28
	mv	a2, sp
	add	a4, a2, a1
	lbu	a1, 9(a4)
	lbu	a2, 8(a4)
	lbu	a5, 10(a4)
	lbu	a3, 11(a4)
	slli	a1, a1, 8
	or	a1, a1, a2
	slli	a5, a5, 16
	slli	a3, a3, 24
	or	a3, a3, a5
	or	a7, a3, a1
	andi	a5, a6, 7
	srl	a6, a7, a5
	lbu	a2, 13(a4)
	lbu	t0, 12(a4)
	lbu	a3, 14(a4)
	lbu	a1, 15(a4)
	slli	a2, a2, 8
	or	a2, a2, t0
	slli	a3, a3, 16
	slli	a1, a1, 24
	or	a1, a1, a3
	or	t0, a1, a2
	slli	a1, t0, 1
	xori	t1, a5, 31
	sll	a1, a1, t1
	or	a1, a6, a1
	lbu	a6, 5(a4)
	lbu	t2, 4(a4)
	lbu	t3, 6(a4)
	lbu	a3, 7(a4)
	slli	a6, a6, 8
	or	a2, a6, t2
	slli	t3, t3, 16
	slli	a3, a3, 24
	or	a3, a3, t3
	or	t3, a3, a2
	srl	a6, t3, a5
	slli	a7, a7, 1
	not	a2, a5
	sll	a2, a7, a2
	or	a2, a6, a2
	lbu	a6, 1(a4)
	lbu	a7, 0(a4)
	lbu	t2, 2(a4)
	lbu	a4, 3(a4)
	slli	a6, a6, 8
	or	a3, a6, a7
	slli	t2, t2, 16
	slli	a4, a4, 24
	or	a4, a4, t2
	or	a3, a3, a4
	srl	a3, a3, a5
	slli	t3, t3, 1
	sll	a4, t3, t1
	or	a3, a3, a4
	srl	a4, t0, a5
	j	.LBB42_5
.Ltmp1143:
.LBB42_4:
	.loc	15 0 13 is_stmt 0
	lui	a2, 522240
	.loc	15 188 19 is_stmt 1
	xor	a1, a1, a2
.Ltmp1144:
	snez	a3, a1
	.loc	15 188 16 is_stmt 0
	addi	a3, a3, -1
	mv	a2, a3
	mv	a1, a3
	mv	a4, a3
.Ltmp1145:
.LBB42_5:
	.loc	4 501 14 is_stmt 1
	sw	a3, 0(a0)
	sw	a2, 4(a0)
	sw	a1, 8(a0)
	sw	a4, 12(a0)
	.loc	4 501 14 epilogue_begin is_stmt 0
	addi	sp, sp, 32
	ret
.Ltmp1146:
.Lfunc_end42:
	.size	__fixunssfti, .Lfunc_end42-__fixunssfti
	.cfi_endproc

	.section	.text.__fixunsdfsi,"ax",@progbits
	.hidden	__fixunsdfsi
	.globl	__fixunsdfsi
	.p2align	1
	.type	__fixunsdfsi,@function
__fixunsdfsi:
.Lfunc_begin43:
	.cfi_startproc
	.loc	15 198 12 prologue_end is_stmt 1
	srli	a2, a1, 20
	li	a3, 1023
.Ltmp1147:
	bgeu	a2, a3, .LBB43_2
.Ltmp1148:
	.loc	15 0 12 is_stmt 0
	li	a0, 0
.Ltmp1149:
	.loc	4 501 14 is_stmt 1
	ret
.Ltmp1150:
.LBB43_2:
	.loc	4 0 14 is_stmt 0
	li	a3, 1055
.Ltmp1151:
	.loc	15 200 19 is_stmt 1
	bgeu	a2, a3, .LBB43_4
.Ltmp1152:
	.loc	15 201 31
	srli	a0, a0, 21
.Ltmp1153:
	slli	a1, a1, 11
.Ltmp1154:
	or	a0, a0, a1
	lui	a1, 524288
	.loc	15 201 21 is_stmt 0
	or	a0, a0, a1
	li	a1, 30
.Ltmp1155:
	.loc	15 203 13 is_stmt 1
	sub	a1, a1, a2
	srl	a0, a0, a1
.Ltmp1156:
	.loc	4 501 14
	ret
.Ltmp1157:
.LBB43_4:
	.loc	4 0 14 is_stmt 0
	lui	a3, 524032
.Ltmp1158:
	.loc	15 204 19 is_stmt 1
	beq	a1, a3, .LBB43_6
.Ltmp1159:
	.loc	15 0 19 is_stmt 0
	sltiu	a0, a2, 2047
.Ltmp1160:
	.loc	15 204 16
	neg	a0, a0
.Ltmp1161:
	.loc	4 501 14 is_stmt 1
	ret
.Ltmp1162:
.LBB43_6:
	.loc	4 0 14 is_stmt 0
	seqz	a0, a0
.Ltmp1163:
	.loc	15 204 16 is_stmt 1
	neg	a0, a0
.Ltmp1164:
	.loc	4 501 14
	ret
.Ltmp1165:
.Lfunc_end43:
	.size	__fixunsdfsi, .Lfunc_end43-__fixunsdfsi
	.cfi_endproc

	.section	.text.__fixunsdfdi,"ax",@progbits
	.hidden	__fixunsdfdi
	.globl	__fixunsdfdi
	.p2align	1
	.type	__fixunsdfdi,@function
__fixunsdfdi:
.Lfunc_begin44:
	.cfi_startproc
	.loc	15 214 12 prologue_end
	srli	a2, a1, 20
	li	a3, 1023
.Ltmp1166:
	bgeu	a2, a3, .LBB44_2
.Ltmp1167:
	.loc	15 0 12 is_stmt 0
	li	a0, 0
.Ltmp1168:
	li	a1, 0
.Ltmp1169:
	.loc	4 501 14 is_stmt 1
	ret
.LBB44_2:
.Ltmp1170:
	.loc	4 0 14 is_stmt 0
	li	a3, 1087
.Ltmp1171:
	.loc	15 216 19 is_stmt 1
	bgeu	a2, a3, .LBB44_5
.Ltmp1172:
	.loc	15 217 31
	srli	a3, a0, 21
	slli	a1, a1, 11
.Ltmp1173:
	or	a4, a1, a3
.Ltmp1174:
	.loc	15 0 31 is_stmt 0
	lui	a3, 524288
	li	a1, 62
.Ltmp1175:
	.loc	15 219 13 is_stmt 1
	sub	a1, a1, a2
	andi	a5, a1, 63
	addi	a2, a5, -32
.Ltmp1176:
	.loc	15 217 21
	or	a3, a3, a4
.Ltmp1177:
	.loc	15 219 13
	bltz	a2, .LBB44_7
.Ltmp1178:
	.loc	15 0 13 is_stmt 0
	srl	a0, a3, a5
.Ltmp1179:
	.loc	15 219 13
	srl	a1, a3, a1
	srai	a2, a2, 31
	and	a1, a1, a2
.Ltmp1180:
	.loc	4 501 14 is_stmt 1
	ret
.Ltmp1181:
.LBB44_5:
	.loc	4 0 14 is_stmt 0
	lui	a3, 524032
.Ltmp1182:
	.loc	15 220 19 is_stmt 1
	beq	a1, a3, .LBB44_8
.Ltmp1183:
	.loc	15 0 19 is_stmt 0
	sltiu	a0, a2, 2047
.Ltmp1184:
	.loc	15 220 16
	neg	a0, a0
	mv	a1, a0
.Ltmp1185:
	.loc	4 501 14 is_stmt 1
	ret
.LBB44_7:
.Ltmp1186:
	.loc	4 0 14 is_stmt 0
	slli	a0, a0, 11
.Ltmp1187:
	slli	a4, a4, 1
	not	a5, a5
	sll	a4, a4, a5
	srl	a0, a0, a1
	or	a0, a0, a4
.Ltmp1188:
	.loc	15 219 13 is_stmt 1
	srl	a1, a3, a1
	srai	a2, a2, 31
	and	a1, a1, a2
.Ltmp1189:
	.loc	4 501 14
	ret
.Ltmp1190:
.LBB44_8:
	.loc	4 0 14 is_stmt 0
	seqz	a0, a0
.Ltmp1191:
	.loc	15 220 16 is_stmt 1
	neg	a0, a0
	mv	a1, a0
.Ltmp1192:
	.loc	4 501 14
	ret
.Ltmp1193:
.Lfunc_end44:
	.size	__fixunsdfdi, .Lfunc_end44-__fixunsdfdi
	.cfi_endproc

	.section	.text.__fixunsdfti,"ax",@progbits
	.hidden	__fixunsdfti
	.globl	__fixunsdfti
	.p2align	1
	.type	__fixunsdfti,@function
__fixunsdfti:
.Lfunc_begin45:
	.loc	4 499 0
	.cfi_startproc
	addi	sp, sp, -32
	.cfi_def_cfa_offset 32
.Ltmp1194:
	.loc	15 230 12 prologue_end
	srli	a3, a2, 20
	li	a4, 1023
.Ltmp1195:
	bgeu	a3, a4, .LBB45_2
.Ltmp1196:
	.loc	15 0 12 is_stmt 0
	li	a3, 0
	li	a2, 0
.Ltmp1197:
	li	a1, 0
.Ltmp1198:
	li	a4, 0
	j	.LBB45_8
.LBB45_2:
.Ltmp1199:
	li	a4, 1151
	.loc	15 232 19 is_stmt 1
	bgeu	a3, a4, .LBB45_4
.Ltmp1200:
	.loc	15 233 32
	srli	a4, a1, 21
	slli	a5, a2, 11
	or	a5, a5, a4
.Ltmp1201:
	.loc	15 235 13
	sb	zero, 31(sp)
	sb	zero, 30(sp)
	sb	zero, 29(sp)
	sb	zero, 28(sp)
	sb	zero, 27(sp)
	sb	zero, 26(sp)
	sb	zero, 25(sp)
	sb	zero, 24(sp)
	sb	zero, 23(sp)
	sb	zero, 22(sp)
	sb	zero, 21(sp)
	sb	zero, 20(sp)
	sb	zero, 19(sp)
	sb	zero, 18(sp)
	sb	zero, 17(sp)
	sb	zero, 16(sp)
	sb	zero, 8(sp)
	sb	zero, 7(sp)
	sb	zero, 6(sp)
	sb	zero, 5(sp)
	sb	zero, 4(sp)
	sb	zero, 3(sp)
	sb	zero, 2(sp)
	sb	zero, 1(sp)
	sb	zero, 0(sp)
	sb	a4, 12(sp)
	srli	a4, a1, 13
	sb	a4, 11(sp)
	srli	a4, a1, 5
	sb	a4, 10(sp)
	slli	a1, a1, 3
.Ltmp1202:
	sb	a1, 9(sp)
	srli	a1, a2, 5
	sb	a1, 14(sp)
	srli	a2, a2, 13
.Ltmp1203:
	ori	a1, a2, 128
	sb	a1, 15(sp)
	srli	a5, a5, 8
	sb	a5, 13(sp)
	li	a1, 126
	sub	a1, a1, a3
	slli	a2, a1, 25
	srli	a2, a2, 28
	mv	a3, sp
	add	a3, a3, a2
	lbu	a6, 9(a3)
	lbu	a4, 8(a3)
	lbu	a5, 10(a3)
	lbu	a2, 11(a3)
	slli	a6, a6, 8
	or	a4, a6, a4
	slli	a5, a5, 16
	slli	a2, a2, 24
	or	a2, a2, a5
	or	a7, a2, a4
	andi	a4, a1, 7
	srl	a6, a7, a4
	lbu	a5, 13(a3)
	lbu	t0, 12(a3)
	lbu	a2, 14(a3)
	lbu	a1, 15(a3)
	slli	a5, a5, 8
	or	a5, a5, t0
	slli	a2, a2, 16
	slli	a1, a1, 24
	or	a1, a1, a2
	or	t0, a1, a5
	slli	a1, t0, 1
	xori	t1, a4, 31
	sll	a1, a1, t1
	or	a1, a6, a1
	lbu	a6, 5(a3)
	lbu	t2, 4(a3)
	lbu	t3, 6(a3)
	lbu	a5, 7(a3)
	slli	a6, a6, 8
	or	a2, a6, t2
	slli	t3, t3, 16
	slli	a5, a5, 24
	or	a5, a5, t3
	or	t3, a5, a2
	srl	a6, t3, a4
	slli	a7, a7, 1
	not	a2, a4
	sll	a2, a7, a2
	or	a2, a6, a2
	lbu	a6, 1(a3)
	lbu	a7, 0(a3)
	lbu	t2, 2(a3)
	lbu	a3, 3(a3)
	slli	a6, a6, 8
	or	a5, a6, a7
	slli	t2, t2, 16
	slli	a3, a3, 24
	or	a3, a3, t2
	or	a3, a3, a5
	srl	a3, a3, a4
	slli	t3, t3, 1
	sll	a5, t3, t1
	or	a3, a3, a5
	srl	a4, t0, a4
	j	.LBB45_8
.Ltmp1204:
.LBB45_4:
	.loc	15 0 13 is_stmt 0
	lui	a4, 524032
	.loc	15 236 19 is_stmt 1
	beq	a2, a4, .LBB45_6
.Ltmp1205:
	.loc	15 0 19 is_stmt 0
	sltiu	a1, a3, 2047
.Ltmp1206:
	j	.LBB45_7
.Ltmp1207:
.LBB45_6:
	seqz	a1, a1
.Ltmp1208:
.LBB45_7:
	.loc	15 236 16
	neg	a3, a1
	mv	a2, a3
.Ltmp1209:
	.loc	15 0 16
	mv	a1, a3
	mv	a4, a3
.Ltmp1210:
.LBB45_8:
	.loc	4 501 14 is_stmt 1
	sw	a3, 0(a0)
	sw	a2, 4(a0)
	sw	a1, 8(a0)
	sw	a4, 12(a0)
	.loc	4 501 14 epilogue_begin is_stmt 0
	addi	sp, sp, 32
	ret
.Ltmp1211:
.Lfunc_end45:
	.size	__fixunsdfti, .Lfunc_end45-__fixunsdfti
	.cfi_endproc

	.section	.text.__fixsfsi,"ax",@progbits
	.hidden	__fixsfsi
	.globl	__fixsfsi
	.p2align	1
	.type	__fixsfsi,@function
__fixsfsi:
.Lfunc_begin46:
	.cfi_startproc
	.loc	15 248 21 prologue_end is_stmt 1
	slli	a1, a0, 1
	srli	a1, a1, 1
.Ltmp1212:
	.loc	15 249 12
	srli	a2, a1, 23
	li	a3, 127
	bltu	a2, a3, .LBB46_7
.Ltmp1213:
	.loc	15 251 19
	srli	a2, a1, 24
	li	a3, 79
	bgeu	a2, a3, .LBB46_4
.Ltmp1214:
	.loc	15 252 31
	slli	a1, a0, 8
	lui	a2, 524288
	.loc	15 252 21 is_stmt 0
	or	a1, a1, a2
.Ltmp1215:
	.loc	15 253 27 is_stmt 1
	srli	a2, a0, 23
	li	a3, 30
	.loc	15 253 21 is_stmt 0
	sub	a3, a3, a2
.Ltmp1216:
	.loc	15 254 21 is_stmt 1
	srl	a1, a1, a3
.Ltmp1217:
	.loc	15 255 16
	bgez	a0, .LBB46_6
.Ltmp1218:
	.loc	15 0 16 is_stmt 0
	neg	a0, a1
.Ltmp1219:
	.loc	4 501 14 is_stmt 1
	ret
.LBB46_4:
.Ltmp1220:
	.loc	4 0 14 is_stmt 0
	lui	a2, 522240
	addi	a2, a2, 1
.Ltmp1221:
	.loc	15 256 19 is_stmt 1
	bgeu	a1, a2, .LBB46_7
.Ltmp1222:
	.loc	15 257 13
	srli	a0, a0, 31
.Ltmp1223:
	.loc	15 0 13 is_stmt 0
	lui	a1, 524288
	addi	a1, a1, -1
	.loc	15 257 13
	add	a1, a1, a0
.Ltmp1224:
.LBB46_6:
	.loc	4 501 14 is_stmt 1
	mv	a0, a1
	ret
.LBB46_7:
.Ltmp1225:
	li	a0, 0
.Ltmp1226:
	ret
.Ltmp1227:
.Lfunc_end46:
	.size	__fixsfsi, .Lfunc_end46-__fixsfsi
	.cfi_endproc

	.section	.text.__fixsfdi,"ax",@progbits
	.hidden	__fixsfdi
	.globl	__fixsfdi
	.p2align	1
	.type	__fixsfdi,@function
__fixsfdi:
.Lfunc_begin47:
	.cfi_startproc
	.loc	15 265 21 prologue_end
	slli	a1, a0, 1
	srli	a1, a1, 1
.Ltmp1228:
	.loc	15 266 12
	srli	a2, a1, 23
	li	a3, 127
	bltu	a2, a3, .LBB47_6
.Ltmp1229:
	.loc	15 268 19
	srli	a2, a1, 24
	li	a3, 95
	bgeu	a2, a3, .LBB47_4
.Ltmp1230:
	.loc	15 269 31
	slli	a1, a0, 8
	lui	a2, 524288
	.loc	15 269 21 is_stmt 0
	or	a2, a2, a1
.Ltmp1231:
	.loc	15 270 27 is_stmt 1
	srli	a1, a0, 23
	li	a3, 62
	.loc	15 270 21 is_stmt 0
	sub	a3, a3, a1
.Ltmp1232:
	.loc	15 271 21 is_stmt 1
	andi	a4, a3, 63
	srl	a1, a2, a3
	addi	a5, a4, -32
	srai	a3, a5, 31
	bltz	a5, .LBB47_7
.Ltmp1233:
	.loc	15 0 21 is_stmt 0
	srl	a2, a2, a4
.Ltmp1234:
	and	a1, a1, a3
.Ltmp1235:
	.loc	15 272 16 is_stmt 1
	bltz	a0, .LBB47_8
	j	.LBB47_9
.Ltmp1236:
.LBB47_4:
	.loc	15 0 16 is_stmt 0
	lui	a2, 522240
	addi	a2, a2, 1
	.loc	15 273 19 is_stmt 1
	bgeu	a1, a2, .LBB47_6
.Ltmp1237:
	.loc	15 274 16
	slti	a2, a0, 0
	xori	a0, a2, 1
.Ltmp1238:
	.loc	15 0 16 is_stmt 0
	lui	a1, 524288
	.loc	15 274 13
	sub	a1, a1, a0
	addi	a0, a2, -1
.Ltmp1239:
	.loc	4 501 14 is_stmt 1
	ret
.LBB47_6:
.Ltmp1240:
	.loc	4 0 14 is_stmt 0
	li	a1, 0
	.loc	4 501 14
	li	a0, 0
.Ltmp1241:
	ret
.LBB47_7:
.Ltmp1242:
	.loc	4 0 14
	not	a2, a4
	slli	a4, a0, 9
	sll	a2, a4, a2
.Ltmp1243:
	and	a1, a1, a3
.Ltmp1244:
	.loc	15 272 16 is_stmt 1
	bgez	a0, .LBB47_9
.Ltmp1245:
.LBB47_8:
	.loc	15 0 16 is_stmt 0
	snez	a0, a2
.Ltmp1246:
	neg	a0, a0
	sub	a1, a0, a1
	neg	a2, a2
.LBB47_9:
	.loc	4 501 14 is_stmt 1
	mv	a0, a2
	ret
.Ltmp1247:
.Lfunc_end47:
	.size	__fixsfdi, .Lfunc_end47-__fixsfdi
	.cfi_endproc

	.section	.text.__fixsfti,"ax",@progbits
	.hidden	__fixsfti
	.globl	__fixsfti
	.p2align	1
	.type	__fixsfti,@function
__fixsfti:
.Lfunc_begin48:
	.loc	4 499 0
	.cfi_startproc
	addi	sp, sp, -32
	.cfi_def_cfa_offset 32
.Ltmp1248:
	.loc	15 282 21 prologue_end
	slli	a2, a1, 1
	srli	a2, a2, 1
.Ltmp1249:
	.loc	15 283 12
	srli	a4, a2, 23
	li	a3, 127
.Ltmp1250:
	bltu	a4, a3, .LBB48_6
.Ltmp1251:
	.loc	15 285 19
	srli	a4, a2, 24
	bgeu	a4, a3, .LBB48_4
.Ltmp1252:
	.loc	15 287 27
	srli	a2, a1, 23
.Ltmp1253:
	.loc	15 0 27 is_stmt 0
	li	a3, 126
	.loc	15 287 21
	sub	a6, a3, a2
.Ltmp1254:
	.loc	15 288 21 is_stmt 1
	sb	zero, 31(sp)
	sb	zero, 30(sp)
	sb	zero, 29(sp)
	sb	zero, 28(sp)
	sb	zero, 27(sp)
	sb	zero, 26(sp)
	sb	zero, 25(sp)
	sb	zero, 24(sp)
	sb	zero, 23(sp)
	sb	zero, 22(sp)
	sb	zero, 21(sp)
	sb	zero, 20(sp)
	sb	zero, 19(sp)
	sb	zero, 18(sp)
	sb	zero, 17(sp)
	sb	zero, 16(sp)
	sb	a1, 13(sp)
	sb	zero, 12(sp)
	sb	zero, 11(sp)
	sb	zero, 10(sp)
	sb	zero, 9(sp)
	sb	zero, 8(sp)
	sb	zero, 7(sp)
	sb	zero, 6(sp)
	sb	zero, 5(sp)
	sb	zero, 4(sp)
	sb	zero, 3(sp)
	sb	zero, 2(sp)
	sb	zero, 1(sp)
	sb	zero, 0(sp)
	srli	a2, a1, 8
.Ltmp1255:
	sb	a2, 14(sp)
	srli	a2, a1, 16
	ori	a2, a2, 128
	sb	a2, 15(sp)
	slli	a2, a6, 25
	srli	a2, a2, 28
	mv	a4, sp
	add	a4, a4, a2
	lbu	a7, 9(a4)
	lbu	a5, 8(a4)
	lbu	a3, 10(a4)
	lbu	a2, 11(a4)
	slli	a7, a7, 8
	or	a5, a7, a5
	slli	a3, a3, 16
	slli	a2, a2, 24
	or	a2, a2, a3
	or	a7, a2, a5
	andi	a5, a6, 7
	srl	a6, a7, a5
	lbu	t0, 13(a4)
	lbu	t1, 12(a4)
	lbu	t2, 14(a4)
	lbu	a3, 15(a4)
	slli	t0, t0, 8
	or	a2, t0, t1
	slli	t2, t2, 16
	slli	a3, a3, 24
	or	a3, a3, t2
	or	t0, a3, a2
	slli	a2, t0, 1
	xori	t1, a5, 31
	sll	a2, a2, t1
	or	a2, a6, a2
	lbu	t2, 5(a4)
	lbu	a6, 4(a4)
	lbu	t3, 6(a4)
	lbu	a3, 7(a4)
	slli	t2, t2, 8
	or	a6, t2, a6
	slli	t3, t3, 16
	slli	a3, a3, 24
	or	a3, a3, t3
	or	a6, a3, a6
	srl	t2, a6, a5
	slli	a7, a7, 1
	not	a3, a5
	sll	a3, a7, a3
	or	a3, t2, a3
	lbu	a7, 1(a4)
	lbu	t2, 0(a4)
	lbu	t3, 2(a4)
	lbu	a4, 3(a4)
	slli	a7, a7, 8
	or	a7, a7, t2
	slli	t3, t3, 16
	slli	a4, a4, 24
	or	a4, a4, t3
	or	a4, a4, a7
	srl	a7, a4, a5
	slli	a6, a6, 1
	sll	a4, a6, t1
	or	a4, a7, a4
	srl	a5, t0, a5
.Ltmp1256:
	.loc	15 289 16
	bgez	a1, .LBB48_7
.Ltmp1257:
	.loc	15 0 16 is_stmt 0
	or	a1, a4, a3
.Ltmp1258:
	snez	a6, a1
	neg	a1, a2
	sltu	a7, a1, a6
	snez	a2, a2
	add	a2, a2, a5
	neg	a2, a2
	sub	a5, a2, a7
	snez	a2, a4
	neg	a3, a3
	sub	a3, a3, a2
	sub	a2, a1, a6
	neg	a4, a4
	j	.LBB48_7
.LBB48_4:
.Ltmp1259:
	lui	a3, 522240
	addi	a3, a3, 1
	.loc	15 290 19 is_stmt 1
	bgeu	a2, a3, .LBB48_6
.Ltmp1260:
	.loc	15 291 16
	slti	a4, a1, 0
	xori	a1, a4, 1
.Ltmp1261:
	.loc	15 0 16 is_stmt 0
	lui	a5, 524288
	.loc	15 291 13
	addi	a4, a4, -1
	sub	a5, a5, a1
	mv	a3, a4
	mv	a2, a4
	j	.LBB48_7
.Ltmp1262:
.LBB48_6:
	.loc	15 0 13
	li	a4, 0
	li	a3, 0
	li	a2, 0
	li	a5, 0
.Ltmp1263:
.LBB48_7:
	.loc	4 501 14 is_stmt 1
	sw	a4, 0(a0)
	sw	a3, 4(a0)
	sw	a2, 8(a0)
	sw	a5, 12(a0)
	.loc	4 501 14 epilogue_begin is_stmt 0
	addi	sp, sp, 32
	ret
.Ltmp1264:
.Lfunc_end48:
	.size	__fixsfti, .Lfunc_end48-__fixsfti
	.cfi_endproc

	.section	.text.__fixdfsi,"ax",@progbits
	.hidden	__fixdfsi
	.globl	__fixdfsi
	.p2align	1
	.type	__fixdfsi,@function
__fixdfsi:
.Lfunc_begin49:
	.cfi_startproc
	.loc	15 299 21 prologue_end is_stmt 1
	slli	a3, a1, 1
	srli	a3, a3, 1
.Ltmp1265:
	.loc	15 300 12
	srli	a2, a3, 20
	li	a4, 1023
.Ltmp1266:
	bgeu	a2, a4, .LBB49_2
.Ltmp1267:
	.loc	15 0 12 is_stmt 0
	li	a0, 0
.Ltmp1268:
	.loc	4 501 14 is_stmt 1
	ret
.Ltmp1269:
.LBB49_2:
	.loc	15 302 19
	srli	a4, a3, 21
	li	a5, 527
	bgeu	a4, a5, .LBB49_5
.Ltmp1270:
	.loc	15 303 31
	srli	a0, a0, 21
.Ltmp1271:
	slli	a2, a1, 11
	or	a0, a0, a2
	lui	a2, 524288
	.loc	15 303 21 is_stmt 0
	or	a0, a0, a2
.Ltmp1272:
	.loc	15 304 28 is_stmt 1
	srli	a2, a1, 20
	li	a3, 30
.Ltmp1273:
	.loc	15 305 21
	sub	a3, a3, a2
	srl	a0, a0, a3
.Ltmp1274:
	.loc	15 306 16
	bgez	a1, .LBB49_7
.Ltmp1275:
	.loc	15 0 16 is_stmt 0
	neg	a0, a0
	.loc	4 501 14 is_stmt 1
	ret
.Ltmp1276:
.LBB49_5:
	.loc	4 0 14 is_stmt 0
	lui	a4, 524032
.Ltmp1277:
	.loc	15 307 19 is_stmt 1
	beq	a3, a4, .LBB49_8
.Ltmp1278:
	.loc	15 0 19 is_stmt 0
	sltiu	a0, a2, 2047
.Ltmp1279:
	.loc	15 307 19
	bnez	a0, .LBB49_9
.Ltmp1280:
.LBB49_7:
	.loc	4 501 14 is_stmt 1
	ret
.Ltmp1281:
.LBB49_8:
	.loc	4 0 14 is_stmt 0
	seqz	a0, a0
.Ltmp1282:
	.loc	15 307 19 is_stmt 1
	beqz	a0, .LBB49_7
.Ltmp1283:
.LBB49_9:
	.loc	15 308 16
	slti	a0, a1, 0
	xori	a0, a0, 1
	lui	a1, 524288
.Ltmp1284:
	.loc	15 308 13 is_stmt 0
	sub	a0, a1, a0
.Ltmp1285:
	.loc	4 501 14 is_stmt 1
	ret
.Ltmp1286:
.Lfunc_end49:
	.size	__fixdfsi, .Lfunc_end49-__fixdfsi
	.cfi_endproc

	.section	.text.__fixdfdi,"ax",@progbits
	.hidden	__fixdfdi
	.globl	__fixdfdi
	.p2align	1
	.type	__fixdfdi,@function
__fixdfdi:
.Lfunc_begin50:
	.cfi_startproc
	.loc	15 316 21 prologue_end
	slli	a3, a1, 1
	srli	a3, a3, 1
.Ltmp1287:
	.loc	15 317 12
	srli	a2, a3, 20
	li	a4, 1023
.Ltmp1288:
	bgeu	a2, a4, .LBB50_2
.Ltmp1289:
	.loc	15 0 12 is_stmt 0
	li	a0, 0
.Ltmp1290:
	.loc	4 501 14 is_stmt 1
	li	a1, 0
.Ltmp1291:
	ret
.LBB50_2:
.Ltmp1292:
	.loc	15 319 19
	srli	a4, a3, 21
	li	a5, 543
	bgeu	a4, a5, .LBB50_6
.Ltmp1293:
	.loc	15 0 19 is_stmt 0
	li	a6, -1
	lui	a2, 524288
	addi	a2, a2, -1
	.loc	15 320 31 is_stmt 1
	srli	a3, a0, 21
	slli	a4, a1, 11
	or	a7, a4, a3
	.loc	15 320 21 is_stmt 0
	addi	a6, a6, 1
	seqz	a3, a6
	add	a4, a2, a3
.Ltmp1294:
	.loc	15 321 28 is_stmt 1
	srli	a2, a1, 20
	li	a3, 62
.Ltmp1295:
	.loc	15 322 21
	sub	a2, a3, a2
	andi	a3, a2, 63
	addi	a5, a3, -32
.Ltmp1296:
	.loc	15 320 21
	or	a4, a7, a4
.Ltmp1297:
	.loc	15 322 21
	bltz	a5, .LBB50_9
.Ltmp1298:
	.loc	15 0 21 is_stmt 0
	srl	a0, a4, a3
.Ltmp1299:
	.loc	15 322 21
	srl	a2, a4, a2
	srai	a5, a5, 31
	and	a2, a2, a5
.Ltmp1300:
	.loc	15 323 16 is_stmt 1
	bltz	a1, .LBB50_10
.Ltmp1301:
.LBB50_5:
	.loc	4 501 14
	mv	a1, a2
.Ltmp1302:
	ret
.LBB50_6:
.Ltmp1303:
	.loc	4 0 14 is_stmt 0
	lui	a4, 524032
.Ltmp1304:
	.loc	15 324 19 is_stmt 1
	beq	a3, a4, .LBB50_11
.Ltmp1305:
	.loc	15 0 19 is_stmt 0
	sltiu	a0, a2, 2047
.Ltmp1306:
	.loc	15 324 19
	bnez	a0, .LBB50_12
.Ltmp1307:
.LBB50_8:
	.loc	4 501 14 is_stmt 1
	li	a1, 0
.Ltmp1308:
	ret
.LBB50_9:
.Ltmp1309:
	.loc	4 0 14 is_stmt 0
	slli	a0, a0, 11
.Ltmp1310:
	or	a0, a0, a6
	srl	a6, a0, a2
	slli	a0, a4, 1
	not	a3, a3
	sll	a0, a0, a3
	or	a0, a6, a0
.Ltmp1311:
	.loc	15 322 21 is_stmt 1
	srl	a2, a4, a2
	srai	a5, a5, 31
	and	a2, a2, a5
.Ltmp1312:
	.loc	15 323 16
	bgez	a1, .LBB50_5
.Ltmp1313:
.LBB50_10:
	.loc	15 0 16 is_stmt 0
	snez	a1, a0
.Ltmp1314:
	add	a1, a1, a2
	neg	a1, a1
	neg	a0, a0
	.loc	4 501 14 is_stmt 1
	ret
.LBB50_11:
.Ltmp1315:
	.loc	4 0 14 is_stmt 0
	seqz	a0, a0
.Ltmp1316:
	.loc	15 324 19 is_stmt 1
	beqz	a0, .LBB50_8
.Ltmp1317:
.LBB50_12:
	.loc	15 325 13
	srli	a0, a1, 31
	snez	a2, a0
	lui	a1, 524288
.Ltmp1318:
	.loc	15 0 13 is_stmt 0
	addi	a1, a1, -1
	.loc	15 325 13
	add	a2, a2, a1
	addi	a0, a0, -1
.Ltmp1319:
	.loc	4 501 14 is_stmt 1
	mv	a1, a2
	ret
.Ltmp1320:
.Lfunc_end50:
	.size	__fixdfdi, .Lfunc_end50-__fixdfdi
	.cfi_endproc

	.section	.text.__fixdfti,"ax",@progbits
	.hidden	__fixdfti
	.globl	__fixdfti
	.p2align	1
	.type	__fixdfti,@function
__fixdfti:
.Lfunc_begin51:
	.loc	4 499 0
	.cfi_startproc
	addi	sp, sp, -32
	.cfi_def_cfa_offset 32
.Ltmp1321:
	.loc	15 333 21 prologue_end
	slli	a4, a2, 1
	srli	a4, a4, 1
.Ltmp1322:
	.loc	15 334 12
	srli	a3, a4, 20
	li	a5, 1023
.Ltmp1323:
	bgeu	a3, a5, .LBB51_2
.Ltmp1324:
	.loc	15 0 12 is_stmt 0
	li	a4, 0
	li	a3, 0
	li	a1, 0
.Ltmp1325:
	li	a5, 0
	j	.LBB51_10
.Ltmp1326:
.LBB51_2:
	.loc	15 336 19 is_stmt 1
	srli	a6, a4, 21
	li	a5, 575
	bgeu	a6, a5, .LBB51_5
.Ltmp1327:
	.loc	15 337 32
	srli	a3, a1, 21
	slli	a4, a2, 11
	or	a4, a4, a3
.Ltmp1328:
	.loc	15 338 28
	srli	a5, a2, 20
.Ltmp1329:
	.loc	15 339 21
	sb	zero, 31(sp)
	sb	zero, 30(sp)
	sb	zero, 29(sp)
	sb	zero, 28(sp)
	sb	zero, 27(sp)
	sb	zero, 26(sp)
	sb	zero, 25(sp)
	sb	zero, 24(sp)
	sb	zero, 23(sp)
	sb	zero, 22(sp)
	sb	zero, 21(sp)
	sb	zero, 20(sp)
	sb	zero, 19(sp)
	sb	zero, 18(sp)
	sb	zero, 17(sp)
	sb	zero, 16(sp)
	sb	zero, 8(sp)
	sb	zero, 7(sp)
	sb	zero, 6(sp)
	sb	zero, 5(sp)
	sb	zero, 4(sp)
	sb	zero, 3(sp)
	sb	zero, 2(sp)
	sb	zero, 1(sp)
	sb	zero, 0(sp)
	sb	a3, 12(sp)
	srli	a3, a1, 13
	sb	a3, 11(sp)
	srli	a3, a1, 5
	sb	a3, 10(sp)
	slli	a1, a1, 3
.Ltmp1330:
	sb	a1, 9(sp)
	srli	a1, a2, 5
	sb	a1, 14(sp)
	srli	a1, a2, 13
	ori	a1, a1, 128
	sb	a1, 15(sp)
	srli	a4, a4, 8
	sb	a4, 13(sp)
	li	a1, 126
	sub	a1, a1, a5
	slli	a3, a1, 25
	srli	a3, a3, 28
	mv	a4, sp
	add	a4, a4, a3
	lbu	a6, 9(a4)
	lbu	a7, 8(a4)
	lbu	t0, 10(a4)
	lbu	a5, 11(a4)
	slli	a6, a6, 8
	or	a3, a6, a7
	slli	t0, t0, 16
	slli	a5, a5, 24
	or	a5, a5, t0
	or	a7, a5, a3
	andi	a5, a1, 7
	srl	a6, a7, a5
	lbu	t0, 13(a4)
	lbu	t1, 12(a4)
	lbu	t2, 14(a4)
	lbu	a3, 15(a4)
	slli	t0, t0, 8
	or	a1, t0, t1
	slli	t2, t2, 16
	slli	a3, a3, 24
	or	a3, a3, t2
	or	t0, a3, a1
	slli	a1, t0, 1
	xori	t1, a5, 31
	sll	a1, a1, t1
	or	a1, a6, a1
	lbu	t2, 5(a4)
	lbu	a6, 4(a4)
	lbu	t3, 6(a4)
	lbu	a3, 7(a4)
	slli	t2, t2, 8
	or	a6, t2, a6
	slli	t3, t3, 16
	slli	a3, a3, 24
	or	a3, a3, t3
	or	a6, a3, a6
	srl	t2, a6, a5
	slli	a7, a7, 1
	not	a3, a5
	sll	a3, a7, a3
	or	a3, t2, a3
	lbu	a7, 1(a4)
	lbu	t2, 0(a4)
	lbu	t3, 2(a4)
	lbu	a4, 3(a4)
	slli	a7, a7, 8
	or	a7, a7, t2
	slli	t3, t3, 16
	slli	a4, a4, 24
	or	a4, a4, t3
	or	a4, a4, a7
	srl	a7, a4, a5
	slli	a6, a6, 1
	sll	a4, a6, t1
	or	a4, a7, a4
	srl	a5, t0, a5
.Ltmp1331:
	.loc	15 340 16
	bgez	a2, .LBB51_10
.Ltmp1332:
	.loc	15 0 16 is_stmt 0
	or	a2, a4, a3
.Ltmp1333:
	snez	a6, a2
	neg	a2, a1
	sltu	a7, a2, a6
	snez	a1, a1
	add	a1, a1, a5
	neg	a1, a1
	sub	a5, a1, a7
	snez	a1, a4
	neg	a3, a3
	sub	a3, a3, a1
	sub	a1, a2, a6
	neg	a4, a4
	j	.LBB51_10
.LBB51_5:
.Ltmp1334:
	lui	a5, 524032
	.loc	15 341 19 is_stmt 1
	beq	a4, a5, .LBB51_8
.Ltmp1335:
	.loc	15 0 19 is_stmt 0
	sltiu	a1, a3, 2047
.Ltmp1336:
	.loc	15 341 19
	bnez	a1, .LBB51_9
.Ltmp1337:
.LBB51_7:
	.loc	15 0 19
	li	a4, 0
	li	a3, 0
	li	a5, 0
	j	.LBB51_10
.Ltmp1338:
.LBB51_8:
	seqz	a1, a1
.Ltmp1339:
	.loc	15 341 19
	beqz	a1, .LBB51_7
.Ltmp1340:
.LBB51_9:
	.loc	15 342 16 is_stmt 1
	slti	a4, a2, 0
	xori	a1, a4, 1
	lui	a5, 524288
	.loc	15 342 13 is_stmt 0
	addi	a4, a4, -1
	sub	a5, a5, a1
	mv	a3, a4
	mv	a1, a4
.Ltmp1341:
.LBB51_10:
	.loc	4 501 14 is_stmt 1
	sw	a4, 0(a0)
	sw	a3, 4(a0)
	sw	a1, 8(a0)
	sw	a5, 12(a0)
	.loc	4 501 14 epilogue_begin is_stmt 0
	addi	sp, sp, 32
	ret
.Ltmp1342:
.Lfunc_end51:
	.size	__fixdfti, .Lfunc_end51-__fixdfti
	.cfi_endproc

	.section	.text._ZN17compiler_builtins5float3div8__divsf317ha6af7f06099ec053E,"ax",@progbits
	.hidden	_ZN17compiler_builtins5float3div8__divsf317ha6af7f06099ec053E
	.globl	_ZN17compiler_builtins5float3div8__divsf317ha6af7f06099ec053E
	.p2align	1
	.type	_ZN17compiler_builtins5float3div8__divsf317ha6af7f06099ec053E,@function
_ZN17compiler_builtins5float3div8__divsf317ha6af7f06099ec053E:
.Lfunc_begin52:
	.loc	4 491 0 is_stmt 1
	.cfi_startproc
	mv	a2, a0
.Ltmp1343:
	lui	a6, 2048
	addi	t2, a6, -1
.Ltmp1344:
	.loc	5 171 46 prologue_end
	slli	a0, a0, 1
	srli	t4, a0, 24
.Ltmp1345:
	.loc	5 171 46 is_stmt 0
	slli	a0, a1, 1
	srli	t5, a0, 24
.Ltmp1346:
	.loc	5 371 48 is_stmt 1
	xor	a0, a1, a2
	lui	a3, 524288
.Ltmp1347:
	.loc	5 171 46
	and	a0, a0, a3
.Ltmp1348:
	.loc	5 171 46 is_stmt 0
	and	a7, a2, t2
.Ltmp1349:
	.loc	6 1513 52 is_stmt 1
	addi	a4, t4, -255
	sltiu	a4, a4, -254
	addi	a5, t5, -255
	sltiu	a5, a5, -254
.Ltmp1350:
	.file	16 "/Users/steve/.cargo/registry/src/index.crates.io-6f17d22bba15001f/compiler_builtins-0.1.105" "src/float/div.rs"
	.loc	16 57 8
	or	a4, a4, a5
.Ltmp1351:
	.loc	5 171 46
	and	t0, a1, t2
.Ltmp1352:
	.loc	16 57 8
	beqz	a4, .LBB52_3
.Ltmp1353:
	.loc	16 0 8 is_stmt 0
	addi	a3, a3, -1
.Ltmp1354:
	.loc	5 171 46 is_stmt 1
	and	a5, a2, a3
.Ltmp1355:
	.loc	5 0 46 is_stmt 0
	lui	a4, 522240
.Ltmp1356:
	.loc	16 64 12 is_stmt 1
	bgeu	a4, a5, .LBB52_10
.Ltmp1357:
	.loc	16 0 12 is_stmt 0
	lui	a0, 1024
.Ltmp1358:
	.loc	5 271 45 is_stmt 1
	or	a0, a0, a2
.Ltmp1359:
	.loc	4 493 10
	ret
.Ltmp1360:
.LBB52_3:
	.loc	4 0 10 is_stmt 0
	li	t3, 0
.Ltmp1361:
.LBB52_4:
	.loc	5 790 53 is_stmt 1
	or	t0, t0, a6
.Ltmp1362:
	.loc	8 1157 5
	sub	a1, t4, t5
.Ltmp1363:
	.loc	5 470 17
	slli	a3, t0, 8
	lui	a4, 479311
	addi	a4, a4, 819
.Ltmp1364:
	.loc	8 1157 5
	sub	a4, a4, a3
.Ltmp1365:
	.loc	16 317 17
	mulhu	a5, a4, a3
.Ltmp1366:
	.loc	16 316 33
	neg	a5, a5
.Ltmp1367:
	.loc	16 320 23
	mul	a2, a5, a4
	mulhu	a4, a5, a4
.Ltmp1368:
	.loc	16 320 22 is_stmt 0
	slli	a4, a4, 1
	srli	a2, a2, 31
	or	a2, a2, a4
.Ltmp1369:
	.loc	16 317 17 is_stmt 1
	mulhu	a4, a2, a3
	.loc	16 316 33
	neg	a4, a4
.Ltmp1370:
	.loc	16 320 23
	mul	a5, a2, a4
	mulhu	a2, a2, a4
.Ltmp1371:
	.loc	16 320 22 is_stmt 0
	slli	a2, a2, 1
	srli	a5, a5, 31
	or	a2, a2, a5
.Ltmp1372:
	.loc	16 317 17 is_stmt 1
	mulhu	a3, a2, a3
.Ltmp1373:
	.loc	16 316 33
	neg	a3, a3
.Ltmp1374:
	.loc	16 320 23
	mul	a4, a2, a3
	mulhu	a2, a2, a3
.Ltmp1375:
	.loc	16 320 22 is_stmt 0
	slli	a2, a2, 1
	srli	a4, a4, 31
	or	a2, a2, a4
.Ltmp1376:
	.loc	5 790 53 is_stmt 1
	or	a3, a7, a6
.Ltmp1377:
	.loc	10 212 45
	addi	a2, a2, -12
.Ltmp1378:
	.loc	5 470 17
	slli	a5, a3, 1
.Ltmp1379:
	.loc	8 1181 5
	mulhu	a4, a2, a5
.Ltmp1380:
	.loc	6 1509 52
	srli	a2, a4, 24
.Ltmp1381:
	.loc	8 1157 5
	add	a1, a1, t3
.Ltmp1382:
	.loc	16 365 47
	bnez	a2, .LBB52_6
.Ltmp1383:
	.loc	5 470 17
	slli	a7, a7, 24
.Ltmp1384:
	.loc	8 1157 5
	mul	a2, t0, a4
.Ltmp1385:
	.loc	8 1157 5 is_stmt 0
	sub	a6, a7, a2
.Ltmp1386:
	.loc	8 347 5 is_stmt 1
	addi	a1, a1, 126
.Ltmp1387:
	.loc	8 0 5 is_stmt 0
	mv	a3, a5
	li	a2, 254
.Ltmp1388:
	.loc	16 413 8 is_stmt 1
	blt	a2, a1, .LBB52_7
	j	.LBB52_8
.Ltmp1389:
.LBB52_6:
	.loc	8 1157 5
	addi	a1, a1, 127
.Ltmp1390:
	.loc	5 1006 17
	srli	a4, a4, 1
.Ltmp1391:
	.loc	5 470 17
	slli	a7, a7, 23
.Ltmp1392:
	.loc	8 1157 5
	mul	a2, a4, t0
.Ltmp1393:
	.loc	8 1157 5 is_stmt 0
	sub	a6, a7, a2
	li	a2, 254
.Ltmp1394:
	.loc	16 413 8 is_stmt 1
	bge	a2, a1, .LBB52_8
.Ltmp1395:
.LBB52_7:
	.loc	16 0 8 is_stmt 0
	lui	a1, 522240
.Ltmp1396:
	.loc	5 271 45 is_stmt 1
	or	a0, a0, a1
.Ltmp1397:
	.loc	4 493 10
	ret
.Ltmp1398:
.LBB52_8:
	.loc	16 420 25
	blez	a1, .LBB52_15
.Ltmp1399:
	.loc	5 171 46
	and	a2, a4, t2
.Ltmp1400:
	.loc	16 422 16
	slli	a1, a1, 23
.Ltmp1401:
	.loc	5 790 53
	or	a1, a1, a2
.Ltmp1402:
	.loc	5 924 17
	slli	a3, a6, 1
.Ltmp1403:
	.loc	5 0 17 is_stmt 0
	j	.LBB52_17
.Ltmp1404:
.LBB52_10:
	and	t1, a1, a3
.Ltmp1405:
	.loc	16 68 12 is_stmt 1
	bgeu	a4, t1, .LBB52_12
.Ltmp1406:
	.loc	16 0 12 is_stmt 0
	lui	a0, 1024
.Ltmp1407:
	.loc	5 271 45 is_stmt 1
	or	a0, a0, a1
.Ltmp1408:
	.loc	4 493 10
	ret
.Ltmp1409:
.LBB52_12:
	.loc	4 0 10 is_stmt 0
	lui	t3, 522240
.Ltmp1410:
	.loc	16 72 12 is_stmt 1
	bne	a5, t3, .LBB52_18
.Ltmp1411:
	.loc	16 0 12 is_stmt 0
	lui	a0, 523264
.Ltmp1412:
	.loc	16 73 16 is_stmt 1
	beq	t1, t3, .LBB52_19
.Ltmp1413:
	.loc	16 0 16 is_stmt 0
	lui	a0, 524288
.Ltmp1414:
	.loc	5 271 45 is_stmt 1
	and	a0, a0, a1
	xor	a0, a0, a2
.Ltmp1415:
	.loc	4 493 10
	ret
.Ltmp1416:
.LBB52_15:
	.loc	4 0 10 is_stmt 0
	li	a2, -23
.Ltmp1417:
	.loc	16 426 12 is_stmt 1
	blt	a1, a2, .LBB52_19
.Ltmp1418:
	addi	a2, a1, 23
	li	a5, 1
	.loc	16 429 41
	sub	a5, a5, a1
.Ltmp1419:
	.loc	8 1157 5
	srl	a1, a4, a5
.Ltmp1420:
	.loc	8 1157 5 is_stmt 0
	sll	a2, a3, a2
.Ltmp1421:
	.loc	16 436 13 is_stmt 1
	mul	a3, t0, a1
.Ltmp1422:
	slli	a3, a3, 1
.Ltmp1423:
	.loc	8 1157 5
	sub	a3, a2, a3
.Ltmp1424:
.LBB52_17:
	.loc	5 171 46
	andi	a2, a1, 1
.Ltmp1425:
	.loc	10 759 51
	add	a2, a2, a3
.Ltmp1426:
	.loc	6 1515 52
	sltu	a2, t0, a2
.Ltmp1427:
	.loc	16 446 12
	add	a1, a1, a2
.Ltmp1428:
	.loc	5 271 45
	or	a0, a0, a1
.Ltmp1429:
	.loc	4 493 10
	ret
.Ltmp1430:
.LBB52_18:
	.loc	16 83 12
	bne	t1, t3, .LBB52_20
.Ltmp1431:
.LBB52_19:
	.loc	4 493 10
	ret
.LBB52_20:
.Ltmp1432:
	.loc	16 87 12
	beqz	a5, .LBB52_25
.Ltmp1433:
	.loc	16 98 12
	beqz	t1, .LBB52_7
.Ltmp1434:
	.loc	6 1509 52
	srli	a5, a5, 23
.Ltmp1435:
	.loc	6 0 52 is_stmt 0
	bnez	a5, .LBB52_27
.Ltmp1436:
	.loc	8 1157 5 is_stmt 1
	beqz	a7, .LBB52_28
.Ltmp1437:
	srli	a1, a7, 1
.Ltmp1438:
	or	a1, a7, a1
	srli	a2, a1, 2
.Ltmp1439:
	or	a1, a1, a2
	srli	a2, a1, 4
	or	a1, a1, a2
	srli	a2, a1, 8
	or	a1, a1, a2
	srli	a2, a1, 16
	or	a1, a1, a2
	not	a1, a1
	srli	a2, a1, 1
	lui	a3, 349525
	addi	a3, a3, 1365
	and	a2, a2, a3
	sub	a1, a1, a2
	lui	a2, 209715
	addi	a2, a2, 819
	and	a3, a1, a2
	srli	a1, a1, 2
	and	a1, a1, a2
	add	a1, a1, a3
	srli	a2, a1, 4
	add	a1, a1, a2
	lui	a2, 61681
	addi	a2, a2, -241
	and	a1, a1, a2
	lui	a2, 4112
	addi	a2, a2, 257
	mul	a1, a1, a2
	srli	a1, a1, 24
	j	.LBB52_29
.Ltmp1440:
.LBB52_25:
	.loc	16 88 16
	bnez	t1, .LBB52_19
.Ltmp1441:
	.loc	16 0 16 is_stmt 0
	lui	a0, 523264
	.loc	4 493 10 is_stmt 1
	ret
.Ltmp1442:
.LBB52_27:
	.loc	4 0 10 is_stmt 0
	li	t3, 0
	j	.LBB52_30
.Ltmp1443:
.LBB52_28:
	li	a1, 32
.Ltmp1444:
.LBB52_29:
	.loc	8 1157 5 is_stmt 1
	addi	a2, a1, 24
	li	a3, 9
.Ltmp1445:
	.loc	8 347 5
	sub	t3, a3, a1
.Ltmp1446:
	.loc	9 164 21
	sll	a7, a7, a2
.Ltmp1447:
.LBB52_30:
	.loc	6 1509 52
	srli	a1, t1, 23
.Ltmp1448:
	.loc	16 111 12
	bnez	a1, .LBB52_4
.Ltmp1449:
	.loc	8 1157 5
	beqz	t0, .LBB52_33
.Ltmp1450:
	srli	a1, t0, 1
	or	a1, t0, a1
	srli	a2, a1, 2
	or	a1, a1, a2
	srli	a2, a1, 4
	or	a1, a1, a2
	srli	a2, a1, 8
	or	a1, a1, a2
	srli	a2, a1, 16
	or	a1, a1, a2
	not	a1, a1
	srli	a2, a1, 1
	lui	a3, 349525
	addi	a3, a3, 1365
	and	a2, a2, a3
	sub	a1, a1, a2
	lui	a2, 209715
	addi	a2, a2, 819
	and	a3, a1, a2
	srli	a1, a1, 2
	and	a1, a1, a2
	add	a1, a1, a3
	srli	a2, a1, 4
	add	a1, a1, a2
	lui	a2, 61681
	addi	a2, a2, -241
	and	a1, a1, a2
	lui	a2, 4112
	addi	a2, a2, 257
	mul	a2, a1, a2
	srli	a2, a2, 24
	j	.LBB52_34
.Ltmp1451:
.LBB52_33:
	.loc	8 0 5 is_stmt 0
	li	a2, 32
.Ltmp1452:
.LBB52_34:
	.loc	8 1157 5
	addi	a1, a2, 24
.Ltmp1453:
	.loc	8 347 5 is_stmt 1
	add	a2, a2, t3
.Ltmp1454:
	.loc	9 164 21
	sll	t0, t0, a1
.Ltmp1455:
	.loc	16 113 13
	addi	t3, a2, -9
.Ltmp1456:
	.loc	16 0 13 is_stmt 0
	j	.LBB52_4
.Ltmp1457:
.Lfunc_end52:
	.size	_ZN17compiler_builtins5float3div8__divsf317ha6af7f06099ec053E, .Lfunc_end52-_ZN17compiler_builtins5float3div8__divsf317ha6af7f06099ec053E
	.cfi_endproc

	.section	.text.__divsf3,"ax",@progbits
	.hidden	__divsf3
	.globl	__divsf3
	.p2align	1
	.type	__divsf3,@function
__divsf3:
.Lfunc_begin53:
	.cfi_startproc
	.loc	4 500 17 prologue_end is_stmt 1
	tail	_ZN17compiler_builtins5float3div8__divsf317ha6af7f06099ec053E
.Ltmp1458:
.Lfunc_end53:
	.size	__divsf3, .Lfunc_end53-__divsf3
	.cfi_endproc

	.section	.text._ZN17compiler_builtins5float3div8__divdf317hd43606bcdba8a308E,"ax",@progbits
	.hidden	_ZN17compiler_builtins5float3div8__divdf317hd43606bcdba8a308E
	.globl	_ZN17compiler_builtins5float3div8__divdf317hd43606bcdba8a308E
	.p2align	1
	.type	_ZN17compiler_builtins5float3div8__divdf317hd43606bcdba8a308E,@function
_ZN17compiler_builtins5float3div8__divdf317hd43606bcdba8a308E:
.Lfunc_begin54:
	.loc	4 491 0
	.cfi_startproc
	addi	sp, sp, -32
	.cfi_def_cfa_offset 32
	sw	s0, 28(sp)
	sw	s1, 24(sp)
	sw	s2, 20(sp)
	sw	s3, 16(sp)
	sw	s4, 12(sp)
	.cfi_offset s0, -4
	.cfi_offset s1, -8
	.cfi_offset s2, -12
	.cfi_offset s3, -16
	.cfi_offset s4, -20
	mv	s0, a1
.Ltmp1459:
	li	a6, -1
	lui	a5, 524288
	addi	s4, a5, -1
	lui	t1, 256
	addi	t1, t1, -1
.Ltmp1460:
	.loc	5 171 46 prologue_end
	slli	a1, a1, 1
	srli	t2, a1, 21
.Ltmp1461:
	.loc	5 171 46 is_stmt 0
	slli	a1, a3, 1
	srli	t6, a1, 21
.Ltmp1462:
	.loc	5 371 48 is_stmt 1
	xor	a4, a3, s0
	li	a7, 1
.Ltmp1463:
	.loc	5 171 46
	add	a1, a7, s4
	and	a1, a1, a4
.Ltmp1464:
	.loc	5 171 46 is_stmt 0
	and	t0, s0, t1
.Ltmp1465:
	.loc	6 1513 52 is_stmt 1
	addi	a4, t2, -2047
.Ltmp1466:
	sltu	s1, a4, t2
	sltiu	a4, a4, -2046
	or	a4, a4, s1
	addi	s1, t6, -2047
	sltu	a5, s1, t6
	sltiu	s1, s1, -2046
	or	a5, a5, s1
.Ltmp1467:
	.loc	16 507 8
	or	a4, a4, a5
.Ltmp1468:
	.loc	5 171 46
	and	t3, a3, t1
.Ltmp1469:
	.loc	16 507 8
	beqz	a4, .LBB54_8
.Ltmp1470:
	.loc	5 171 46
	and	t5, s0, s4
.Ltmp1471:
	.loc	5 0 46 is_stmt 0
	lui	s1, 524032
.Ltmp1472:
	.loc	5 171 46
	and	a4, a0, a6
.Ltmp1473:
	.loc	6 1515 52 is_stmt 1
	beq	t5, s1, .LBB54_19
.Ltmp1474:
	.loc	6 0 52 is_stmt 0
	sltu	s1, s1, t5
.Ltmp1475:
	.loc	16 514 12 is_stmt 1
	bnez	s1, .LBB54_20
.Ltmp1476:
.LBB54_3:
	.loc	16 0 0 is_stmt 0
	and	t4, a3, s4
.Ltmp1477:
	lui	s1, 524032
	and	s3, a2, a6
.Ltmp1478:
	.loc	6 1515 52 is_stmt 1
	beq	t4, s1, .LBB54_23
.Ltmp1479:
	.loc	6 0 52 is_stmt 0
	sltu	s1, s1, t4
.Ltmp1480:
	.loc	16 518 12 is_stmt 1
	bnez	s1, .LBB54_24
.Ltmp1481:
.LBB54_5:
	.loc	16 0 12 is_stmt 0
	lui	s2, 524032
.Ltmp1482:
	.loc	6 1425 52 is_stmt 1
	xor	a5, t5, s2
	or	a5, a5, a4
.Ltmp1483:
	.loc	16 522 12
	bnez	a5, .LBB54_25
.Ltmp1484:
	.loc	6 1425 52
	xor	a1, t4, s2
.Ltmp1485:
	or	a1, s3, a1
.Ltmp1486:
	.loc	16 523 16
	bnez	a1, .LBB54_35
.Ltmp1487:
	.loc	16 0 16 is_stmt 0
	li	a0, 0
.Ltmp1488:
	lui	a1, 524160
	j	.LBB54_45
.Ltmp1489:
.LBB54_8:
	li	t5, 0
.Ltmp1490:
.LBB54_9:
	.loc	5 790 53 is_stmt 1
	addi	a3, a6, 1
	seqz	a4, a3
	add	s3, t1, a4
	or	t3, t3, s3
.Ltmp1491:
	or	t4, a2, a3
.Ltmp1492:
	.loc	8 1181 5
	sltu	s0, t2, t6
	sub	s2, t2, t6
.Ltmp1493:
	.loc	13 373 17
	srai	a4, t5, 31
.Ltmp1494:
	.loc	8 1181 5
	sub	t6, a4, s0
.Ltmp1495:
	.loc	16 620 13
	srli	s0, t4, 21
	slli	a4, t3, 11
.Ltmp1496:
	or	a4, a4, s0
	lui	s0, 479311
	addi	s0, s0, 819
.Ltmp1497:
	.loc	8 1157 5
	sub	s0, s0, a4
.Ltmp1498:
	.loc	8 1181 5
	mulhu	s1, a4, s0
.Ltmp1499:
	.loc	16 665 21
	neg	s1, s1
.Ltmp1500:
	.loc	8 1181 5
	mul	a5, s1, s0
	mulhu	s1, s1, s0
.Ltmp1501:
	.loc	16 680 28
	slli	s1, s1, 1
	srli	a5, a5, 31
	or	a5, a5, s1
.Ltmp1502:
	.loc	8 1181 5
	mulhu	s1, a5, a4
.Ltmp1503:
	.loc	16 665 21
	neg	s1, s1
.Ltmp1504:
	.loc	8 1181 5
	mul	s0, a5, s1
	mulhu	a5, a5, s1
.Ltmp1505:
	.loc	16 680 28
	slli	a5, a5, 1
	srli	s0, s0, 31
	or	a5, a5, s0
.Ltmp1506:
	.loc	8 1181 5
	mulhu	s1, a5, a4
.Ltmp1507:
	.loc	16 665 21
	neg	s1, s1
.Ltmp1508:
	.loc	8 1181 5
	mul	s0, a5, s1
	mulhu	a5, a5, s1
.Ltmp1509:
	.loc	16 680 28
	slli	a5, a5, 1
	srli	s0, s0, 31
	or	a5, a5, s0
.Ltmp1510:
	.loc	5 790 53
	or	t0, t0, s3
.Ltmp1511:
	or	t2, a0, a3
.Ltmp1512:
	.loc	5 470 17
	slli	a2, a2, 11
.Ltmp1513:
	.loc	8 1157 5
	addi	a5, a5, -1
.Ltmp1514:
	.loc	16 730 13
	mulhu	a3, a4, a5
	mul	a4, a4, a5
.Ltmp1515:
	.loc	16 730 54 is_stmt 0
	mulhu	a2, a2, a5
.Ltmp1516:
	.loc	8 370 5 is_stmt 1
	add	a2, a2, a4
	sltu	a4, a2, a4
	add	a3, a3, a4
	sltiu	a4, a2, 2
	xori	a4, a4, 1
	add	a3, a3, a4
	neg	a3, a3
	sub	a2, a7, a2
.Ltmp1517:
	.loc	16 735 45
	mul	a4, a5, a3
	srli	s1, a4, 31
.Ltmp1518:
	mulhu	a3, a5, a3
.Ltmp1519:
	slli	a3, a3, 1
	or	a3, a3, s1
	slli	a4, a4, 1
	.loc	16 736 27
	mul	s1, a2, a5
	mulhu	a2, a2, a5
.Ltmp1520:
	slli	a5, a2, 1
.Ltmp1521:
	srli	s1, s1, 31
	or	a5, a5, s1
	srli	a2, a2, 31
.Ltmp1522:
	.loc	8 1181 5
	add	a5, a5, a4
.Ltmp1523:
	sltu	a4, a5, a4
.Ltmp1524:
	add	a2, a2, a3
.Ltmp1525:
	add	a2, a2, a4
.Ltmp1526:
	.loc	10 212 45
	addi	a4, a5, -225
	sltu	a3, a4, a5
.Ltmp1527:
	add	a2, a2, a3
	addi	a2, a2, -1
.Ltmp1528:
	.loc	5 470 17
	srli	a3, t2, 31
	slli	a5, t0, 1
	or	a3, a3, a5
.Ltmp1529:
	slli	s3, t2, 1
.Ltmp1530:
	.loc	8 1205 5
	mul	a5, a2, s3
	mulhu	s1, a4, s3
	add	s1, s1, a5
	sltu	a5, s1, a5
	mulhu	s0, a2, s3
	add	s0, s0, a5
	mul	a5, a4, a3
	add	s1, s1, a5
.Ltmp1531:
	sltu	s1, s1, a5
.Ltmp1532:
	.loc	8 1181 5
	add	a5, s2, t5
.Ltmp1533:
	sltu	a7, a5, s2
.Ltmp1534:
	.loc	8 1205 5
	mulhu	a4, a4, a3
.Ltmp1535:
	add	a4, a4, s1
.Ltmp1536:
	add	a4, a4, s0
	sltu	s1, a4, s0
	mulhu	s0, a2, a3
	add	s0, s0, s1
	mul	a2, a2, a3
.Ltmp1537:
	add	s1, a2, a4
.Ltmp1538:
	sltu	a2, s1, a2
	add	s2, s0, a2
.Ltmp1539:
	.loc	6 1509 52
	srli	a2, s2, 21
.Ltmp1540:
	.loc	8 1181 5
	add	a4, t6, a7
.Ltmp1541:
	.loc	16 814 47
	bnez	a2, .LBB54_12
.Ltmp1542:
	.loc	5 470 17
	slli	a7, a0, 21
.Ltmp1543:
	.loc	8 1181 5
	mulhu	a2, t4, s1
	mul	a0, t4, s2
.Ltmp1544:
	mul	s0, t3, s1
	add	a2, a2, s0
.Ltmp1545:
	mul	s0, t4, s1
.Ltmp1546:
	sub	a2, a7, a2
.Ltmp1547:
	.loc	8 1181 5 is_stmt 0
	sub	a2, a2, a0
	snez	a0, s0
	sub	a7, a2, a0
.Ltmp1548:
	neg	a0, s0
.Ltmp1549:
	.loc	8 370 5 is_stmt 1
	addi	t5, a5, 1022
.Ltmp1550:
	sltu	a2, t5, a5
	add	a4, a4, a2
	mv	t2, s3
	mv	t0, a3
.Ltmp1551:
	.loc	16 862 8
	bnez	a4, .LBB54_13
.Ltmp1552:
.LBB54_11:
	.loc	16 0 8 is_stmt 0
	sltiu	a2, t5, 2047
	xori	a3, a2, 1
	.loc	16 862 8
	bnez	a3, .LBB54_14
	j	.LBB54_15
.Ltmp1553:
.LBB54_12:
	.loc	8 1181 5 is_stmt 1
	addi	t5, a5, 1023
.Ltmp1554:
	sltu	a2, t5, a5
	add	a4, a4, a2
.Ltmp1555:
	.loc	5 1006 17
	srli	s1, s1, 1
.Ltmp1556:
	slli	a2, s2, 31
	or	s1, s1, a2
.Ltmp1557:
	srli	s2, s2, 1
.Ltmp1558:
	.loc	5 470 17
	slli	a0, a0, 20
.Ltmp1559:
	.loc	8 1181 5
	mul	a2, s1, t3
	mulhu	a3, s1, t4
	add	a2, a2, a3
	mul	a3, s2, t4
.Ltmp1560:
	mul	a5, s1, t4
.Ltmp1561:
	sub	a0, a0, a3
.Ltmp1562:
	.loc	8 1181 5 is_stmt 0
	sub	a0, a0, a2
	snez	a2, a5
	sub	a7, a0, a2
.Ltmp1563:
	neg	a0, a5
.Ltmp1564:
	.loc	16 862 8 is_stmt 1
	beqz	a4, .LBB54_11
.Ltmp1565:
.LBB54_13:
	.loc	16 0 8 is_stmt 0
	sgtz	a3, a4
	.loc	16 862 8
	beqz	a3, .LBB54_15
.Ltmp1566:
.LBB54_14:
	.loc	16 0 8
	li	a0, 0
	lui	a2, 524032
.Ltmp1567:
	.loc	5 271 45 is_stmt 1
	or	a1, a1, a2
.Ltmp1568:
	.loc	5 0 45 is_stmt 0
	j	.LBB54_45
.Ltmp1569:
.LBB54_15:
	beqz	a4, .LBB54_21
.Ltmp1570:
	sgtz	a3, a4
	bnez	a3, .LBB54_22
.Ltmp1571:
.LBB54_17:
	li	a0, -1
	beq	a4, a0, .LBB54_31
.Ltmp1572:
	slti	a0, a4, -1
	bnez	a0, .LBB54_32
	j	.LBB54_33
.Ltmp1573:
.LBB54_19:
	snez	s1, a4
.Ltmp1574:
	.loc	16 514 12 is_stmt 1
	beqz	s1, .LBB54_3
.Ltmp1575:
.LBB54_20:
	.loc	16 0 12 is_stmt 0
	lui	a1, 128
.Ltmp1576:
	.loc	5 271 45 is_stmt 1
	or	a1, a1, s0
.Ltmp1577:
	.loc	5 0 45 is_stmt 0
	j	.LBB54_45
.Ltmp1578:
.LBB54_21:
	snez	a3, t5
.Ltmp1579:
	.loc	16 869 25 is_stmt 1
	beqz	a3, .LBB54_17
.Ltmp1580:
.LBB54_22:
	.loc	5 171 46
	and	a5, s1, a6
	and	a2, s2, t1
.Ltmp1581:
	.loc	16 871 16
	slli	t5, t5, 20
.Ltmp1582:
	.loc	5 790 53
	or	a2, t5, a2
.Ltmp1583:
	.loc	5 924 17
	srli	a3, a0, 31
	slli	a7, a7, 1
.Ltmp1584:
	or	a3, a7, a3
	slli	a0, a0, 1
.Ltmp1585:
	.loc	5 0 17 is_stmt 0
	j	.LBB54_41
.Ltmp1586:
.LBB54_23:
	snez	s1, s3
.Ltmp1587:
	.loc	16 518 12 is_stmt 1
	beqz	s1, .LBB54_5
.Ltmp1588:
.LBB54_24:
	.loc	16 0 12 is_stmt 0
	lui	a1, 128
.Ltmp1589:
	.loc	5 271 45 is_stmt 1
	or	a1, a1, a3
.Ltmp1590:
	.loc	5 0 45 is_stmt 0
	mv	a0, a2
.Ltmp1591:
	j	.LBB54_45
.Ltmp1592:
.LBB54_25:
	.loc	6 1425 52 is_stmt 1
	xor	a3, t4, s2
.Ltmp1593:
	or	a3, s3, a3
.Ltmp1594:
	.loc	16 533 12
	beqz	a3, .LBB54_32
.Ltmp1595:
	.loc	6 1425 52
	or	a3, a4, t5
.Ltmp1596:
	.loc	16 537 12
	beqz	a3, .LBB54_46
.Ltmp1597:
	.loc	6 1425 52
	or	a3, s3, t4
.Ltmp1598:
	.loc	16 548 12
	beqz	a3, .LBB54_14
.Ltmp1599:
	.loc	6 1509 52
	srli	a3, t5, 20
	bnez	a3, .LBB54_48
.Ltmp1600:
	.loc	8 1181 5
	srli	t5, a0, 1
.Ltmp1601:
	.loc	8 0 5 is_stmt 0
	lui	a3, 349525
	addi	a3, a3, 1365
	lui	a4, 209715
.Ltmp1602:
	addi	s0, a4, 819
.Ltmp1603:
	lui	a4, 61681
	addi	s2, a4, -241
	lui	a5, 4112
	addi	a5, a5, 257
	.loc	8 1181 5
	bnez	t0, .LBB54_49
.Ltmp1604:
	.loc	8 0 5
	or	a4, a0, t5
	srli	s1, a4, 2
	or	a4, a4, s1
	srli	s1, a4, 4
	or	a4, a4, s1
	srli	s1, a4, 8
	or	a4, a4, s1
	srli	s1, a4, 16
	or	a4, a4, s1
	not	a4, a4
	srli	s1, a4, 1
	and	a3, a3, s1
	sub	a4, a4, a3
	and	a3, a4, s0
	srli	a4, a4, 2
	and	a4, a4, s0
	add	a3, a3, a4
	srli	a4, a3, 4
	add	a3, a3, a4
	and	a3, a3, s2
	mul	a3, a3, a5
	srli	a3, a3, 24
	addi	a3, a3, 32
	j	.LBB54_50
.Ltmp1605:
.LBB54_31:
	sltiu	a0, t5, -52
.Ltmp1606:
	.loc	16 875 12 is_stmt 1
	beqz	a0, .LBB54_33
.Ltmp1607:
.LBB54_32:
	.loc	16 0 12 is_stmt 0
	li	a0, 0
	j	.LBB54_45
.Ltmp1608:
.LBB54_33:
	li	a2, 1
	li	a0, -31
.Ltmp1609:
	.loc	8 1181 5 is_stmt 1
	sub	a0, a0, t5
.Ltmp1610:
	.loc	16 879 35
	sub	a3, a2, t5
.Ltmp1611:
	.loc	16 0 35 is_stmt 0
	bltz	a0, .LBB54_36
.Ltmp1612:
	srl	a5, s2, a0
	j	.LBB54_37
.Ltmp1613:
.LBB54_35:
	.loc	5 271 45 is_stmt 1
	addi	a6, a6, 1
	seqz	a1, a6
	add	a1, a1, s4
	and	a1, a1, a3
	and	a2, a2, a6
.Ltmp1614:
	xor	a0, a0, a2
.Ltmp1615:
	xor	a1, a1, s0
.Ltmp1616:
	.loc	5 0 45 is_stmt 0
	j	.LBB54_45
.Ltmp1617:
.LBB54_36:
	srl	a2, s1, a3
	not	a4, a3
	slli	a5, s2, 1
	sll	a5, a5, a4
	or	a5, a5, a2
.Ltmp1618:
.LBB54_37:
	.loc	8 1181 5 is_stmt 1
	srl	a2, s2, a3
	srai	a0, a0, 31
	and	a2, a2, a0
.Ltmp1619:
	.loc	8 1181 5 is_stmt 0
	addi	a3, t5, 20
.Ltmp1620:
	.loc	8 1157 5 is_stmt 1
	addi	a4, t5, 52
.Ltmp1621:
	.loc	8 1181 5
	bltz	a3, .LBB54_39
.Ltmp1622:
	.loc	8 0 5 is_stmt 0
	sll	a0, t2, a3
	j	.LBB54_40
.Ltmp1623:
.LBB54_39:
	li	a0, -21
	sub	a0, a0, t5
	srli	s1, t2, 1
.Ltmp1624:
	srl	s1, s1, a0
	sll	a0, t0, a4
	or	a0, a0, s1
.Ltmp1625:
.LBB54_40:
	.loc	8 1181 5
	sll	a4, t2, a4
.Ltmp1626:
	srai	a3, a3, 31
	and	a4, a4, a3
.Ltmp1627:
	.loc	16 886 13 is_stmt 1
	mul	a3, t4, a2
	mulhu	s1, t4, a5
	mul	s0, t3, a5
	add	s0, s0, s1
	add	a3, a3, s0
	slli	a3, a3, 1
	mul	s0, t4, a5
	srli	s1, s0, 31
	or	a3, a3, s1
	slli	s0, s0, 1
.Ltmp1628:
	.loc	8 1181 5
	sltu	s1, a4, s0
	sub	a0, a0, s1
.Ltmp1629:
	sub	a3, a0, a3
.Ltmp1630:
	sub	a0, a4, s0
.Ltmp1631:
.LBB54_41:
	.loc	5 171 46
	andi	a4, a5, 1
.Ltmp1632:
	.loc	10 759 51
	add	a0, a0, a4
	sltu	a4, a0, a4
.Ltmp1633:
	add	a3, a3, a4
.Ltmp1634:
	.loc	6 1515 52
	beq	a3, t3, .LBB54_43
.Ltmp1635:
	.loc	6 0 52 is_stmt 0
	sltu	a0, t3, a3
	j	.LBB54_44
.Ltmp1636:
.LBB54_43:
	sltu	a0, t4, a0
.Ltmp1637:
.LBB54_44:
	.loc	16 895 12 is_stmt 1
	add	a0, a0, a5
	sltu	a3, a0, a5
	add	a2, a2, a3
.Ltmp1638:
	.loc	5 271 45
	or	a1, a1, a2
.Ltmp1639:
.LBB54_45:
	.loc	4 493 10
	lw	s0, 28(sp)
	lw	s1, 24(sp)
	lw	s2, 20(sp)
	lw	s3, 16(sp)
	lw	s4, 12(sp)
	.loc	4 493 10 epilogue_begin is_stmt 0
	addi	sp, sp, 32
	ret
.LBB54_46:
.Ltmp1640:
	.loc	6 1425 52 is_stmt 1
	or	a0, s3, t4
.Ltmp1641:
	.loc	16 538 16
	bnez	a0, .LBB54_32
.Ltmp1642:
	.loc	16 0 16 is_stmt 0
	lui	a1, 524160
.Ltmp1643:
	j	.LBB54_32
.Ltmp1644:
.LBB54_48:
	li	t5, 0
.Ltmp1645:
	j	.LBB54_54
.Ltmp1646:
.LBB54_49:
	srli	s1, t0, 1
	or	a4, t0, s1
	srli	s1, a4, 2
	or	a4, a4, s1
	srli	s1, a4, 4
	or	a4, a4, s1
	srli	s1, a4, 8
	or	a4, a4, s1
	srli	s1, a4, 16
	or	a4, a4, s1
	not	a4, a4
	srli	s1, a4, 1
	and	a3, a3, s1
	sub	a4, a4, a3
	and	a3, a4, s0
	srli	a4, a4, 2
	and	a4, a4, s0
	add	a3, a3, a4
	srli	a4, a3, 4
	add	a3, a3, a4
	and	a3, a3, s2
	mul	a3, a3, a5
	srli	a3, a3, 24
.Ltmp1647:
.LBB54_50:
	.loc	8 1157 5 is_stmt 1
	addi	a4, a3, 53
.Ltmp1648:
	.loc	9 164 21
	andi	s1, a4, 63
	addi	a5, s1, -32
	li	s2, 12
	bltz	a5, .LBB54_52
.Ltmp1649:
	.loc	9 0 21 is_stmt 0
	sll	t0, a0, s1
.Ltmp1650:
	j	.LBB54_53
.Ltmp1651:
.LBB54_52:
	sll	s0, t0, a4
	not	s1, s1
	srl	s1, t5, s1
	or	t0, s0, s1
.Ltmp1652:
.LBB54_53:
	sub	t5, s2, a3
.Ltmp1653:
	.loc	9 164 21
	sll	a0, a0, a4
.Ltmp1654:
	srai	a5, a5, 31
	and	a0, a0, a5
.Ltmp1655:
.LBB54_54:
	.loc	6 1509 52 is_stmt 1
	srli	a3, t4, 20
.Ltmp1656:
	.loc	16 561 12
	bnez	a3, .LBB54_9
.Ltmp1657:
	.loc	8 1181 5
	srli	t4, a2, 1
.Ltmp1658:
	.loc	8 0 5 is_stmt 0
	lui	a3, 349525
	addi	a3, a3, 1365
	lui	a4, 209715
	addi	s0, a4, 819
	lui	a4, 61681
	addi	s2, a4, -241
	lui	a5, 4112
	addi	a5, a5, 257
	.loc	8 1181 5
	bnez	t3, .LBB54_57
.Ltmp1659:
	.loc	8 0 5
	or	a4, a2, t4
	srli	s1, a4, 2
	or	a4, a4, s1
	srli	s1, a4, 4
	or	a4, a4, s1
	srli	s1, a4, 8
	or	a4, a4, s1
	srli	s1, a4, 16
	or	a4, a4, s1
	not	a4, a4
	srli	s1, a4, 1
	and	a3, a3, s1
	sub	a4, a4, a3
	and	a3, a4, s0
	srli	a4, a4, 2
	and	a4, a4, s0
	add	a3, a3, a4
	srli	a4, a3, 4
	add	a3, a3, a4
	and	a3, a3, s2
	mul	a3, a3, a5
	srli	a3, a3, 24
	addi	a5, a3, 32
	j	.LBB54_58
.Ltmp1660:
.LBB54_57:
	srli	s1, t3, 1
	or	a4, t3, s1
	srli	s1, a4, 2
	or	a4, a4, s1
	srli	s1, a4, 4
	or	a4, a4, s1
	srli	s1, a4, 8
	or	a4, a4, s1
	srli	s1, a4, 16
	or	a4, a4, s1
	not	a4, a4
	srli	s1, a4, 1
	and	a3, a3, s1
	sub	a4, a4, a3
	and	a3, a4, s0
	srli	a4, a4, 2
	and	a4, a4, s0
	add	a3, a3, a4
	srli	a4, a3, 4
	add	a3, a3, a4
	and	a3, a3, s2
	mul	a5, a3, a5
	srli	a5, a5, 24
.Ltmp1661:
.LBB54_58:
	.loc	8 1157 5 is_stmt 1
	addi	a3, a5, 53
.Ltmp1662:
	.loc	9 164 21
	andi	s0, a3, 63
	addi	a4, s0, -32
.Ltmp1663:
	.loc	8 347 5
	add	t5, t5, a5
.Ltmp1664:
	.loc	9 164 21
	bltz	a4, .LBB54_60
.Ltmp1665:
	.loc	9 0 21 is_stmt 0
	sll	t3, a2, s0
.Ltmp1666:
	j	.LBB54_61
.Ltmp1667:
.LBB54_60:
	sll	a5, t3, a3
.Ltmp1668:
	not	s1, s0
	srl	s1, t4, s1
	or	t3, a5, s1
.Ltmp1669:
.LBB54_61:
	.loc	9 164 21
	sll	a2, a2, a3
.Ltmp1670:
	srai	a4, a4, 31
	and	a2, a2, a4
.Ltmp1671:
	.loc	16 563 13 is_stmt 1
	addi	t5, t5, -12
.Ltmp1672:
	.loc	16 0 13 is_stmt 0
	j	.LBB54_9
.Ltmp1673:
.Lfunc_end54:
	.size	_ZN17compiler_builtins5float3div8__divdf317hd43606bcdba8a308E, .Lfunc_end54-_ZN17compiler_builtins5float3div8__divdf317hd43606bcdba8a308E
	.cfi_endproc

	.section	.text.__divdf3,"ax",@progbits
	.hidden	__divdf3
	.globl	__divdf3
	.p2align	1
	.type	__divdf3,@function
__divdf3:
.Lfunc_begin55:
	.cfi_startproc
	.loc	4 500 17 prologue_end is_stmt 1
	tail	_ZN17compiler_builtins5float3div8__divdf317hd43606bcdba8a308E
.Ltmp1674:
.Lfunc_end55:
	.size	__divdf3, .Lfunc_end55-__divdf3
	.cfi_endproc

	.section	.text._ZN17compiler_builtins5float6extend13__extendsfdf217hb2efc858c5a2946eE,"ax",@progbits
	.hidden	_ZN17compiler_builtins5float6extend13__extendsfdf217hb2efc858c5a2946eE
	.globl	_ZN17compiler_builtins5float6extend13__extendsfdf217hb2efc858c5a2946eE
	.p2align	1
	.type	_ZN17compiler_builtins5float6extend13__extendsfdf217hb2efc858c5a2946eE,@function
_ZN17compiler_builtins5float6extend13__extendsfdf217hb2efc858c5a2946eE:
.Lfunc_begin56:
	.cfi_startproc
	.loc	5 171 46 prologue_end
	slli	a1, a0, 1
	srli	a1, a1, 1
	lui	a2, 1046528
.Ltmp1675:
	.loc	8 1157 5
	add	a2, a2, a1
.Ltmp1676:
	.loc	6 1509 52
	srli	a2, a2, 24
	li	a3, 127
.Ltmp1677:
	.file	17 "/Users/steve/.cargo/registry/src/index.crates.io-6f17d22bba15001f/compiler_builtins-0.1.105" "src/float/extend.rs"
	.loc	17 38 8
	bgeu	a2, a3, .LBB56_2
.Ltmp1678:
	.loc	8 1181 5
	slli	a2, a1, 29
.Ltmp1679:
	srli	a1, a1, 3
.Ltmp1680:
	.loc	8 0 5 is_stmt 0
	lui	a3, 229376
.Ltmp1681:
	.loc	10 759 51 is_stmt 1
	add	a1, a1, a3
.Ltmp1682:
	.loc	10 0 51 is_stmt 0
	j	.LBB56_10
.Ltmp1683:
.LBB56_2:
	.loc	6 1513 52 is_stmt 1
	srli	a2, a1, 23
	li	a3, 254
.Ltmp1684:
	.loc	17 46 15
	bgeu	a3, a2, .LBB56_4
.Ltmp1685:
	.loc	5 790 53
	slli	a2, a0, 29
	srli	a1, a0, 3
	lui	a3, 524032
	or	a1, a1, a3
	j	.LBB56_10
.Ltmp1686:
.LBB56_4:
	.loc	17 57 15
	beqz	a1, .LBB56_7
.Ltmp1687:
	.loc	8 1157 5
	srli	a7, a1, 1
	or	a3, a1, a7
	srli	a4, a3, 2
	or	a3, a3, a4
	srli	a4, a3, 4
	or	a3, a3, a4
	srli	a4, a3, 8
	or	a3, a3, a4
	srli	a4, a3, 16
	or	a3, a3, a4
	not	a3, a3
	srli	a4, a3, 1
	lui	a5, 349525
	addi	a5, a5, 1365
	and	a4, a4, a5
	sub	a3, a3, a4
	lui	a4, 209715
	addi	a4, a4, 819
	and	a5, a3, a4
	srli	a3, a3, 2
	and	a3, a3, a4
	add	a3, a3, a5
	srli	a4, a3, 4
	add	a3, a3, a4
	lui	a4, 61681
	addi	a4, a4, -241
	and	a3, a3, a4
	lui	a4, 4112
	addi	a4, a4, 257
	mul	a3, a3, a4
	srli	a3, a3, 24
	li	a4, 905
.Ltmp1688:
	.loc	17 63 32
	sub	a6, a4, a3
.Ltmp1689:
	.loc	8 1181 5
	addi	a4, a3, -11
.Ltmp1690:
	.loc	17 64 43
	addi	a5, a3, 21
.Ltmp1691:
	.loc	8 1181 5
	bltz	a4, .LBB56_8
.Ltmp1692:
	.loc	8 0 5 is_stmt 0
	sll	a3, a1, a4
.Ltmp1693:
	j	.LBB56_9
.Ltmp1694:
.LBB56_7:
	li	a2, 0
	j	.LBB56_10
.Ltmp1695:
.LBB56_8:
	li	a2, 10
	sub	a2, a2, a3
	srl	a3, a7, a2
.Ltmp1696:
.LBB56_9:
	.loc	8 1181 5
	sll	a1, a1, a5
.Ltmp1697:
	srai	a2, a4, 31
	and	a2, a2, a1
.Ltmp1698:
	.loc	8 0 5
	lui	a1, 256
.Ltmp1699:
	.loc	5 371 48 is_stmt 1
	xor	a1, a1, a3
.Ltmp1700:
	.loc	8 1181 5
	slli	a6, a6, 20
.Ltmp1701:
	.loc	5 271 45
	or	a1, a1, a6
.Ltmp1702:
.LBB56_10:
	.loc	5 0 45 is_stmt 0
	lui	a3, 524288
.Ltmp1703:
	.loc	5 171 46 is_stmt 1
	and	a0, a0, a3
.Ltmp1704:
	.loc	5 271 45
	or	a1, a1, a0
.Ltmp1705:
	.loc	4 493 10
	mv	a0, a2
.Ltmp1706:
	ret
.Ltmp1707:
.Lfunc_end56:
	.size	_ZN17compiler_builtins5float6extend13__extendsfdf217hb2efc858c5a2946eE, .Lfunc_end56-_ZN17compiler_builtins5float6extend13__extendsfdf217hb2efc858c5a2946eE
	.cfi_endproc

	.section	.text.__extendsfdf2,"ax",@progbits
	.hidden	__extendsfdf2
	.globl	__extendsfdf2
	.p2align	1
	.type	__extendsfdf2,@function
__extendsfdf2:
.Lfunc_begin57:
	.cfi_startproc
	.loc	5 171 46 prologue_end
	slli	a1, a0, 1
	srli	a1, a1, 1
	lui	a2, 1046528
.Ltmp1708:
	.loc	8 1157 5
	add	a2, a2, a1
.Ltmp1709:
	.loc	6 1509 52
	srli	a2, a2, 24
	li	a3, 127
.Ltmp1710:
	.loc	17 38 8
	bgeu	a2, a3, .LBB57_2
.Ltmp1711:
	.loc	8 1181 5
	slli	a2, a1, 29
.Ltmp1712:
	srli	a1, a1, 3
.Ltmp1713:
	.loc	8 0 5 is_stmt 0
	lui	a3, 229376
.Ltmp1714:
	.loc	10 759 51 is_stmt 1
	add	a1, a1, a3
.Ltmp1715:
	.loc	10 0 51 is_stmt 0
	j	.LBB57_10
.Ltmp1716:
.LBB57_2:
	.loc	6 1513 52 is_stmt 1
	srli	a2, a1, 23
	li	a3, 254
.Ltmp1717:
	.loc	17 46 15
	bgeu	a3, a2, .LBB57_4
.Ltmp1718:
	.loc	5 790 53
	slli	a2, a0, 29
	srli	a1, a0, 3
	lui	a3, 524032
	or	a1, a1, a3
	j	.LBB57_10
.Ltmp1719:
.LBB57_4:
	.loc	17 57 15
	beqz	a1, .LBB57_7
.Ltmp1720:
	.loc	8 1157 5
	srli	a7, a1, 1
	or	a3, a1, a7
	srli	a4, a3, 2
	or	a3, a3, a4
	srli	a4, a3, 4
	or	a3, a3, a4
	srli	a4, a3, 8
	or	a3, a3, a4
	srli	a4, a3, 16
	or	a3, a3, a4
	not	a3, a3
	srli	a4, a3, 1
	lui	a5, 349525
	addi	a5, a5, 1365
	and	a4, a4, a5
	sub	a3, a3, a4
	lui	a4, 209715
	addi	a4, a4, 819
	and	a5, a3, a4
	srli	a3, a3, 2
	and	a3, a3, a4
	add	a3, a3, a5
	srli	a4, a3, 4
	add	a3, a3, a4
	lui	a4, 61681
	addi	a4, a4, -241
	and	a3, a3, a4
	lui	a4, 4112
	addi	a4, a4, 257
	mul	a3, a3, a4
	srli	a3, a3, 24
	li	a4, 905
.Ltmp1721:
	.loc	17 63 32
	sub	a6, a4, a3
.Ltmp1722:
	.loc	8 1181 5
	addi	a4, a3, -11
.Ltmp1723:
	.loc	17 64 43
	addi	a5, a3, 21
.Ltmp1724:
	.loc	8 1181 5
	bltz	a4, .LBB57_8
.Ltmp1725:
	.loc	8 0 5 is_stmt 0
	sll	a3, a1, a4
.Ltmp1726:
	j	.LBB57_9
.Ltmp1727:
.LBB57_7:
	li	a2, 0
	j	.LBB57_10
.Ltmp1728:
.LBB57_8:
	li	a2, 10
	sub	a2, a2, a3
	srl	a3, a7, a2
.Ltmp1729:
.LBB57_9:
	.loc	8 1181 5
	sll	a1, a1, a5
.Ltmp1730:
	srai	a2, a4, 31
	and	a2, a2, a1
.Ltmp1731:
	.loc	8 0 5
	lui	a1, 256
.Ltmp1732:
	.loc	5 371 48 is_stmt 1
	xor	a1, a1, a3
.Ltmp1733:
	.loc	8 1181 5
	slli	a6, a6, 20
.Ltmp1734:
	.loc	5 271 45
	or	a1, a1, a6
.Ltmp1735:
.LBB57_10:
	.loc	5 0 45 is_stmt 0
	lui	a3, 524288
.Ltmp1736:
	.loc	5 171 46 is_stmt 1
	and	a0, a0, a3
.Ltmp1737:
	.loc	5 271 45
	or	a1, a1, a0
.Ltmp1738:
	.loc	4 501 14
	mv	a0, a2
.Ltmp1739:
	ret
.Ltmp1740:
.Lfunc_end57:
	.size	__extendsfdf2, .Lfunc_end57-__extendsfdf2
	.cfi_endproc

	.section	.text._ZN17compiler_builtins5float3mul8__mulsf317h5108e87c17e65076E,"ax",@progbits
	.hidden	_ZN17compiler_builtins5float3mul8__mulsf317h5108e87c17e65076E
	.globl	_ZN17compiler_builtins5float3mul8__mulsf317h5108e87c17e65076E
	.p2align	1
	.type	_ZN17compiler_builtins5float3mul8__mulsf317h5108e87c17e65076E,@function
_ZN17compiler_builtins5float3mul8__mulsf317h5108e87c17e65076E:
.Lfunc_begin58:
	.loc	4 491 0
	.cfi_startproc
	mv	a2, a0
.Ltmp1741:
	lui	a6, 2048
	addi	t6, a6, -1
.Ltmp1742:
	.loc	5 171 46 prologue_end
	slli	a0, a0, 1
	srli	t4, a0, 24
.Ltmp1743:
	.loc	5 171 46 is_stmt 0
	slli	a0, a1, 1
	srli	t5, a0, 24
.Ltmp1744:
	.loc	5 371 48 is_stmt 1
	xor	a0, a1, a2
	lui	a7, 524288
.Ltmp1745:
	.loc	5 171 46
	and	a0, a0, a7
.Ltmp1746:
	.loc	5 171 46 is_stmt 0
	and	t0, a2, t6
.Ltmp1747:
	.loc	6 1513 52 is_stmt 1
	addi	a3, t4, -255
	sltiu	a3, a3, -254
	addi	a4, t5, -255
	sltiu	a4, a4, -254
.Ltmp1748:
	.file	18 "/Users/steve/.cargo/registry/src/index.crates.io-6f17d22bba15001f/compiler_builtins-0.1.105" "src/float/mul.rs"
	.loc	18 43 8
	or	a3, a3, a4
.Ltmp1749:
	.loc	5 171 46
	and	t1, a1, t6
.Ltmp1750:
	.loc	18 43 8
	beqz	a3, .LBB58_3
.Ltmp1751:
	.loc	18 0 8 is_stmt 0
	addi	a4, a7, -1
.Ltmp1752:
	.loc	5 171 46 is_stmt 1
	and	a5, a2, a4
.Ltmp1753:
	.loc	5 0 46 is_stmt 0
	lui	a3, 522240
.Ltmp1754:
	.loc	18 50 12 is_stmt 1
	bgeu	a3, a5, .LBB58_11
.Ltmp1755:
	.loc	18 0 12 is_stmt 0
	lui	a0, 1024
.Ltmp1756:
	.loc	5 271 45 is_stmt 1
	or	a0, a0, a2
.Ltmp1757:
	.loc	4 493 10
	ret
.Ltmp1758:
.LBB58_3:
	.loc	4 0 10 is_stmt 0
	li	t3, 0
.Ltmp1759:
.LBB58_4:
	.loc	5 790 53 is_stmt 1
	or	a1, t0, a6
.Ltmp1760:
	.loc	5 470 17
	slli	t1, t1, 8
.Ltmp1761:
	or	a3, t1, a7
.Ltmp1762:
	.loc	8 1181 5
	mul	a2, a3, a1
.Ltmp1763:
	mulhu	a1, a3, a1
.Ltmp1764:
	.loc	8 347 5
	add	t4, t4, t5
.Ltmp1765:
	.loc	18 127 8
	slli	a3, a1, 8
.Ltmp1766:
	.loc	8 347 5
	add	t3, t3, t4
.Ltmp1767:
	.loc	18 127 8
	bltz	a3, .LBB58_9
.Ltmp1768:
	.loc	8 347 5
	addi	a4, t3, -127
.Ltmp1769:
	.loc	5 271 45
	srli	a3, a2, 31
	slli	a1, a1, 1
.Ltmp1770:
	or	a1, a1, a3
.Ltmp1771:
	.loc	5 924 17
	slli	a2, a2, 1
.Ltmp1772:
	.loc	5 0 17 is_stmt 0
	li	a3, 254
.Ltmp1773:
	.loc	18 135 8 is_stmt 1
	blt	a3, a4, .LBB58_10
.Ltmp1774:
.LBB58_6:
	.loc	18 139 8
	blez	a4, .LBB58_16
.Ltmp1775:
	.loc	5 719 54
	and	a1, a1, t6
.Ltmp1776:
	.loc	5 470 17
	slli	a4, a4, 23
.Ltmp1777:
	.loc	5 790 53
	or	a1, a1, a4
.Ltmp1778:
	.loc	5 0 53 is_stmt 0
	lui	a3, 524288
.Ltmp1779:
	.loc	5 790 53
	or	a0, a0, a1
.Ltmp1780:
	.loc	18 176 8 is_stmt 1
	bgeu	a3, a2, .LBB58_18
.Ltmp1781:
.LBB58_8:
	.loc	10 759 51
	addi	a0, a0, 1
.Ltmp1782:
	.loc	4 493 10
	ret
.Ltmp1783:
.LBB58_9:
	.loc	8 347 5
	addi	a4, t3, -126
.Ltmp1784:
	.loc	8 0 5 is_stmt 0
	li	a3, 254
.Ltmp1785:
	.loc	18 135 8 is_stmt 1
	bge	a3, a4, .LBB58_6
.Ltmp1786:
.LBB58_10:
	.loc	18 0 8 is_stmt 0
	lui	a1, 522240
.Ltmp1787:
	.loc	5 271 45 is_stmt 1
	or	a0, a0, a1
.Ltmp1788:
	.loc	4 493 10
	ret
.Ltmp1789:
.LBB58_11:
	.loc	18 0 0 is_stmt 0
	and	t2, a1, a4
.Ltmp1790:
	.loc	18 54 12 is_stmt 1
	bgeu	a3, t2, .LBB58_13
.Ltmp1791:
	.loc	18 0 12 is_stmt 0
	lui	a0, 1024
.Ltmp1792:
	.loc	5 271 45 is_stmt 1
	or	a0, a0, a1
.Ltmp1793:
	.loc	4 493 10
	ret
.Ltmp1794:
.LBB58_13:
	.loc	18 58 12
	bne	a5, a3, .LBB58_20
.Ltmp1795:
	.loc	18 59 16
	beqz	t2, .LBB58_23
.Ltmp1796:
	.loc	18 0 16 is_stmt 0
	lui	a0, 524288
.Ltmp1797:
	.loc	5 271 45 is_stmt 1
	and	a0, a0, a1
	xor	a0, a0, a2
.Ltmp1798:
	.loc	5 0 45 is_stmt 0
	j	.LBB58_29
.Ltmp1799:
.LBB58_16:
	li	a3, 1
.Ltmp1800:
	.loc	8 1157 5 is_stmt 1
	sub	a3, a3, a4
	li	a5, 31
.Ltmp1801:
	.loc	18 147 12
	bltu	a5, a3, .LBB58_29
.Ltmp1802:
	.loc	18 154 41
	addi	a4, a4, 31
.Ltmp1803:
	.loc	5 588 17
	srl	a5, a2, a3
.Ltmp1804:
	.loc	5 271 45
	or	a2, a2, a1
.Ltmp1805:
	sll	a2, a2, a4
	or	a2, a2, a5
.Ltmp1806:
	.loc	5 1006 17
	srl	a1, a1, a3
.Ltmp1807:
	.loc	5 0 17 is_stmt 0
	lui	a3, 524288
.Ltmp1808:
	.loc	5 790 53 is_stmt 1
	or	a0, a0, a1
.Ltmp1809:
	.loc	18 176 8
	bltu	a3, a2, .LBB58_8
.Ltmp1810:
.LBB58_18:
	.loc	18 180 8
	bne	a2, a3, .LBB58_29
.Ltmp1811:
	.loc	5 171 46
	andi	a1, a1, 1
.Ltmp1812:
	.loc	10 759 51
	add	a0, a0, a1
.Ltmp1813:
	.loc	4 493 10
	ret
.Ltmp1814:
.LBB58_20:
	.loc	18 68 12
	bne	t2, a3, .LBB58_24
.Ltmp1815:
	.loc	18 69 16
	beqz	a5, .LBB58_23
.Ltmp1816:
	.loc	18 0 16 is_stmt 0
	lui	a0, 524288
.Ltmp1817:
	.loc	5 271 45 is_stmt 1
	and	a0, a0, a2
	xor	a0, a0, a1
.Ltmp1818:
	.loc	4 493 10
	ret
.Ltmp1819:
.LBB58_23:
	.loc	4 0 10 is_stmt 0
	lui	a0, 523264
	.loc	4 493 10
	ret
.Ltmp1820:
.LBB58_24:
	.loc	18 79 12 is_stmt 1
	beqz	a5, .LBB58_29
.Ltmp1821:
	.loc	18 84 12
	beqz	t2, .LBB58_29
.Ltmp1822:
	.loc	6 1509 52
	srli	a5, a5, 23
.Ltmp1823:
	.loc	6 0 52 is_stmt 0
	bnez	a5, .LBB58_30
.Ltmp1824:
	.loc	8 1157 5 is_stmt 1
	beqz	t0, .LBB58_31
.Ltmp1825:
	srli	a1, t0, 1
.Ltmp1826:
	or	a1, t0, a1
	srli	a2, a1, 2
.Ltmp1827:
	or	a1, a1, a2
	srli	a2, a1, 4
	or	a1, a1, a2
	srli	a2, a1, 8
	or	a1, a1, a2
	srli	a2, a1, 16
	or	a1, a1, a2
	not	a1, a1
	srli	a2, a1, 1
	lui	a3, 349525
	addi	a3, a3, 1365
	and	a2, a2, a3
	sub	a1, a1, a2
	lui	a2, 209715
	addi	a2, a2, 819
	and	a3, a1, a2
	srli	a1, a1, 2
	and	a1, a1, a2
	add	a1, a1, a3
	srli	a2, a1, 4
	add	a1, a1, a2
	lui	a2, 61681
	addi	a2, a2, -241
	and	a1, a1, a2
	lui	a2, 4112
	addi	a2, a2, 257
	mul	a1, a1, a2
	srli	a1, a1, 24
	j	.LBB58_32
.Ltmp1828:
.LBB58_29:
	.loc	4 493 10
	ret
.LBB58_30:
.Ltmp1829:
	.loc	4 0 10 is_stmt 0
	li	t3, 0
	j	.LBB58_33
.Ltmp1830:
.LBB58_31:
	li	a1, 32
.Ltmp1831:
.LBB58_32:
	.loc	8 1157 5 is_stmt 1
	addi	a2, a1, 24
	li	a3, 9
.Ltmp1832:
	.loc	8 347 5
	sub	t3, a3, a1
.Ltmp1833:
	.loc	9 164 21
	sll	t0, t0, a2
.Ltmp1834:
.LBB58_33:
	.loc	6 1509 52
	srli	a1, t2, 23
.Ltmp1835:
	.loc	18 97 12
	bnez	a1, .LBB58_4
.Ltmp1836:
	.loc	8 1157 5
	beqz	t1, .LBB58_36
.Ltmp1837:
	srli	a1, t1, 1
	or	a1, t1, a1
	srli	a2, a1, 2
	or	a1, a1, a2
	srli	a2, a1, 4
	or	a1, a1, a2
	srli	a2, a1, 8
	or	a1, a1, a2
	srli	a2, a1, 16
	or	a1, a1, a2
	not	a1, a1
	srli	a2, a1, 1
	lui	a3, 349525
	addi	a3, a3, 1365
	and	a2, a2, a3
	sub	a1, a1, a2
	lui	a2, 209715
	addi	a2, a2, 819
	and	a3, a1, a2
	srli	a1, a1, 2
	and	a1, a1, a2
	add	a1, a1, a3
	srli	a2, a1, 4
	add	a1, a1, a2
	lui	a2, 61681
	addi	a2, a2, -241
	and	a1, a1, a2
	lui	a2, 4112
	addi	a2, a2, 257
	mul	a1, a1, a2
	srli	a1, a1, 24
	j	.LBB58_37
.Ltmp1838:
.LBB58_36:
	.loc	8 0 5 is_stmt 0
	li	a1, 32
.Ltmp1839:
.LBB58_37:
	.loc	8 1157 5
	addi	a2, a1, 24
.Ltmp1840:
	.loc	9 164 21 is_stmt 1
	sll	t1, t1, a2
.Ltmp1841:
	.loc	18 99 13
	sub	t3, t3, a1
.Ltmp1842:
	addi	t3, t3, 9
.Ltmp1843:
	.loc	18 0 13 is_stmt 0
	j	.LBB58_4
.Ltmp1844:
.Lfunc_end58:
	.size	_ZN17compiler_builtins5float3mul8__mulsf317h5108e87c17e65076E, .Lfunc_end58-_ZN17compiler_builtins5float3mul8__mulsf317h5108e87c17e65076E
	.cfi_endproc

	.section	.text.__mulsf3,"ax",@progbits
	.hidden	__mulsf3
	.globl	__mulsf3
	.p2align	1
	.type	__mulsf3,@function
__mulsf3:
.Lfunc_begin59:
	.cfi_startproc
	.loc	4 500 17 prologue_end is_stmt 1
	tail	_ZN17compiler_builtins5float3mul8__mulsf317h5108e87c17e65076E
.Ltmp1845:
.Lfunc_end59:
	.size	__mulsf3, .Lfunc_end59-__mulsf3
	.cfi_endproc

	.section	.text._ZN17compiler_builtins5float3mul8__muldf317h04c788943bceb212E,"ax",@progbits
	.hidden	_ZN17compiler_builtins5float3mul8__muldf317h04c788943bceb212E
	.globl	_ZN17compiler_builtins5float3mul8__muldf317h04c788943bceb212E
	.p2align	1
	.type	_ZN17compiler_builtins5float3mul8__muldf317h04c788943bceb212E,@function
_ZN17compiler_builtins5float3mul8__muldf317h04c788943bceb212E:
.Lfunc_begin60:
	.loc	4 491 0
	.cfi_startproc
	addi	sp, sp, -16
	.cfi_def_cfa_offset 16
	sw	s0, 12(sp)
	sw	s1, 8(sp)
	sw	s2, 4(sp)
	sw	s3, 0(sp)
	.cfi_offset s0, -4
	.cfi_offset s1, -8
	.cfi_offset s2, -12
	.cfi_offset s3, -16
	mv	t6, a1
.Ltmp1846:
	lui	t0, 524288
.Ltmp1847:
	lui	a6, 256
	addi	a6, a6, -1
.Ltmp1848:
	.loc	5 171 46 prologue_end
	slli	a1, a1, 1
	srli	a7, a1, 21
.Ltmp1849:
	.loc	5 171 46 is_stmt 0
	slli	a1, a3, 1
	srli	t5, a1, 21
.Ltmp1850:
	.loc	5 371 48 is_stmt 1
	xor	a1, a3, t6
.Ltmp1851:
	.loc	5 171 46
	and	a1, a1, t0
.Ltmp1852:
	.loc	5 171 46 is_stmt 0
	and	t1, t6, a6
.Ltmp1853:
	.loc	6 1513 52 is_stmt 1
	addi	a5, a7, -2047
	sltu	s0, a5, a7
	sltiu	a5, a5, -2046
	or	a5, a5, s0
	addi	s0, t5, -2047
	sltu	a4, s0, t5
	sltiu	s0, s0, -2046
	or	a4, a4, s0
.Ltmp1854:
	.loc	18 43 8
	or	a4, a4, a5
.Ltmp1855:
	.loc	5 171 46
	and	t2, a3, a6
.Ltmp1856:
	.loc	18 43 8
	beqz	a4, .LBB60_8
.Ltmp1857:
	.loc	5 171 46
	addi	t3, t0, -1
	and	t4, t6, t3
.Ltmp1858:
	.loc	5 0 46 is_stmt 0
	lui	a5, 524032
.Ltmp1859:
	.loc	6 1515 52 is_stmt 1
	beq	t4, a5, .LBB60_12
.Ltmp1860:
	.loc	6 0 52 is_stmt 0
	sltu	a5, a5, t4
.Ltmp1861:
	.loc	18 50 12 is_stmt 1
	bnez	a5, .LBB60_13
.Ltmp1862:
.LBB60_3:
	.loc	18 0 0 is_stmt 0
	and	t3, a3, t3
.Ltmp1863:
	lui	a5, 524032
.Ltmp1864:
	.loc	6 1515 52 is_stmt 1
	beq	t3, a5, .LBB60_20
.Ltmp1865:
	.loc	6 0 52 is_stmt 0
	sltu	a5, a5, t3
	.loc	18 54 12 is_stmt 1
	bnez	a5, .LBB60_21
.Ltmp1866:
.LBB60_5:
	.loc	18 0 12 is_stmt 0
	lui	a5, 524032
.Ltmp1867:
	.loc	6 1425 52 is_stmt 1
	xor	a4, t4, a5
	or	a4, a4, a0
.Ltmp1868:
	.loc	18 58 12
	bnez	a4, .LBB60_24
.Ltmp1869:
	.loc	6 1427 52
	or	a1, a2, t3
.Ltmp1870:
	.loc	18 59 16
	beqz	a1, .LBB60_45
.Ltmp1871:
	.loc	5 271 45
	and	a1, a3, t0
.Ltmp1872:
	xor	a1, a1, t6
.Ltmp1873:
	.loc	5 0 45 is_stmt 0
	j	.LBB60_44
.Ltmp1874:
.LBB60_8:
	li	t4, 0
.Ltmp1875:
.LBB60_9:
	li	t3, -1
.Ltmp1876:
	.loc	5 790 53 is_stmt 1
	addi	s2, t3, 1
	seqz	a3, s2
	add	t6, a6, a3
	or	a4, t1, t6
.Ltmp1877:
	or	a0, a0, s2
.Ltmp1878:
	.loc	5 470 17
	srli	s1, a2, 21
	slli	t2, t2, 11
.Ltmp1879:
	slli	a2, a2, 11
.Ltmp1880:
	or	s1, s1, t0
	or	s1, t2, s1
.Ltmp1881:
	.loc	8 1205 5
	mul	s0, s1, a0
	mulhu	a3, a2, a0
	add	a3, a3, s0
	sltu	s0, a3, s0
	mulhu	a5, s1, a0
	add	a5, a5, s0
	mul	s0, a2, a4
	add	s3, s0, a3
.Ltmp1882:
	sltu	s0, s3, s0
	mulhu	a3, a2, a4
	add	a3, a3, s0
	add	a3, a3, a5
	sltu	a5, a3, a5
	mulhu	s0, s1, a4
	add	a5, a5, s0
	mul	a4, s1, a4
.Ltmp1883:
	add	s1, a4, a3
.Ltmp1884:
	sltu	a4, s1, a4
	add	a4, a4, a5
.Ltmp1885:
	mul	a2, a2, a0
.Ltmp1886:
	.loc	8 347 5
	add	a7, a7, t5
.Ltmp1887:
	.loc	5 171 46
	and	a0, a4, t6
.Ltmp1888:
	and	a3, s1, s2
.Ltmp1889:
	.loc	6 1427 52
	or	a0, a0, a3
.Ltmp1890:
	.loc	8 347 5
	add	t4, t4, a7
.Ltmp1891:
	.loc	18 127 8
	beqz	a0, .LBB60_14
.Ltmp1892:
	.loc	8 347 5
	addi	a5, t4, -1022
.Ltmp1893:
	.loc	8 0 5 is_stmt 0
	li	a0, 2046
.Ltmp1894:
	.loc	18 135 8 is_stmt 1
	bge	a0, a5, .LBB60_15
.Ltmp1895:
.LBB60_11:
	.loc	18 0 8 is_stmt 0
	li	a0, 0
	lui	a2, 524032
.Ltmp1896:
	.loc	5 271 45 is_stmt 1
	or	a1, a1, a2
.Ltmp1897:
	.loc	5 0 45 is_stmt 0
	j	.LBB60_44
.Ltmp1898:
.LBB60_12:
	snez	a5, a0
.Ltmp1899:
	.loc	18 50 12 is_stmt 1
	beqz	a5, .LBB60_3
.Ltmp1900:
.LBB60_13:
	.loc	18 0 12 is_stmt 0
	lui	a1, 128
.Ltmp1901:
	.loc	5 271 45 is_stmt 1
	or	a1, t6, a1
.Ltmp1902:
	.loc	5 0 45 is_stmt 0
	j	.LBB60_44
.Ltmp1903:
.LBB60_14:
	.loc	8 347 5 is_stmt 1
	addi	a5, t4, -1023
.Ltmp1904:
	.loc	5 271 45
	srli	a0, s1, 31
	slli	a4, a4, 1
.Ltmp1905:
	or	a4, a4, a0
.Ltmp1906:
	slli	s1, s1, 1
.Ltmp1907:
	srli	a0, s3, 31
	or	s1, s1, a0
.Ltmp1908:
	.loc	5 924 17
	srli	a0, a2, 31
	slli	s3, s3, 1
.Ltmp1909:
	or	s3, s3, a0
	slli	a2, a2, 1
.Ltmp1910:
	.loc	5 0 17 is_stmt 0
	li	a0, 2046
.Ltmp1911:
	.loc	18 135 8 is_stmt 1
	blt	a0, a5, .LBB60_11
.Ltmp1912:
.LBB60_15:
	.loc	18 139 8
	blez	a5, .LBB60_22
.Ltmp1913:
	.loc	5 719 54
	and	a0, s1, t3
	and	a3, a4, a6
.Ltmp1914:
	.loc	5 470 17
	slli	a4, a5, 20
.Ltmp1915:
	.loc	5 790 53
	or	a4, a4, a3
.Ltmp1916:
	.loc	5 0 53 is_stmt 0
	lui	a5, 524288
.Ltmp1917:
	.loc	6 1515 52 is_stmt 1
	beq	s3, a5, .LBB60_42
.Ltmp1918:
.LBB60_17:
	.loc	6 0 52 is_stmt 0
	sltu	a5, a5, s3
	or	a1, a1, a4
.Ltmp1919:
	.loc	18 176 8 is_stmt 1
	bnez	a5, .LBB60_43
.Ltmp1920:
.LBB60_18:
	.loc	18 0 8 is_stmt 0
	lui	a3, 524288
.Ltmp1921:
	.loc	6 1425 52 is_stmt 1
	xor	a3, s3, a3
	or	a2, a2, a3
.Ltmp1922:
	.loc	18 180 8
	bnez	a2, .LBB60_44
.Ltmp1923:
	.loc	5 171 46
	andi	a2, a0, 1
.Ltmp1924:
	.loc	10 759 51
	add	a2, a2, a0
.Ltmp1925:
	sltu	a0, a2, a0
	add	a1, a1, a0
	mv	a0, a2
	j	.LBB60_44
.Ltmp1926:
.LBB60_20:
	.loc	10 0 51 is_stmt 0
	snez	a5, a2
.Ltmp1927:
	.loc	18 54 12 is_stmt 1
	beqz	a5, .LBB60_5
.Ltmp1928:
.LBB60_21:
	.loc	18 0 12 is_stmt 0
	lui	a1, 128
.Ltmp1929:
	.loc	5 271 45 is_stmt 1
	or	a1, a1, a3
.Ltmp1930:
	.loc	5 0 45 is_stmt 0
	mv	a0, a2
.Ltmp1931:
	j	.LBB60_44
.Ltmp1932:
.LBB60_22:
	li	a0, 1
.Ltmp1933:
	.loc	8 1181 5 is_stmt 1
	sub	a6, a0, a5
	li	a0, 63
.Ltmp1934:
	.loc	18 147 12
	bgeu	a0, a6, .LBB60_27
.Ltmp1935:
.LBB60_23:
	.loc	18 0 12 is_stmt 0
	li	a0, 0
	j	.LBB60_44
.Ltmp1936:
.LBB60_24:
	.loc	6 1425 52 is_stmt 1
	xor	a4, t3, a5
	or	a4, a4, a2
.Ltmp1937:
	.loc	18 68 12
	bnez	a4, .LBB60_29
.Ltmp1938:
	.loc	18 0 0 is_stmt 0
	or	a0, a0, t4
.Ltmp1939:
	.loc	18 69 16 is_stmt 1
	beqz	a0, .LBB60_46
.Ltmp1940:
	.loc	5 271 45
	and	a1, t6, t0
.Ltmp1941:
	xor	a1, a1, a3
.Ltmp1942:
	.loc	5 0 45 is_stmt 0
	mv	a0, a2
.Ltmp1943:
	j	.LBB60_44
.Ltmp1944:
.LBB60_27:
	.loc	5 588 17 is_stmt 1
	not	a7, a6
	addi	t1, a6, -32
	srl	t3, s3, a6
	bltz	t1, .LBB60_34
.Ltmp1945:
	.loc	5 0 17 is_stmt 0
	mv	t0, t3
	j	.LBB60_35
.Ltmp1946:
.LBB60_29:
	or	a3, a0, t4
.Ltmp1947:
	.loc	18 79 12 is_stmt 1
	beqz	a3, .LBB60_23
.Ltmp1948:
	.loc	6 1425 52
	or	a3, a2, t3
.Ltmp1949:
	.loc	18 84 12
	beqz	a3, .LBB60_23
.Ltmp1950:
	.loc	6 1509 52
	srli	a3, t4, 20
	bnez	a3, .LBB60_47
.Ltmp1951:
	.loc	8 1181 5
	srli	t4, a0, 1
.Ltmp1952:
	.loc	8 0 5 is_stmt 0
	lui	a3, 349525
	addi	a4, a3, 1365
	lui	a3, 209715
	addi	a3, a3, 819
	lui	a5, 61681
	addi	t6, a5, -241
.Ltmp1953:
	lui	a5, 4112
	addi	a5, a5, 257
	.loc	8 1181 5
	bnez	t1, .LBB60_48
.Ltmp1954:
	.loc	8 0 5
	or	s0, a0, t4
	srli	s1, s0, 2
	or	s0, s0, s1
	srli	s1, s0, 4
	or	s0, s0, s1
	srli	s1, s0, 8
	or	s0, s0, s1
	srli	s1, s0, 16
	or	s0, s0, s1
	not	s0, s0
	srli	s1, s0, 1
	and	a4, a4, s1
	sub	s0, s0, a4
	and	a4, s0, a3
	srli	s0, s0, 2
	and	a3, a3, s0
	add	a3, a3, a4
	srli	a4, a3, 4
	add	a3, a3, a4
	and	a3, a3, t6
	mul	a3, a3, a5
	srli	a3, a3, 24
	addi	a3, a3, 32
	j	.LBB60_49
.Ltmp1955:
.LBB60_34:
	srl	a0, a2, a6
	slli	a3, s3, 1
	sll	a3, a3, a7
	or	t0, a0, a3
.Ltmp1956:
.LBB60_35:
	addi	t4, a5, 63
.Ltmp1957:
	.loc	5 588 17 is_stmt 1
	srai	t2, t1, 31
.Ltmp1958:
	.loc	5 271 45
	addi	t5, a5, 31
.Ltmp1959:
	or	a0, s1, a2
	bltz	t5, .LBB60_37
.Ltmp1960:
	.loc	5 0 45 is_stmt 0
	sll	t6, a0, t5
	j	.LBB60_38
.Ltmp1961:
.LBB60_37:
	srli	a2, a0, 1
.Ltmp1962:
	neg	a3, a5
	srl	a2, a2, a3
	or	a3, a4, s3
	sll	a3, a3, t4
	or	t6, a3, a2
.Ltmp1963:
.LBB60_38:
	and	a2, t2, t3
.Ltmp1964:
	.loc	5 271 45
	sll	a0, a0, t4
	srai	s0, t5, 31
	and	s0, s0, a0
.Ltmp1965:
	.loc	5 1006 17 is_stmt 1
	srl	a5, a4, a6
.Ltmp1966:
	bltz	t1, .LBB60_40
.Ltmp1967:
	.loc	5 0 17 is_stmt 0
	mv	a0, a5
	j	.LBB60_41
.Ltmp1968:
.LBB60_40:
	srl	a0, s1, a6
	slli	a4, a4, 1
.Ltmp1969:
	sll	a3, a4, a7
	or	a0, a0, a3
.Ltmp1970:
.LBB60_41:
	or	s3, t6, a2
.Ltmp1971:
	or	a2, s0, t0
.Ltmp1972:
	.loc	5 1006 17
	and	a4, t2, a5
.Ltmp1973:
	.loc	5 0 17
	lui	a5, 524288
.Ltmp1974:
	.loc	6 1515 52 is_stmt 1
	bne	s3, a5, .LBB60_17
.Ltmp1975:
.LBB60_42:
	.loc	6 0 52 is_stmt 0
	snez	a5, a2
	or	a1, a1, a4
.Ltmp1976:
	.loc	18 176 8 is_stmt 1
	beqz	a5, .LBB60_18
.Ltmp1977:
.LBB60_43:
	.loc	10 759 51
	addi	a0, a0, 1
	seqz	a2, a0
	add	a1, a1, a2
.Ltmp1978:
.LBB60_44:
	.loc	4 493 10
	lw	s0, 12(sp)
	lw	s1, 8(sp)
	lw	s2, 4(sp)
	lw	s3, 0(sp)
	.loc	4 493 10 epilogue_begin is_stmt 0
	addi	sp, sp, 16
	ret
.LBB60_45:
.Ltmp1979:
	.loc	4 0 10
	li	a0, 0
.Ltmp1980:
	lui	a1, 524160
	j	.LBB60_44
.Ltmp1981:
.LBB60_46:
	lui	a1, 524160
	j	.LBB60_44
.Ltmp1982:
.LBB60_47:
	li	t4, 0
	j	.LBB60_53
.Ltmp1983:
.LBB60_48:
	srli	s0, t1, 1
	or	s0, t1, s0
	srli	s1, s0, 2
	or	s0, s0, s1
	srli	s1, s0, 4
	or	s0, s0, s1
	srli	s1, s0, 8
	or	s0, s0, s1
	srli	s1, s0, 16
	or	s0, s0, s1
	not	s0, s0
	srli	s1, s0, 1
	and	a4, a4, s1
	sub	s0, s0, a4
	and	a4, s0, a3
	srli	s0, s0, 2
	and	a3, a3, s0
	add	a3, a3, a4
	srli	a4, a3, 4
	add	a3, a3, a4
	and	a3, a3, t6
	mul	a3, a3, a5
	srli	a3, a3, 24
.Ltmp1984:
.LBB60_49:
	.loc	8 1157 5 is_stmt 1
	addi	a4, a3, 53
.Ltmp1985:
	.loc	9 164 21
	andi	s0, a4, 63
	addi	a5, s0, -32
	li	t6, 12
	bltz	a5, .LBB60_51
.Ltmp1986:
	.loc	9 0 21 is_stmt 0
	sll	t1, a0, s0
.Ltmp1987:
	j	.LBB60_52
.Ltmp1988:
.LBB60_51:
	sll	s1, t1, a4
	not	s0, s0
	srl	s0, t4, s0
	or	t1, s1, s0
.Ltmp1989:
.LBB60_52:
	sub	t4, t6, a3
.Ltmp1990:
	.loc	9 164 21
	sll	a0, a0, a4
.Ltmp1991:
	srai	a5, a5, 31
	and	a0, a0, a5
.Ltmp1992:
.LBB60_53:
	.loc	6 1509 52 is_stmt 1
	srli	a3, t3, 20
.Ltmp1993:
	.loc	18 97 12
	bnez	a3, .LBB60_9
.Ltmp1994:
	.loc	8 1181 5
	srli	t3, a2, 1
.Ltmp1995:
	.loc	8 0 5 is_stmt 0
	lui	a3, 349525
	addi	a4, a3, 1365
	lui	a3, 209715
	addi	a3, a3, 819
	lui	a5, 61681
	addi	t6, a5, -241
	lui	a5, 4112
	addi	a5, a5, 257
	.loc	8 1181 5
	bnez	t2, .LBB60_56
.Ltmp1996:
	.loc	8 0 5
	or	s0, a2, t3
	srli	s1, s0, 2
	or	s0, s0, s1
	srli	s1, s0, 4
	or	s0, s0, s1
	srli	s1, s0, 8
	or	s0, s0, s1
	srli	s1, s0, 16
	or	s0, s0, s1
	not	s0, s0
	srli	s1, s0, 1
	and	a4, a4, s1
	sub	s0, s0, a4
	and	a4, s0, a3
	srli	s0, s0, 2
	and	a3, a3, s0
	add	a3, a3, a4
	srli	a4, a3, 4
	add	a3, a3, a4
	and	a3, a3, t6
	mul	a3, a3, a5
	srli	a3, a3, 24
	addi	a3, a3, 32
	j	.LBB60_57
.Ltmp1997:
.LBB60_56:
	srli	s0, t2, 1
	or	s0, t2, s0
	srli	s1, s0, 2
	or	s0, s0, s1
	srli	s1, s0, 4
	or	s0, s0, s1
	srli	s1, s0, 8
	or	s0, s0, s1
	srli	s1, s0, 16
	or	s0, s0, s1
	not	s0, s0
	srli	s1, s0, 1
	and	a4, a4, s1
	sub	s0, s0, a4
	and	a4, s0, a3
	srli	s0, s0, 2
	and	a3, a3, s0
	add	a3, a3, a4
	srli	a4, a3, 4
	add	a3, a3, a4
	and	a3, a3, t6
	mul	a3, a3, a5
	srli	a3, a3, 24
.Ltmp1998:
.LBB60_57:
	.loc	8 1157 5 is_stmt 1
	addi	a4, a3, 53
.Ltmp1999:
	.loc	9 164 21
	andi	a5, a4, 63
	addi	s0, a5, -32
	bltz	s0, .LBB60_59
.Ltmp2000:
	.loc	9 0 21 is_stmt 0
	sll	t2, a2, a5
.Ltmp2001:
	j	.LBB60_60
.Ltmp2002:
.LBB60_59:
	sll	s1, t2, a4
	not	a5, a5
	srl	a5, t3, a5
	or	t2, s1, a5
.Ltmp2003:
.LBB60_60:
	.loc	9 164 21
	sll	a2, a2, a4
.Ltmp2004:
	srai	s0, s0, 31
	and	a2, a2, s0
.Ltmp2005:
	.loc	18 99 13 is_stmt 1
	sub	t4, t4, a3
.Ltmp2006:
	addi	t4, t4, 12
.Ltmp2007:
	.loc	18 0 13 is_stmt 0
	j	.LBB60_9
.Ltmp2008:
.Lfunc_end60:
	.size	_ZN17compiler_builtins5float3mul8__muldf317h04c788943bceb212E, .Lfunc_end60-_ZN17compiler_builtins5float3mul8__muldf317h04c788943bceb212E
	.cfi_endproc

	.section	.text.__muldf3,"ax",@progbits
	.hidden	__muldf3
	.globl	__muldf3
	.p2align	1
	.type	__muldf3,@function
__muldf3:
.Lfunc_begin61:
	.cfi_startproc
	.loc	4 500 17 prologue_end is_stmt 1
	tail	_ZN17compiler_builtins5float3mul8__muldf317h04c788943bceb212E
.Ltmp2009:
.Lfunc_end61:
	.size	__muldf3, .Lfunc_end61-__muldf3
	.cfi_endproc

	.section	.text._ZN17compiler_builtins5float3pow9__powisf217hc3b13789775eb311E,"ax",@progbits
	.hidden	_ZN17compiler_builtins5float3pow9__powisf217hc3b13789775eb311E
	.globl	_ZN17compiler_builtins5float3pow9__powisf217hc3b13789775eb311E
	.p2align	1
	.type	_ZN17compiler_builtins5float3pow9__powisf217hc3b13789775eb311E,@function
_ZN17compiler_builtins5float3pow9__powisf217hc3b13789775eb311E:
.Lfunc_begin62:
	.loc	4 491 0
	.cfi_startproc
	addi	sp, sp, -32
	.cfi_def_cfa_offset 32
.Ltmp2010:
	.file	19 "/Users/steve/.cargo/registry/src/index.crates.io-6f17d22bba15001f/compiler_builtins-0.1.105" "src/float/pow.rs"
	.loc	19 0 0 is_stmt 0
	sw	ra, 28(sp)
	sw	s0, 24(sp)
	sw	s1, 20(sp)
	sw	s2, 16(sp)
	sw	s3, 12(sp)
	sw	s4, 8(sp)
	sw	s5, 4(sp)
	.cfi_offset ra, -4
	.cfi_offset s0, -8
	.cfi_offset s1, -12
	.cfi_offset s2, -16
	.cfi_offset s3, -20
	.cfi_offset s4, -24
	.cfi_offset s5, -28
.Ltmp2011:
	mv	s2, a1
.Ltmp2012:
	.loc	8 347 5 prologue_end is_stmt 1
	srai	a1, a1, 31
	xor	s1, s2, a1
	sub	s1, s1, a1
.Ltmp2013:
	.loc	19 11 12
	andi	a1, s1, 1
	mv	s5, a0
.Ltmp2014:
	.loc	19 0 12 is_stmt 0
	mv	s4, a0
	.loc	19 11 12
	bnez	a1, .LBB62_2
.Ltmp2015:
	.loc	19 0 12
	lui	s4, 260096
.Ltmp2016:
.LBB62_2:
	li	a0, 2
	.loc	19 15 12 is_stmt 1
	bgeu	s1, a0, .LBB62_6
.Ltmp2017:
.LBB62_3:
	.loc	19 21 8
	lui	a0, 260096
	mv	a1, s4
	call	__divsf3@plt
	bltz	s2, .LBB62_5
.Ltmp2018:
	.loc	19 0 8 is_stmt 0
	mv	a0, s4
.Ltmp2019:
.LBB62_5:
	.loc	4 493 10 is_stmt 1
	lw	ra, 28(sp)
	lw	s0, 24(sp)
	lw	s1, 20(sp)
	lw	s2, 16(sp)
.Ltmp2020:
	lw	s3, 12(sp)
	lw	s4, 8(sp)
	lw	s5, 4(sp)
	.loc	4 493 10 epilogue_begin is_stmt 0
	addi	sp, sp, 32
	ret
.LBB62_6:
.Ltmp2021:
	.loc	4 0 10
	li	s3, 3
	j	.LBB62_8
.Ltmp2022:
.LBB62_7:
	srli	s1, s0, 1
.Ltmp2023:
	.loc	19 11 12 is_stmt 1
	mv	a0, s4
	call	__mulsf3@plt
	mv	s4, a0
.Ltmp2024:
	.loc	19 15 12
	bgeu	s3, s0, .LBB62_3
.Ltmp2025:
.LBB62_8:
	.loc	19 0 12 is_stmt 0
	mv	s0, s1
.Ltmp2026:
	.loc	10 884 51 is_stmt 1
	mv	a0, s5
	mv	a1, s5
	call	__mulsf3@plt
.Ltmp2027:
	.loc	19 11 12
	andi	a2, s1, 2
.Ltmp2028:
	.loc	10 884 51
	mv	s5, a0
.Ltmp2029:
	.loc	10 0 51 is_stmt 0
	mv	a1, a0
.Ltmp2030:
	.loc	19 11 12 is_stmt 1
	bnez	a2, .LBB62_7
.Ltmp2031:
	.loc	19 0 12 is_stmt 0
	lui	a1, 260096
	j	.LBB62_7
.Lfunc_end62:
	.size	_ZN17compiler_builtins5float3pow9__powisf217hc3b13789775eb311E, .Lfunc_end62-_ZN17compiler_builtins5float3pow9__powisf217hc3b13789775eb311E
	.cfi_endproc

	.section	.text.__powisf2,"ax",@progbits
	.hidden	__powisf2
	.globl	__powisf2
	.p2align	1
	.type	__powisf2,@function
__powisf2:
.Lfunc_begin63:
	.loc	4 499 0 is_stmt 1
	.cfi_startproc
	addi	sp, sp, -32
	.cfi_def_cfa_offset 32
.Ltmp2032:
	.loc	19 0 0 is_stmt 0
	sw	ra, 28(sp)
	sw	s0, 24(sp)
	sw	s1, 20(sp)
	sw	s2, 16(sp)
	sw	s3, 12(sp)
	sw	s4, 8(sp)
	sw	s5, 4(sp)
	.cfi_offset ra, -4
	.cfi_offset s0, -8
	.cfi_offset s1, -12
	.cfi_offset s2, -16
	.cfi_offset s3, -20
	.cfi_offset s4, -24
	.cfi_offset s5, -28
.Ltmp2033:
	mv	s2, a1
.Ltmp2034:
	.loc	8 347 5 prologue_end is_stmt 1
	srai	a1, a1, 31
	xor	s1, s2, a1
	sub	s1, s1, a1
.Ltmp2035:
	.loc	19 11 12
	andi	a1, s1, 1
	mv	s5, a0
.Ltmp2036:
	.loc	19 0 12 is_stmt 0
	mv	s4, a0
	.loc	19 11 12
	bnez	a1, .LBB63_2
.Ltmp2037:
	.loc	19 0 12
	lui	s4, 260096
.Ltmp2038:
.LBB63_2:
	li	a0, 2
	.loc	19 15 12 is_stmt 1
	bgeu	s1, a0, .LBB63_6
.Ltmp2039:
.LBB63_3:
	.loc	19 21 8
	lui	a0, 260096
	mv	a1, s4
	call	__divsf3@plt
	bltz	s2, .LBB63_5
.Ltmp2040:
	.loc	19 0 8 is_stmt 0
	mv	a0, s4
.Ltmp2041:
.LBB63_5:
	.loc	4 501 14 is_stmt 1
	lw	ra, 28(sp)
	lw	s0, 24(sp)
	lw	s1, 20(sp)
	lw	s2, 16(sp)
.Ltmp2042:
	lw	s3, 12(sp)
	lw	s4, 8(sp)
	lw	s5, 4(sp)
	.loc	4 501 14 epilogue_begin is_stmt 0
	addi	sp, sp, 32
	ret
.LBB63_6:
.Ltmp2043:
	.loc	4 0 14
	li	s3, 3
	j	.LBB63_8
.Ltmp2044:
.LBB63_7:
	srli	s1, s0, 1
.Ltmp2045:
	.loc	19 11 12 is_stmt 1
	mv	a0, s4
	call	__mulsf3@plt
	mv	s4, a0
.Ltmp2046:
	.loc	19 15 12
	bgeu	s3, s0, .LBB63_3
.Ltmp2047:
.LBB63_8:
	.loc	19 0 12 is_stmt 0
	mv	s0, s1
.Ltmp2048:
	.loc	10 884 51 is_stmt 1
	mv	a0, s5
	mv	a1, s5
	call	__mulsf3@plt
.Ltmp2049:
	.loc	19 11 12
	andi	a2, s1, 2
.Ltmp2050:
	.loc	10 884 51
	mv	s5, a0
.Ltmp2051:
	.loc	10 0 51 is_stmt 0
	mv	a1, a0
.Ltmp2052:
	.loc	19 11 12 is_stmt 1
	bnez	a2, .LBB63_7
.Ltmp2053:
	.loc	19 0 12 is_stmt 0
	lui	a1, 260096
	j	.LBB63_7
.Lfunc_end63:
	.size	__powisf2, .Lfunc_end63-__powisf2
	.cfi_endproc

	.section	.text._ZN17compiler_builtins5float3pow9__powidf217h1dd044479696756aE,"ax",@progbits
	.hidden	_ZN17compiler_builtins5float3pow9__powidf217h1dd044479696756aE
	.globl	_ZN17compiler_builtins5float3pow9__powidf217h1dd044479696756aE
	.p2align	1
	.type	_ZN17compiler_builtins5float3pow9__powidf217h1dd044479696756aE,@function
_ZN17compiler_builtins5float3pow9__powidf217h1dd044479696756aE:
.Lfunc_begin64:
	.loc	4 491 0 is_stmt 1
	.cfi_startproc
	addi	sp, sp, -48
	.cfi_def_cfa_offset 48
.Ltmp2054:
	.loc	19 0 0 is_stmt 0
	sw	ra, 44(sp)
	sw	s0, 40(sp)
	sw	s1, 36(sp)
	sw	s2, 32(sp)
	sw	s3, 28(sp)
	sw	s4, 24(sp)
	sw	s5, 20(sp)
	sw	s6, 16(sp)
	sw	s7, 12(sp)
	.cfi_offset ra, -4
	.cfi_offset s0, -8
	.cfi_offset s1, -12
	.cfi_offset s2, -16
	.cfi_offset s3, -20
	.cfi_offset s4, -24
	.cfi_offset s5, -28
	.cfi_offset s6, -32
	.cfi_offset s7, -36
.Ltmp2055:
	mv	s2, a2
.Ltmp2056:
	mv	s6, a1
	mv	s7, a0
.Ltmp2057:
	.loc	8 347 5 prologue_end is_stmt 1
	srai	a0, a2, 31
	xor	s0, a2, a0
	sub	s0, s0, a0
.Ltmp2058:
	.loc	19 11 12
	andi	a1, s0, 1
	neg	a0, a1
	mv	s3, s6
	bnez	a1, .LBB64_2
.Ltmp2059:
	.loc	19 0 12 is_stmt 0
	lui	s3, 261888
.Ltmp2060:
.LBB64_2:
	li	a1, 2
	.loc	19 11 12
	and	s4, a0, s7
	.loc	19 15 12 is_stmt 1
	bgeu	s0, a1, .LBB64_6
.Ltmp2061:
.LBB64_3:
	.loc	19 21 8
	lui	a1, 261888
	li	a0, 0
	mv	a2, s4
	mv	a3, s3
	call	__divdf3@plt
	bltz	s2, .LBB64_5
.Ltmp2062:
	.loc	19 0 8 is_stmt 0
	mv	a0, s4
	mv	a1, s3
.Ltmp2063:
.LBB64_5:
	.loc	4 493 10 is_stmt 1
	lw	ra, 44(sp)
	lw	s0, 40(sp)
	lw	s1, 36(sp)
	lw	s2, 32(sp)
.Ltmp2064:
	lw	s3, 28(sp)
	lw	s4, 24(sp)
	lw	s5, 20(sp)
	lw	s6, 16(sp)
	lw	s7, 12(sp)
	.loc	4 493 10 epilogue_begin is_stmt 0
	addi	sp, sp, 48
	ret
.LBB64_6:
.Ltmp2065:
	.loc	4 0 10
	li	s5, 3
	j	.LBB64_8
.Ltmp2066:
.LBB64_7:
	srli	s0, s1, 1
.Ltmp2067:
	.loc	19 11 12 is_stmt 1
	slli	a0, s1, 30
	srai	a0, a0, 31
	and	a2, a0, s7
	mv	a0, s4
	mv	a1, s3
	call	__muldf3@plt
	mv	s4, a0
	mv	s3, a1
.Ltmp2068:
	.loc	19 15 12
	bgeu	s5, s1, .LBB64_3
.Ltmp2069:
.LBB64_8:
	.loc	19 0 12 is_stmt 0
	mv	s1, s0
.Ltmp2070:
	.loc	10 884 51 is_stmt 1
	mv	a0, s7
	mv	a1, s6
	mv	a2, s7
	mv	a3, s6
	call	__muldf3@plt
.Ltmp2071:
	.loc	19 11 12
	andi	a2, s0, 2
.Ltmp2072:
	.loc	10 884 51
	mv	s7, a0
.Ltmp2073:
	mv	s6, a1
.Ltmp2074:
	.loc	10 0 51 is_stmt 0
	mv	a3, a1
.Ltmp2075:
	.loc	19 11 12 is_stmt 1
	bnez	a2, .LBB64_7
.Ltmp2076:
	.loc	19 0 12 is_stmt 0
	lui	a3, 261888
	j	.LBB64_7
.Lfunc_end64:
	.size	_ZN17compiler_builtins5float3pow9__powidf217h1dd044479696756aE, .Lfunc_end64-_ZN17compiler_builtins5float3pow9__powidf217h1dd044479696756aE
	.cfi_endproc

	.section	.text.__powidf2,"ax",@progbits
	.hidden	__powidf2
	.globl	__powidf2
	.p2align	1
	.type	__powidf2,@function
__powidf2:
.Lfunc_begin65:
	.loc	4 499 0 is_stmt 1
	.cfi_startproc
	addi	sp, sp, -48
	.cfi_def_cfa_offset 48
.Ltmp2077:
	.loc	19 0 0 is_stmt 0
	sw	ra, 44(sp)
	sw	s0, 40(sp)
	sw	s1, 36(sp)
	sw	s2, 32(sp)
	sw	s3, 28(sp)
	sw	s4, 24(sp)
	sw	s5, 20(sp)
	sw	s6, 16(sp)
	sw	s7, 12(sp)
	.cfi_offset ra, -4
	.cfi_offset s0, -8
	.cfi_offset s1, -12
	.cfi_offset s2, -16
	.cfi_offset s3, -20
	.cfi_offset s4, -24
	.cfi_offset s5, -28
	.cfi_offset s6, -32
	.cfi_offset s7, -36
.Ltmp2078:
	mv	s2, a2
.Ltmp2079:
	mv	s6, a1
	mv	s7, a0
.Ltmp2080:
	.loc	8 347 5 prologue_end is_stmt 1
	srai	a0, a2, 31
	xor	s0, a2, a0
	sub	s0, s0, a0
.Ltmp2081:
	.loc	19 11 12
	andi	a1, s0, 1
	neg	a0, a1
	mv	s3, s6
	bnez	a1, .LBB65_2
.Ltmp2082:
	.loc	19 0 12 is_stmt 0
	lui	s3, 261888
.Ltmp2083:
.LBB65_2:
	li	a1, 2
	.loc	19 11 12
	and	s4, a0, s7
	.loc	19 15 12 is_stmt 1
	bgeu	s0, a1, .LBB65_6
.Ltmp2084:
.LBB65_3:
	.loc	19 21 8
	lui	a1, 261888
	li	a0, 0
	mv	a2, s4
	mv	a3, s3
	call	__divdf3@plt
	bltz	s2, .LBB65_5
.Ltmp2085:
	.loc	19 0 8 is_stmt 0
	mv	a0, s4
	mv	a1, s3
.Ltmp2086:
.LBB65_5:
	.loc	4 501 14 is_stmt 1
	lw	ra, 44(sp)
	lw	s0, 40(sp)
	lw	s1, 36(sp)
	lw	s2, 32(sp)
.Ltmp2087:
	lw	s3, 28(sp)
	lw	s4, 24(sp)
	lw	s5, 20(sp)
	lw	s6, 16(sp)
	lw	s7, 12(sp)
	.loc	4 501 14 epilogue_begin is_stmt 0
	addi	sp, sp, 48
	ret
.LBB65_6:
.Ltmp2088:
	.loc	4 0 14
	li	s5, 3
	j	.LBB65_8
.Ltmp2089:
.LBB65_7:
	srli	s0, s1, 1
.Ltmp2090:
	.loc	19 11 12 is_stmt 1
	slli	a0, s1, 30
	srai	a0, a0, 31
	and	a2, a0, s7
	mv	a0, s4
	mv	a1, s3
	call	__muldf3@plt
	mv	s4, a0
	mv	s3, a1
.Ltmp2091:
	.loc	19 15 12
	bgeu	s5, s1, .LBB65_3
.Ltmp2092:
.LBB65_8:
	.loc	19 0 12 is_stmt 0
	mv	s1, s0
.Ltmp2093:
	.loc	10 884 51 is_stmt 1
	mv	a0, s7
	mv	a1, s6
	mv	a2, s7
	mv	a3, s6
	call	__muldf3@plt
.Ltmp2094:
	.loc	19 11 12
	andi	a2, s0, 2
.Ltmp2095:
	.loc	10 884 51
	mv	s7, a0
.Ltmp2096:
	mv	s6, a1
.Ltmp2097:
	.loc	10 0 51 is_stmt 0
	mv	a3, a1
.Ltmp2098:
	.loc	19 11 12 is_stmt 1
	bnez	a2, .LBB65_7
.Ltmp2099:
	.loc	19 0 12 is_stmt 0
	lui	a3, 261888
	j	.LBB65_7
.Lfunc_end65:
	.size	__powidf2, .Lfunc_end65-__powidf2
	.cfi_endproc

	.section	.text._ZN17compiler_builtins5float3sub8__subsf317h70c4fdc72d31b4e1E,"ax",@progbits
	.hidden	_ZN17compiler_builtins5float3sub8__subsf317h70c4fdc72d31b4e1E
	.globl	_ZN17compiler_builtins5float3sub8__subsf317h70c4fdc72d31b4e1E
	.p2align	1
	.type	_ZN17compiler_builtins5float3sub8__subsf317h70c4fdc72d31b4e1E,@function
_ZN17compiler_builtins5float3sub8__subsf317h70c4fdc72d31b4e1E:
.Lfunc_begin66:
	.loc	4 491 0 is_stmt 1
	.cfi_startproc
	lui	a2, 524288
.Ltmp2100:
	.file	20 "/Users/steve/.cargo/registry/src/index.crates.io-6f17d22bba15001f/compiler_builtins-0.1.105" "src/float/sub.rs"
	.loc	20 9 36 prologue_end
	xor	a1, a1, a2
.Ltmp2101:
	.loc	20 9 9 is_stmt 0
	tail	_ZN17compiler_builtins5float3add8__addsf317hc0b9121ec374a342E
.Ltmp2102:
.Lfunc_end66:
	.size	_ZN17compiler_builtins5float3sub8__subsf317h70c4fdc72d31b4e1E, .Lfunc_end66-_ZN17compiler_builtins5float3sub8__subsf317h70c4fdc72d31b4e1E
	.cfi_endproc

	.section	.text.__subsf3,"ax",@progbits
	.hidden	__subsf3
	.globl	__subsf3
	.p2align	1
	.type	__subsf3,@function
__subsf3:
.Lfunc_begin67:
	.loc	4 499 0 is_stmt 1
	.cfi_startproc
	lui	a2, 524288
.Ltmp2103:
	.loc	20 9 36 prologue_end
	xor	a1, a1, a2
.Ltmp2104:
	.loc	20 9 9 is_stmt 0
	tail	_ZN17compiler_builtins5float3add8__addsf317hc0b9121ec374a342E
.Ltmp2105:
.Lfunc_end67:
	.size	__subsf3, .Lfunc_end67-__subsf3
	.cfi_endproc

	.section	.text._ZN17compiler_builtins5float3sub8__subdf317h1b4abdb58ec2162eE,"ax",@progbits
	.hidden	_ZN17compiler_builtins5float3sub8__subdf317h1b4abdb58ec2162eE
	.globl	_ZN17compiler_builtins5float3sub8__subdf317h1b4abdb58ec2162eE
	.p2align	1
	.type	_ZN17compiler_builtins5float3sub8__subdf317h1b4abdb58ec2162eE,@function
_ZN17compiler_builtins5float3sub8__subdf317h1b4abdb58ec2162eE:
.Lfunc_begin68:
	.loc	4 491 0 is_stmt 1
	.cfi_startproc
	lui	a4, 524288
.Ltmp2106:
	.loc	20 15 36 prologue_end
	xor	a3, a3, a4
.Ltmp2107:
	.loc	20 15 9 is_stmt 0
	tail	_ZN17compiler_builtins5float3add8__adddf317ha1c90aff642e91b7E
.Ltmp2108:
.Lfunc_end68:
	.size	_ZN17compiler_builtins5float3sub8__subdf317h1b4abdb58ec2162eE, .Lfunc_end68-_ZN17compiler_builtins5float3sub8__subdf317h1b4abdb58ec2162eE
	.cfi_endproc

	.section	.text.__subdf3,"ax",@progbits
	.hidden	__subdf3
	.globl	__subdf3
	.p2align	1
	.type	__subdf3,@function
__subdf3:
.Lfunc_begin69:
	.loc	4 499 0 is_stmt 1
	.cfi_startproc
	lui	a4, 524288
.Ltmp2109:
	.loc	20 15 36 prologue_end
	xor	a3, a3, a4
.Ltmp2110:
	.loc	20 15 9 is_stmt 0
	tail	_ZN17compiler_builtins5float3add8__adddf317ha1c90aff642e91b7E
.Ltmp2111:
.Lfunc_end69:
	.size	__subdf3, .Lfunc_end69-__subdf3
	.cfi_endproc

	.section	.text._ZN17compiler_builtins5float5trunc12__truncdfsf217h1e2ed22524c06fdcE,"ax",@progbits
	.hidden	_ZN17compiler_builtins5float5trunc12__truncdfsf217h1e2ed22524c06fdcE
	.globl	_ZN17compiler_builtins5float5trunc12__truncdfsf217h1e2ed22524c06fdcE
	.p2align	1
	.type	_ZN17compiler_builtins5float5trunc12__truncdfsf217h1e2ed22524c06fdcE,@function
_ZN17compiler_builtins5float5trunc12__truncdfsf217h1e2ed22524c06fdcE:
.Lfunc_begin70:
	.cfi_startproc
	.loc	5 171 46 prologue_end is_stmt 1
	slli	a2, a1, 1
	srli	a2, a2, 1
	lui	a3, 818944
.Ltmp2112:
	.loc	8 1181 5
	add	a3, a3, a2
	lui	a4, 753920
.Ltmp2113:
	.loc	8 1181 5 is_stmt 0
	add	a4, a4, a2
.Ltmp2114:
	.file	21 "/Users/steve/.cargo/registry/src/index.crates.io-6f17d22bba15001f/compiler_builtins-0.1.105" "src/float/trunc.rs"
	.loc	21 50 8 is_stmt 1
	bgeu	a3, a4, .LBB70_4
.Ltmp2115:
	.loc	5 588 17
	srli	a2, a0, 29
	slli	a3, a1, 3
	or	a3, a3, a2
.Ltmp2116:
	.loc	5 171 46
	slli	a0, a0, 3
.Ltmp2117:
	srli	a0, a0, 3
.Ltmp2118:
	.loc	5 0 46 is_stmt 0
	lui	a4, 65536
.Ltmp2119:
	lui	a2, 262144
.Ltmp2120:
	.loc	21 59 12 is_stmt 1
	bgeu	a4, a0, .LBB70_9
.Ltmp2121:
	.loc	21 0 12 is_stmt 0
	addi	a2, a2, 1
.Ltmp2122:
	.loc	10 759 51 is_stmt 1
	add	a2, a2, a3
.Ltmp2123:
.LBB70_3:
	.loc	10 0 51 is_stmt 0
	lui	a0, 524288
.Ltmp2124:
	.loc	13 373 17 is_stmt 1
	and	a0, a0, a1
.Ltmp2125:
	.loc	5 271 45
	or	a0, a0, a2
.Ltmp2126:
	.loc	4 493 10
	ret
.Ltmp2127:
.LBB70_4:
	.loc	4 0 10 is_stmt 0
	lui	a3, 524032
.Ltmp2128:
	.loc	6 1515 52 is_stmt 1
	beq	a2, a3, .LBB70_11
.Ltmp2129:
	.loc	6 0 52 is_stmt 0
	sltu	a3, a3, a2
	.loc	21 66 15 is_stmt 1
	bnez	a3, .LBB70_12
.Ltmp2130:
.LBB70_6:
	.loc	6 1513 52
	srli	a3, a2, 20
	li	a4, 1150
	lui	a2, 522240
.Ltmp2131:
	.loc	21 74 15
	bltu	a4, a3, .LBB70_3
.Ltmp2132:
	.loc	21 0 15 is_stmt 0
	li	a2, 897
.Ltmp2133:
	.loc	21 82 21 is_stmt 1
	sub	a2, a2, a3
.Ltmp2134:
	.loc	21 0 21 is_stmt 0
	li	a4, 52
.Ltmp2135:
	.loc	21 87 12 is_stmt 1
	bgeu	a4, a2, .LBB70_13
.Ltmp2136:
	.loc	21 0 12 is_stmt 0
	lui	a0, 524288
.Ltmp2137:
	.loc	13 373 17 is_stmt 1
	and	a0, a0, a1
.Ltmp2138:
	.loc	5 271 45
	or	a0, zero, a0
.Ltmp2139:
	.loc	4 493 10
	ret
.Ltmp2140:
.LBB70_9:
	.loc	21 0 0 is_stmt 0
	add	a2, a2, a3
.Ltmp2141:
	.loc	21 62 19 is_stmt 1
	bne	a0, a4, .LBB70_3
.Ltmp2142:
	.loc	5 171 46
	andi	a3, a3, 1
.Ltmp2143:
	.loc	10 759 51
	add	a2, a2, a3
.Ltmp2144:
	.loc	10 0 51 is_stmt 0
	lui	a0, 524288
.Ltmp2145:
	.loc	13 373 17 is_stmt 1
	and	a0, a0, a1
.Ltmp2146:
	.loc	5 271 45
	or	a0, a0, a2
.Ltmp2147:
	.loc	4 493 10
	ret
.Ltmp2148:
.LBB70_11:
	.loc	4 0 10 is_stmt 0
	snez	a3, a0
.Ltmp2149:
	.loc	21 66 15 is_stmt 1
	beqz	a3, .LBB70_6
.Ltmp2150:
.LBB70_12:
	.loc	5 588 17
	srli	a0, a0, 29
.Ltmp2151:
	slli	a2, a1, 3
	or	a0, a0, a2
.Ltmp2152:
	.loc	13 373 17
	slli	a0, a0, 10
.Ltmp2153:
	srli	a0, a0, 10
.Ltmp2154:
	.loc	13 0 17 is_stmt 0
	lui	a2, 523264
.Ltmp2155:
	.loc	5 790 53 is_stmt 1
	or	a2, a2, a0
.Ltmp2156:
	.loc	5 0 53 is_stmt 0
	lui	a0, 524288
.Ltmp2157:
	.loc	13 373 17 is_stmt 1
	and	a0, a0, a1
.Ltmp2158:
	.loc	5 271 45
	or	a0, a0, a2
.Ltmp2159:
	.loc	4 493 10
	ret
.Ltmp2160:
.LBB70_13:
	.loc	4 0 10 is_stmt 0
	lui	a4, 256
	addi	a4, a4, -1
.Ltmp2161:
	.loc	5 171 46 is_stmt 1
	and	a6, a1, a4
.Ltmp2162:
	.loc	5 271 45
	snez	a5, a0
	add	a6, a6, a5
.Ltmp2163:
	addi	a0, a0, -1
.Ltmp2164:
	addi	t0, a0, 1
	seqz	a5, t0
	add	a7, a5, a4
.Ltmp2165:
	.loc	21 90 45
	addi	a4, a3, -1
.Ltmp2166:
	.loc	5 470 17
	andi	a5, a4, 63
	addi	a3, a5, -32
.Ltmp2167:
	.loc	5 271 45
	add	a7, a7, a6
.Ltmp2168:
	.loc	5 470 17
	bltz	a3, .LBB70_15
.Ltmp2169:
	.loc	5 0 17 is_stmt 0
	sll	a6, t0, a5
	j	.LBB70_16
.Ltmp2170:
.LBB70_15:
	not	a5, a5
	srli	a0, t0, 1
	srl	a0, a0, a5
	sll	a5, a7, a4
	or	a6, a5, a0
.Ltmp2171:
.LBB70_16:
	.loc	5 470 17
	sll	a0, t0, a4
	srai	a3, a3, 31
	and	a0, a0, a3
.Ltmp2172:
	.loc	6 1427 52 is_stmt 1
	or	a0, a0, a6
	snez	a6, a0
.Ltmp2173:
	.loc	5 588 17
	addi	a4, a2, -32
	srl	a5, a7, a2
	bltz	a4, .LBB70_18
.Ltmp2174:
	.loc	5 0 17 is_stmt 0
	mv	a0, a5
	j	.LBB70_19
.Ltmp2175:
.LBB70_18:
	srl	a0, t0, a2
	slli	a7, a7, 1
.Ltmp2176:
	not	a2, a2
.Ltmp2177:
	sll	a2, a7, a2
	or	a0, a0, a2
.Ltmp2178:
.LBB70_19:
	.loc	5 588 17
	srai	a4, a4, 31
	and	a4, a4, a5
.Ltmp2179:
	.loc	5 588 17
	srli	a2, a0, 29
	slli	a4, a4, 3
.Ltmp2180:
	.loc	5 171 46 is_stmt 1
	slli	a0, a0, 3
.Ltmp2181:
	srli	a0, a0, 3
	or	a0, a0, a6
.Ltmp2182:
	.loc	5 0 46 is_stmt 0
	lui	a3, 65536
.Ltmp2183:
	.loc	5 588 17 is_stmt 1
	or	a2, a2, a4
.Ltmp2184:
	.loc	21 100 16
	bgeu	a3, a0, .LBB70_21
.Ltmp2185:
	.loc	10 759 51
	addi	a2, a2, 1
.Ltmp2186:
	.loc	10 0 51 is_stmt 0
	lui	a0, 524288
.Ltmp2187:
	.loc	13 373 17 is_stmt 1
	and	a0, a0, a1
.Ltmp2188:
	.loc	5 271 45
	or	a0, a0, a2
.Ltmp2189:
	.loc	4 493 10
	ret
.Ltmp2190:
.LBB70_21:
	.loc	21 104 21
	bne	a0, a3, .LBB70_3
.Ltmp2191:
	.loc	5 171 46
	andi	a0, a2, 1
.Ltmp2192:
	.loc	10 759 51
	add	a2, a2, a0
.Ltmp2193:
	.loc	10 0 51 is_stmt 0
	lui	a0, 524288
.Ltmp2194:
	.loc	13 373 17 is_stmt 1
	and	a0, a0, a1
.Ltmp2195:
	.loc	5 271 45
	or	a0, a0, a2
.Ltmp2196:
	.loc	4 493 10
	ret
.Ltmp2197:
.Lfunc_end70:
	.size	_ZN17compiler_builtins5float5trunc12__truncdfsf217h1e2ed22524c06fdcE, .Lfunc_end70-_ZN17compiler_builtins5float5trunc12__truncdfsf217h1e2ed22524c06fdcE
	.cfi_endproc

	.section	.text.__truncdfsf2,"ax",@progbits
	.hidden	__truncdfsf2
	.globl	__truncdfsf2
	.p2align	1
	.type	__truncdfsf2,@function
__truncdfsf2:
.Lfunc_begin71:
	.cfi_startproc
	.loc	5 171 46 prologue_end
	slli	a2, a1, 1
	srli	a2, a2, 1
	lui	a3, 818944
.Ltmp2198:
	.loc	8 1181 5
	add	a3, a3, a2
	lui	a4, 753920
.Ltmp2199:
	.loc	8 1181 5 is_stmt 0
	add	a4, a4, a2
.Ltmp2200:
	.loc	21 50 8 is_stmt 1
	bgeu	a3, a4, .LBB71_4
.Ltmp2201:
	.loc	5 588 17
	srli	a2, a0, 29
	slli	a3, a1, 3
	or	a3, a3, a2
.Ltmp2202:
	.loc	5 171 46
	slli	a0, a0, 3
.Ltmp2203:
	srli	a0, a0, 3
.Ltmp2204:
	.loc	5 0 46 is_stmt 0
	lui	a4, 65536
.Ltmp2205:
	lui	a2, 262144
.Ltmp2206:
	.loc	21 59 12 is_stmt 1
	bgeu	a4, a0, .LBB71_9
.Ltmp2207:
	.loc	21 0 12 is_stmt 0
	addi	a2, a2, 1
.Ltmp2208:
	.loc	10 759 51 is_stmt 1
	add	a2, a2, a3
.Ltmp2209:
.LBB71_3:
	.loc	10 0 51 is_stmt 0
	lui	a0, 524288
.Ltmp2210:
	.loc	13 373 17 is_stmt 1
	and	a0, a0, a1
.Ltmp2211:
	.loc	5 271 45
	or	a0, a0, a2
.Ltmp2212:
	.loc	4 501 14
	ret
.Ltmp2213:
.LBB71_4:
	.loc	4 0 14 is_stmt 0
	lui	a3, 524032
.Ltmp2214:
	.loc	6 1515 52 is_stmt 1
	beq	a2, a3, .LBB71_11
.Ltmp2215:
	.loc	6 0 52 is_stmt 0
	sltu	a3, a3, a2
	.loc	21 66 15 is_stmt 1
	bnez	a3, .LBB71_12
.Ltmp2216:
.LBB71_6:
	.loc	6 1513 52
	srli	a3, a2, 20
	li	a4, 1150
	lui	a2, 522240
.Ltmp2217:
	.loc	21 74 15
	bltu	a4, a3, .LBB71_3
.Ltmp2218:
	.loc	21 0 15 is_stmt 0
	li	a2, 897
.Ltmp2219:
	.loc	21 82 21 is_stmt 1
	sub	a2, a2, a3
.Ltmp2220:
	.loc	21 0 21 is_stmt 0
	li	a4, 52
.Ltmp2221:
	.loc	21 87 12 is_stmt 1
	bgeu	a4, a2, .LBB71_13
.Ltmp2222:
	.loc	21 0 12 is_stmt 0
	lui	a0, 524288
.Ltmp2223:
	.loc	13 373 17 is_stmt 1
	and	a0, a0, a1
.Ltmp2224:
	.loc	5 271 45
	or	a0, zero, a0
.Ltmp2225:
	.loc	4 501 14
	ret
.Ltmp2226:
.LBB71_9:
	.loc	21 0 0 is_stmt 0
	add	a2, a2, a3
.Ltmp2227:
	.loc	21 62 19 is_stmt 1
	bne	a0, a4, .LBB71_3
.Ltmp2228:
	.loc	5 171 46
	andi	a3, a3, 1
.Ltmp2229:
	.loc	10 759 51
	add	a2, a2, a3
.Ltmp2230:
	.loc	10 0 51 is_stmt 0
	lui	a0, 524288
.Ltmp2231:
	.loc	13 373 17 is_stmt 1
	and	a0, a0, a1
.Ltmp2232:
	.loc	5 271 45
	or	a0, a0, a2
.Ltmp2233:
	.loc	4 501 14
	ret
.Ltmp2234:
.LBB71_11:
	.loc	4 0 14 is_stmt 0
	snez	a3, a0
.Ltmp2235:
	.loc	21 66 15 is_stmt 1
	beqz	a3, .LBB71_6
.Ltmp2236:
.LBB71_12:
	.loc	5 588 17
	srli	a0, a0, 29
.Ltmp2237:
	slli	a2, a1, 3
	or	a0, a0, a2
.Ltmp2238:
	.loc	13 373 17
	slli	a0, a0, 10
.Ltmp2239:
	srli	a0, a0, 10
.Ltmp2240:
	.loc	13 0 17 is_stmt 0
	lui	a2, 523264
.Ltmp2241:
	.loc	5 790 53 is_stmt 1
	or	a2, a2, a0
.Ltmp2242:
	.loc	5 0 53 is_stmt 0
	lui	a0, 524288
.Ltmp2243:
	.loc	13 373 17 is_stmt 1
	and	a0, a0, a1
.Ltmp2244:
	.loc	5 271 45
	or	a0, a0, a2
.Ltmp2245:
	.loc	4 501 14
	ret
.Ltmp2246:
.LBB71_13:
	.loc	4 0 14 is_stmt 0
	lui	a4, 256
	addi	a4, a4, -1
.Ltmp2247:
	.loc	5 171 46 is_stmt 1
	and	a6, a1, a4
.Ltmp2248:
	.loc	5 271 45
	snez	a5, a0
	add	a6, a6, a5
.Ltmp2249:
	addi	a0, a0, -1
.Ltmp2250:
	addi	t0, a0, 1
	seqz	a5, t0
	add	a7, a5, a4
.Ltmp2251:
	.loc	21 90 45
	addi	a4, a3, -1
.Ltmp2252:
	.loc	5 470 17
	andi	a5, a4, 63
	addi	a3, a5, -32
.Ltmp2253:
	.loc	5 271 45
	add	a7, a7, a6
.Ltmp2254:
	.loc	5 470 17
	bltz	a3, .LBB71_15
.Ltmp2255:
	.loc	5 0 17 is_stmt 0
	sll	a6, t0, a5
	j	.LBB71_16
.Ltmp2256:
.LBB71_15:
	not	a5, a5
	srli	a0, t0, 1
	srl	a0, a0, a5
	sll	a5, a7, a4
	or	a6, a5, a0
.Ltmp2257:
.LBB71_16:
	.loc	5 470 17
	sll	a0, t0, a4
	srai	a3, a3, 31
	and	a0, a0, a3
.Ltmp2258:
	.loc	6 1427 52 is_stmt 1
	or	a0, a0, a6
	snez	a6, a0
.Ltmp2259:
	.loc	5 588 17
	addi	a4, a2, -32
	srl	a5, a7, a2
	bltz	a4, .LBB71_18
.Ltmp2260:
	.loc	5 0 17 is_stmt 0
	mv	a0, a5
	j	.LBB71_19
.Ltmp2261:
.LBB71_18:
	srl	a0, t0, a2
	slli	a7, a7, 1
.Ltmp2262:
	not	a2, a2
.Ltmp2263:
	sll	a2, a7, a2
	or	a0, a0, a2
.Ltmp2264:
.LBB71_19:
	.loc	5 588 17
	srai	a4, a4, 31
	and	a4, a4, a5
.Ltmp2265:
	.loc	5 588 17
	srli	a2, a0, 29
	slli	a4, a4, 3
.Ltmp2266:
	.loc	5 171 46 is_stmt 1
	slli	a0, a0, 3
.Ltmp2267:
	srli	a0, a0, 3
	or	a0, a0, a6
.Ltmp2268:
	.loc	5 0 46 is_stmt 0
	lui	a3, 65536
.Ltmp2269:
	.loc	5 588 17 is_stmt 1
	or	a2, a2, a4
.Ltmp2270:
	.loc	21 100 16
	bgeu	a3, a0, .LBB71_21
.Ltmp2271:
	.loc	10 759 51
	addi	a2, a2, 1
.Ltmp2272:
	.loc	10 0 51 is_stmt 0
	lui	a0, 524288
.Ltmp2273:
	.loc	13 373 17 is_stmt 1
	and	a0, a0, a1
.Ltmp2274:
	.loc	5 271 45
	or	a0, a0, a2
.Ltmp2275:
	.loc	4 501 14
	ret
.Ltmp2276:
.LBB71_21:
	.loc	21 104 21
	bne	a0, a3, .LBB71_3
.Ltmp2277:
	.loc	5 171 46
	andi	a0, a2, 1
.Ltmp2278:
	.loc	10 759 51
	add	a2, a2, a0
.Ltmp2279:
	.loc	10 0 51 is_stmt 0
	lui	a0, 524288
.Ltmp2280:
	.loc	13 373 17 is_stmt 1
	and	a0, a0, a1
.Ltmp2281:
	.loc	5 271 45
	or	a0, a0, a2
.Ltmp2282:
	.loc	4 501 14
	ret
.Ltmp2283:
.Lfunc_end71:
	.size	__truncdfsf2, .Lfunc_end71-__truncdfsf2
	.cfi_endproc

	.section	".text._ZN55_$LT$f32$u20$as$u20$compiler_builtins..float..Float$GT$9normalize17hdf63a7c99934a529E","ax",@progbits
	.hidden	_ZN55_$LT$f32$u20$as$u20$compiler_builtins..float..Float$GT$9normalize17hdf63a7c99934a529E
	.globl	_ZN55_$LT$f32$u20$as$u20$compiler_builtins..float..Float$GT$9normalize17hdf63a7c99934a529E
	.p2align	1
	.type	_ZN55_$LT$f32$u20$as$u20$compiler_builtins..float..Float$GT$9normalize17hdf63a7c99934a529E,@function
_ZN55_$LT$f32$u20$as$u20$compiler_builtins..float..Float$GT$9normalize17hdf63a7c99934a529E:
.Lfunc_begin72:
	.cfi_startproc
	.loc	8 1157 5 prologue_end
	beqz	a0, .LBB72_2
.Ltmp2284:
	srli	a1, a0, 1
	or	a1, a1, a0
	srli	a2, a1, 2
	or	a1, a1, a2
	srli	a2, a1, 4
	or	a1, a1, a2
	srli	a2, a1, 8
	or	a1, a1, a2
	srli	a2, a1, 16
	or	a1, a1, a2
	not	a1, a1
	srli	a2, a1, 1
	lui	a3, 349525
	addi	a3, a3, 1365
	and	a2, a2, a3
	sub	a1, a1, a2
	lui	a2, 209715
	addi	a2, a2, 819
	and	a3, a1, a2
	srli	a1, a1, 2
	and	a1, a1, a2
	add	a1, a1, a3
	srli	a2, a1, 4
	add	a1, a1, a2
	lui	a2, 61681
	addi	a2, a2, -241
	and	a1, a1, a2
	lui	a2, 4112
	addi	a2, a2, 257
	mul	a1, a1, a2
	srli	a1, a1, 24
	j	.LBB72_3
.Ltmp2285:
.LBB72_2:
	.loc	8 0 5 is_stmt 0
	li	a1, 32
.Ltmp2286:
.LBB72_3:
	.loc	8 1157 5
	addi	a3, a1, 24
	li	a2, 9
.Ltmp2287:
	.loc	8 347 5 is_stmt 1
	sub	a2, a2, a1
.Ltmp2288:
	.loc	9 164 21
	sll	a1, a0, a3
.Ltmp2289:
	.loc	9 166 14
	mv	a0, a2
.Ltmp2290:
	ret
.Ltmp2291:
.Lfunc_end72:
	.size	_ZN55_$LT$f32$u20$as$u20$compiler_builtins..float..Float$GT$9normalize17hdf63a7c99934a529E, .Lfunc_end72-_ZN55_$LT$f32$u20$as$u20$compiler_builtins..float..Float$GT$9normalize17hdf63a7c99934a529E
	.cfi_endproc

	.section	".text._ZN55_$LT$f64$u20$as$u20$compiler_builtins..float..Float$GT$9normalize17hd632fc4b8ae300b0E","ax",@progbits
	.hidden	_ZN55_$LT$f64$u20$as$u20$compiler_builtins..float..Float$GT$9normalize17hd632fc4b8ae300b0E
	.globl	_ZN55_$LT$f64$u20$as$u20$compiler_builtins..float..Float$GT$9normalize17hd632fc4b8ae300b0E
	.p2align	1
	.type	_ZN55_$LT$f64$u20$as$u20$compiler_builtins..float..Float$GT$9normalize17hd632fc4b8ae300b0E,@function
_ZN55_$LT$f64$u20$as$u20$compiler_builtins..float..Float$GT$9normalize17hd632fc4b8ae300b0E:
.Lfunc_begin73:
	.loc	9 158 0
	.cfi_startproc
	lui	a3, 349525
	addi	t1, a3, 1365
	lui	a3, 209715
	addi	a3, a3, 819
	lui	a5, 61681
	addi	a7, a5, -241
	lui	a5, 4112
	addi	t0, a5, 257
.Ltmp2292:
	.loc	8 1181 5 prologue_end
	srli	a6, a1, 1
	bnez	a2, .LBB73_2
.Ltmp2293:
	.loc	8 0 5 is_stmt 0
	or	a4, a1, a6
	srli	a5, a4, 2
	or	a4, a4, a5
	srli	a5, a4, 4
	or	a4, a4, a5
	srli	a5, a4, 8
	or	a4, a4, a5
	srli	a5, a4, 16
	or	a4, a4, a5
	not	a4, a4
	srli	a5, a4, 1
	and	a5, a5, t1
	sub	a4, a4, a5
	and	a5, a4, a3
	srli	a4, a4, 2
	and	a3, a3, a4
	add	a3, a3, a5
	srli	a4, a3, 4
	add	a3, a3, a4
	and	a3, a3, a7
	mul	a3, a3, t0
	srli	a3, a3, 24
	addi	a4, a3, 32
	j	.LBB73_3
.Ltmp2294:
.LBB73_2:
	srli	a5, a2, 1
	or	a4, a2, a5
	srli	a5, a4, 2
	or	a4, a4, a5
	srli	a5, a4, 4
	or	a4, a4, a5
	srli	a5, a4, 8
	or	a4, a4, a5
	srli	a5, a4, 16
	or	a4, a4, a5
	not	a4, a4
	srli	a5, a4, 1
	and	a5, a5, t1
	sub	a4, a4, a5
	and	a5, a4, a3
	srli	a4, a4, 2
	and	a3, a3, a4
	add	a3, a3, a5
	srli	a4, a3, 4
	add	a3, a3, a4
	and	a3, a3, a7
	mul	a4, a3, t0
	srli	a4, a4, 24
.Ltmp2295:
.LBB73_3:
	.loc	8 1157 5 is_stmt 1
	addi	a3, a4, 53
	li	t0, 12
.Ltmp2296:
	.loc	9 164 21
	andi	a5, a3, 63
	addi	a7, a5, -32
.Ltmp2297:
	.loc	8 347 5
	sub	a4, t0, a4
.Ltmp2298:
	.loc	9 164 21
	bltz	a7, .LBB73_5
.Ltmp2299:
	.loc	9 0 21 is_stmt 0
	sll	a2, a1, a5
.Ltmp2300:
	j	.LBB73_6
.Ltmp2301:
.LBB73_5:
	sll	a2, a2, a3
.Ltmp2302:
	not	a5, a5
	srl	a5, a6, a5
	or	a2, a2, a5
.Ltmp2303:
.LBB73_6:
	.loc	9 164 21
	sll	a1, a1, a3
.Ltmp2304:
	srai	a3, a7, 31
	and	a1, a1, a3
.Ltmp2305:
	.loc	9 166 14 is_stmt 1
	sw	a4, 0(a0)
	sw	a1, 8(a0)
	sw	a2, 12(a0)
	ret
.Ltmp2306:
.Lfunc_end73:
	.size	_ZN55_$LT$f64$u20$as$u20$compiler_builtins..float..Float$GT$9normalize17hd632fc4b8ae300b0E, .Lfunc_end73-_ZN55_$LT$f64$u20$as$u20$compiler_builtins..float..Float$GT$9normalize17hd632fc4b8ae300b0E
	.cfi_endproc

	.section	.text._ZN17compiler_builtins3int19specialized_div_rem12u128_div_rem17h23b078c453867dffE,"ax",@progbits
	.p2align	1
	.type	_ZN17compiler_builtins3int19specialized_div_rem12u128_div_rem17h23b078c453867dffE,@function
_ZN17compiler_builtins3int19specialized_div_rem12u128_div_rem17h23b078c453867dffE:
.Lfunc_begin74:
	.file	22 "/Users/steve/.cargo/registry/src/index.crates.io-6f17d22bba15001f/compiler_builtins-0.1.105" "src/int/specialized_div_rem/delegate.rs"
	.loc	22 20 0
	.cfi_startproc
	addi	sp, sp, -128
	.cfi_def_cfa_offset 128
	sw	ra, 124(sp)
	sw	s0, 120(sp)
	sw	s1, 116(sp)
	sw	s2, 112(sp)
	sw	s3, 108(sp)
	sw	s4, 104(sp)
	sw	s5, 100(sp)
	sw	s6, 96(sp)
	sw	s7, 92(sp)
	sw	s8, 88(sp)
	sw	s9, 84(sp)
	sw	s10, 80(sp)
	sw	s11, 76(sp)
	.cfi_offset ra, -4
	.cfi_offset s0, -8
	.cfi_offset s1, -12
	.cfi_offset s2, -16
	.cfi_offset s3, -20
	.cfi_offset s4, -24
	.cfi_offset s5, -28
	.cfi_offset s6, -32
	.cfi_offset s7, -36
	.cfi_offset s8, -40
	.cfi_offset s9, -44
	.cfi_offset s10, -48
	.cfi_offset s11, -52
	mv	s8, t2
	mv	s7, a7
	mv	s4, a6
	mv	s3, a5
.Ltmp2307:
	.loc	22 34 20 prologue_end
	or	a5, a5, a6
	snez	a5, a5
	or	s1, a7, t2
	seqz	s1, s1
	.loc	22 34 13 is_stmt 0
	and	a5, a5, s1
	mv	s5, a4
	mv	s2, a3
	mv	s11, a2
	mv	s6, a1
	mv	s10, a0
.Ltmp2308:
	beqz	a5, .LBB74_6
.Ltmp2309:
	.loc	22 34 46
	or	a0, s2, s5
	.loc	22 34 13
	beqz	a0, .LBB74_19
.Ltmp2310:
	.loc	22 46 24 is_stmt 1
	beq	s5, s4, .LBB74_20
.Ltmp2311:
	.loc	22 0 24 is_stmt 0
	sltu	a0, s5, s4
	xori	a0, a0, 1
	.loc	22 46 24
	beqz	a0, .LBB74_21
.Ltmp2312:
.LBB74_4:
	.loc	22 97 31 is_stmt 1
	xor	a0, s2, s3
	xor	a1, s5, s4
	or	a0, a0, a1
	bnez	a0, .LBB74_56
.Ltmp2313:
	.loc	8 1181 5
	mv	a0, s6
	mv	a1, s11
	mv	a2, s2
	mv	a3, s5
	call	__udivdi3@plt
.Ltmp2314:
	.loc	8 0 5 is_stmt 0
	li	a6, 0
	mul	a2, a0, s5
	mulhu	a3, a0, s2
	add	a2, a2, a3
	mul	a3, a1, s2
	mul	a4, a0, s2
	sub	a3, s11, a3
	sub	a3, a3, a2
	sltu	a2, s6, a4
	sub	s11, a3, a2
.Ltmp2315:
	sub	s6, s6, a4
.Ltmp2316:
	li	a5, 1
	li	s2, 0
.Ltmp2317:
	li	s5, 0
.Ltmp2318:
	j	.LBB74_85
.Ltmp2319:
.LBB74_6:
	beq	s11, s4, .LBB74_9
.Ltmp2320:
	sltu	a0, s11, s4
	or	a1, s2, s5
	bne	s5, s8, .LBB74_10
.Ltmp2321:
.LBB74_8:
	sltu	a2, s2, s7
	j	.LBB74_11
.Ltmp2322:
.LBB74_9:
	sltu	a0, s6, s3
	or	a1, s2, s5
	beq	s5, s8, .LBB74_8
.Ltmp2323:
.LBB74_10:
	sltu	a2, s5, s8
.Ltmp2324:
.LBB74_11:
	xor	a3, s2, s7
	xor	a4, s5, s8
	or	a3, a3, a4
	seqz	a1, a1
	beqz	a3, .LBB74_13
.Ltmp2325:
	mv	a0, a2
.Ltmp2326:
.LBB74_13:
	.loc	22 34 13 is_stmt 1
	or	a0, a0, a1
	beqz	a0, .LBB74_15
.Ltmp2327:
	.loc	22 0 13 is_stmt 0
	li	a0, 0
	li	a1, 0
	li	a5, 0
	li	a6, 0
	j	.LBB74_85
.Ltmp2328:
.LBB74_15:
	.file	23 "/Users/steve/.cargo/registry/src/index.crates.io-6f17d22bba15001f/compiler_builtins-0.1.105" "src/int/specialized_div_rem/mod.rs"
	.loc	23 115 1 is_stmt 1
	sltu	a3, s5, s7
.Ltmp2329:
	.loc	23 115 1 is_stmt 0
	snez	a0, s8
	or	a2, a3, a0
.Ltmp2330:
	neg	a0, a2
	and	a1, a0, s5
	mv	a0, s2
	bnez	a2, .LBB74_17
.Ltmp2331:
	.loc	23 0 1
	mv	a0, s5
.Ltmp2332:
.LBB74_17:
	.loc	23 115 1
	srli	a2, a0, 16
	slli	a5, a1, 16
	srli	a4, a1, 16
.Ltmp2333:
	or	a5, a5, a2
.Ltmp2334:
	beq	a4, s8, .LBB74_25
.Ltmp2335:
	.loc	23 0 1
	sltu	s1, a4, s8
	xori	a2, s1, 1
.Ltmp2336:
	.loc	23 115 1
	beqz	s1, .LBB74_26
	j	.LBB74_27
.Ltmp2337:
.LBB74_19:
	.loc	8 1181 5 is_stmt 1
	mv	a0, s6
	mv	a1, s11
	mv	a2, s3
	mv	a3, s4
	call	__udivdi3@plt
.Ltmp2338:
	.loc	8 0 5 is_stmt 0
	li	s2, 0
.Ltmp2339:
	li	s5, 0
.Ltmp2340:
	li	a5, 0
	li	a6, 0
	mul	a2, a0, s4
	mulhu	a3, a0, s3
	add	a2, a2, a3
	mul	a3, a1, s3
	sub	a3, s11, a3
	mul	a4, a0, s3
	sub	a3, a3, a2
	sltu	a2, s6, a4
	sub	s11, a3, a2
.Ltmp2341:
	sub	s6, s6, a4
.Ltmp2342:
	j	.LBB74_85
.Ltmp2343:
.LBB74_20:
	sltu	a0, s2, s3
	xori	a0, a0, 1
	.loc	22 46 24 is_stmt 1
	bnez	a0, .LBB74_4
.Ltmp2344:
.LBB74_21:
	.loc	23 115 1
	sltu	a3, s4, s2
.Ltmp2345:
	.loc	23 115 1 is_stmt 0
	snez	a0, s5
	or	a2, a3, a0
.Ltmp2346:
	neg	a0, a2
	and	a1, a0, s4
	mv	a7, s3
	bnez	a2, .LBB74_23
.Ltmp2347:
	.loc	23 0 1
	mv	a7, s4
.Ltmp2348:
.LBB74_23:
	.loc	23 115 1
	srli	a2, a7, 16
	slli	a5, a1, 16
	srli	a4, a1, 16
.Ltmp2349:
	or	a5, a5, a2
.Ltmp2350:
	beq	a4, s5, .LBB74_58
.Ltmp2351:
	.loc	23 0 1
	sltu	s1, a4, s5
	xori	a2, s1, 1
.Ltmp2352:
	.loc	23 115 1
	beqz	s1, .LBB74_59
	j	.LBB74_60
.Ltmp2353:
.LBB74_25:
	.loc	23 0 1
	sltu	s1, a5, s7
	xori	a2, s1, 1
.Ltmp2354:
	.loc	23 115 1
	bnez	s1, .LBB74_27
.Ltmp2355:
.LBB74_26:
	.loc	23 0 1
	mv	a0, a5
	mv	a1, a4
.Ltmp2356:
.LBB74_27:
	not	a5, a3
	seqz	s0, s8
.Ltmp2357:
	.loc	23 115 1
	srli	a3, a0, 8
	slli	s1, a1, 24
	srli	a4, a1, 8
.Ltmp2358:
	or	s1, s1, a3
.Ltmp2359:
	beq	a4, s8, .LBB74_29
.Ltmp2360:
	.loc	23 0 1
	sltu	a3, a4, s8
	xori	a6, a3, 1
	and	a5, a5, s0
.Ltmp2361:
	.loc	23 115 1
	beqz	a3, .LBB74_30
	j	.LBB74_31
.Ltmp2362:
.LBB74_29:
	.loc	23 0 1
	sltu	a3, s1, s7
	xori	a6, a3, 1
	and	a5, a5, s0
.Ltmp2363:
	.loc	23 115 1
	bnez	a3, .LBB74_31
.Ltmp2364:
.LBB74_30:
	.loc	23 0 1
	mv	a0, s1
	mv	a1, a4
.Ltmp2365:
.LBB74_31:
	slli	s1, a5, 5
	slli	s0, a2, 4
.Ltmp2366:
	.loc	23 115 1
	srli	a3, a0, 4
	slli	a5, a1, 28
	srli	a2, a1, 4
.Ltmp2367:
	or	a5, a5, a3
.Ltmp2368:
	beq	a2, s8, .LBB74_33
.Ltmp2369:
	.loc	23 0 1
	sltu	a3, a2, s8
	xori	a4, a3, 1
	or	s0, s0, s1
	slli	a6, a6, 3
.Ltmp2370:
	.loc	23 115 1
	beqz	a3, .LBB74_34
	j	.LBB74_35
.Ltmp2371:
.LBB74_33:
	.loc	23 0 1
	sltu	a3, a5, s7
	xori	a4, a3, 1
	or	s0, s0, s1
	slli	a6, a6, 3
.Ltmp2372:
	.loc	23 115 1
	bnez	a3, .LBB74_35
.Ltmp2373:
.LBB74_34:
	.loc	23 0 1
	mv	a0, a5
	mv	a1, a2
.Ltmp2374:
.LBB74_35:
	or	s0, a6, s0
	slli	a4, a4, 2
.Ltmp2375:
	.loc	23 115 1
	srli	a3, a0, 2
	slli	a5, a1, 30
	srli	a2, a1, 2
.Ltmp2376:
	or	a3, a3, a5
.Ltmp2377:
	beq	a2, s8, .LBB74_37
.Ltmp2378:
	.loc	23 0 1
	sltu	s1, a2, s8
	xori	a5, s1, 1
	or	a4, a4, s0
.Ltmp2379:
	.loc	23 115 1
	slli	a5, a5, 1
	beqz	s1, .LBB74_38
	j	.LBB74_39
.Ltmp2380:
.LBB74_37:
	.loc	23 0 1
	sltu	s1, a3, s7
	xori	a5, s1, 1
	or	a4, a4, s0
.Ltmp2381:
	.loc	23 115 1
	slli	a5, a5, 1
	bnez	s1, .LBB74_39
.Ltmp2382:
.LBB74_38:
	.loc	23 0 1
	mv	a0, a3
	mv	a1, a2
.Ltmp2383:
.LBB74_39:
	.loc	23 115 1
	srli	a3, a1, 1
.Ltmp2384:
	.file	24 "/Users/steve/.cargo/registry/src/index.crates.io-6f17d22bba15001f/compiler_builtins-0.1.105" "src/int/specialized_div_rem/norm_shift.rs"
	.loc	24 0 0
	or	a2, a5, a4
.Ltmp2385:
	.loc	23 115 1
	beq	a3, s8, .LBB74_41
.Ltmp2386:
	.loc	23 0 1
	sltu	a0, a3, s8
	j	.LBB74_42
.Ltmp2387:
.LBB74_41:
	srli	a0, a0, 1
	slli	a1, a1, 31
	or	a0, a0, a1
.Ltmp2388:
	sltu	a0, a0, s7
.Ltmp2389:
.LBB74_42:
	xori	a3, a0, 1
.Ltmp2390:
	li	a0, 0
	li	a1, 0
	.loc	23 115 1
	or	t1, a2, a3
.Ltmp2391:
	.loc	22 167 40 is_stmt 1
	sb	s3, 60(sp)
	sb	zero, 59(sp)
	sb	zero, 58(sp)
	sb	zero, 57(sp)
	sb	zero, 56(sp)
	sb	zero, 55(sp)
	sb	zero, 54(sp)
	sb	zero, 53(sp)
	sb	zero, 52(sp)
	sb	zero, 51(sp)
	sb	zero, 50(sp)
	sb	zero, 49(sp)
	sb	zero, 48(sp)
	sb	zero, 47(sp)
	sb	zero, 46(sp)
	sb	zero, 45(sp)
	sb	zero, 44(sp)
	sb	s4, 64(sp)
	srli	a3, s3, 24
	sb	a3, 63(sp)
	srli	a3, s3, 16
	sb	a3, 62(sp)
	srli	a3, s3, 8
	sb	a3, 61(sp)
	sb	s7, 68(sp)
	srli	a3, s4, 24
	sb	a3, 67(sp)
	srli	a3, s4, 16
	sb	a3, 66(sp)
	srli	a3, s4, 8
	sb	a3, 65(sp)
	sb	s8, 72(sp)
	srli	a3, s7, 24
	sb	a3, 71(sp)
	srli	a3, s7, 16
	sb	a3, 70(sp)
	srli	a3, s7, 8
	sb	a3, 69(sp)
	srli	a3, s8, 24
	sb	a3, 75(sp)
	srli	a3, s8, 16
	sb	a3, 74(sp)
	srli	a3, s8, 8
	sb	a3, 73(sp)
	slli	a3, t1, 25
	srli	a3, a3, 28
	addi	a4, sp, 60
	sub	a4, a4, a3
	lbu	a3, 13(a4)
	lbu	a5, 12(a4)
	lbu	s1, 14(a4)
	lbu	s0, 15(a4)
	slli	a3, a3, 8
	or	a3, a3, a5
	slli	s1, s1, 16
	slli	s0, s0, 24
	or	s0, s0, s1
	or	a3, a3, s0
	andi	a5, t1, 7
	sll	a6, a3, a5
	lbu	s1, 9(a4)
	lbu	s0, 8(a4)
	lbu	a3, 10(a4)
	lbu	a2, 11(a4)
	slli	s1, s1, 8
	or	s0, s0, s1
	slli	a3, a3, 16
	slli	a2, a2, 24
	or	a2, a2, a3
	or	a2, a2, s0
	srli	a3, a2, 1
	xori	s1, a5, 31
	srl	a3, a3, s1
	or	a7, a6, a3
.Ltmp2392:
	sll	a6, a2, a5
	lbu	a3, 5(a4)
	lbu	s0, 4(a4)
	lbu	a2, 6(a4)
	lbu	t0, 7(a4)
	slli	a3, a3, 8
	or	a3, a3, s0
	slli	a2, a2, 16
	slli	t0, t0, 24
	or	a2, t0, a2
	or	a2, a2, a3
	srli	a3, a2, 1
	not	s0, a5
	srl	a3, a3, s0
	or	t2, a6, a3
.Ltmp2393:
	lbu	s0, 1(a4)
	lbu	a6, 0(a4)
	lbu	t0, 2(a4)
	lbu	a4, 3(a4)
	slli	s0, s0, 8
	or	s0, s0, a6
	slli	t0, t0, 16
	slli	a4, a4, 24
	or	a4, a4, t0
	or	s0, s0, a4
	srli	a4, s0, 1
	srl	a4, a4, s1
	sll	a2, a2, a5
	or	t3, a2, a4
.Ltmp2394:
	sll	t0, s0, a5
.Ltmp2395:
	.loc	22 0 40 is_stmt 0
	li	a2, 1
.Ltmp2396:
	.loc	22 168 43 is_stmt 1
	sll	a2, a2, t1
	addi	t1, t1, -32
.Ltmp2397:
	srai	a5, t1, 31
	and	a6, a5, a2
	slti	a5, t1, 0
	addi	a5, a5, -1
	and	t1, a5, a2
	j	.LBB74_46
.Ltmp2398:
.LBB74_43:
	.loc	22 0 0 is_stmt 0
	or	a0, a6, a0
.Ltmp2399:
	or	a1, t1, a1
.Ltmp2400:
	.loc	22 175 32 is_stmt 1
	bnez	a2, .LBB74_55
.Ltmp2401:
	.loc	22 0 32 is_stmt 0
	mv	s5, s1
.Ltmp2402:
.LBB74_45:
	.loc	22 179 25 is_stmt 1
	srli	a2, t0, 1
	slli	a3, t3, 31
	or	t0, a2, a3
.Ltmp2403:
	srli	a2, t3, 1
	slli	a3, t2, 31
	or	t3, a2, a3
.Ltmp2404:
	srli	a2, t2, 1
	slli	a3, a7, 31
	or	t2, a2, a3
.Ltmp2405:
	srli	a7, a7, 1
.Ltmp2406:
	.loc	22 180 25
	srli	a2, a6, 1
	slli	a3, t1, 31
	or	a6, a2, a3
.Ltmp2407:
	srli	t1, t1, 1
.Ltmp2408:
.LBB74_46:
	.loc	8 1205 5
	sltu	a2, s6, t0
	mv	a5, a2
	beq	s11, t3, .LBB74_48
.Ltmp2409:
	.loc	8 0 5 is_stmt 0
	sltu	a5, s11, t3
.Ltmp2410:
.LBB74_48:
	.loc	8 1205 5
	sub	s0, s2, t2
	sltu	s1, s0, a5
	sltu	a3, s2, t2
	sub	a4, s5, a7
	sub	a4, a4, a3
	sub	s1, a4, s1
.Ltmp2411:
	.loc	22 172 28 is_stmt 1
	bltz	s1, .LBB74_45
.Ltmp2412:
	.loc	22 0 0 is_stmt 0
	sub	a3, s11, t3
	sub	s11, a3, a2
.Ltmp2413:
	sub	s6, s6, t0
.Ltmp2414:
	.loc	22 175 32 is_stmt 1
	beq	s11, s4, .LBB74_52
.Ltmp2415:
	.loc	22 0 32 is_stmt 0
	sltu	a2, s11, s4
	sub	s2, s0, a5
.Ltmp2416:
	.loc	22 175 32
	bne	s1, s8, .LBB74_53
.Ltmp2417:
.LBB74_51:
	.loc	22 0 32
	sltu	a5, s2, s7
.Ltmp2418:
	.loc	22 175 32
	xor	a3, s2, s7
	xor	a4, s1, s8
	or	a3, a3, a4
	beqz	a3, .LBB74_43
	j	.LBB74_54
.Ltmp2419:
.LBB74_52:
	.loc	22 0 32
	sltu	a2, s6, s3
	sub	s2, s0, a5
.Ltmp2420:
	.loc	22 175 32
	beq	s1, s8, .LBB74_51
.Ltmp2421:
.LBB74_53:
	.loc	22 0 32
	sltu	a5, s1, s8
.Ltmp2422:
	.loc	22 175 32
	xor	a3, s2, s7
	xor	a4, s1, s8
	or	a3, a3, a4
	beqz	a3, .LBB74_43
.Ltmp2423:
.LBB74_54:
	.loc	22 0 32
	mv	a2, a5
	j	.LBB74_43
.Ltmp2424:
.LBB74_55:
	li	a5, 0
	li	a6, 0
	mv	s5, s1
	j	.LBB74_85
.Ltmp2425:
.LBB74_56:
	.loc	8 1181 5 is_stmt 1
	mv	a0, s2
	mv	a1, s5
	mv	a2, s3
	mv	a3, s4
	call	__udivdi3@plt
	mv	a5, a0
.Ltmp2426:
	mv	a6, a1
.Ltmp2427:
	.loc	8 0 5 is_stmt 0
	mul	a0, a0, s3
.Ltmp2428:
	sub	a7, s2, a0
.Ltmp2429:
	.loc	22 104 28 is_stmt 1
	bnez	s4, .LBB74_86
.Ltmp2430:
	.loc	8 1181 5
	mv	a0, s11
	mv	a1, a7
	mv	a2, s3
	mv	a3, s4
	mv	s1, a6
.Ltmp2431:
	.loc	8 0 5 is_stmt 0
	mv	s2, a5
.Ltmp2432:
	.loc	8 1181 5
	call	__udivdi3@plt
.Ltmp2433:
	mv	s7, a0
.Ltmp2434:
	mv	s8, a1
.Ltmp2435:
	.loc	8 0 5
	mul	a0, a0, s3
	sub	s0, s11, a0
.Ltmp2436:
	.loc	8 1181 5
	mv	a0, s6
	mv	a1, s0
	mv	a2, s3
	mv	a3, s4
	call	__udivdi3@plt
	mv	a5, s2
.Ltmp2437:
	.loc	8 0 5
	mv	a6, s1
.Ltmp2438:
	li	s2, 0
	li	s5, 0
.Ltmp2439:
	mul	a2, a0, s4
	mulhu	a3, a0, s3
	add	a2, a2, a3
	mul	a3, a1, s3
	add	a2, a2, a3
	mul	a3, a0, s3
	sltu	a4, s6, a3
	sub	s0, s0, a4
.Ltmp2440:
	sub	s11, s0, a2
.Ltmp2441:
	sub	s6, s6, a3
.Ltmp2442:
	.loc	22 116 33 is_stmt 1
	or	a5, s8, a5
.Ltmp2443:
	or	a1, s7, a1
.Ltmp2444:
	.loc	22 0 33 is_stmt 0
	j	.LBB74_85
.Ltmp2445:
.LBB74_58:
	sltu	s1, a5, s2
	xori	a2, s1, 1
.Ltmp2446:
	.loc	23 115 1 is_stmt 1
	bnez	s1, .LBB74_60
.Ltmp2447:
.LBB74_59:
	.loc	23 0 1 is_stmt 0
	mv	a7, a5
	mv	a1, a4
.Ltmp2448:
.LBB74_60:
	not	a5, a3
	seqz	s0, s5
.Ltmp2449:
	.loc	23 115 1
	srli	a3, a7, 8
	slli	s1, a1, 24
	srli	a4, a1, 8
.Ltmp2450:
	or	s1, s1, a3
.Ltmp2451:
	beq	a4, s5, .LBB74_62
.Ltmp2452:
	.loc	23 0 1
	sltu	a3, a4, s5
	xori	a6, a3, 1
	and	a5, a5, s0
.Ltmp2453:
	.loc	23 115 1
	beqz	a3, .LBB74_63
	j	.LBB74_64
.Ltmp2454:
.LBB74_62:
	.loc	23 0 1
	sltu	a3, s1, s2
	xori	a6, a3, 1
	and	a5, a5, s0
.Ltmp2455:
	.loc	23 115 1
	bnez	a3, .LBB74_64
.Ltmp2456:
.LBB74_63:
	.loc	23 0 1
	mv	a7, s1
	mv	a1, a4
.Ltmp2457:
.LBB74_64:
	slli	s1, a5, 5
	slli	s0, a2, 4
.Ltmp2458:
	.loc	23 115 1
	srli	a3, a7, 4
	slli	a5, a1, 28
	srli	a2, a1, 4
.Ltmp2459:
	or	a5, a5, a3
.Ltmp2460:
	beq	a2, s5, .LBB74_66
.Ltmp2461:
	.loc	23 0 1
	sltu	a3, a2, s5
	xori	a4, a3, 1
.Ltmp2462:
	.loc	23 115 1
	or	s0, s0, s1
	slli	a6, a6, 3
	beqz	a3, .LBB74_67
	j	.LBB74_68
.Ltmp2463:
.LBB74_66:
	.loc	23 0 1
	sltu	a3, a5, s2
	xori	a4, a3, 1
	.loc	23 115 1
	or	s0, s0, s1
	slli	a6, a6, 3
	bnez	a3, .LBB74_68
.Ltmp2464:
.LBB74_67:
	.loc	23 0 1
	mv	a7, a5
	mv	a1, a2
.Ltmp2465:
.LBB74_68:
	.loc	23 115 1
	or	a3, a6, s0
	slli	a5, a4, 2
.Ltmp2466:
	.loc	23 115 1
	srli	a0, a7, 2
	slli	a4, a1, 30
	srli	a2, a1, 2
.Ltmp2467:
	or	a4, a4, a0
.Ltmp2468:
	beq	a2, s5, .LBB74_70
.Ltmp2469:
	.loc	23 0 1
	sltu	s0, a2, s5
	xori	s1, s0, 1
.Ltmp2470:
	.loc	23 115 1
	or	a3, a3, a5
	beqz	s0, .LBB74_71
	j	.LBB74_72
.Ltmp2471:
.LBB74_70:
	.loc	23 0 1
	sltu	s0, a4, s2
	xori	s1, s0, 1
	.loc	23 115 1
	or	a3, a3, a5
	bnez	s0, .LBB74_72
.Ltmp2472:
.LBB74_71:
	.loc	23 0 1
	mv	a7, a4
	mv	a1, a2
.Ltmp2473:
.LBB74_72:
	.loc	23 115 1
	slli	a2, s1, 1
.Ltmp2474:
	.loc	23 115 1
	srli	a4, a1, 1
.Ltmp2475:
	.loc	23 115 1
	or	a2, a2, a3
.Ltmp2476:
	beq	a4, s5, .LBB74_75
.Ltmp2477:
	.loc	23 0 1
	sltu	a0, a4, s5
	xori	a0, a0, 1
	.loc	23 115 1
	or	a0, a0, a2
.Ltmp2478:
	.loc	22 57 38 is_stmt 1
	sw	s10, 8(sp)
	beqz	a0, .LBB74_76
.Ltmp2479:
.LBB74_74:
	.loc	22 0 38 is_stmt 0
	li	a1, 64
	sub	a6, a1, a0
	j	.LBB74_77
.Ltmp2480:
.LBB74_75:
	srli	a0, a7, 1
	slli	a1, a1, 31
	or	a0, a0, a1
.Ltmp2481:
	sltu	a0, a0, s2
.Ltmp2482:
	xori	a0, a0, 1
.Ltmp2483:
	.loc	23 115 1 is_stmt 1
	or	a0, a0, a2
.Ltmp2484:
	.loc	22 57 38
	sw	s10, 8(sp)
	bnez	a0, .LBB74_74
.Ltmp2485:
.LBB74_76:
	.loc	22 0 38 is_stmt 0
	li	a6, 63
.Ltmp2486:
.LBB74_77:
	li	s10, 0
	li	s9, 0
.Ltmp2487:
	.loc	22 77 44 is_stmt 1
	sb	s3, 28(sp)
	sb	zero, 27(sp)
	sb	zero, 26(sp)
	sb	zero, 25(sp)
	sb	zero, 24(sp)
	sb	zero, 23(sp)
	sb	zero, 22(sp)
	sb	zero, 21(sp)
	sb	zero, 20(sp)
	sb	zero, 19(sp)
	sb	zero, 18(sp)
	sb	zero, 17(sp)
	sb	zero, 16(sp)
	sb	zero, 15(sp)
	sb	zero, 14(sp)
	sb	zero, 13(sp)
	sb	zero, 12(sp)
	sb	s4, 32(sp)
	srli	a1, s3, 24
	sb	a1, 31(sp)
	srli	a1, s3, 16
	sb	a1, 30(sp)
	srli	a1, s3, 8
	sb	a1, 29(sp)
	sb	s7, 36(sp)
	srli	a1, s4, 24
	sb	a1, 35(sp)
	srli	a1, s4, 16
	sb	a1, 34(sp)
	srli	a1, s4, 8
	sb	a1, 33(sp)
	sb	s8, 40(sp)
	srli	a1, s7, 24
	sb	a1, 39(sp)
	srli	a1, s7, 16
	sb	a1, 38(sp)
	srli	a1, s7, 8
	sb	a1, 37(sp)
	srli	a1, s8, 24
	sb	a1, 43(sp)
	srli	a1, s8, 16
	sb	a1, 42(sp)
	srli	a1, s8, 8
	sb	a1, 41(sp)
	slli	a1, a6, 25
	srli	a1, a1, 28
	addi	a2, sp, 28
	sub	a1, a2, a1
	lbu	a2, 13(a1)
	lbu	a3, 12(a1)
	lbu	a4, 14(a1)
	lbu	a5, 15(a1)
	slli	a2, a2, 8
	or	a2, a2, a3
	slli	a4, a4, 16
	slli	a5, a5, 24
	or	a4, a4, a5
	or	a2, a2, a4
	andi	a4, a6, 7
	sll	a2, a2, a4
	lbu	a3, 9(a1)
	lbu	a5, 8(a1)
	lbu	s1, 10(a1)
	lbu	s0, 11(a1)
	slli	a3, a3, 8
	or	a3, a3, a5
	slli	s1, s1, 16
	slli	s0, s0, 24
	or	s0, s0, s1
	or	a3, a3, s0
	srli	a5, a3, 1
	xori	s1, a4, 31
	srl	a5, a5, s1
	or	a7, a2, a5
.Ltmp2488:
	sll	a2, a3, a4
	lbu	a3, 5(a1)
	lbu	a5, 4(a1)
	lbu	s0, 6(a1)
	lbu	a0, 7(a1)
.Ltmp2489:
	slli	a3, a3, 8
	or	a3, a3, a5
	slli	s0, s0, 16
	slli	a0, a0, 24
	or	a0, a0, s0
	or	a0, a0, a3
	srli	a3, a0, 1
	not	a5, a4
	lbu	s0, 1(a1)
	srl	a3, a3, a5
	or	a2, a2, a3
.Ltmp2490:
	lbu	a3, 0(a1)
	slli	s0, s0, 8
	lbu	a5, 2(a1)
	lbu	a1, 3(a1)
	or	a3, a3, s0
	sll	a0, a0, a4
	slli	a5, a5, 16
	slli	a1, a1, 24
	or	a1, a1, a5
	or	a1, a1, a3
	srli	a3, a1, 1
	srl	a3, a3, s1
	or	a3, a3, a0
.Ltmp2491:
	sll	t0, a1, a4
.Ltmp2492:
	.loc	22 78 47
	andi	s0, a6, 63
	li	a1, 1
	sll	a5, a1, a6
	addi	s1, s0, -32
	srai	a0, s1, 31
	and	a6, a0, a5
.Ltmp2493:
	sll	a0, a1, s0
	slti	a1, s1, 0
	addi	a1, a1, -1
	and	t1, a1, a0
	j	.LBB74_79
.Ltmp2494:
.LBB74_78:
	.loc	22 94 29
	srli	a0, t0, 1
	slli	a1, a3, 31
	or	t0, a0, a1
.Ltmp2495:
	srli	a3, a3, 1
.Ltmp2496:
	slli	a0, a2, 31
	or	a3, a3, a0
.Ltmp2497:
	srli	a2, a2, 1
.Ltmp2498:
	slli	a0, a7, 31
	or	a2, a2, a0
.Ltmp2499:
	srli	a7, a7, 1
.Ltmp2500:
	.loc	22 95 29
	srli	a0, a6, 1
	slli	a1, t1, 31
	or	a6, a0, a1
.Ltmp2501:
	srli	t1, t1, 1
.Ltmp2502:
.LBB74_79:
	.loc	8 1205 5
	sltu	a0, s6, t0
	mv	s0, a0
	beq	s11, a3, .LBB74_81
.Ltmp2503:
	.loc	8 0 5 is_stmt 0
	sltu	s0, s11, a3
.Ltmp2504:
.LBB74_81:
	.loc	8 1205 5
	sub	a1, s2, a2
	sltu	s1, a1, s0
	sltu	a4, s2, a2
	sub	a5, s5, a7
	sub	a5, a5, a4
	sub	s1, a5, s1
	bltz	s1, .LBB74_78
.Ltmp2505:
	.loc	22 0 0
	sub	a4, s11, a3
	sub	s11, a4, a0
.Ltmp2506:
	sub	s2, a1, s0
.Ltmp2507:
	sub	s6, s6, t0
.Ltmp2508:
	.loc	22 85 33 is_stmt 1
	or	s10, a6, s10
.Ltmp2509:
	.loc	22 87 36
	or	a0, s1, s2
	seqz	a0, a0
	xori	a1, s2, 1
	or	a1, a1, s1
	seqz	a1, a1
	addi	a1, a1, -1
	and	a0, a0, a1
.Ltmp2510:
	.loc	22 85 33
	or	s9, t1, s9
.Ltmp2511:
	.loc	22 0 33 is_stmt 0
	bnez	a0, .LBB74_84
.Ltmp2512:
	mv	s5, s1
.Ltmp2513:
	j	.LBB74_78
.Ltmp2514:
.LBB74_84:
	.loc	8 1181 5 is_stmt 1
	mv	a0, s6
	mv	a1, s11
	mv	a2, s3
.Ltmp2515:
	mv	a3, s4
.Ltmp2516:
	call	__udivdi3@plt
.Ltmp2517:
	.loc	8 0 5 is_stmt 0
	li	s2, 0
.Ltmp2518:
	li	s5, 0
	li	a5, 0
	li	a6, 0
	mul	a2, a0, s4
	mulhu	a3, a0, s3
	add	a2, a2, a3
	mul	a3, a1, s3
	add	a2, a2, a3
	mul	a3, a0, s3
	sltu	a4, s6, a3
	sub	a4, s11, a4
	sub	s11, a4, a2
.Ltmp2519:
	sub	s6, s6, a3
.Ltmp2520:
	.loc	22 91 45 is_stmt 1
	or	a1, a1, s9
.Ltmp2521:
	or	a0, a0, s10
.Ltmp2522:
	.loc	22 0 45 is_stmt 0
	lw	s10, 8(sp)
.Ltmp2523:
.LBB74_85:
	.loc	22 184 10 is_stmt 1
	sw	s6, 16(s10)
	sw	a0, 0(s10)
	sw	s11, 20(s10)
	sw	a1, 4(s10)
	sw	s2, 24(s10)
	sw	a5, 8(s10)
	sw	s5, 28(s10)
	sw	a6, 12(s10)
	lw	ra, 124(sp)
	lw	s0, 120(sp)
	lw	s1, 116(sp)
	lw	s2, 112(sp)
	lw	s3, 108(sp)
.Ltmp2524:
	lw	s4, 104(sp)
.Ltmp2525:
	lw	s5, 100(sp)
	lw	s6, 96(sp)
	lw	s7, 92(sp)
	lw	s8, 88(sp)
	lw	s9, 84(sp)
	lw	s10, 80(sp)
	lw	s11, 76(sp)
	.loc	22 184 10 epilogue_begin is_stmt 0
	addi	sp, sp, 128
	ret
.LBB74_86:
.Ltmp2526:
	.loc	22 0 10
	mul	a1, a5, s4
	mulhu	a2, a5, s3
	add	a1, a1, a2
	mul	a2, a6, s3
	sub	a2, s5, a2
	sub	a2, a2, a1
	sltu	a0, s2, a0
	sub	s5, a2, a0
.Ltmp2527:
	.loc	22 129 28 is_stmt 1
	beq	s11, s4, .LBB74_88
.Ltmp2528:
	.loc	22 0 28 is_stmt 0
	sltu	a0, s11, s4
	j	.LBB74_89
.Ltmp2529:
.LBB74_88:
	sltu	a0, s6, s3
.Ltmp2530:
.LBB74_89:
	.loc	22 129 28
	beq	s5, s8, .LBB74_91
.Ltmp2531:
	.loc	22 0 28
	sltu	a1, s5, s8
	j	.LBB74_92
.Ltmp2532:
.LBB74_91:
	sltu	a1, a7, s7
.Ltmp2533:
.LBB74_92:
	.loc	22 129 28
	xor	a2, a7, s7
	xor	a3, s5, s8
	or	a2, a2, a3
	beqz	a2, .LBB74_94
.Ltmp2534:
	.loc	22 0 28
	mv	a0, a1
.Ltmp2535:
.LBB74_94:
	.loc	22 129 28
	beqz	a0, .LBB74_96
.Ltmp2536:
	.loc	22 0 28
	li	a0, 0
	li	a1, 0
	mv	s2, a7
.Ltmp2537:
	j	.LBB74_85
.Ltmp2538:
.LBB74_96:
	sw	a5, 0(sp)
.Ltmp2539:
	sw	a6, 4(sp)
.Ltmp2540:
	li	s8, 0
.Ltmp2541:
	li	s9, 0
	li	a6, 0
.Ltmp2542:
	li	t0, 0
	.loc	22 135 44 is_stmt 1
	srli	a0, s3, 1
	slli	a4, s4, 31
	or	a4, a4, a0
	srli	a0, s4, 1
	slli	a3, s7, 31
	or	t2, a3, a0
	slli	s1, s3, 31
	lui	t1, 524288
	j	.LBB74_98
.Ltmp2543:
.LBB74_97:
	.loc	22 154 29
	srli	a0, t0, 1
	slli	a1, s1, 31
	or	t0, a0, a1
.Ltmp2544:
	srli	s1, s1, 1
.Ltmp2545:
	slli	a0, a4, 31
	or	s1, s1, a0
.Ltmp2546:
	srli	a4, a4, 1
.Ltmp2547:
	slli	a0, t2, 31
	or	a4, a4, a0
.Ltmp2548:
	srli	t2, t2, 1
.Ltmp2549:
	.loc	22 155 29
	srli	a0, a6, 1
	slli	a1, t1, 31
	or	a6, a0, a1
.Ltmp2550:
	srli	t1, t1, 1
.Ltmp2551:
.LBB74_98:
	.loc	8 1205 5
	sltu	a2, s6, t0
	mv	s0, a2
	beq	s11, s1, .LBB74_100
.Ltmp2552:
	.loc	8 0 5 is_stmt 0
	sltu	s0, s11, s1
.Ltmp2553:
.LBB74_100:
	.loc	8 1205 5
	sub	a1, a7, a4
	sltu	a0, a1, s0
	sltu	a5, a7, a4
	sub	a3, s5, t2
	sub	a3, a3, a5
	sub	a0, a3, a0
.Ltmp2554:
	.loc	22 140 32 is_stmt 1
	bltz	a0, .LBB74_97
.Ltmp2555:
	.loc	22 0 0 is_stmt 0
	sub	a3, s11, s1
	sub	s11, a3, a2
.Ltmp2556:
	sub	a7, a1, s0
.Ltmp2557:
	sub	s6, s6, t0
.Ltmp2558:
	.loc	22 142 33 is_stmt 1
	or	s8, a6, s8
.Ltmp2559:
	.loc	22 144 36
	or	a1, a0, a7
	seqz	a1, a1
	xori	a2, a7, 1
	or	a2, a2, a0
	seqz	a2, a2
	addi	a2, a2, -1
	and	a1, a1, a2
.Ltmp2560:
	.loc	22 142 33
	or	s9, t1, s9
.Ltmp2561:
	.loc	22 144 36
	bnez	a1, .LBB74_103
.Ltmp2562:
	.loc	22 0 36 is_stmt 0
	mv	s5, a0
.Ltmp2563:
	j	.LBB74_97
.Ltmp2564:
.LBB74_103:
	.loc	8 1181 5 is_stmt 1
	mv	a0, s6
.Ltmp2565:
	mv	a1, s11
	mv	a2, s3
	mv	a3, s4
	call	__udivdi3@plt
.Ltmp2566:
	.loc	8 0 5 is_stmt 0
	li	s2, 0
.Ltmp2567:
	li	s5, 0
	mul	a2, a0, s4
	mulhu	a3, a0, s3
	add	a2, a2, a3
	mul	a3, a1, s3
	add	a2, a2, a3
	mul	a3, a0, s3
	sltu	a4, s6, a3
	sub	a4, s11, a4
	sub	s11, a4, a2
.Ltmp2568:
	sub	s6, s6, a3
.Ltmp2569:
	.loc	22 149 52 is_stmt 1
	or	a1, a1, s9
.Ltmp2570:
	or	a0, a0, s8
.Ltmp2571:
	.loc	22 0 52 is_stmt 0
	lw	a6, 4(sp)
	lw	a5, 0(sp)
	j	.LBB74_85
.Ltmp2572:
.Lfunc_end74:
	.size	_ZN17compiler_builtins3int19specialized_div_rem12u128_div_rem17h23b078c453867dffE, .Lfunc_end74-_ZN17compiler_builtins3int19specialized_div_rem12u128_div_rem17h23b078c453867dffE
	.cfi_endproc

	.section	.text._ZN17compiler_builtins3int19specialized_div_rem11u64_div_rem17hb17cd02ba8f03661E,"ax",@progbits
	.p2align	1
	.type	_ZN17compiler_builtins3int19specialized_div_rem11u64_div_rem17hb17cd02ba8f03661E,@function
_ZN17compiler_builtins3int19specialized_div_rem11u64_div_rem17hb17cd02ba8f03661E:
.Lfunc_begin75:
	.cfi_startproc
	.loc	22 34 20 prologue_end is_stmt 1
	snez	a6, a3
	seqz	a5, a4
	.loc	22 34 13 is_stmt 0
	and	a5, a6, a5
.Ltmp2573:
	beqz	a5, .LBB75_14
.Ltmp2574:
	beqz	a2, .LBB75_34
.Ltmp2575:
	.loc	22 46 24 is_stmt 1
	bgeu	a2, a3, .LBB75_35
.Ltmp2576:
	.loc	23 107 1
	srli	a7, a3, 16
	sltu	a5, a7, a2
	xori	a6, a5, 1
	mv	t1, a3
.Ltmp2577:
	.loc	23 107 1 is_stmt 0
	bltu	a7, a2, .LBB75_5
.Ltmp2578:
	.loc	23 0 1
	mv	t1, a7
.Ltmp2579:
.LBB75_5:
	.loc	23 107 1
	slli	a6, a6, 4
.Ltmp2580:
	.loc	23 107 1
	srli	t0, t1, 8
	sltu	a5, t0, a2
	xori	a7, a5, 1
.Ltmp2581:
	.loc	23 107 1
	bltu	t0, a2, .LBB75_7
.Ltmp2582:
	.loc	23 0 1
	mv	t1, t0
.Ltmp2583:
.LBB75_7:
	.loc	23 107 1
	slli	a7, a7, 3
	or	a6, a7, a6
.Ltmp2584:
	.loc	23 107 1
	srli	t0, t1, 4
.Ltmp2585:
	sltu	a5, t0, a2
	xori	a7, a5, 1
.Ltmp2586:
	.loc	23 107 1
	bltu	t0, a2, .LBB75_9
.Ltmp2587:
	.loc	23 0 1
	mv	t1, t0
.Ltmp2588:
.LBB75_9:
	.loc	23 107 1
	slli	a7, a7, 2
	or	a6, a7, a6
.Ltmp2589:
	.loc	23 107 1
	srli	t0, t1, 2
.Ltmp2590:
	sltu	a5, t0, a2
	xori	a7, a5, 1
.Ltmp2591:
	.loc	23 107 1
	bltu	t0, a2, .LBB75_11
.Ltmp2592:
	.loc	23 0 1
	mv	t1, t0
.Ltmp2593:
.LBB75_11:
	.loc	23 107 1
	slli	a7, a7, 1
.Ltmp2594:
	.loc	23 107 1
	srli	a5, t1, 1
.Ltmp2595:
	.loc	23 107 1
	sltu	a5, a5, a2
.Ltmp2596:
	xori	a5, a5, 1
	or	a5, a7, a5
	or	a6, a5, a6
.Ltmp2597:
	.loc	22 57 38 is_stmt 1
	bnez	a6, .LBB75_37
.Ltmp2598:
	.loc	22 0 38 is_stmt 0
	li	a6, 31
.Ltmp2599:
	.loc	22 77 44 is_stmt 1
	addi	a5, a6, -32
	sll	t0, a3, a6
	bgez	a5, .LBB75_38
.Ltmp2600:
.LBB75_13:
	.loc	22 0 44 is_stmt 0
	sll	a7, a4, a6
	not	t1, a6
	srli	a4, a3, 1
.Ltmp2601:
	srl	a4, a4, t1
	or	t1, a7, a4
	j	.LBB75_39
.Ltmp2602:
.LBB75_14:
	.loc	22 34 46 is_stmt 1
	seqz	a6, a2
	beq	a2, a4, .LBB75_31
.Ltmp2603:
	.loc	22 0 46 is_stmt 0
	sltu	a5, a2, a4
	.loc	22 34 13
	or	a5, a5, a6
	bnez	a5, .LBB75_32
.Ltmp2604:
.LBB75_16:
	.loc	23 107 1 is_stmt 1
	srli	a7, a2, 16
	sltu	a5, a7, a4
	xori	a6, a5, 1
.Ltmp2605:
	.loc	23 107 1 is_stmt 0
	slli	a6, a6, 4
	mv	t0, a2
	bltu	a7, a4, .LBB75_18
.Ltmp2606:
	.loc	23 0 1
	mv	t0, a7
.Ltmp2607:
.LBB75_18:
	.loc	23 107 1
	srli	a7, t0, 8
.Ltmp2608:
	sltu	a5, a7, a4
	xori	a5, a5, 1
.Ltmp2609:
	.loc	23 107 1
	slli	a5, a5, 3
	or	a6, a5, a6
	bltu	a7, a4, .LBB75_20
.Ltmp2610:
	.loc	23 0 1
	mv	t0, a7
.Ltmp2611:
.LBB75_20:
	.loc	23 107 1
	srli	a7, t0, 4
.Ltmp2612:
	sltu	a5, a7, a4
	xori	a5, a5, 1
.Ltmp2613:
	.loc	23 107 1
	slli	a5, a5, 2
	or	a6, a5, a6
	bltu	a7, a4, .LBB75_22
.Ltmp2614:
	.loc	23 0 1
	mv	t0, a7
.Ltmp2615:
.LBB75_22:
	.loc	23 107 1
	srli	a7, t0, 2
.Ltmp2616:
	sltu	a5, a7, a4
	xori	a5, a5, 1
.Ltmp2617:
	.loc	23 107 1
	slli	a5, a5, 1
	or	a6, a5, a6
	bltu	a7, a4, .LBB75_24
.Ltmp2618:
	.loc	23 0 1
	mv	t0, a7
.Ltmp2619:
.LBB75_24:
	li	a7, 0
.Ltmp2620:
	.loc	23 107 1
	srli	a5, t0, 1
.Ltmp2621:
	.loc	23 107 1
	sltu	a5, a5, a4
.Ltmp2622:
	xori	a5, a5, 1
	or	t2, a6, a5
.Ltmp2623:
	.loc	22 167 40 is_stmt 1
	sll	a6, a4, t2
	xori	t0, t2, 31
	srli	a5, a3, 1
	srl	a5, a5, t0
	or	t1, a6, a5
.Ltmp2624:
	sll	t0, a3, t2
.Ltmp2625:
	.loc	22 0 40 is_stmt 0
	li	a5, 1
.Ltmp2626:
	.loc	22 168 43 is_stmt 1
	sll	a6, a5, t2
	j	.LBB75_26
.Ltmp2627:
.LBB75_25:
	.loc	22 0 43 is_stmt 0
	sltu	a2, a5, a4
.Ltmp2628:
	or	a7, a6, a7
.Ltmp2629:
	beqz	a2, .LBB75_29
	j	.LBB75_33
.Ltmp2630:
.LBB75_26:
	.loc	8 1181 5 is_stmt 1
	sltu	t2, a1, t0
	sub	a5, a2, t1
	sub	a5, a5, t2
.Ltmp2631:
	.loc	22 172 28
	bltz	a5, .LBB75_30
.Ltmp2632:
	.loc	22 0 0 is_stmt 0
	sub	a1, a1, t0
.Ltmp2633:
	.loc	22 175 32 is_stmt 1
	bne	a5, a4, .LBB75_25
.Ltmp2634:
	.loc	22 0 32 is_stmt 0
	sltu	a2, a1, a3
	or	a7, a6, a7
.Ltmp2635:
	.loc	22 175 32
	bnez	a2, .LBB75_33
.Ltmp2636:
.LBB75_29:
	.loc	22 0 32
	mv	a2, a5
.Ltmp2637:
.LBB75_30:
	.loc	22 179 25 is_stmt 1
	srli	t0, t0, 1
.Ltmp2638:
	slli	a5, t1, 31
.Ltmp2639:
	or	t0, t0, a5
.Ltmp2640:
	srli	t1, t1, 1
.Ltmp2641:
	.loc	22 180 25
	srli	a6, a6, 1
.Ltmp2642:
	.loc	22 0 25 is_stmt 0
	j	.LBB75_26
.Ltmp2643:
.LBB75_31:
	sltu	a5, a1, a3
	.loc	22 34 13 is_stmt 1
	or	a5, a5, a6
	beqz	a5, .LBB75_16
.Ltmp2644:
.LBB75_32:
	.loc	22 0 13 is_stmt 0
	li	a7, 0
	li	a6, 0
	j	.LBB75_45
.Ltmp2645:
.LBB75_33:
	li	a6, 0
	mv	a2, a5
	j	.LBB75_45
.Ltmp2646:
.LBB75_34:
	li	a6, 0
.Ltmp2647:
	.loc	8 1157 5 is_stmt 1
	divu	a7, a1, a3
.Ltmp2648:
	.loc	8 0 5 is_stmt 0
	mul	a3, a7, a3
.Ltmp2649:
	sub	a1, a1, a3
.Ltmp2650:
	j	.LBB75_45
.Ltmp2651:
.LBB75_35:
	.loc	22 97 31 is_stmt 1
	bne	a2, a3, .LBB75_46
.Ltmp2652:
	.loc	8 1157 5
	divu	a3, a1, a2
.Ltmp2653:
	.loc	8 0 5 is_stmt 0
	mul	a2, a3, a2
.Ltmp2654:
	sub	a1, a1, a2
.Ltmp2655:
	.loc	22 100 33 is_stmt 1
	snez	a6, a3
	addi	a3, a3, -1
.Ltmp2656:
	addi	a7, a3, 1
	seqz	a2, a7
	add	a6, a6, a2
	li	a2, 0
	j	.LBB75_45
.Ltmp2657:
.LBB75_37:
	.loc	22 0 33 is_stmt 0
	li	a5, 32
	sub	a6, a5, a6
.Ltmp2658:
	.loc	22 77 44 is_stmt 1
	addi	a5, a6, -32
	sll	t0, a3, a6
	bltz	a5, .LBB75_13
.Ltmp2659:
.LBB75_38:
	.loc	22 0 44 is_stmt 0
	mv	t1, t0
.Ltmp2660:
.LBB75_39:
	li	a7, 0
	.loc	22 77 44
	srai	a5, a5, 31
	and	t0, a5, t0
.Ltmp2661:
	.loc	22 0 44
	li	a4, 1
.Ltmp2662:
	.loc	22 78 47 is_stmt 1
	sll	a6, a4, a6
.Ltmp2663:
	.loc	22 0 47 is_stmt 0
	j	.LBB75_41
.Ltmp2664:
.LBB75_40:
	.loc	22 94 29 is_stmt 1
	srli	a4, t0, 1
.Ltmp2665:
	slli	a5, t1, 31
	or	t0, a4, a5
.Ltmp2666:
	srli	t1, t1, 1
.Ltmp2667:
	.loc	22 95 29
	srli	a6, a6, 1
.Ltmp2668:
.LBB75_41:
	.loc	8 1181 5
	sltu	a5, a1, t0
	sub	a4, a2, t1
	sub	a4, a4, a5
	bltz	a4, .LBB75_40
.Ltmp2669:
	.loc	22 0 0 is_stmt 0
	sub	a1, a1, t0
.Ltmp2670:
	.loc	22 85 33 is_stmt 1
	or	a7, a6, a7
.Ltmp2671:
	.loc	22 0 33 is_stmt 0
	beqz	a4, .LBB75_44
.Ltmp2672:
	mv	a2, a4
	j	.LBB75_40
.Ltmp2673:
.LBB75_44:
	li	a2, 0
	li	a6, 0
.Ltmp2674:
	.loc	8 1157 5 is_stmt 1
	divu	a4, a1, a3
.Ltmp2675:
	.loc	8 0 5 is_stmt 0
	mul	a3, a4, a3
.Ltmp2676:
	sub	a1, a1, a3
.Ltmp2677:
	.loc	22 91 45 is_stmt 1
	or	a7, a4, a7
.Ltmp2678:
.LBB75_45:
	.loc	22 184 10
	sw	a1, 8(a0)
	sw	a7, 0(a0)
	sw	a2, 12(a0)
	sw	a6, 4(a0)
	ret
.LBB75_46:
.Ltmp2679:
	.loc	22 104 28
	srli	a7, a3, 16
.Ltmp2680:
	.loc	8 1157 5
	divu	a6, a2, a3
.Ltmp2681:
	.loc	8 0 5 is_stmt 0
	mul	a5, a6, a3
	sub	a2, a2, a5
.Ltmp2682:
	.loc	22 104 28 is_stmt 1
	bnez	a7, .LBB75_48
.Ltmp2683:
	.loc	22 109 43
	srli	a4, a1, 16
.Ltmp2684:
	slli	a2, a2, 16
.Ltmp2685:
	or	a2, a2, a4
.Ltmp2686:
	.loc	8 1157 5
	divu	a4, a2, a3
.Ltmp2687:
	.loc	8 0 5 is_stmt 0
	mul	a5, a4, a3
	sub	a2, a2, a5
.Ltmp2688:
	.loc	22 112 42 is_stmt 1
	slli	a1, a1, 16
.Ltmp2689:
	srli	a1, a1, 16
	.loc	22 112 64 is_stmt 0
	slli	a2, a2, 16
.Ltmp2690:
	.loc	22 112 42
	or	a1, a1, a2
.Ltmp2691:
	.loc	8 1157 5 is_stmt 1
	divu	a2, a1, a3
.Ltmp2692:
	.loc	8 0 5 is_stmt 0
	mul	a3, a2, a3
.Ltmp2693:
	sub	a1, a1, a3
.Ltmp2694:
	.loc	22 116 50 is_stmt 1
	slli	a3, a4, 16
	srli	a4, a4, 16
.Ltmp2695:
	.loc	22 116 33 is_stmt 0
	or	a6, a4, a6
.Ltmp2696:
	or	a7, a3, a2
	li	a2, 0
.Ltmp2697:
	.loc	22 0 33
	j	.LBB75_45
.Ltmp2698:
.LBB75_48:
	.loc	22 129 28 is_stmt 1
	beq	a2, a4, .LBB75_50
.Ltmp2699:
	.loc	22 0 28 is_stmt 0
	sltu	a5, a2, a4
	j	.LBB75_51
.Ltmp2700:
.LBB75_50:
	sltu	a5, a1, a3
.Ltmp2701:
.LBB75_51:
	.loc	22 129 28
	beqz	a5, .LBB75_53
.Ltmp2702:
	.loc	22 0 28
	li	a7, 0
	j	.LBB75_45
.Ltmp2703:
.LBB75_53:
	li	t0, 0
	.loc	22 135 44 is_stmt 1
	srli	a5, a3, 1
	slli	a4, a4, 31
.Ltmp2704:
	or	t2, a4, a5
	slli	t1, a3, 31
	lui	a7, 524288
	j	.LBB75_55
.Ltmp2705:
.LBB75_54:
	.loc	22 154 29
	srli	a4, t1, 1
	slli	a5, t2, 31
.Ltmp2706:
	or	t1, a4, a5
.Ltmp2707:
	srli	t2, t2, 1
.Ltmp2708:
	.loc	22 155 29
	srli	a7, a7, 1
.Ltmp2709:
.LBB75_55:
	.loc	8 1181 5
	sltu	a4, a1, t1
	sub	a5, a2, t2
	sub	a5, a5, a4
.Ltmp2710:
	.loc	22 140 32
	bltz	a5, .LBB75_54
.Ltmp2711:
	.loc	22 0 0 is_stmt 0
	sub	a1, a1, t1
.Ltmp2712:
	.loc	22 142 33 is_stmt 1
	or	t0, a7, t0
.Ltmp2713:
	.loc	22 144 36
	beqz	a5, .LBB75_58
.Ltmp2714:
	.loc	22 0 36 is_stmt 0
	mv	a2, a5
	j	.LBB75_54
.Ltmp2715:
.LBB75_58:
	li	a2, 0
.Ltmp2716:
	.loc	8 1157 5 is_stmt 1
	divu	a4, a1, a3
.Ltmp2717:
	.loc	8 0 5 is_stmt 0
	mul	a3, a4, a3
.Ltmp2718:
	sub	a1, a1, a3
.Ltmp2719:
	.loc	22 149 52 is_stmt 1
	or	a7, a4, t0
.Ltmp2720:
	.loc	22 0 52 is_stmt 0
	j	.LBB75_45
.Ltmp2721:
.Lfunc_end75:
	.size	_ZN17compiler_builtins3int19specialized_div_rem11u64_div_rem17hb17cd02ba8f03661E, .Lfunc_end75-_ZN17compiler_builtins3int19specialized_div_rem11u64_div_rem17hb17cd02ba8f03661E
	.cfi_endproc

	.section	.text._ZN17compiler_builtins3int19specialized_div_rem11u32_div_rem17h1a1b94b7de1634e5E,"ax",@progbits
	.p2align	1
	.type	_ZN17compiler_builtins3int19specialized_div_rem11u32_div_rem17h1a1b94b7de1634e5E,@function
_ZN17compiler_builtins3int19specialized_div_rem11u32_div_rem17h1a1b94b7de1634e5E:
.Lfunc_begin76:
	.file	25 "/Users/steve/.cargo/registry/src/index.crates.io-6f17d22bba15001f/compiler_builtins-0.1.105" "src/int/specialized_div_rem/binary_long.rs"
	.loc	25 23 0 is_stmt 1
	.cfi_startproc
	mv	a4, a0
.Ltmp2722:
	.loc	25 29 16 prologue_end
	bgeu	a0, a1, .LBB76_2
.Ltmp2723:
	.loc	25 0 16 is_stmt 0
	li	a0, 0
	.loc	25 550 10 is_stmt 1
	mv	a1, a4
.Ltmp2724:
	ret
.Ltmp2725:
.LBB76_2:
	.loc	23 107 1
	srli	a2, a4, 16
	sltu	a0, a2, a1
	xori	a3, a0, 1
.Ltmp2726:
	.loc	23 107 1 is_stmt 0
	slli	a3, a3, 4
	mv	a0, a4
	bltu	a2, a1, .LBB76_4
.Ltmp2727:
	.loc	23 0 1
	mv	a0, a2
.Ltmp2728:
.LBB76_4:
	.loc	23 107 1
	srli	a2, a0, 8
.Ltmp2729:
	sltu	a5, a2, a1
	xori	a5, a5, 1
.Ltmp2730:
	.loc	23 107 1
	slli	a5, a5, 3
	or	a3, a3, a5
	bltu	a2, a1, .LBB76_6
.Ltmp2731:
	.loc	23 0 1
	mv	a0, a2
.Ltmp2732:
.LBB76_6:
	.loc	23 107 1
	srli	a2, a0, 4
.Ltmp2733:
	sltu	a5, a2, a1
	xori	a5, a5, 1
.Ltmp2734:
	.loc	23 107 1
	slli	a5, a5, 2
	or	a3, a3, a5
	bltu	a2, a1, .LBB76_8
.Ltmp2735:
	.loc	23 0 1
	mv	a0, a2
.Ltmp2736:
.LBB76_8:
	.loc	23 107 1
	srli	a2, a0, 2
.Ltmp2737:
	sltu	a5, a2, a1
	xori	a5, a5, 1
.Ltmp2738:
	.loc	23 107 1
	slli	a5, a5, 1
	or	a3, a3, a5
	bltu	a2, a1, .LBB76_10
.Ltmp2739:
	.loc	23 0 1
	mv	a0, a2
.Ltmp2740:
.LBB76_10:
	.loc	23 107 1
	srli	a0, a0, 1
.Ltmp2741:
	.loc	23 107 1
	sltu	a0, a0, a1
.Ltmp2742:
	xori	a0, a0, 1
	or	t0, a3, a0
.Ltmp2743:
	.loc	25 402 32 is_stmt 1
	sll	a3, a1, t0
.Ltmp2744:
	.loc	8 1157 5
	sub	a4, a4, a3
.Ltmp2745:
	.loc	8 0 5 is_stmt 0
	li	a0, 1
.Ltmp2746:
	.loc	25 404 32 is_stmt 1
	sll	a0, a0, t0
.Ltmp2747:
	.loc	25 405 16
	bltu	a4, a1, .LBB76_22
.Ltmp2748:
	.loc	25 409 16
	bltz	a3, .LBB76_13
.Ltmp2749:
	.loc	25 0 16 is_stmt 0
	mv	a6, a0
	j	.LBB76_16
.Ltmp2750:
.LBB76_13:
	.loc	25 410 17 is_stmt 1
	srli	a3, a3, 1
.Ltmp2751:
	.loc	25 411 17
	addi	t0, t0, -1
.Ltmp2752:
	.loc	25 0 17 is_stmt 0
	li	a2, 1
	.loc	25 412 27 is_stmt 1
	sll	a6, a2, t0
.Ltmp2753:
	.loc	8 1157 5
	sub	a5, a4, a3
.Ltmp2754:
	.loc	25 415 20
	slti	a7, a5, 0
	bgez	a5, .LBB76_15
.Ltmp2755:
	.loc	25 0 20 is_stmt 0
	mv	a5, a4
.Ltmp2756:
.LBB76_15:
	.loc	25 415 20
	addi	a7, a7, -1
	and	a2, a7, a6
	or	a0, a0, a2
.Ltmp2757:
	.loc	25 0 20
	mv	a4, a5
.Ltmp2758:
	.loc	25 419 20 is_stmt 1
	bltu	a5, a1, .LBB76_22
.Ltmp2759:
.LBB76_16:
	.loc	25 0 0 is_stmt 0
	addi	a1, a6, -1
.Ltmp2760:
	.loc	25 430 20 is_stmt 1
	beqz	t0, .LBB76_21
.Ltmp2761:
	.loc	25 0 20 is_stmt 0
	mv	a5, t0
	j	.LBB76_19
.Ltmp2762:
.LBB76_18:
	addi	a5, a5, -1
.Ltmp2763:
	.loc	25 430 20
	beqz	a5, .LBB76_21
.Ltmp2764:
.LBB76_19:
	.loc	8 1157 5 is_stmt 1
	slli	a4, a4, 1
.Ltmp2765:
	.loc	8 1157 5 is_stmt 0
	sub	a2, a4, a3
	addi	a2, a2, 1
.Ltmp2766:
	.loc	8 1157 5
	bltz	a2, .LBB76_18
.Ltmp2767:
	.loc	8 0 5
	mv	a4, a2
.Ltmp2768:
	j	.LBB76_18
.Ltmp2769:
.LBB76_21:
	.loc	25 442 21 is_stmt 1
	and	a1, a1, a4
.Ltmp2770:
	or	a0, a0, a1
.Ltmp2771:
	.loc	25 442 41 is_stmt 0
	srl	a4, a4, t0
.Ltmp2772:
.LBB76_22:
	.loc	25 550 10 is_stmt 1
	mv	a1, a4
	ret
.Ltmp2773:
.Lfunc_end76:
	.size	_ZN17compiler_builtins3int19specialized_div_rem11u32_div_rem17h1a1b94b7de1634e5E, .Lfunc_end76-_ZN17compiler_builtins3int19specialized_div_rem11u32_div_rem17h1a1b94b7de1634e5E
	.cfi_endproc

	.section	.text._ZN17compiler_builtins3int6addsub15__rust_i128_add17h9b77051532510128E,"ax",@progbits
	.hidden	_ZN17compiler_builtins3int6addsub15__rust_i128_add17h9b77051532510128E
	.globl	_ZN17compiler_builtins3int6addsub15__rust_i128_add17h9b77051532510128E
	.p2align	1
	.type	_ZN17compiler_builtins3int6addsub15__rust_i128_add17h9b77051532510128E,@function
_ZN17compiler_builtins3int6addsub15__rust_i128_add17h9b77051532510128E:
.Lfunc_begin77:
	.loc	4 491 0
	.cfi_startproc
	lw	a6, 8(a1)
	lw	t2, 8(a2)
.Ltmp2774:
	lw	t1, 0(a2)
.Ltmp2775:
	lw	a3, 4(a2)
	lw	a5, 4(a1)
	lw	a4, 0(a1)
	lw	a7, 12(a1)
.Ltmp2776:
	lw	t0, 12(a2)
.Ltmp2777:
	.loc	8 1181 5 prologue_end
	add	a3, a3, a5
.Ltmp2778:
	add	a1, a4, t1
.Ltmp2779:
	sltu	a2, a1, a4
	add	a3, a3, a2
.Ltmp2780:
	beq	a3, a5, .LBB77_2
.Ltmp2781:
	.loc	8 0 5 is_stmt 0
	sltu	a2, a3, a5
.Ltmp2782:
.LBB77_2:
	.loc	8 1181 5
	add	a7, a7, t0
.Ltmp2783:
	add	a6, a6, t2
.Ltmp2784:
	sltu	a4, a6, t2
	add	a4, a4, a7
.Ltmp2785:
	.file	26 "/Users/steve/.cargo/registry/src/index.crates.io-6f17d22bba15001f/compiler_builtins-0.1.105" "src/int/addsub.rs"
	.loc	26 7 24 is_stmt 1
	add	a2, a2, a6
.Ltmp2786:
	sltu	a5, a2, a6
	add	a4, a4, a5
.Ltmp2787:
	.loc	4 493 10
	sw	a1, 0(a0)
	sw	a3, 4(a0)
	sw	a2, 8(a0)
	sw	a4, 12(a0)
	ret
.Ltmp2788:
.Lfunc_end77:
	.size	_ZN17compiler_builtins3int6addsub15__rust_i128_add17h9b77051532510128E, .Lfunc_end77-_ZN17compiler_builtins3int6addsub15__rust_i128_add17h9b77051532510128E
	.cfi_endproc

	.section	.text.__rust_i128_add,"ax",@progbits
	.hidden	__rust_i128_add
	.globl	__rust_i128_add
	.p2align	1
	.type	__rust_i128_add,@function
__rust_i128_add:
.Lfunc_begin78:
	.loc	4 499 0
	.cfi_startproc
	lw	a6, 8(a1)
	lw	t2, 8(a2)
.Ltmp2789:
	lw	t1, 0(a2)
.Ltmp2790:
	lw	a3, 4(a2)
	lw	a5, 4(a1)
	lw	a4, 0(a1)
	lw	a7, 12(a1)
