	.text
	.attribute	4, 16
	.attribute	5, "rv32i2p1_m2p0_a2p1_c2p0"
	.file	"serde_cbor.5b41963ce24f9a67-cgu.0"
	.section	".text._ZN42_$LT$$RF$T$u20$as$u20$core..fmt..Debug$GT$3fmt17h788ad2a028281ab4E","ax",@progbits
	.p2align	1
	.type	_ZN42_$LT$$RF$T$u20$as$u20$core..fmt..Debug$GT$3fmt17h788ad2a028281ab4E,@function
_ZN42_$LT$$RF$T$u20$as$u20$core..fmt..Debug$GT$3fmt17h788ad2a028281ab4E:
.Lfunc_begin0:
	.cfi_sections .debug_frame
	.cfi_startproc
	.file	1 "/Users/steve/.rustup/toolchains/nightly-2024-02-01-aarch64-apple-darwin/lib/rustlib/src/rust/library/core/src/fmt" "mod.rs"
	.loc	1 1853 9 prologue_end
	lw	a2, 28(a1)
.Ltmp0:
	.loc	1 2294 71
	lw	a0, 0(a0)
.Ltmp1:
	.loc	1 1853 9
	andi	a3, a2, 16
.Ltmp2:
	.file	2 "/Users/steve/.rustup/toolchains/nightly-2024-02-01-aarch64-apple-darwin/lib/rustlib/src/rust/library/core/src/fmt" "num.rs"
	.loc	2 190 20
	bnez	a3, .LBB0_3
.Ltmp3:
	.loc	1 1857 9
	andi	a2, a2, 32
.Ltmp4:
	.loc	2 192 27
	bnez	a2, .LBB0_4
.Ltmp5:
	.loc	2 195 21
	tail	_ZN4core3fmt3num3imp52_$LT$impl$u20$core..fmt..Display$u20$for$u20$u64$GT$3fmt17hfc27a333fe3549efE
.Ltmp6:
.LBB0_3:
	.loc	2 191 21
	tail	_ZN4core3fmt3num53_$LT$impl$u20$core..fmt..LowerHex$u20$for$u20$u64$GT$3fmt17h97d42d4b8e9847c3E
.Ltmp7:
.LBB0_4:
	.loc	2 193 21
	tail	_ZN4core3fmt3num53_$LT$impl$u20$core..fmt..UpperHex$u20$for$u20$u64$GT$3fmt17h9bc8deefeb5aec6aE
.Ltmp8:
.Lfunc_end0:
	.size	_ZN42_$LT$$RF$T$u20$as$u20$core..fmt..Debug$GT$3fmt17h788ad2a028281ab4E, .Lfunc_end0-_ZN42_$LT$$RF$T$u20$as$u20$core..fmt..Debug$GT$3fmt17h788ad2a028281ab4E
	.cfi_endproc

	.section	".text._ZN4core3ptr28drop_in_place$LT$$RF$u64$GT$17hc31bbbf528f54e36E","ax",@progbits
	.p2align	1
	.type	_ZN4core3ptr28drop_in_place$LT$$RF$u64$GT$17hc31bbbf528f54e36E,@function
_ZN4core3ptr28drop_in_place$LT$$RF$u64$GT$17hc31bbbf528f54e36E:
.Lfunc_begin1:
	.cfi_startproc
	.file	3 "/Users/steve/.rustup/toolchains/nightly-2024-02-01-aarch64-apple-darwin/lib/rustlib/src/rust/library/core/src/ptr" "mod.rs"
	.loc	3 507 1 prologue_end
	ret
.Ltmp9:
.Lfunc_end1:
	.size	_ZN4core3ptr28drop_in_place$LT$$RF$u64$GT$17hc31bbbf528f54e36E, .Lfunc_end1-_ZN4core3ptr28drop_in_place$LT$$RF$u64$GT$17hc31bbbf528f54e36E
	.cfi_endproc

	.section	".text._ZN4core3ptr49drop_in_place$LT$serde_cbor..error..ErrorCode$GT$17hcc8da3e06f0ba9a8E","ax",@progbits
	.p2align	1
	.type	_ZN4core3ptr49drop_in_place$LT$serde_cbor..error..ErrorCode$GT$17hcc8da3e06f0ba9a8E,@function
_ZN4core3ptr49drop_in_place$LT$serde_cbor..error..ErrorCode$GT$17hcc8da3e06f0ba9a8E:
.Lfunc_begin2:
	.cfi_startproc
	.loc	3 507 1 prologue_end
	ret
.Ltmp10:
.Lfunc_end2:
	.size	_ZN4core3ptr49drop_in_place$LT$serde_cbor..error..ErrorCode$GT$17hcc8da3e06f0ba9a8E, .Lfunc_end2-_ZN4core3ptr49drop_in_place$LT$serde_cbor..error..ErrorCode$GT$17hcc8da3e06f0ba9a8E
	.cfi_endproc

	.section	.text._ZN5alloc7raw_vec11finish_grow17h42db1b982917db10E,"ax",@progbits
	.p2align	1
	.type	_ZN5alloc7raw_vec11finish_grow17h42db1b982917db10E,@function
_ZN5alloc7raw_vec11finish_grow17h42db1b982917db10E:
.Lfunc_begin3:
	.file	4 "/Users/steve/.rustup/toolchains/nightly-2024-02-01-aarch64-apple-darwin/lib/rustlib/src/rust/library/alloc/src" "raw_vec.rs"
	.loc	4 500 0
	.cfi_startproc
	addi	sp, sp, -16
	.cfi_def_cfa_offset 16
	sw	ra, 12(sp)
	sw	s0, 8(sp)
	sw	s1, 4(sp)
	sw	s2, 0(sp)
	.cfi_offset ra, -4
	.cfi_offset s0, -8
	.cfi_offset s1, -12
	.cfi_offset s2, -16
	mv	s1, a2
.Ltmp11:
	mv	s0, a0
.Ltmp12:
	.file	5 "/Users/steve/.rustup/toolchains/nightly-2024-02-01-aarch64-apple-darwin/lib/rustlib/src/rust/library/core/src" "result.rs"
	.loc	5 827 9 prologue_end
	beqz	a1, .LBB3_6
.Ltmp13:
	.loc	4 511 5
	bltz	s1, .LBB3_11
.Ltmp14:
	.loc	4 0 5 is_stmt 0
	mv	s2, a1
.Ltmp15:
	.loc	4 513 25 is_stmt 1
	lw	a0, 4(a3)
	beqz	a0, .LBB3_8
.Ltmp16:
	.loc	4 513 36 is_stmt 0
	lw	a1, 8(a3)
.Ltmp17:
	.file	6 "/Users/steve/.rustup/toolchains/nightly-2024-02-01-aarch64-apple-darwin/lib/rustlib/src/rust/library/alloc/src" "alloc.rs"
	.loc	6 202 9 is_stmt 1
	beqz	a1, .LBB3_8
.Ltmp18:
	.loc	4 0 0 is_stmt 0
	lw	a0, 0(a3)
.Ltmp19:
	.loc	6 136 14 is_stmt 1
	mv	a2, s2
	mv	a3, s1
.Ltmp20:
	call	__rust_realloc
.Ltmp21:
	.loc	5 827 9
	bnez	a0, .LBB3_10
.Ltmp22:
.LBB3_5:
	.loc	5 829 23
	sw	s2, 4(s0)
	j	.LBB3_7
.Ltmp23:
.LBB3_6:
	.loc	5 1959 23
	sw	zero, 4(s0)
.Ltmp24:
.LBB3_7:
	.loc	4 0 0 is_stmt 0
	sw	s1, 8(s0)
	j	.LBB3_12
.Ltmp25:
.LBB3_8:
	beqz	s1, .LBB3_14
.Ltmp26:
	lui	a0, %hi(__rust_no_alloc_shim_is_unstable)
	lbu	a0, %lo(__rust_no_alloc_shim_is_unstable)(a0)
	mv	a0, s1
	mv	a1, s2
	call	__rust_alloc
.Ltmp27:
	.loc	5 827 9 is_stmt 1
	beqz	a0, .LBB3_5
.Ltmp28:
.LBB3_10:
	.loc	5 0 9 is_stmt 0
	li	a1, 0
.Ltmp29:
	.loc	5 828 22 is_stmt 1
	sw	a0, 4(s0)
	sw	s1, 8(s0)
	j	.LBB3_13
.Ltmp30:
.LBB3_11:
	.loc	5 1959 23
	sw	zero, 4(s0)
.Ltmp31:
.LBB3_12:
	.loc	5 0 23 is_stmt 0
	li	a1, 1
.Ltmp32:
.LBB3_13:
	sw	a1, 0(s0)
	.loc	4 525 2 is_stmt 1
	lw	ra, 12(sp)
	lw	s0, 8(sp)
	lw	s1, 4(sp)
.Ltmp33:
	lw	s2, 0(sp)
	.loc	4 525 2 epilogue_begin is_stmt 0
	addi	sp, sp, 16
	ret
.Ltmp34:
.LBB3_14:
	.loc	4 0 2
	mv	a0, s2
	bnez	s2, .LBB3_10
	j	.LBB3_5
.Lfunc_end3:
	.size	_ZN5alloc7raw_vec11finish_grow17h42db1b982917db10E, .Lfunc_end3-_ZN5alloc7raw_vec11finish_grow17h42db1b982917db10E
	.cfi_endproc

	.section	".text.unlikely._ZN5alloc7raw_vec19RawVec$LT$T$C$A$GT$7reserve21do_reserve_and_handle17h290b997366ea37d2E","ax",@progbits
	.p2align	1
	.type	_ZN5alloc7raw_vec19RawVec$LT$T$C$A$GT$7reserve21do_reserve_and_handle17h290b997366ea37d2E,@function
_ZN5alloc7raw_vec19RawVec$LT$T$C$A$GT$7reserve21do_reserve_and_handle17h290b997366ea37d2E:
.Lfunc_begin4:
	.loc	4 300 0 is_stmt 1
	.cfi_startproc
	addi	sp, sp, -48
	.cfi_def_cfa_offset 48
.Ltmp35:
	.file	7 "/Users/steve/.rustup/toolchains/nightly-2024-02-01-aarch64-apple-darwin/lib/rustlib/src/rust/library/core/src/num" "mod.rs"
	.loc	7 1256 5 prologue_end
	sw	ra, 44(sp)
	sw	s0, 40(sp)
	sw	s1, 36(sp)
	.cfi_offset ra, -4
	.cfi_offset s0, -8
	.cfi_offset s1, -12
	add	a2, a2, a1
.Ltmp36:
	.loc	4 423 28
	bltu	a2, a1, .LBB4_11
.Ltmp37:
	.loc	4 0 28 is_stmt 0
	mv	s0, a0
.Ltmp38:
	.loc	4 427 28 is_stmt 1
	lw	a0, 0(a0)
	slli	s1, a0, 1
.Ltmp39:
	.file	8 "/Users/steve/.rustup/toolchains/nightly-2024-02-01-aarch64-apple-darwin/lib/rustlib/src/rust/library/core/src" "cmp.rs"
	.loc	8 0 0 is_stmt 0
	bgeu	a2, s1, .LBB4_5
.Ltmp40:
	li	a1, 8
.Ltmp41:
	bgeu	a1, s1, .LBB4_6
.Ltmp42:
.LBB4_3:
	.file	9 "/Users/steve/.rustup/toolchains/nightly-2024-02-01-aarch64-apple-darwin/lib/rustlib/src/rust/library/core/src/alloc" "layout.rs"
	.loc	9 449 37 is_stmt 1
	not	a1, s1
	srli	a1, a1, 31
.Ltmp43:
	.loc	4 256 25
	beqz	a0, .LBB4_7
.Ltmp44:
.LBB4_4:
	.loc	4 433 43
	lw	a2, 4(s0)
.Ltmp45:
	.loc	4 268 17
	sw	a2, 24(sp)
	li	a2, 1
	sw	a2, 28(sp)
	sw	a0, 32(sp)
	j	.LBB4_8
.Ltmp46:
.LBB4_5:
	.loc	4 0 17 is_stmt 0
	mv	s1, a2
	li	a1, 8
.Ltmp47:
	bltu	a1, a2, .LBB4_3
.Ltmp48:
.LBB4_6:
	li	s1, 8
.Ltmp49:
	.loc	9 449 37 is_stmt 1
	not	a1, s1
	srli	a1, a1, 31
.Ltmp50:
	.loc	4 256 25
	bnez	a0, .LBB4_4
.Ltmp51:
.LBB4_7:
	.loc	4 257 13
	sw	zero, 28(sp)
.Ltmp52:
.LBB4_8:
	.loc	4 433 19
	addi	a0, sp, 12
	addi	a3, sp, 24
	mv	a2, s1
	call	_ZN5alloc7raw_vec11finish_grow17h42db1b982917db10E
.Ltmp53:
	.loc	5 1946 15
	lw	a1, 12(sp)
	.loc	5 1946 9 is_stmt 0
	lw	a0, 16(sp)
.Ltmp54:
	.loc	4 433 19 is_stmt 1
	beqz	a1, .LBB4_12
.Ltmp55:
	.loc	4 0 19 is_stmt 0
	lui	a1, 524288
	addi	a1, a1, 1
.Ltmp56:
	.loc	4 540 5 is_stmt 1
	beq	a0, a1, .LBB4_13
.Ltmp57:
	bnez	a0, .LBB4_14
.Ltmp58:
.LBB4_11:
	.loc	4 541 34
	call	_ZN5alloc7raw_vec17capacity_overflow17h6deb98aaf45da7a0E
.Ltmp59:
.LBB4_12:
	.loc	4 401 9
	sw	a0, 4(s0)
	.loc	4 402 9
	sw	s1, 0(s0)
.Ltmp60:
.LBB4_13:
	.loc	4 306 10
	lw	ra, 44(sp)
	lw	s0, 40(sp)
.Ltmp61:
	lw	s1, 36(sp)
	.loc	4 306 10 epilogue_begin is_stmt 0
	addi	sp, sp, 48
	ret
.LBB4_14:
.Ltmp62:
	.loc	4 305 0 is_stmt 1
	lw	a1, 20(sp)
.Ltmp63:
	.loc	4 542 43
	call	_ZN5alloc5alloc18handle_alloc_error17h7e3d1e4e5e7ceb74E
.Ltmp64:
.Lfunc_end4:
	.size	_ZN5alloc7raw_vec19RawVec$LT$T$C$A$GT$7reserve21do_reserve_and_handle17h290b997366ea37d2E, .Lfunc_end4-_ZN5alloc7raw_vec19RawVec$LT$T$C$A$GT$7reserve21do_reserve_and_handle17h290b997366ea37d2E
	.cfi_endproc
	.file	10 "/Users/steve/.rustup/toolchains/nightly-2024-02-01-aarch64-apple-darwin/lib/rustlib/src/rust/library/core/src/num" "uint_macros.rs"

	.section	".text._ZN63_$LT$serde_cbor..error..Error$u20$as$u20$core..fmt..Display$GT$3fmt17hce660ec99970d98cE","ax",@progbits
	.globl	_ZN63_$LT$serde_cbor..error..Error$u20$as$u20$core..fmt..Display$GT$3fmt17hce660ec99970d98cE
	.p2align	1
	.type	_ZN63_$LT$serde_cbor..error..Error$u20$as$u20$core..fmt..Display$GT$3fmt17hce660ec99970d98cE,@function
_ZN63_$LT$serde_cbor..error..Error$u20$as$u20$core..fmt..Display$GT$3fmt17hce660ec99970d98cE:
.Lfunc_begin5:
	.cfi_startproc
	.file	11 "/Users/steve/.cargo/registry/src/index.crates.io-6f17d22bba15001f/serde_cbor-0.11.2" "src/error.rs"
	.loc	11 207 12 prologue_end
	lw	a2, 4(a0)
	lw	a3, 0(a0)
	or	a3, a3, a2
	mv	a2, a1
.Ltmp65:
	beqz	a3, .LBB5_2
.Ltmp66:
	addi	sp, sp, -48
	.cfi_def_cfa_offset 48
	.loc	11 210 13
	sw	ra, 44(sp)
	.cfi_offset ra, -4
	addi	a1, a0, 8
	sw	a1, 28(sp)
	lui	a1, %hi(_ZN67_$LT$serde_cbor..error..ErrorCode$u20$as$u20$core..fmt..Display$GT$3fmt17ha8e04a250bf4e0bcE)
	addi	a1, a1, %lo(_ZN67_$LT$serde_cbor..error..ErrorCode$u20$as$u20$core..fmt..Display$GT$3fmt17ha8e04a250bf4e0bcE)
	sw	a1, 32(sp)
	sw	a0, 36(sp)
	lui	a0, %hi(_ZN4core3fmt3num3imp52_$LT$impl$u20$core..fmt..Display$u20$for$u20$u64$GT$3fmt17hfc27a333fe3549efE)
.Ltmp67:
	addi	a0, a0, %lo(_ZN4core3fmt3num3imp52_$LT$impl$u20$core..fmt..Display$u20$for$u20$u64$GT$3fmt17hfc27a333fe3549efE)
	sw	a0, 40(sp)
.Ltmp68:
	.loc	1 335 9
	lui	a0, %hi(.L__unnamed_3)
	addi	a0, a0, %lo(.L__unnamed_3)
.Ltmp69:
	sw	a0, 4(sp)
	li	a0, 2
.Ltmp70:
	sw	a0, 8(sp)
	sw	zero, 20(sp)
	addi	a1, sp, 28
	sw	a1, 12(sp)
	sw	a0, 16(sp)
.Ltmp71:
	.loc	11 210 13
	addi	a1, sp, 4
	mv	a0, a2
	call	_ZN4core3fmt9Formatter9write_fmt17hf1a4b1e0be961690E
.Ltmp72:
	.loc	11 212 6
	lw	ra, 44(sp)
	.loc	11 212 6 epilogue_begin is_stmt 0
	addi	sp, sp, 48
	ret
.Ltmp73:
.LBB5_2:
	.loc	11 208 31 is_stmt 1
	addi	a0, a0, 8
.Ltmp74:
	.loc	11 208 13 is_stmt 0
	mv	a1, a2
	tail	_ZN67_$LT$serde_cbor..error..ErrorCode$u20$as$u20$core..fmt..Display$GT$3fmt17ha8e04a250bf4e0bcE
.Ltmp75:
.Lfunc_end5:
	.size	_ZN63_$LT$serde_cbor..error..Error$u20$as$u20$core..fmt..Display$GT$3fmt17hce660ec99970d98cE, .Lfunc_end5-_ZN63_$LT$serde_cbor..error..Error$u20$as$u20$core..fmt..Display$GT$3fmt17hce660ec99970d98cE
	.cfi_endproc

	.section	".text._ZN61_$LT$serde_cbor..error..Error$u20$as$u20$core..fmt..Debug$GT$3fmt17h12c2230e56ecf554E","ax",@progbits
	.globl	_ZN61_$LT$serde_cbor..error..Error$u20$as$u20$core..fmt..Debug$GT$3fmt17h12c2230e56ecf554E
	.p2align	1
	.type	_ZN61_$LT$serde_cbor..error..Error$u20$as$u20$core..fmt..Debug$GT$3fmt17h12c2230e56ecf554E,@function
_ZN61_$LT$serde_cbor..error..Error$u20$as$u20$core..fmt..Debug$GT$3fmt17h12c2230e56ecf554E:
.Lfunc_begin6:
	.loc	11 216 0 is_stmt 1
	.cfi_startproc
	addi	sp, sp, -32
	.cfi_def_cfa_offset 32
	sw	ra, 28(sp)
	.cfi_offset ra, -4
	mv	t0, a1
.Ltmp76:
	.loc	11 258 10 prologue_end
	addi	a5, a0, 8
	sw	a0, 24(sp)
	lui	a0, %hi(.L__unnamed_2)
.Ltmp77:
	addi	a0, a0, %lo(.L__unnamed_2)
	sw	a0, 8(sp)
	addi	a0, sp, 24
	sw	a0, 4(sp)
	li	a0, 6
	lui	a1, %hi(.L__unnamed_4)
	addi	a1, a1, %lo(.L__unnamed_4)
	lui	a2, %hi(.L__unnamed_5)
	addi	a3, a2, %lo(.L__unnamed_5)
	lui	a2, %hi(.L__unnamed_1)
	addi	a6, a2, %lo(.L__unnamed_1)
	lui	a2, %hi(.L__unnamed_6)
	addi	a7, a2, %lo(.L__unnamed_6)
	li	a2, 9
	li	a4, 4
	sw	a0, 0(sp)
	mv	a0, t0
.Ltmp78:
	call	_ZN4core3fmt9Formatter26debug_struct_field2_finish17h17d7a08df2a9d32cE
.Ltmp79:
	.loc	11 218 6
	lw	ra, 28(sp)
	.loc	11 218 6 epilogue_begin is_stmt 0
	addi	sp, sp, 32
	ret
.Ltmp80:
.Lfunc_end6:
	.size	_ZN61_$LT$serde_cbor..error..Error$u20$as$u20$core..fmt..Debug$GT$3fmt17h12c2230e56ecf554E, .Lfunc_end6-_ZN61_$LT$serde_cbor..error..Error$u20$as$u20$core..fmt..Debug$GT$3fmt17h12c2230e56ecf554E
	.cfi_endproc

	.section	".text._ZN61_$LT$serde_cbor..error..Error$u20$as$u20$serde..de..Error$GT$12invalid_type17hf53cd7c4f9ce739bE","ax",@progbits
	.globl	_ZN61_$LT$serde_cbor..error..Error$u20$as$u20$serde..de..Error$GT$12invalid_type17hf53cd7c4f9ce739bE
	.p2align	1
	.type	_ZN61_$LT$serde_cbor..error..Error$u20$as$u20$serde..de..Error$GT$12invalid_type17hf53cd7c4f9ce739bE,@function
_ZN61_$LT$serde_cbor..error..Error$u20$as$u20$serde..de..Error$GT$12invalid_type17hf53cd7c4f9ce739bE:
.Lfunc_begin7:
	.cfi_startproc
	.loc	11 232 6 prologue_end is_stmt 1
	sw	zero, 4(a0)
	sw	zero, 0(a0)
	sb	zero, 8(a0)
	ret
.Ltmp81:
.Lfunc_end7:
	.size	_ZN61_$LT$serde_cbor..error..Error$u20$as$u20$serde..de..Error$GT$12invalid_type17hf53cd7c4f9ce739bE, .Lfunc_end7-_ZN61_$LT$serde_cbor..error..Error$u20$as$u20$serde..de..Error$GT$12invalid_type17hf53cd7c4f9ce739bE
	.cfi_endproc

	.section	".text._ZN67_$LT$serde_cbor..error..ErrorCode$u20$as$u20$core..fmt..Display$GT$3fmt17ha8e04a250bf4e0bcE","ax",@progbits
	.globl	_ZN67_$LT$serde_cbor..error..ErrorCode$u20$as$u20$core..fmt..Display$GT$3fmt17ha8e04a250bf4e0bcE
	.p2align	1
	.type	_ZN67_$LT$serde_cbor..error..ErrorCode$u20$as$u20$core..fmt..Display$GT$3fmt17ha8e04a250bf4e0bcE,@function
_ZN67_$LT$serde_cbor..error..ErrorCode$u20$as$u20$core..fmt..Display$GT$3fmt17ha8e04a250bf4e0bcE:
.Lfunc_begin8:
	.cfi_startproc
	.loc	11 293 15 prologue_end
	lbu	a0, 0(a0)
.Ltmp82:
	.loc	11 0 15 is_stmt 0
	slli	a0, a0, 2
	lui	a2, %hi(.LJTI8_0)
	addi	a2, a2, %lo(.LJTI8_0)
	add	a0, a0, a2
	lw	a2, 0(a0)
	mv	a0, a1
.Ltmp83:
	jr	a2
.Ltmp84:
.LBB8_1:
	.loc	11 297 35 is_stmt 1
	lui	a1, %hi(.L__unnamed_7)
	addi	a1, a1, %lo(.L__unnamed_7)
	li	a2, 13
	tail	_ZN4core3fmt9Formatter9write_str17h7b224d3eb3847887E
.Ltmp85:
.LBB8_2:
	.loc	11 301 30
	lui	a1, %hi(.L__unnamed_8)
	addi	a1, a1, %lo(.L__unnamed_8)
	li	a2, 17
	tail	_ZN4core3fmt9Formatter9write_str17h7b224d3eb3847887E
.Ltmp86:
.LBB8_3:
	.loc	11 302 43
	lui	a1, %hi(.L__unnamed_9)
	addi	a1, a1, %lo(.L__unnamed_9)
	li	a2, 24
	tail	_ZN4core3fmt9Formatter9write_str17h7b224d3eb3847887E
.Ltmp87:
.LBB8_4:
	.loc	11 303 48
	lui	a1, %hi(.L__unnamed_10)
	addi	a1, a1, %lo(.L__unnamed_10)
	li	a2, 25
	tail	_ZN4core3fmt9Formatter9write_str17h7b224d3eb3847887E
.Ltmp88:
.LBB8_5:
	.loc	11 304 48
	lui	a1, %hi(.L__unnamed_11)
	addi	a1, a1, %lo(.L__unnamed_11)
	li	a2, 26
	tail	_ZN4core3fmt9Formatter9write_str17h7b224d3eb3847887E
.Ltmp89:
.LBB8_6:
	.loc	11 305 46
	lui	a1, %hi(.L__unnamed_12)
	addi	a1, a1, %lo(.L__unnamed_12)
	li	a2, 23
	tail	_ZN4core3fmt9Formatter9write_str17h7b224d3eb3847887E
.Ltmp90:
.LBB8_7:
	.loc	11 306 44
	lui	a1, %hi(.L__unnamed_13)
	addi	a1, a1, %lo(.L__unnamed_13)
	li	a2, 19
	tail	_ZN4core3fmt9Formatter9write_str17h7b224d3eb3847887E
.Ltmp91:
.LBB8_8:
	.loc	11 307 39
	lui	a1, %hi(.L__unnamed_14)
	addi	a1, a1, %lo(.L__unnamed_14)
	li	a2, 13
	tail	_ZN4core3fmt9Formatter9write_str17h7b224d3eb3847887E
.Ltmp92:
.LBB8_9:
	.loc	11 308 42
	lui	a1, %hi(.L__unnamed_15)
	addi	a1, a1, %lo(.L__unnamed_15)
	li	a2, 15
	tail	_ZN4core3fmt9Formatter9write_str17h7b224d3eb3847887E
.Ltmp93:
.LBB8_10:
	.loc	11 309 42
	lui	a1, %hi(.L__unnamed_16)
	addi	a1, a1, %lo(.L__unnamed_16)
	li	a2, 15
	tail	_ZN4core3fmt9Formatter9write_str17h7b224d3eb3847887E
.Ltmp94:
.LBB8_11:
	.loc	11 310 40
	lui	a1, %hi(.L__unnamed_17)
	addi	a1, a1, %lo(.L__unnamed_17)
	li	a2, 13
	tail	_ZN4core3fmt9Formatter9write_str17h7b224d3eb3847887E
.Ltmp95:
.LBB8_12:
	.loc	11 311 41
	lui	a1, %hi(.L__unnamed_18)
	addi	a1, a1, %lo(.L__unnamed_18)
	li	a2, 15
	tail	_ZN4core3fmt9Formatter9write_str17h7b224d3eb3847887E
.Ltmp96:
.LBB8_13:
	.loc	11 312 40
	lui	a1, %hi(.L__unnamed_19)
	addi	a1, a1, %lo(.L__unnamed_19)
	li	a2, 14
	tail	_ZN4core3fmt9Formatter9write_str17h7b224d3eb3847887E
.Ltmp97:
.LBB8_14:
	.loc	11 313 50
	lui	a1, %hi(.L__unnamed_20)
	addi	a1, a1, %lo(.L__unnamed_20)
	li	a2, 24
	tail	_ZN4core3fmt9Formatter9write_str17h7b224d3eb3847887E
.Ltmp98:
.LBB8_15:
	.loc	11 314 43
	lui	a1, %hi(.L__unnamed_21)
	addi	a1, a1, %lo(.L__unnamed_21)
	li	a2, 17
	tail	_ZN4core3fmt9Formatter9write_str17h7b224d3eb3847887E
.Ltmp99:
.LBB8_16:
	.loc	11 315 45
	lui	a1, %hi(.L__unnamed_22)
	addi	a1, a1, %lo(.L__unnamed_22)
	li	a2, 19
	tail	_ZN4core3fmt9Formatter9write_str17h7b224d3eb3847887E
.Ltmp100:
.Lfunc_end8:
	.size	_ZN67_$LT$serde_cbor..error..ErrorCode$u20$as$u20$core..fmt..Display$GT$3fmt17ha8e04a250bf4e0bcE, .Lfunc_end8-_ZN67_$LT$serde_cbor..error..ErrorCode$u20$as$u20$core..fmt..Display$GT$3fmt17ha8e04a250bf4e0bcE
	.cfi_endproc
	.section	".rodata._ZN67_$LT$serde_cbor..error..ErrorCode$u20$as$u20$core..fmt..Display$GT$3fmt17ha8e04a250bf4e0bcE","a",@progbits
	.p2align	2, 0x0
.LJTI8_0:
	.word	.LBB8_1
	.word	.LBB8_2
	.word	.LBB8_3
	.word	.LBB8_4
	.word	.LBB8_5
	.word	.LBB8_6
	.word	.LBB8_7
	.word	.LBB8_8
	.word	.LBB8_9
	.word	.LBB8_10
	.word	.LBB8_11
	.word	.LBB8_12
	.word	.LBB8_13
	.word	.LBB8_14
	.word	.LBB8_15
	.word	.LBB8_16

	.section	.text._ZN10serde_cbor4read9SliceRead3end17h7ec427ae5c32f1a1E,"ax",@progbits
	.globl	_ZN10serde_cbor4read9SliceRead3end17h7ec427ae5c32f1a1E
	.p2align	1
	.type	_ZN10serde_cbor4read9SliceRead3end17h7ec427ae5c32f1a1E,@function
_ZN10serde_cbor4read9SliceRead3end17h7ec427ae5c32f1a1E:
.Lfunc_begin9:
	.cfi_startproc
	.file	12 "/Users/steve/.cargo/registry/src/index.crates.io-6f17d22bba15001f/serde_cbor-0.11.2" "src/read.rs"
	.loc	12 319 15 prologue_end
	lw	a3, 20(a1)
	lw	a1, 16(a1)
.Ltmp101:
	.loc	7 1256 5
	add	a2, a2, a3
.Ltmp102:
	sltu	a3, a2, a3
.Ltmp103:
	.loc	7 0 5 is_stmt 0
	sltu	a4, a1, a2
.Ltmp104:
	.loc	12 319 9 is_stmt 1
	or	a3, a3, a4
	beqz	a3, .LBB9_2
	.loc	12 321 18
	sw	zero, 4(a0)
	sw	a1, 0(a0)
	li	a1, 3
	.loc	12 0 0 is_stmt 0
	sb	a1, 8(a0)
	.loc	12 326 6 is_stmt 1
	ret
.LBB9_2:
.Ltmp105:
	.loc	12 320 53
	sw	a2, 0(a0)
	li	a1, 16
.Ltmp106:
	.loc	12 0 0 is_stmt 0
	sb	a1, 8(a0)
	.loc	12 326 6 is_stmt 1
	ret
.Ltmp107:
.Lfunc_end9:
	.size	_ZN10serde_cbor4read9SliceRead3end17h7ec427ae5c32f1a1E, .Lfunc_end9-_ZN10serde_cbor4read9SliceRead3end17h7ec427ae5c32f1a1E
	.cfi_endproc

	.section	".text._ZN70_$LT$serde_cbor..read..SliceRead$u20$as$u20$serde_cbor..read..Read$GT$14read_to_buffer17h6283f7113cbbb660E","ax",@progbits
	.globl	_ZN70_$LT$serde_cbor..read..SliceRead$u20$as$u20$serde_cbor..read..Read$GT$14read_to_buffer17h6283f7113cbbb660E
	.p2align	1
	.type	_ZN70_$LT$serde_cbor..read..SliceRead$u20$as$u20$serde_cbor..read..Read$GT$14read_to_buffer17h6283f7113cbbb660E,@function
_ZN70_$LT$serde_cbor..read..SliceRead$u20$as$u20$serde_cbor..read..Read$GT$14read_to_buffer17h6283f7113cbbb660E:
.Lfunc_begin10:
	.loc	12 369 0
	.cfi_startproc
	addi	sp, sp, -32
	.cfi_def_cfa_offset 32
	sw	ra, 28(sp)
	sw	s0, 24(sp)
	sw	s1, 20(sp)
	sw	s2, 16(sp)
	sw	s3, 12(sp)
	sw	s4, 8(sp)
	sw	s5, 4(sp)
	.cfi_offset ra, -4
	.cfi_offset s0, -8
	.cfi_offset s1, -12
	.cfi_offset s2, -16
	.cfi_offset s3, -20
	.cfi_offset s4, -24
	.cfi_offset s5, -28
	mv	s1, a1
.Ltmp108:
	.loc	12 319 15 prologue_end
	lw	s4, 20(a1)
	lw	a1, 16(a1)
	mv	s5, a0
.Ltmp109:
	.loc	7 1256 5
	add	s0, s4, a2
	sltu	a0, s0, s4
	sltu	a2, a1, s0
.Ltmp110:
	.loc	12 319 9
	or	a2, a2, a0
	li	a0, 3
	bnez	a2, .LBB10_3
.Ltmp111:
	.file	13 "/Users/steve/.rustup/toolchains/nightly-2024-02-01-aarch64-apple-darwin/lib/rustlib/src/rust/library/alloc/src/vec" "mod.rs"
	.loc	13 911 26
	lw	s3, 8(s1)
.Ltmp112:
	.loc	4 247 44
	lw	a0, 0(s1)
.Ltmp113:
	.loc	12 371 22
	lw	a1, 12(s1)
.Ltmp114:
	.file	14 "/Users/steve/.rustup/toolchains/nightly-2024-02-01-aarch64-apple-darwin/lib/rustlib/src/rust/library/core/src/slice" "index.rs"
	.loc	14 371 27 is_stmt 0
	sub	s2, s0, s4
.Ltmp115:
	.loc	7 1256 5 is_stmt 1
	sub	a0, a0, s3
.Ltmp116:
	.file	15 "/Users/steve/.rustup/toolchains/nightly-2024-02-01-aarch64-apple-darwin/lib/rustlib/src/rust/library/core/src/ptr" "const_ptr.rs"
	.loc	15 944 18
	add	s4, s4, a1
.Ltmp117:
	.loc	4 308 12
	bltu	a0, s2, .LBB10_4
.Ltmp118:
.LBB10_2:
	.loc	4 239 9
	lw	a0, 4(s1)
.Ltmp119:
	.file	16 "/Users/steve/.rustup/toolchains/nightly-2024-02-01-aarch64-apple-darwin/lib/rustlib/src/rust/library/core/src/ptr" "mut_ptr.rs"
	.loc	16 1045 18
	add	a0, a0, s3
.Ltmp120:
	.file	17 "/Users/steve/.rustup/toolchains/nightly-2024-02-01-aarch64-apple-darwin/lib/rustlib/src/rust/library/core/src" "intrinsics.rs"
	.loc	17 2774 9
	mv	a1, s4
	mv	a2, s2
	call	memcpy@plt
.Ltmp121:
	.loc	13 2038 9
	add	s2, s2, s3
.Ltmp122:
	sw	s2, 8(s1)
.Ltmp123:
	.loc	12 373 9
	sw	s0, 20(s1)
	li	a0, 16
	mv	a1, s0
.Ltmp124:
.LBB10_3:
	.loc	12 376 6
	sw	zero, 4(s5)
	sw	a1, 0(s5)
	sb	a0, 8(s5)
	lw	ra, 28(sp)
	lw	s0, 24(sp)
	lw	s1, 20(sp)
.Ltmp125:
	lw	s2, 16(sp)
	lw	s3, 12(sp)
	lw	s4, 8(sp)
	lw	s5, 4(sp)
	.loc	12 376 6 epilogue_begin is_stmt 0
	addi	sp, sp, 32
	ret
.LBB10_4:
.Ltmp126:
	.loc	4 309 13 is_stmt 1
	mv	a0, s1
	mv	a1, s3
	mv	a2, s2
	call	_ZN5alloc7raw_vec19RawVec$LT$T$C$A$GT$7reserve21do_reserve_and_handle17h290b997366ea37d2E
.Ltmp127:
	.loc	13 2145 9
	lw	s3, 8(s1)
.Ltmp128:
	.loc	13 0 9 is_stmt 0
	j	.LBB10_2
.Ltmp129:
.Lfunc_end10:
	.size	_ZN70_$LT$serde_cbor..read..SliceRead$u20$as$u20$serde_cbor..read..Read$GT$14read_to_buffer17h6283f7113cbbb660E, .Lfunc_end10-_ZN70_$LT$serde_cbor..read..SliceRead$u20$as$u20$serde_cbor..read..Read$GT$14read_to_buffer17h6283f7113cbbb660E
	.cfi_endproc
	.file	18 "/Users/steve/.rustup/toolchains/nightly-2024-02-01-aarch64-apple-darwin/lib/rustlib/src/rust/library/alloc/src/vec" "spec_extend.rs"

	.section	.text._ZN10serde_cbor4read14SliceReadFixed3end17h4ee82b2d43e52b3dE,"ax",@progbits
	.globl	_ZN10serde_cbor4read14SliceReadFixed3end17h4ee82b2d43e52b3dE
	.p2align	1
	.type	_ZN10serde_cbor4read14SliceReadFixed3end17h4ee82b2d43e52b3dE,@function
_ZN10serde_cbor4read14SliceReadFixed3end17h4ee82b2d43e52b3dE:
.Lfunc_begin11:
	.cfi_startproc
	.loc	12 432 15 prologue_end is_stmt 1
	lw	a3, 16(a1)
	lw	a1, 4(a1)
.Ltmp130:
	.loc	7 1256 5
	add	a2, a2, a3
.Ltmp131:
	sltu	a3, a2, a3
.Ltmp132:
	.loc	7 0 5 is_stmt 0
	sltu	a4, a1, a2
.Ltmp133:
	.loc	12 432 9 is_stmt 1
	or	a3, a3, a4
	beqz	a3, .LBB11_2
	.loc	12 434 18
	sw	zero, 4(a0)
	sw	a1, 0(a0)
	li	a1, 3
	.loc	12 0 0 is_stmt 0
	sb	a1, 8(a0)
	.loc	12 439 6 is_stmt 1
	ret
.LBB11_2:
.Ltmp134:
	.loc	12 433 53
	sw	a2, 0(a0)
	li	a1, 16
.Ltmp135:
	.loc	12 0 0 is_stmt 0
	sb	a1, 8(a0)
	.loc	12 439 6 is_stmt 1
	ret
.Ltmp136:
.Lfunc_end11:
	.size	_ZN10serde_cbor4read14SliceReadFixed3end17h4ee82b2d43e52b3dE, .Lfunc_end11-_ZN10serde_cbor4read14SliceReadFixed3end17h4ee82b2d43e52b3dE
	.cfi_endproc

	.section	".text._ZN75_$LT$serde_cbor..read..SliceReadFixed$u20$as$u20$serde_cbor..read..Read$GT$14read_to_buffer17ha03e7f2f331189f5E","ax",@progbits
	.globl	_ZN75_$LT$serde_cbor..read..SliceReadFixed$u20$as$u20$serde_cbor..read..Read$GT$14read_to_buffer17ha03e7f2f331189f5E
	.p2align	1
	.type	_ZN75_$LT$serde_cbor..read..SliceReadFixed$u20$as$u20$serde_cbor..read..Read$GT$14read_to_buffer17ha03e7f2f331189f5E,@function
_ZN75_$LT$serde_cbor..read..SliceReadFixed$u20$as$u20$serde_cbor..read..Read$GT$14read_to_buffer17ha03e7f2f331189f5E:
.Lfunc_begin12:
	.loc	12 477 0
	.cfi_startproc
	addi	sp, sp, -32
	.cfi_def_cfa_offset 32
	sw	ra, 28(sp)
	sw	s0, 24(sp)
	sw	s1, 20(sp)
	sw	s2, 16(sp)
	sw	s3, 12(sp)
	.cfi_offset ra, -4
	.cfi_offset s0, -8
	.cfi_offset s1, -12
	.cfi_offset s2, -16
	.cfi_offset s3, -20
	mv	s1, a1
.Ltmp137:
	.loc	12 432 15 prologue_end
	lw	a1, 16(a1)
	lw	a3, 4(s1)
.Ltmp138:
	.loc	7 1256 5
	add	s0, a1, a2
	sltu	a4, s0, a1
	sltu	a5, a3, s0
.Ltmp139:
	.loc	12 432 9
	or	a4, a4, a5
	mv	s2, a0
	beqz	a4, .LBB12_2
.Ltmp140:
	.loc	12 0 9 is_stmt 0
	li	a2, 0
.Ltmp141:
	li	a0, 3
	j	.LBB12_6
.Ltmp142:
.LBB12_2:
	.loc	12 442 15 is_stmt 1
	lw	a3, 20(s1)
	lw	a0, 12(s1)
.Ltmp143:
	.loc	7 1256 5
	add	s3, a3, a2
	sltu	a2, s3, a3
.Ltmp144:
	.loc	7 0 5 is_stmt 0
	sltu	a0, a0, s3
.Ltmp145:
	.loc	12 442 9 is_stmt 1
	or	a0, a0, a2
	beqz	a0, .LBB12_4
.Ltmp146:
	.loc	12 0 9 is_stmt 0
	li	a2, 0
	li	a0, 2
	mv	a3, a1
.Ltmp147:
	j	.LBB12_6
.Ltmp148:
.LBB12_4:
	.loc	14 371 27 is_stmt 1
	sub	a2, s0, a1
.Ltmp149:
	.loc	14 384 27
	sub	a0, s3, a3
.Ltmp150:
	.file	19 "/Users/steve/.rustup/toolchains/nightly-2024-02-01-aarch64-apple-darwin/lib/rustlib/src/rust/library/core/src/slice" "mod.rs"
	.loc	19 3606 12
	bne	a0, a2, .LBB12_7
.Ltmp151:
	.loc	12 0 0 is_stmt 0
	lw	a0, 0(s1)
	lw	a4, 8(s1)
.Ltmp152:
	.loc	15 944 18 is_stmt 1
	add	a1, a1, a0
.Ltmp153:
	.loc	16 1045 18
	add	a0, a4, a3
.Ltmp154:
	.loc	17 2774 9
	call	memcpy@plt
.Ltmp155:
	.loc	12 482 9
	sw	s0, 16(s1)
	.loc	12 483 9
	sw	s3, 20(s1)
	li	a0, 16
.Ltmp156:
.LBB12_6:
	.loc	12 486 6
	sw	a3, 0(s2)
	sb	a0, 8(s2)
	sw	a2, 4(s2)
	lw	ra, 28(sp)
	lw	s0, 24(sp)
	lw	s1, 20(sp)
.Ltmp157:
	lw	s2, 16(sp)
	lw	s3, 12(sp)
	.loc	12 486 6 epilogue_begin is_stmt 0
	addi	sp, sp, 32
	ret
.LBB12_7:
.Ltmp158:
	.loc	19 3607 13 is_stmt 1
	lui	a1, %hi(.L__unnamed_23)
	addi	a3, a1, %lo(.L__unnamed_23)
	mv	a1, a2
	mv	a2, a3
.Ltmp159:
	call	_ZN4core5slice29_$LT$impl$u20$$u5b$T$u5d$$GT$15copy_from_slice17len_mismatch_fail17h84d3d03f6319c52dE
.Ltmp160:
.Lfunc_end12:
	.size	_ZN75_$LT$serde_cbor..read..SliceReadFixed$u20$as$u20$serde_cbor..read..Read$GT$14read_to_buffer17ha03e7f2f331189f5E, .Lfunc_end12-_ZN75_$LT$serde_cbor..read..SliceReadFixed$u20$as$u20$serde_cbor..read..Read$GT$14read_to_buffer17ha03e7f2f331189f5E
	.cfi_endproc

	.section	".text._ZN75_$LT$serde_cbor..read..SliceReadFixed$u20$as$u20$serde_cbor..read..Read$GT$4read17h39a4de6e901b9634E","ax",@progbits
	.globl	_ZN75_$LT$serde_cbor..read..SliceReadFixed$u20$as$u20$serde_cbor..read..Read$GT$4read17h39a4de6e901b9634E
	.p2align	1
	.type	_ZN75_$LT$serde_cbor..read..SliceReadFixed$u20$as$u20$serde_cbor..read..Read$GT$4read17h39a4de6e901b9634E,@function
_ZN75_$LT$serde_cbor..read..SliceReadFixed$u20$as$u20$serde_cbor..read..Read$GT$4read17h39a4de6e901b9634E:
.Lfunc_begin13:
	.cfi_startproc
	.loc	12 432 15 prologue_end
	lw	a3, 16(a1)
	lw	a4, 4(a1)
.Ltmp161:
	.loc	7 1256 5
	add	a2, a2, a3
.Ltmp162:
	sltu	a6, a2, a3
	sltu	a5, a4, a2
.Ltmp163:
	.loc	12 432 9
	or	a5, a6, a5
	beqz	a5, .LBB13_2
.Ltmp164:
	.loc	5 1959 23
	sw	zero, 12(a0)
	sw	a4, 8(a0)
	li	a1, 3
.Ltmp165:
	sb	a1, 16(a0)
	li	a4, 1
.Ltmp166:
	.loc	12 0 0 is_stmt 0
	sw	a4, 0(a0)
	.loc	12 493 6 is_stmt 1
	ret
.Ltmp167:
.LBB13_2:
	.loc	12 490 22
	lw	a6, 0(a1)
.Ltmp168:
	.loc	14 371 27
	sub	a5, a2, a3
.Ltmp169:
	.loc	15 944 18
	add	a3, a3, a6
.Ltmp170:
	.loc	12 491 9
	sw	a2, 16(a1)
	li	a1, 1
.Ltmp171:
	.loc	12 492 9
	sw	a1, 4(a0)
	sw	a3, 8(a0)
	sw	a5, 12(a0)
.Ltmp172:
	.loc	12 0 0 is_stmt 0
	sw	zero, 0(a0)
	.loc	12 493 6 is_stmt 1
	ret
.Ltmp173:
.Lfunc_end13:
	.size	_ZN75_$LT$serde_cbor..read..SliceReadFixed$u20$as$u20$serde_cbor..read..Read$GT$4read17h39a4de6e901b9634E, .Lfunc_end13-_ZN75_$LT$serde_cbor..read..SliceReadFixed$u20$as$u20$serde_cbor..read..Read$GT$4read17h39a4de6e901b9634E
	.cfi_endproc

	.section	".text._ZN75_$LT$serde_cbor..read..SliceReadFixed$u20$as$u20$serde_cbor..read..Read$GT$11take_buffer17h39e39714f9706363E","ax",@progbits
	.globl	_ZN75_$LT$serde_cbor..read..SliceReadFixed$u20$as$u20$serde_cbor..read..Read$GT$11take_buffer17h39e39714f9706363E
	.p2align	1
	.type	_ZN75_$LT$serde_cbor..read..SliceReadFixed$u20$as$u20$serde_cbor..read..Read$GT$11take_buffer17h39e39714f9706363E,@function
_ZN75_$LT$serde_cbor..read..SliceReadFixed$u20$as$u20$serde_cbor..read..Read$GT$11take_buffer17h39e39714f9706363E:
.Lfunc_begin14:
	.loc	12 495 0
	.cfi_startproc
	mv	a3, a1
.Ltmp174:
	.loc	12 496 32 prologue_end
	lw	a1, 12(a1)
.Ltmp175:
	.loc	12 496 48 is_stmt 0
	lw	a4, 20(a3)
.Ltmp176:
	.loc	14 393 19 is_stmt 1
	bltu	a1, a4, .LBB14_2
.Ltmp177:
	.loc	12 496 32
	lw	a1, 8(a3)
	.loc	12 496 9 is_stmt 0
	sw	a1, 4(a0)
	sw	a4, 8(a0)
	sw	zero, 0(a0)
	.loc	12 497 6 is_stmt 1
	ret
.Ltmp178:
.LBB14_2:
	.cfi_def_cfa_offset 0
	.loc	14 394 13
	lui	a0, %hi(.L__unnamed_24)
	addi	a2, a0, %lo(.L__unnamed_24)
	mv	a0, a4
	call	_ZN4core5slice5index24slice_end_index_len_fail17he0d721b4a6ea45a9E
.Ltmp179:
.Lfunc_end14:
	.size	_ZN75_$LT$serde_cbor..read..SliceReadFixed$u20$as$u20$serde_cbor..read..Read$GT$11take_buffer17h39e39714f9706363E, .Lfunc_end14-_ZN75_$LT$serde_cbor..read..SliceReadFixed$u20$as$u20$serde_cbor..read..Read$GT$11take_buffer17h39e39714f9706363E
	.cfi_endproc

	.section	.text._ZN10serde_cbor4read12MutSliceRead3end17h6c28c2e129ae3bb7E,"ax",@progbits
	.globl	_ZN10serde_cbor4read12MutSliceRead3end17h6c28c2e129ae3bb7E
	.p2align	1
	.type	_ZN10serde_cbor4read12MutSliceRead3end17h6c28c2e129ae3bb7E,@function
_ZN10serde_cbor4read12MutSliceRead3end17h6c28c2e129ae3bb7E:
.Lfunc_begin15:
	.cfi_startproc
	.loc	12 552 15 prologue_end
	lw	a3, 8(a1)
	lw	a1, 4(a1)
.Ltmp180:
	.loc	7 1256 5
	add	a2, a2, a3
.Ltmp181:
	sltu	a3, a2, a3
.Ltmp182:
	.loc	7 0 5 is_stmt 0
	sltu	a4, a1, a2
.Ltmp183:
	.loc	12 552 9 is_stmt 1
	or	a3, a3, a4
	beqz	a3, .LBB15_2
	.loc	12 554 18
	sw	zero, 4(a0)
	sw	a1, 0(a0)
	li	a1, 3
	.loc	12 0 0 is_stmt 0
	sb	a1, 8(a0)
	.loc	12 559 6 is_stmt 1
	ret
.LBB15_2:
.Ltmp184:
	.loc	12 553 53
	sw	a2, 0(a0)
	li	a1, 16
.Ltmp185:
	.loc	12 0 0 is_stmt 0
	sb	a1, 8(a0)
	.loc	12 559 6 is_stmt 1
	ret
.Ltmp186:
.Lfunc_end15:
	.size	_ZN10serde_cbor4read12MutSliceRead3end17h6c28c2e129ae3bb7E, .Lfunc_end15-_ZN10serde_cbor4read12MutSliceRead3end17h6c28c2e129ae3bb7E
	.cfi_endproc

	.section	".text._ZN73_$LT$serde_cbor..read..MutSliceRead$u20$as$u20$serde_cbor..read..Read$GT$12clear_buffer17hc3af4c005583bca7E","ax",@progbits
	.globl	_ZN73_$LT$serde_cbor..read..MutSliceRead$u20$as$u20$serde_cbor..read..Read$GT$12clear_buffer17hc3af4c005583bca7E
	.p2align	1
	.type	_ZN73_$LT$serde_cbor..read..MutSliceRead$u20$as$u20$serde_cbor..read..Read$GT$12clear_buffer17hc3af4c005583bca7E,@function
_ZN73_$LT$serde_cbor..read..MutSliceRead$u20$as$u20$serde_cbor..read..Read$GT$12clear_buffer17hc3af4c005583bca7E:
.Lfunc_begin16:
	.cfi_startproc
	.loc	3 1215 9 prologue_end
	lw	a1, 4(a0)
.Ltmp187:
	.loc	12 589 66
	lw	a3, 8(a0)
.Ltmp188:
	.loc	14 488 12
	bltu	a1, a3, .LBB16_2
.Ltmp189:
	.loc	3 1215 9
	lw	a2, 0(a0)
.Ltmp190:
	.loc	14 384 27
	sub	a1, a1, a3
.Ltmp191:
	.loc	12 590 9
	lw	a4, 12(a0)
.Ltmp192:
	.loc	16 1045 18
	add	a2, a2, a3
.Ltmp193:
	.loc	12 589 9
	sw	a2, 0(a0)
	sw	a1, 4(a0)
	.loc	12 590 9
	add	a3, a3, a4
.Ltmp194:
	sw	a3, 12(a0)
	.loc	12 591 9
	sw	zero, 8(a0)
	.loc	12 592 9
	sw	zero, 16(a0)
	.loc	12 593 6
	ret
.Ltmp195:
.LBB16_2:
	.cfi_def_cfa_offset 0
	.loc	14 489 13
	lui	a0, %hi(.L__unnamed_25)
.Ltmp196:
	addi	a2, a0, %lo(.L__unnamed_25)
	mv	a0, a3
	call	_ZN4core5slice5index26slice_start_index_len_fail17hc6d64de25a445463E
.Ltmp197:
.Lfunc_end16:
	.size	_ZN73_$LT$serde_cbor..read..MutSliceRead$u20$as$u20$serde_cbor..read..Read$GT$12clear_buffer17hc3af4c005583bca7E, .Lfunc_end16-_ZN73_$LT$serde_cbor..read..MutSliceRead$u20$as$u20$serde_cbor..read..Read$GT$12clear_buffer17hc3af4c005583bca7E
	.cfi_endproc
	.file	20 "/Users/steve/.rustup/toolchains/nightly-2024-02-01-aarch64-apple-darwin/lib/rustlib/src/rust/library/core/src/mem" "mod.rs"

	.section	".text._ZN73_$LT$serde_cbor..read..MutSliceRead$u20$as$u20$serde_cbor..read..Read$GT$14read_to_buffer17h13eb2655de1bc562E","ax",@progbits
	.globl	_ZN73_$LT$serde_cbor..read..MutSliceRead$u20$as$u20$serde_cbor..read..Read$GT$14read_to_buffer17h13eb2655de1bc562E
	.p2align	1
	.type	_ZN73_$LT$serde_cbor..read..MutSliceRead$u20$as$u20$serde_cbor..read..Read$GT$14read_to_buffer17h13eb2655de1bc562E,@function
_ZN73_$LT$serde_cbor..read..MutSliceRead$u20$as$u20$serde_cbor..read..Read$GT$14read_to_buffer17h13eb2655de1bc562E:
.Lfunc_begin17:
	.loc	12 595 0
	.cfi_startproc
	addi	sp, sp, -176
	.cfi_def_cfa_offset 176
	sw	ra, 172(sp)
	sw	s0, 168(sp)
	sw	s1, 164(sp)
	sw	s2, 160(sp)
	sw	s3, 156(sp)
	sw	s4, 152(sp)
	sw	s5, 148(sp)
	sw	s6, 144(sp)
	sw	s7, 140(sp)
	sw	s8, 136(sp)
	.cfi_offset ra, -4
	.cfi_offset s0, -8
	.cfi_offset s1, -12
	.cfi_offset s2, -16
	.cfi_offset s3, -20
	.cfi_offset s4, -24
	.cfi_offset s5, -28
	.cfi_offset s6, -32
	.cfi_offset s7, -36
	.cfi_offset s8, -40
	mv	s5, a1
.Ltmp198:
	.loc	12 552 15 prologue_end
	lw	s6, 8(a1)
	lw	a1, 4(a1)
	mv	s3, a2
.Ltmp199:
	.loc	12 0 15 is_stmt 0
	mv	s2, a0
.Ltmp200:
	.loc	7 1256 5 is_stmt 1
	add	s4, s6, a2
	sltu	a0, s4, s6
	sltu	a2, a1, s4
.Ltmp201:
	.loc	12 552 9
	or	a2, a2, a0
	li	a0, 3
	bnez	a2, .LBB17_5
.Ltmp202:
	.loc	12 601 20
	lw	a0, 16(s5)
.Ltmp203:
	.loc	14 402 12
	bltu	s4, a0, .LBB17_38
.Ltmp204:
	.loc	14 384 27
	sub	s0, s4, a0
.Ltmp205:
	.loc	12 601 54
	sub	s1, s6, a0
.Ltmp206:
	.loc	19 3374 17
	bltu	s0, s1, .LBB17_39
.Ltmp207:
	.loc	19 3375 17
	sub	s0, s0, s1
.Ltmp208:
	.file	21 "/Users/steve/.rustup/toolchains/nightly-2024-02-01-aarch64-apple-darwin/lib/rustlib/src/rust/library/core/src/slice" "rotate.rs"
	.loc	21 71 12
	seqz	a0, s0
	seqz	a1, s1
	or	a0, a0, a1
	beqz	a0, .LBB17_6
.Ltmp209:
.LBB17_4:
	.loc	12 602 9
	lw	a0, 16(s5)
	add	a0, a0, s3
	sw	a0, 16(s5)
	.loc	12 603 9
	sw	s4, 8(s5)
	li	a0, 16
	mv	a1, s4
.Ltmp210:
.LBB17_5:
	.loc	12 606 6
	sw	zero, 4(s2)
	sw	a1, 0(s2)
	sb	a0, 8(s2)
	lw	ra, 172(sp)
	lw	s0, 168(sp)
	lw	s1, 164(sp)
	lw	s2, 160(sp)
	lw	s3, 156(sp)
.Ltmp211:
	lw	s4, 152(sp)
	lw	s5, 148(sp)
.Ltmp212:
	lw	s6, 144(sp)
	lw	s7, 140(sp)
	lw	s8, 136(sp)
	.loc	12 606 6 epilogue_begin is_stmt 0
	addi	sp, sp, 176
	ret
.LBB17_6:
.Ltmp213:
	.loc	12 601 0 is_stmt 1
	lw	a0, 0(s5)
.Ltmp214:
	.loc	16 1045 18
	add	s6, s6, a0
	li	a7, 24
	li	a6, 129
	j	.LBB17_8
.Ltmp215:
.LBB17_7:
	.loc	21 71 12
	seqz	a0, s0
	seqz	a1, s1
	or	a0, a0, a1
	bnez	a0, .LBB17_4
.Ltmp216:
.LBB17_8:
	.loc	21 74 13
	add	a2, s0, s1
	.loc	21 74 12 is_stmt 0
	bltu	a2, a7, .LBB17_21
.Ltmp217:
	.loc	21 0 12
	mv	a2, s1
.Ltmp218:
	bltu	s1, s0, .LBB17_11
.Ltmp219:
	mv	a2, s0
.Ltmp220:
.LBB17_11:
	.loc	21 161 19 is_stmt 1
	bltu	a2, a6, .LBB17_35
.Ltmp221:
	.loc	21 197 19
	bgeu	s1, s0, .LBB17_17
.Ltmp222:
	.loc	21 0 19 is_stmt 0
	neg	a2, s1
.Ltmp223:
.LBB17_14:
	mv	a3, s6
	mv	a4, s1
.Ltmp224:
.LBB17_15:
	.loc	16 1045 18 is_stmt 1
	add	a5, a3, a2
.Ltmp225:
	.loc	3 1215 9
	lbu	a1, 0(a3)
.Ltmp226:
	.loc	3 1215 9 is_stmt 0
	lbu	a0, 0(a5)
.Ltmp227:
	.loc	3 1415 9 is_stmt 1
	sb	a1, 0(a5)
.Ltmp228:
	.loc	3 1415 9 is_stmt 0
	sb	a0, 0(a3)
.Ltmp229:
	.loc	3 1002 11 is_stmt 1
	addi	a4, a4, -1
.Ltmp230:
	addi	a3, a3, 1
	bnez	a4, .LBB17_15
.Ltmp231:
	.loc	21 227 17
	sub	s0, s0, s1
.Ltmp232:
	.loc	16 1045 18
	add	s6, s6, s1
.Ltmp233:
	.loc	21 228 20
	bgeu	s0, s1, .LBB17_14
	j	.LBB17_7
.Ltmp234:
.LBB17_17:
	.loc	21 0 20 is_stmt 0
	neg	a2, s0
.Ltmp235:
.LBB17_18:
	mv	a3, s6
.Ltmp236:
	.loc	16 484 18 is_stmt 1
	add	s6, s6, a2
.Ltmp237:
	.loc	16 0 18 is_stmt 0
	mv	a4, s0
.Ltmp238:
.LBB17_19:
	.loc	16 1045 18 is_stmt 1
	add	a0, a3, a2
.Ltmp239:
	.loc	3 1215 9
	lbu	a1, 0(a3)
.Ltmp240:
	.loc	3 1215 9 is_stmt 0
	lbu	a5, 0(a0)
.Ltmp241:
	.loc	3 1415 9 is_stmt 1
	sb	a1, 0(a0)
.Ltmp242:
	.loc	3 1415 9 is_stmt 0
	sb	a5, 0(a3)
.Ltmp243:
	.loc	3 1002 11 is_stmt 1
	addi	a4, a4, -1
.Ltmp244:
	addi	a3, a3, 1
	bnez	a4, .LBB17_19
.Ltmp245:
	.loc	21 211 17
	sub	s1, s1, s0
.Ltmp246:
	.loc	21 212 20
	bgeu	s1, s0, .LBB17_18
	j	.LBB17_7
.Ltmp247:
.LBB17_21:
	.loc	16 484 18
	sub	a7, s6, s1
.Ltmp248:
	.loc	3 1215 9
	lbu	a2, 0(a7)
.Ltmp249:
	.loc	21 114 20
	sub	a3, s1, s0
	mv	a6, s0
	mv	a4, s0
	j	.LBB17_23
.Ltmp250:
.LBB17_22:
	.loc	21 128 21
	add	a4, a4, s0
.Ltmp251:
	.loc	21 114 17
	sub	a3, a3, s0
.Ltmp252:
.LBB17_23:
	.loc	21 0 0 is_stmt 0
	mv	a5, a2
.Ltmp253:
	.loc	16 1045 18 is_stmt 1
	add	a0, a7, a4
.Ltmp254:
	.loc	3 1215 9
	lbu	a2, 0(a0)
.Ltmp255:
	.loc	3 1415 9
	sb	a5, 0(a0)
.Ltmp256:
	.loc	21 114 20
	bltu	a4, s1, .LBB17_22
.Ltmp257:
	.loc	21 116 24
	beqz	a3, .LBB17_28
.Ltmp258:
	.loc	21 0 0 is_stmt 0
	neg	a4, a3
	mv	a5, a4
	.loc	21 124 24 is_stmt 1
	bltu	a4, a6, .LBB17_27
.Ltmp259:
	.loc	21 0 24 is_stmt 0
	mv	a5, a6
.Ltmp260:
.LBB17_27:
	.loc	21 114 20 is_stmt 1
	sub	a3, s1, a4
	mv	a6, a5
.Ltmp261:
	.loc	21 0 20 is_stmt 0
	j	.LBB17_23
.Ltmp262:
.LBB17_28:
	li	a0, 2
.Ltmp263:
	.loc	3 1415 9 is_stmt 1
	sb	a2, 0(a7)
.Ltmp264:
	.file	22 "/Users/steve/.rustup/toolchains/nightly-2024-02-01-aarch64-apple-darwin/lib/rustlib/src/rust/library/core/src/iter" "range.rs"
	.loc	22 729 12
	bltu	a6, a0, .LBB17_4
.Ltmp265:
	.loc	22 0 12 is_stmt 0
	li	a2, 1
.Ltmp266:
.LBB17_30:
	.loc	16 1045 18 is_stmt 1
	add	a3, a7, a2
.Ltmp267:
	.loc	3 1215 9
	lbu	a4, 0(a3)
.Ltmp268:
	.loc	21 143 17
	add	a5, a2, s0
.Ltmp269:
	.loc	21 0 17 is_stmt 0
	j	.LBB17_32
.Ltmp270:
.LBB17_31:
	.loc	21 155 25 is_stmt 1
	add	a5, a5, s0
.Ltmp271:
.LBB17_32:
	.loc	21 0 0 is_stmt 0
	mv	a0, a4
.Ltmp272:
	.loc	16 1045 18 is_stmt 1
	add	a1, a7, a5
.Ltmp273:
	.loc	3 1215 9
	lbu	a4, 0(a1)
.Ltmp274:
	.loc	3 1415 9
	sb	a0, 0(a1)
.Ltmp275:
	.loc	3 0 9 is_stmt 0
	bltu	a5, s1, .LBB17_31
.Ltmp276:
	.loc	21 148 25 is_stmt 1
	sub	a5, a5, s1
.Ltmp277:
	.loc	21 149 28
	bne	a5, a2, .LBB17_32
.Ltmp278:
	.loc	7 1256 5
	addi	a2, a2, 1
.Ltmp279:
	.loc	3 1415 9
	sb	a4, 0(a3)
.Ltmp280:
	.loc	22 729 12
	bne	a2, a6, .LBB17_30
	j	.LBB17_4
.Ltmp281:
.LBB17_35:
	.loc	16 484 18
	sub	s7, s6, s1
.Ltmp282:
	.loc	16 1045 18
	add	s8, s7, s0
.Ltmp283:
	.loc	17 2774 9
	addi	a0, sp, 8
.Ltmp284:
	.loc	21 168 16
	bgeu	s0, s1, .LBB17_37
.Ltmp285:
	.loc	17 2774 9
	mv	a1, s6
	mv	a2, s0
	call	memcpy@plt
.Ltmp286:
	.loc	17 2866 9
	mv	a0, s8
	mv	a1, s7
	mv	a2, s1
	call	memmove@plt
.Ltmp287:
	.loc	17 2774 9
	addi	a1, sp, 8
	mv	a0, s7
	mv	a2, s0
	call	memcpy@plt
	j	.LBB17_4
.Ltmp288:
.LBB17_37:
	.loc	17 2774 9 is_stmt 0
	mv	a1, s7
	mv	a2, s1
	call	memcpy@plt
.Ltmp289:
	.loc	17 2866 9 is_stmt 1
	mv	a0, s7
	mv	a1, s6
	mv	a2, s0
	call	memmove@plt
.Ltmp290:
	.loc	17 2774 9
	addi	a1, sp, 8
	mv	a0, s8
	mv	a2, s1
	call	memcpy@plt
	j	.LBB17_4
.Ltmp291:
.LBB17_38:
	.loc	14 403 13
	lui	a1, %hi(.L__unnamed_26)
	addi	a2, a1, %lo(.L__unnamed_26)
	mv	a1, s4
	call	_ZN4core5slice5index22slice_index_order_fail17h940d5a7ad9f42007E
.Ltmp292:
.LBB17_39:
	.loc	19 3374 9
	lui	a0, %hi(.L__unnamed_27)
	addi	a0, a0, %lo(.L__unnamed_27)
	lui	a1, %hi(.L__unnamed_28)
	addi	a2, a1, %lo(.L__unnamed_28)
	li	a1, 35
	call	_ZN4core9panicking5panic17hcc06d44c07847f12E
.Ltmp293:
.Lfunc_end17:
	.size	_ZN73_$LT$serde_cbor..read..MutSliceRead$u20$as$u20$serde_cbor..read..Read$GT$14read_to_buffer17h13eb2655de1bc562E, .Lfunc_end17-_ZN73_$LT$serde_cbor..read..MutSliceRead$u20$as$u20$serde_cbor..read..Read$GT$14read_to_buffer17h13eb2655de1bc562E
	.cfi_endproc

	.section	".text._ZN73_$LT$serde_cbor..read..MutSliceRead$u20$as$u20$serde_cbor..read..Read$GT$11take_buffer17h284296de9c02070dE","ax",@progbits
	.globl	_ZN73_$LT$serde_cbor..read..MutSliceRead$u20$as$u20$serde_cbor..read..Read$GT$11take_buffer17h284296de9c02070dE
	.p2align	1
	.type	_ZN73_$LT$serde_cbor..read..MutSliceRead$u20$as$u20$serde_cbor..read..Read$GT$11take_buffer17h284296de9c02070dE,@function
_ZN73_$LT$serde_cbor..read..MutSliceRead$u20$as$u20$serde_cbor..read..Read$GT$11take_buffer17h284296de9c02070dE:
.Lfunc_begin18:
	.loc	12 608 0
	.cfi_startproc
	addi	sp, sp, -32
	.cfi_def_cfa_offset 32
	mv	a2, a1
.Ltmp294:
	.loc	3 1215 9 prologue_end
	lw	a3, 4(a1)
.Ltmp295:
	.loc	12 609 81
	lw	a1, 8(a1)
.Ltmp296:
	.loc	19 2113 12
	bltu	a3, a1, .LBB18_3
.Ltmp297:
	.loc	12 609 29
	lw	a4, 0(a2)
.Ltmp298:
	.loc	16 1045 18
	add	a5, a4, a1
.Ltmp299:
	.loc	19 2027 82
	sub	a6, a3, a1
.Ltmp300:
	.loc	12 611 9
	lw	a7, 12(a2)
	.loc	12 610 9
	sw	a5, 0(a2)
	.loc	12 614 28
	lw	a3, 16(a2)
.Ltmp301:
	.loc	12 610 9
	sw	a6, 4(a2)
	.loc	12 611 9
	add	a7, a7, a1
	sw	a7, 12(a2)
	.loc	12 612 9
	sw	zero, 8(a2)
.Ltmp302:
	.loc	14 393 19
	bltu	a1, a3, .LBB18_4
.Ltmp303:
	.loc	12 615 9
	sw	zero, 16(a2)
	.loc	12 617 9
	sw	a4, 4(a0)
	sw	a3, 8(a0)
	li	a1, 1
.Ltmp304:
	sw	a1, 0(a0)
.Ltmp305:
	.loc	12 618 6 epilogue_begin
	addi	sp, sp, 32
	ret
.Ltmp306:
.LBB18_3:
	.loc	1 325 9
	lui	a0, %hi(.L__unnamed_29)
	addi	a0, a0, %lo(.L__unnamed_29)
.Ltmp307:
	sw	a0, 8(sp)
	li	a0, 1
.Ltmp308:
	sw	a0, 12(sp)
	sw	zero, 24(sp)
	lui	a0, %hi(.L__unnamed_30)
	addi	a0, a0, %lo(.L__unnamed_30)
	sw	a0, 16(sp)
	sw	zero, 20(sp)
.Ltmp309:
	.loc	19 1907 21
	lui	a0, %hi(.L__unnamed_31)
	addi	a1, a0, %lo(.L__unnamed_31)
.Ltmp310:
	addi	a0, sp, 8
	call	_ZN4core9panicking9panic_fmt17h0079632a8b35876aE
.Ltmp311:
.LBB18_4:
	.loc	14 394 13
	lui	a0, %hi(.L__unnamed_32)
	addi	a2, a0, %lo(.L__unnamed_32)
.Ltmp312:
	mv	a0, a3
	call	_ZN4core5slice5index24slice_end_index_len_fail17he0d721b4a6ea45a9E
.Ltmp313:
.Lfunc_end18:
	.size	_ZN73_$LT$serde_cbor..read..MutSliceRead$u20$as$u20$serde_cbor..read..Read$GT$11take_buffer17h284296de9c02070dE, .Lfunc_end18-_ZN73_$LT$serde_cbor..read..MutSliceRead$u20$as$u20$serde_cbor..read..Read$GT$11take_buffer17h284296de9c02070dE
	.cfi_endproc
	.file	23 "/Users/steve/.rustup/toolchains/nightly-2024-02-01-aarch64-apple-darwin/lib/rustlib/src/rust/library/core/src" "panic.rs"

	.section	".text._ZN70_$LT$alloc..vec..Vec$LT$u8$GT$$u20$as$u20$serde_cbor..write..Write$GT$9write_all17h57e6e95f276f15f2E","ax",@progbits
	.globl	_ZN70_$LT$alloc..vec..Vec$LT$u8$GT$$u20$as$u20$serde_cbor..write..Write$GT$9write_all17h57e6e95f276f15f2E
	.p2align	1
	.type	_ZN70_$LT$alloc..vec..Vec$LT$u8$GT$$u20$as$u20$serde_cbor..write..Write$GT$9write_all17h57e6e95f276f15f2E,@function
_ZN70_$LT$alloc..vec..Vec$LT$u8$GT$$u20$as$u20$serde_cbor..write..Write$GT$9write_all17h57e6e95f276f15f2E:
.Lfunc_begin19:
	.file	24 "/Users/steve/.cargo/registry/src/index.crates.io-6f17d22bba15001f/serde_cbor-0.11.2" "src/write.rs"
	.loc	24 99 0
	.cfi_startproc
	addi	sp, sp, -32
	.cfi_def_cfa_offset 32
	sw	ra, 28(sp)
	sw	s0, 24(sp)
	sw	s1, 20(sp)
	sw	s2, 16(sp)
	sw	s3, 12(sp)
	sw	s4, 8(sp)
	.cfi_offset ra, -4
	.cfi_offset s0, -8
	.cfi_offset s1, -12
	.cfi_offset s2, -16
	.cfi_offset s3, -20
	.cfi_offset s4, -24
	mv	s0, a1
.Ltmp314:
	.loc	13 911 26 prologue_end
	lw	s1, 8(a1)
.Ltmp315:
	.loc	4 247 44
	lw	a1, 0(a1)
.Ltmp316:
	.loc	7 1256 5
	sub	a1, a1, s1
.Ltmp317:
	.loc	7 0 5 is_stmt 0
	mv	s3, a3
.Ltmp318:
	mv	s4, a2
.Ltmp319:
	mv	s2, a0
.Ltmp320:
	.loc	4 308 12 is_stmt 1
	bltu	a1, a3, .LBB19_2
.Ltmp321:
.LBB19_1:
	.loc	4 239 9
	lw	a0, 4(s0)
.Ltmp322:
	.loc	16 1045 18
	add	a0, a0, s1
.Ltmp323:
	.loc	17 2774 9
	mv	a1, s4
	mv	a2, s3
	call	memcpy@plt
.Ltmp324:
	.loc	13 2038 9
	add	s1, s1, s3
.Ltmp325:
	sw	s1, 8(s0)
	li	a0, 16
.Ltmp326:
	.loc	24 102 6
	sb	a0, 8(s2)
	lw	ra, 28(sp)
	lw	s0, 24(sp)
.Ltmp327:
	lw	s1, 20(sp)
	lw	s2, 16(sp)
	lw	s3, 12(sp)
.Ltmp328:
	lw	s4, 8(sp)
.Ltmp329:
	.loc	24 102 6 epilogue_begin is_stmt 0
	addi	sp, sp, 32
	ret
.LBB19_2:
.Ltmp330:
	.loc	4 309 13 is_stmt 1
	mv	a0, s0
	mv	a1, s1
	mv	a2, s3
	call	_ZN5alloc7raw_vec19RawVec$LT$T$C$A$GT$7reserve21do_reserve_and_handle17h290b997366ea37d2E
.Ltmp331:
	.loc	13 2145 9
	lw	s1, 8(s0)
.Ltmp332:
	.loc	13 0 9 is_stmt 0
	j	.LBB19_1
.Ltmp333:
.Lfunc_end19:
	.size	_ZN70_$LT$alloc..vec..Vec$LT$u8$GT$$u20$as$u20$serde_cbor..write..Write$GT$9write_all17h57e6e95f276f15f2E, .Lfunc_end19-_ZN70_$LT$alloc..vec..Vec$LT$u8$GT$$u20$as$u20$serde_cbor..write..Write$GT$9write_all17h57e6e95f276f15f2E
	.cfi_endproc

	.section	".text._ZN74_$LT$serde_cbor..write..SliceWrite$u20$as$u20$serde_cbor..write..Write$GT$9write_all17h4baa0c5c86d71cd4E","ax",@progbits
	.globl	_ZN74_$LT$serde_cbor..write..SliceWrite$u20$as$u20$serde_cbor..write..Write$GT$9write_all17h4baa0c5c86d71cd4E
	.p2align	1
	.type	_ZN74_$LT$serde_cbor..write..SliceWrite$u20$as$u20$serde_cbor..write..Write$GT$9write_all17h4baa0c5c86d71cd4E,@function
_ZN74_$LT$serde_cbor..write..SliceWrite$u20$as$u20$serde_cbor..write..Write$GT$9write_all17h4baa0c5c86d71cd4E:
.Lfunc_begin20:
	.loc	24 162 0 is_stmt 1
	.cfi_startproc
	addi	sp, sp, -16
	.cfi_def_cfa_offset 16
	sw	ra, 12(sp)
	sw	s0, 8(sp)
	sw	s1, 4(sp)
	sw	s2, 0(sp)
	.cfi_offset ra, -4
	.cfi_offset s0, -8
	.cfi_offset s1, -12
	.cfi_offset s2, -16
	mv	s1, a1
.Ltmp334:
	.loc	24 163 12 prologue_end
	lw	a1, 4(a1)
	.loc	24 163 31 is_stmt 0
	lw	a4, 8(s1)
	.loc	24 163 12
	sub	a5, a1, a4
.Ltmp335:
	.loc	24 0 12
	mv	s0, a0
	.loc	24 163 12
	bgeu	a5, a3, .LBB20_2
.Ltmp336:
	.loc	24 0 12
	li	a1, 0
	li	a0, 2
	j	.LBB20_5
.Ltmp337:
.LBB20_2:
	.loc	24 167 19 is_stmt 1
	add	s2, a4, a3
.Ltmp338:
	.loc	14 402 12
	bltu	s2, a4, .LBB20_6
.Ltmp339:
	.loc	14 404 19
	bltu	a1, s2, .LBB20_7
.Ltmp340:
	.loc	24 168 0
	lw	a0, 0(s1)
.Ltmp341:
	.loc	16 1045 18
	add	a0, a0, a4
.Ltmp342:
	.loc	17 2774 9
	mv	a1, a2
.Ltmp343:
	mv	a2, a3
.Ltmp344:
	call	memcpy@plt
.Ltmp345:
	.loc	24 169 9
	sw	s2, 8(s1)
	li	a0, 16
.Ltmp346:
.LBB20_5:
	.loc	24 171 6
	sw	a4, 0(s0)
	sb	a0, 8(s0)
	sw	a1, 4(s0)
	lw	ra, 12(sp)
	lw	s0, 8(sp)
	lw	s1, 4(sp)
.Ltmp347:
	lw	s2, 0(sp)
	.loc	24 171 6 epilogue_begin is_stmt 0
	addi	sp, sp, 16
	ret
.LBB20_6:
.Ltmp348:
	.loc	14 403 13 is_stmt 1
	lui	a0, %hi(.L__unnamed_33)
	addi	a2, a0, %lo(.L__unnamed_33)
.Ltmp349:
	mv	a0, a4
	mv	a1, s2
.Ltmp350:
	call	_ZN4core5slice5index22slice_index_order_fail17h940d5a7ad9f42007E
.Ltmp351:
.LBB20_7:
	.loc	14 405 13
	lui	a0, %hi(.L__unnamed_33)
	addi	a2, a0, %lo(.L__unnamed_33)
.Ltmp352:
	mv	a0, s2
	call	_ZN4core5slice5index24slice_end_index_len_fail17he0d721b4a6ea45a9E
.Ltmp353:
.Lfunc_end20:
	.size	_ZN74_$LT$serde_cbor..write..SliceWrite$u20$as$u20$serde_cbor..write..Write$GT$9write_all17h4baa0c5c86d71cd4E, .Lfunc_end20-_ZN74_$LT$serde_cbor..write..SliceWrite$u20$as$u20$serde_cbor..write..Write$GT$9write_all17h4baa0c5c86d71cd4E
	.cfi_endproc

	.section	".text._ZN65_$LT$serde_cbor..error..ErrorCode$u20$as$u20$core..fmt..Debug$GT$3fmt17h1211a363a8b8344dE","ax",@progbits
	.p2align	1
	.type	_ZN65_$LT$serde_cbor..error..ErrorCode$u20$as$u20$core..fmt..Debug$GT$3fmt17h1211a363a8b8344dE,@function
_ZN65_$LT$serde_cbor..error..ErrorCode$u20$as$u20$core..fmt..Debug$GT$3fmt17h1211a363a8b8344dE:
.Lfunc_begin21:
	.cfi_startproc
	.loc	11 264 10 prologue_end
	lbu	a0, 0(a0)
.Ltmp354:
	lui	a2, %hi(.Lswitch.table._ZN65_$LT$serde_cbor..error..ErrorCode$u20$as$u20$core..fmt..Debug$GT$3fmt17h1211a363a8b8344dE)
	addi	a2, a2, %lo(.Lswitch.table._ZN65_$LT$serde_cbor..error..ErrorCode$u20$as$u20$core..fmt..Debug$GT$3fmt17h1211a363a8b8344dE)
	slli	a0, a0, 2
	add	a2, a2, a0
	lw	a2, 0(a2)
	lui	a3, %hi(.Lswitch.table._ZN65_$LT$serde_cbor..error..ErrorCode$u20$as$u20$core..fmt..Debug$GT$3fmt17h1211a363a8b8344dE.14)
	addi	a3, a3, %lo(.Lswitch.table._ZN65_$LT$serde_cbor..error..ErrorCode$u20$as$u20$core..fmt..Debug$GT$3fmt17h1211a363a8b8344dE.14)
	add	a0, a0, a3
	lw	a3, 0(a0)
	mv	a0, a1
.Ltmp355:
	mv	a1, a3
	tail	_ZN4core3fmt9Formatter9write_str17h7b224d3eb3847887E
.Ltmp356:
.Lfunc_end21:
	.size	_ZN65_$LT$serde_cbor..error..ErrorCode$u20$as$u20$core..fmt..Debug$GT$3fmt17h1211a363a8b8344dE, .Lfunc_end21-_ZN65_$LT$serde_cbor..error..ErrorCode$u20$as$u20$core..fmt..Debug$GT$3fmt17h1211a363a8b8344dE
	.cfi_endproc

	.type	.L__unnamed_30,@object
	.section	.rodata..L__unnamed_30,"a",@progbits
	.p2align	2, 0x0
.L__unnamed_30:
	.size	.L__unnamed_30, 0

	.type	.L__unnamed_27,@object
	.section	.rodata..L__unnamed_27,"a",@progbits
.L__unnamed_27:
	.ascii	"assertion failed: mid <= self.len()"
	.size	.L__unnamed_27, 35

	.type	.L__unnamed_34,@object
	.section	.rodata..L__unnamed_34,"a",@progbits
.L__unnamed_34:
	.ascii	"/Users/steve/.rustup/toolchains/nightly-2024-02-01-aarch64-apple-darwin/lib/rustlib/src/rust/library/core/src/slice/mod.rs"
	.size	.L__unnamed_34, 122

	.type	.L__unnamed_28,@object
	.section	.rodata..L__unnamed_28,"a",@progbits
	.p2align	2, 0x0
.L__unnamed_28:
	.word	.L__unnamed_34
	.asciz	"z\000\000\000.\r\000\000\t\000\000"
	.size	.L__unnamed_28, 16

	.type	.L__unnamed_35,@object
	.section	.rodata..L__unnamed_35,"a",@progbits
.L__unnamed_35:
	.ascii	"mid > len"
	.size	.L__unnamed_35, 9

	.type	.L__unnamed_29,@object
	.section	.rodata..L__unnamed_29,"a",@progbits
	.p2align	2, 0x0
.L__unnamed_29:
	.word	.L__unnamed_35
	.asciz	"\t\000\000"
	.size	.L__unnamed_29, 8

	.type	.L__unnamed_36,@object
	.section	.rodata..L__unnamed_36,"a",@progbits
.L__unnamed_36:
	.ascii	" at offset "
	.size	.L__unnamed_36, 11

	.type	.L__unnamed_3,@object
	.section	.rodata..L__unnamed_3,"a",@progbits
	.p2align	2, 0x0
.L__unnamed_3:
	.word	.L__unnamed_30
	.zero	4
	.word	.L__unnamed_36
	.asciz	"\013\000\000"
	.size	.L__unnamed_3, 16

	.type	.L__unnamed_4,@object
	.section	.rodata..L__unnamed_4,"a",@progbits
.L__unnamed_4:
	.ascii	"ErrorImpl"
	.size	.L__unnamed_4, 9

	.type	.L__unnamed_5,@object
	.section	.rodata.cst4,"aM",@progbits,4
.L__unnamed_5:
	.ascii	"code"
	.size	.L__unnamed_5, 4

	.type	.L__unnamed_1,@object
	.section	.rodata..L__unnamed_1,"a",@progbits
	.p2align	2, 0x0
.L__unnamed_1:
	.word	_ZN4core3ptr49drop_in_place$LT$serde_cbor..error..ErrorCode$GT$17hcc8da3e06f0ba9a8E
	.asciz	"\001\000\000\000\001\000\000"
	.word	_ZN65_$LT$serde_cbor..error..ErrorCode$u20$as$u20$core..fmt..Debug$GT$3fmt17h1211a363a8b8344dE
	.size	.L__unnamed_1, 16

	.type	.L__unnamed_6,@object
	.section	.rodata..L__unnamed_6,"a",@progbits
.L__unnamed_6:
	.ascii	"offset"
	.size	.L__unnamed_6, 6

	.type	.L__unnamed_2,@object
	.section	.rodata..L__unnamed_2,"a",@progbits
	.p2align	2, 0x0
.L__unnamed_2:
	.word	_ZN4core3ptr28drop_in_place$LT$$RF$u64$GT$17hc31bbbf528f54e36E
	.asciz	"\004\000\000\000\004\000\000"
	.word	_ZN42_$LT$$RF$T$u20$as$u20$core..fmt..Debug$GT$3fmt17h788ad2a028281ab4E
	.size	.L__unnamed_2, 16

	.type	.L__unnamed_7,@object
	.section	.rodata..L__unnamed_7,"a",@progbits
.L__unnamed_7:
	.ascii	"Unknown error"
	.size	.L__unnamed_7, 13

	.type	.L__unnamed_8,@object
	.section	.rodata..L__unnamed_8,"a",@progbits
.L__unnamed_8:
	.ascii	"Unknown I/O error"
	.size	.L__unnamed_8, 17

	.type	.L__unnamed_9,@object
	.section	.rodata..L__unnamed_9,"a",@progbits
.L__unnamed_9:
	.ascii	"Scratch buffer too small"
	.size	.L__unnamed_9, 24

	.type	.L__unnamed_10,@object
	.section	.rodata..L__unnamed_10,"a",@progbits
.L__unnamed_10:
	.ascii	"EOF while parsing a value"
	.size	.L__unnamed_10, 25

	.type	.L__unnamed_11,@object
	.section	.rodata..L__unnamed_11,"a",@progbits
.L__unnamed_11:
	.ascii	"EOF while parsing an array"
	.size	.L__unnamed_11, 26

	.type	.L__unnamed_12,@object
	.section	.rodata..L__unnamed_12,"a",@progbits
.L__unnamed_12:
	.ascii	"EOF while parsing a map"
	.size	.L__unnamed_12, 23

	.type	.L__unnamed_13,@object
	.section	.rodata..L__unnamed_13,"a",@progbits
.L__unnamed_13:
	.ascii	"length out of range"
	.size	.L__unnamed_13, 19

	.type	.L__unnamed_14,@object
	.section	.rodata..L__unnamed_14,"a",@progbits
.L__unnamed_14:
	.ascii	"invalid UTF-8"
	.size	.L__unnamed_14, 13

	.type	.L__unnamed_15,@object
	.section	.rodata..L__unnamed_15,"a",@progbits
.L__unnamed_15:
	.ascii	"unassigned type"
	.size	.L__unnamed_15, 15

	.type	.L__unnamed_16,@object
	.section	.rodata..L__unnamed_16,"a",@progbits
.L__unnamed_16:
	.ascii	"unexpected code"
	.size	.L__unnamed_16, 15

	.type	.L__unnamed_17,@object
	.section	.rodata..L__unnamed_17,"a",@progbits
.L__unnamed_17:
	.ascii	"trailing data"
	.size	.L__unnamed_17, 13

	.type	.L__unnamed_18,@object
	.section	.rodata..L__unnamed_18,"a",@progbits
.L__unnamed_18:
	.ascii	"array too short"
	.size	.L__unnamed_18, 15

	.type	.L__unnamed_19,@object
	.section	.rodata..L__unnamed_19,"a",@progbits
.L__unnamed_19:
	.ascii	"array too long"
	.size	.L__unnamed_19, 14

	.type	.L__unnamed_20,@object
	.section	.rodata..L__unnamed_20,"a",@progbits
.L__unnamed_20:
	.ascii	"recursion limit exceeded"
	.size	.L__unnamed_20, 24

	.type	.L__unnamed_21,@object
	.section	.rodata..L__unnamed_21,"a",@progbits
.L__unnamed_21:
	.ascii	"wrong enum format"
	.size	.L__unnamed_21, 17

	.type	.L__unnamed_22,@object
	.section	.rodata..L__unnamed_22,"a",@progbits
.L__unnamed_22:
	.ascii	"wrong struct format"
	.size	.L__unnamed_22, 19

	.type	.L__unnamed_37,@object
	.section	.rodata..L__unnamed_37,"a",@progbits
.L__unnamed_37:
	.ascii	"/Users/steve/.cargo/registry/src/index.crates.io-6f17d22bba15001f/serde_cbor-0.11.2/src/read.rs"
	.size	.L__unnamed_37, 95

	.type	.L__unnamed_23,@object
	.section	.rodata..L__unnamed_23,"a",@progbits
	.p2align	2, 0x0
.L__unnamed_23:
	.word	.L__unnamed_37
	.asciz	"_\000\000\000\341\001\000\0007\000\000"
	.size	.L__unnamed_23, 16

	.type	.L__unnamed_24,@object
	.section	.rodata..L__unnamed_24,"a",@progbits
	.p2align	2, 0x0
.L__unnamed_24:
	.word	.L__unnamed_37
	.asciz	"_\000\000\000\360\001\000\000,\000\000"
	.size	.L__unnamed_24, 16

	.type	.L__unnamed_25,@object
	.section	.rodata..L__unnamed_25,"a",@progbits
	.p2align	2, 0x0
.L__unnamed_25:
	.word	.L__unnamed_37
	.asciz	"_\000\000\000M\002\000\000A\000\000"
	.size	.L__unnamed_25, 16

	.type	.L__unnamed_26,@object
	.section	.rodata..L__unnamed_26,"a",@progbits
	.p2align	2, 0x0
.L__unnamed_26:
	.word	.L__unnamed_37
	.asciz	"_\000\000\000Y\002\000\000\023\000\000"
	.size	.L__unnamed_26, 16

	.type	.L__unnamed_31,@object
	.section	.rodata..L__unnamed_31,"a",@progbits
	.p2align	2, 0x0
.L__unnamed_31:
	.word	.L__unnamed_37
	.asciz	"_\000\000\000a\002\000\000D\000\000"
	.size	.L__unnamed_31, 16

	.type	.L__unnamed_32,@object
	.section	.rodata..L__unnamed_32,"a",@progbits
	.p2align	2, 0x0
.L__unnamed_32:
	.word	.L__unnamed_37
	.asciz	"_\000\000\000f\002\000\000\031\000\000"
	.size	.L__unnamed_32, 16

	.type	.L__unnamed_38,@object
	.section	.rodata..L__unnamed_38,"a",@progbits
.L__unnamed_38:
	.ascii	"/Users/steve/.cargo/registry/src/index.crates.io-6f17d22bba15001f/serde_cbor-0.11.2/src/write.rs"
	.size	.L__unnamed_38, 96

	.type	.L__unnamed_33,@object
	.section	.rodata..L__unnamed_33,"a",@progbits
	.p2align	2, 0x0
.L__unnamed_33:
	.word	.L__unnamed_38
	.asciz	"`\000\000\000\250\000\000\000\023\000\000"
	.size	.L__unnamed_33, 16

	.type	.L__unnamed_39,@object
	.section	.rodata..L__unnamed_39,"a",@progbits
.L__unnamed_39:
	.ascii	"Message"
	.size	.L__unnamed_39, 7

	.type	.L__unnamed_40,@object
	.section	.rodata..L__unnamed_40,"a",@progbits
.L__unnamed_40:
	.ascii	"Io"
	.size	.L__unnamed_40, 2

	.type	.L__unnamed_41,@object
	.section	.rodata..L__unnamed_41,"a",@progbits
.L__unnamed_41:
	.ascii	"ScratchTooSmall"
	.size	.L__unnamed_41, 15

	.type	.L__unnamed_42,@object
	.section	.rodata..L__unnamed_42,"a",@progbits
.L__unnamed_42:
	.ascii	"EofWhileParsingValue"
	.size	.L__unnamed_42, 20

	.type	.L__unnamed_43,@object
	.section	.rodata..L__unnamed_43,"a",@progbits
.L__unnamed_43:
	.ascii	"EofWhileParsingArray"
	.size	.L__unnamed_43, 20

	.type	.L__unnamed_44,@object
	.section	.rodata..L__unnamed_44,"a",@progbits
.L__unnamed_44:
	.ascii	"EofWhileParsingMap"
	.size	.L__unnamed_44, 18

	.type	.L__unnamed_45,@object
	.section	.rodata.cst16,"aM",@progbits,16
.L__unnamed_45:
	.ascii	"LengthOutOfRange"
	.size	.L__unnamed_45, 16

	.type	.L__unnamed_46,@object
	.section	.rodata..L__unnamed_46,"a",@progbits
.L__unnamed_46:
	.ascii	"InvalidUtf8"
	.size	.L__unnamed_46, 11

	.type	.L__unnamed_47,@object
	.section	.rodata..L__unnamed_47,"a",@progbits
.L__unnamed_47:
	.ascii	"UnassignedCode"
	.size	.L__unnamed_47, 14

	.type	.L__unnamed_48,@object
	.section	.rodata..L__unnamed_48,"a",@progbits
.L__unnamed_48:
	.ascii	"UnexpectedCode"
	.size	.L__unnamed_48, 14

	.type	.L__unnamed_49,@object
	.section	.rodata..L__unnamed_49,"a",@progbits
.L__unnamed_49:
	.ascii	"TrailingData"
	.size	.L__unnamed_49, 12

	.type	.L__unnamed_50,@object
	.section	.rodata..L__unnamed_50,"a",@progbits
.L__unnamed_50:
	.ascii	"ArrayTooShort"
	.size	.L__unnamed_50, 13

	.type	.L__unnamed_51,@object
	.section	.rodata..L__unnamed_51,"a",@progbits
.L__unnamed_51:
	.ascii	"ArrayTooLong"
	.size	.L__unnamed_51, 12

	.type	.L__unnamed_52,@object
	.section	.rodata..L__unnamed_52,"a",@progbits
.L__unnamed_52:
	.ascii	"RecursionLimitExceeded"
	.size	.L__unnamed_52, 22

	.type	.L__unnamed_53,@object
	.section	.rodata..L__unnamed_53,"a",@progbits
.L__unnamed_53:
	.ascii	"WrongEnumFormat"
	.size	.L__unnamed_53, 15

	.type	.L__unnamed_54,@object
	.section	.rodata..L__unnamed_54,"a",@progbits
.L__unnamed_54:
	.ascii	"WrongStructFormat"
	.size	.L__unnamed_54, 17

	.type	.Lswitch.table._ZN65_$LT$serde_cbor..error..ErrorCode$u20$as$u20$core..fmt..Debug$GT$3fmt17h1211a363a8b8344dE,@object
	.section	".rodata..Lswitch.table._ZN65_$LT$serde_cbor..error..ErrorCode$u20$as$u20$core..fmt..Debug$GT$3fmt17h1211a363a8b8344dE","a",@progbits
	.p2align	2, 0x0
.Lswitch.table._ZN65_$LT$serde_cbor..error..ErrorCode$u20$as$u20$core..fmt..Debug$GT$3fmt17h1211a363a8b8344dE:
	.word	7
	.word	2
	.word	15
	.word	20
	.word	20
	.word	18
	.word	16
	.word	11
	.word	14
	.word	14
	.word	12
	.word	13
	.word	12
	.word	22
	.word	15
	.word	17
	.size	.Lswitch.table._ZN65_$LT$serde_cbor..error..ErrorCode$u20$as$u20$core..fmt..Debug$GT$3fmt17h1211a363a8b8344dE, 64

	.type	.Lswitch.table._ZN65_$LT$serde_cbor..error..ErrorCode$u20$as$u20$core..fmt..Debug$GT$3fmt17h1211a363a8b8344dE.14,@object
	.section	".rodata..Lswitch.table._ZN65_$LT$serde_cbor..error..ErrorCode$u20$as$u20$core..fmt..Debug$GT$3fmt17h1211a363a8b8344dE.14","a",@progbits
	.p2align	2, 0x0
.Lswitch.table._ZN65_$LT$serde_cbor..error..ErrorCode$u20$as$u20$core..fmt..Debug$GT$3fmt17h1211a363a8b8344dE.14:
	.word	.L__unnamed_39
	.word	.L__unnamed_40
	.word	.L__unnamed_41
	.word	.L__unnamed_42
	.word	.L__unnamed_43
	.word	.L__unnamed_44
	.word	.L__unnamed_45
	.word	.L__unnamed_46
	.word	.L__unnamed_47
	.word	.L__unnamed_48
	.word	.L__unnamed_49
	.word	.L__unnamed_50
	.word	.L__unnamed_51
	.word	.L__unnamed_52
	.word	.L__unnamed_53
	.word	.L__unnamed_54
	.size	.Lswitch.table._ZN65_$LT$serde_cbor..error..ErrorCode$u20$as$u20$core..fmt..Debug$GT$3fmt17h1211a363a8b8344dE.14, 64

	.section	.rodata..L__unnamed_1,"a",@progbits
.Lsec_end0:
	.section	.rodata..L__unnamed_2,"a",@progbits
.Lsec_end1:
	.section	".text._ZN42_$LT$$RF$T$u20$as$u20$core..fmt..Debug$GT$3fmt17h788ad2a028281ab4E","ax",@progbits
.Lsec_end2:
	.section	".text._ZN4core3ptr28drop_in_place$LT$$RF$u64$GT$17hc31bbbf528f54e36E","ax",@progbits
.Lsec_end3:
	.section	".text._ZN4core3ptr49drop_in_place$LT$serde_cbor..error..ErrorCode$GT$17hcc8da3e06f0ba9a8E","ax",@progbits
.Lsec_end4:
	.section	.text._ZN5alloc7raw_vec11finish_grow17h42db1b982917db10E,"ax",@progbits
.Lsec_end5:
	.section	".text.unlikely._ZN5alloc7raw_vec19RawVec$LT$T$C$A$GT$7reserve21do_reserve_and_handle17h290b997366ea37d2E","ax",@progbits
.Lsec_end6:
	.section	".text._ZN63_$LT$serde_cbor..error..Error$u20$as$u20$core..fmt..Display$GT$3fmt17hce660ec99970d98cE","ax",@progbits
.Lsec_end7:
	.section	".text._ZN61_$LT$serde_cbor..error..Error$u20$as$u20$core..fmt..Debug$GT$3fmt17h12c2230e56ecf554E","ax",@progbits
.Lsec_end8:
	.section	".text._ZN61_$LT$serde_cbor..error..Error$u20$as$u20$serde..de..Error$GT$12invalid_type17hf53cd7c4f9ce739bE","ax",@progbits
.Lsec_end9:
	.section	".text._ZN67_$LT$serde_cbor..error..ErrorCode$u20$as$u20$core..fmt..Display$GT$3fmt17ha8e04a250bf4e0bcE","ax",@progbits
.Lsec_end10:
	.section	.text._ZN10serde_cbor4read9SliceRead3end17h7ec427ae5c32f1a1E,"ax",@progbits
.Lsec_end11:
	.section	".text._ZN70_$LT$serde_cbor..read..SliceRead$u20$as$u20$serde_cbor..read..Read$GT$14read_to_buffer17h6283f7113cbbb660E","ax",@progbits
.Lsec_end12:
	.section	.text._ZN10serde_cbor4read14SliceReadFixed3end17h4ee82b2d43e52b3dE,"ax",@progbits
.Lsec_end13:
	.section	".text._ZN75_$LT$serde_cbor..read..SliceReadFixed$u20$as$u20$serde_cbor..read..Read$GT$14read_to_buffer17ha03e7f2f331189f5E","ax",@progbits
.Lsec_end14:
	.section	".text._ZN75_$LT$serde_cbor..read..SliceReadFixed$u20$as$u20$serde_cbor..read..Read$GT$4read17h39a4de6e901b9634E","ax",@progbits
.Lsec_end15:
	.section	".text._ZN75_$LT$serde_cbor..read..SliceReadFixed$u20$as$u20$serde_cbor..read..Read$GT$11take_buffer17h39e39714f9706363E","ax",@progbits
.Lsec_end16:
	.section	.text._ZN10serde_cbor4read12MutSliceRead3end17h6c28c2e129ae3bb7E,"ax",@progbits
.Lsec_end17:
	.section	".text._ZN73_$LT$serde_cbor..read..MutSliceRead$u20$as$u20$serde_cbor..read..Read$GT$12clear_buffer17hc3af4c005583bca7E","ax",@progbits
.Lsec_end18:
	.section	".text._ZN73_$LT$serde_cbor..read..MutSliceRead$u20$as$u20$serde_cbor..read..Read$GT$14read_to_buffer17h13eb2655de1bc562E","ax",@progbits
.Lsec_end19:
	.section	".text._ZN73_$LT$serde_cbor..read..MutSliceRead$u20$as$u20$serde_cbor..read..Read$GT$11take_buffer17h284296de9c02070dE","ax",@progbits
.Lsec_end20:
	.section	".text._ZN70_$LT$alloc..vec..Vec$LT$u8$GT$$u20$as$u20$serde_cbor..write..Write$GT$9write_all17h57e6e95f276f15f2E","ax",@progbits
.Lsec_end21:
	.section	".text._ZN74_$LT$serde_cbor..write..SliceWrite$u20$as$u20$serde_cbor..write..Write$GT$9write_all17h4baa0c5c86d71cd4E","ax",@progbits
.Lsec_end22:
	.section	".text._ZN65_$LT$serde_cbor..error..ErrorCode$u20$as$u20$core..fmt..Debug$GT$3fmt17h1211a363a8b8344dE","ax",@progbits
.Lsec_end23:
	.section	".note.GNU-stack","",@progbits