	.text
	.attribute	4, 16
	.attribute	5, "rv32i2p1_m2p0_a2p1_c2p0"
	.file	"half.650a6b631d8c6d5b-cgu.0"
	.section	".text._ZN42_$LT$$RF$T$u20$as$u20$core..fmt..Debug$GT$3fmt17hd0b06c7631d34856E","ax",@progbits
	.p2align	1
	.type	_ZN42_$LT$$RF$T$u20$as$u20$core..fmt..Debug$GT$3fmt17hd0b06c7631d34856E,@function
_ZN42_$LT$$RF$T$u20$as$u20$core..fmt..Debug$GT$3fmt17hd0b06c7631d34856E:
.Lfunc_begin0:
	.cfi_sections .debug_frame
	.cfi_startproc
	.file	1 "/Users/steve/.rustup/toolchains/nightly-2024-02-01-aarch64-apple-darwin/lib/rustlib/src/rust/library/core/src/fmt" "mod.rs"
	.loc	1 1853 9 prologue_end
	lw	a2, 28(a1)
.Ltmp0:
	.loc	1 2294 71
	lw	a0, 0(a0)
.Ltmp1:
	.loc	1 1853 9
	andi	a3, a2, 16
.Ltmp2:
	.file	2 "/Users/steve/.rustup/toolchains/nightly-2024-02-01-aarch64-apple-darwin/lib/rustlib/src/rust/library/core/src/fmt" "num.rs"
	.loc	2 190 20
	bnez	a3, .LBB0_3
.Ltmp3:
	.loc	1 1857 9
	andi	a2, a2, 32
.Ltmp4:
	.loc	2 192 27
	bnez	a2, .LBB0_4
.Ltmp5:
	.loc	2 195 21
	tail	_ZN4core3fmt3num3imp54_$LT$impl$u20$core..fmt..Display$u20$for$u20$usize$GT$3fmt17h234c5c82398ec9b3E
.Ltmp6:
.LBB0_3:
	.loc	2 191 21
	tail	_ZN4core3fmt3num55_$LT$impl$u20$core..fmt..LowerHex$u20$for$u20$usize$GT$3fmt17h78af07a9c256b8c4E
.Ltmp7:
.LBB0_4:
	.loc	2 193 21
	tail	_ZN4core3fmt3num55_$LT$impl$u20$core..fmt..UpperHex$u20$for$u20$usize$GT$3fmt17ha080b8d440aad8ccE
.Ltmp8:
.Lfunc_end0:
	.size	_ZN42_$LT$$RF$T$u20$as$u20$core..fmt..Debug$GT$3fmt17hd0b06c7631d34856E, .Lfunc_end0-_ZN42_$LT$$RF$T$u20$as$u20$core..fmt..Debug$GT$3fmt17hd0b06c7631d34856E
	.cfi_endproc

	.section	".text._ZN4core3ptr30drop_in_place$LT$$RF$usize$GT$17hddb05b0085174bdfE","ax",@progbits
	.p2align	1
	.type	_ZN4core3ptr30drop_in_place$LT$$RF$usize$GT$17hddb05b0085174bdfE,@function
_ZN4core3ptr30drop_in_place$LT$$RF$usize$GT$17hddb05b0085174bdfE:
.Lfunc_begin1:
	.cfi_startproc
	.file	3 "/Users/steve/.rustup/toolchains/nightly-2024-02-01-aarch64-apple-darwin/lib/rustlib/src/rust/library/core/src/ptr" "mod.rs"
	.loc	3 507 1 prologue_end
	ret
.Ltmp9:
.Lfunc_end1:
	.size	_ZN4core3ptr30drop_in_place$LT$$RF$usize$GT$17hddb05b0085174bdfE, .Lfunc_end1-_ZN4core3ptr30drop_in_place$LT$$RF$usize$GT$17hddb05b0085174bdfE
	.cfi_endproc

	.section	.text.unlikely._ZN4core9panicking13assert_failed17h119c65bc1ce658e9E,"ax",@progbits
	.p2align	1
	.type	_ZN4core9panicking13assert_failed17h119c65bc1ce658e9E,@function
_ZN4core9panicking13assert_failed17h119c65bc1ce658e9E:
.Lfunc_begin2:
	.file	4 "/Users/steve/.rustup/toolchains/nightly-2024-02-01-aarch64-apple-darwin/lib/rustlib/src/rust/library/core/src" "panicking.rs"
	.loc	4 287 0
	.cfi_startproc
	addi	sp, sp, -16
	.cfi_def_cfa_offset 16
	mv	a6, a3
	mv	a5, a2
.Ltmp10:
	sw	a0, 8(sp)
	sw	a1, 12(sp)
.Ltmp11:
	.loc	4 297 5 prologue_end
	lui	a0, %hi(.L__unnamed_1)
	addi	a2, a0, %lo(.L__unnamed_1)
	addi	a1, sp, 8
	addi	a3, sp, 12
	li	a0, 0
	mv	a4, a2
	call	_ZN4core9panicking19assert_failed_inner17h93d496525a452f68E
.Ltmp12:
.Lfunc_end2:
	.size	_ZN4core9panicking13assert_failed17h119c65bc1ce658e9E, .Lfunc_end2-_ZN4core9panicking13assert_failed17h119c65bc1ce658e9E
	.cfi_endproc

	.section	.text._ZN4half6bfloat7convert11bf16_to_f6417h0496e446fdc94ba6E,"ax",@progbits
	.globl	_ZN4half6bfloat7convert11bf16_to_f6417h0496e446fdc94ba6E
	.p2align	1
	.type	_ZN4half6bfloat7convert11bf16_to_f6417h0496e446fdc94ba6E,@function
_ZN4half6bfloat7convert11bf16_to_f6417h0496e446fdc94ba6E:
.Lfunc_begin3:
	.file	5 "/Users/steve/.cargo/registry/src/index.crates.io-6f17d22bba15001f/half-1.8.3" "src/bfloat/convert.rs"
	.loc	5 95 0
	.cfi_startproc
	mv	a1, a0
.Ltmp13:
	lui	a2, 8
	addi	a0, a2, -128
.Ltmp14:
	.loc	5 97 8 prologue_end
	addi	a3, a0, 127
	and	a3, a3, a1
	beqz	a3, .LBB3_4
.Ltmp15:
	.loc	5 101 21
	and	a2, a2, a1
.Ltmp16:
	.loc	5 102 20
	and	a3, a1, a0
.Ltmp17:
	.loc	5 103 20
	andi	a1, a1, 127
.Ltmp18:
	.loc	5 0 0 is_stmt 0
	slli	a2, a2, 16
	.loc	5 106 8 is_stmt 1
	bne	a3, a0, .LBB3_5
.Ltmp19:
	.loc	5 0 8 is_stmt 0
	li	a0, 0
	.loc	5 108 12 is_stmt 1
	beqz	a1, .LBB3_7
.Ltmp20:
	.loc	5 112 82
	slli	a1, a1, 13
	lui	a3, 524160
.Ltmp21:
	.loc	5 112 35 is_stmt 0
	or	a1, a1, a3
	or	a1, a1, a2
.Ltmp22:
	.loc	5 135 2 is_stmt 1
	ret
.LBB3_4:
.Ltmp23:
	.loc	5 0 2 is_stmt 0
	li	a0, 0
	.loc	5 98 31 is_stmt 1
	slli	a1, a1, 16
.Ltmp24:
	.loc	5 135 2
	ret
.LBB3_5:
.Ltmp25:
	.loc	5 122 8
	beqz	a3, .LBB3_8
.Ltmp26:
	.loc	5 0 8 is_stmt 0
	li	a0, 0
	srli	a3, a3, 7
.Ltmp27:
	.loc	5 132 16 is_stmt 1
	addi	a3, a3, 896
.Ltmp28:
	.loc	5 132 15 is_stmt 0
	slli	a3, a3, 20
.Ltmp29:
	.loc	5 133 15 is_stmt 1
	slli	a1, a1, 13
.Ltmp30:
	.loc	5 134 20
	or	a1, a1, a2
.Ltmp31:
	or	a1, a1, a3
.Ltmp32:
	.loc	5 135 2
	ret
.Ltmp33:
.LBB3_7:
	.loc	5 0 2 is_stmt 0
	lui	a1, 524032
.Ltmp34:
	.loc	5 109 35 is_stmt 1
	or	a1, a1, a2
.Ltmp35:
	.loc	5 135 2
	ret
.Ltmp36:
.LBB3_8:
	.loc	5 0 2 is_stmt 0
	beqz	a1, .LBB3_10
.Ltmp37:
	.file	6 "/Users/steve/.rustup/toolchains/nightly-2024-02-01-aarch64-apple-darwin/lib/rustlib/src/rust/library/core/src/num" "mod.rs"
	.loc	6 1108 5 is_stmt 1
	srli	a0, a1, 1
	or	a0, a0, a1
	srli	a3, a0, 2
.Ltmp38:
	or	a0, a0, a3
	srli	a3, a0, 4
	or	a0, a0, a3
	not	a0, a0
	srli	a3, a0, 1
	lui	a4, 5
	addi	a4, a4, 1365
	and	a3, a3, a4
	sub	a0, a0, a3
	lui	a3, 3
	addi	a3, a3, 819
	and	a4, a0, a3
	srli	a0, a0, 2
	and	a0, a0, a3
	add	a0, a0, a4
	srli	a3, a0, 4
	add	a0, a0, a3
	andi	a3, a0, 15
	slli	a0, a0, 20
	srli	a0, a0, 28
	add	a3, a3, a0
	j	.LBB3_11
.Ltmp39:
.LBB3_10:
	.loc	6 0 5 is_stmt 0
	li	a3, 16
.Ltmp40:
.LBB3_11:
	li	a0, 0
	li	a4, 905
.Ltmp41:
	.loc	5 127 20 is_stmt 1
	sub	a4, a4, a3
	.loc	5 127 19 is_stmt 0
	slli	a4, a4, 20
.Ltmp42:
	.loc	5 128 19 is_stmt 1
	addi	a3, a3, 5
.Ltmp43:
	sll	a1, a1, a3
	slti	a3, a3, 0
	addi	a3, a3, -1
	and	a1, a1, a3
	slli	a1, a1, 12
	srli	a1, a1, 12
.Ltmp44:
	.loc	5 129 31
	or	a2, a2, a4
	or	a1, a1, a2
.Ltmp45:
	.loc	5 135 2
	ret
.Ltmp46:
.Lfunc_end3:
	.size	_ZN4half6bfloat7convert11bf16_to_f6417h0496e446fdc94ba6E, .Lfunc_end3-_ZN4half6bfloat7convert11bf16_to_f6417h0496e446fdc94ba6E
	.cfi_endproc
	.file	7 "/Users/steve/.rustup/toolchains/nightly-2024-02-01-aarch64-apple-darwin/lib/rustlib/src/rust/library/core/src/num" "uint_macros.rs"

	.section	".text._ZN65_$LT$half..bfloat..bf16$u20$as$u20$core..str..traits..FromStr$GT$8from_str17h1cab31c8db233adaE","ax",@progbits
	.globl	_ZN65_$LT$half..bfloat..bf16$u20$as$u20$core..str..traits..FromStr$GT$8from_str17h1cab31c8db233adaE
	.p2align	1
	.type	_ZN65_$LT$half..bfloat..bf16$u20$as$u20$core..str..traits..FromStr$GT$8from_str17h1cab31c8db233adaE,@function
_ZN65_$LT$half..bfloat..bf16$u20$as$u20$core..str..traits..FromStr$GT$8from_str17h1cab31c8db233adaE:
.Lfunc_begin4:
	.file	8 "/Users/steve/.cargo/registry/src/index.crates.io-6f17d22bba15001f/half-1.8.3" "src/bfloat.rs"
	.loc	8 699 0
	.cfi_startproc
	addi	sp, sp, -16
	.cfi_def_cfa_offset 16
	sw	ra, 12(sp)
	.cfi_offset ra, -4
	mv	a2, a1
.Ltmp47:
	mv	a1, a0
.Ltmp48:
	.loc	8 700 9 prologue_end
	addi	a0, sp, 4
.Ltmp49:
	call	_ZN4core3num7dec2flt60_$LT$impl$u20$core..str..traits..FromStr$u20$for$u20$f32$GT$8from_str17h34ea7e9a2cf5dd44E
.Ltmp50:
	.file	9 "/Users/steve/.rustup/toolchains/nightly-2024-02-01-aarch64-apple-darwin/lib/rustlib/src/rust/library/core/src" "result.rs"
	.loc	9 745 15
	lbu	a0, 4(sp)
	.loc	9 745 9 is_stmt 0
	beqz	a0, .LBB4_2
	.loc	9 747 17 is_stmt 1
	lbu	a0, 5(sp)
	.loc	9 749 6
	slli	a0, a0, 8
	li	a1, 1
	or	a0, a0, a1
.Ltmp51:
	.loc	8 701 6
	lw	ra, 12(sp)
	.loc	8 701 6 epilogue_begin is_stmt 0
	addi	sp, sp, 16
	ret
.LBB4_2:
.Ltmp52:
	.loc	9 746 16 is_stmt 1
	lw	a0, 8(sp)
.Ltmp53:
	.loc	5 6 8
	slli	a1, a0, 1
	srli	a1, a1, 1
	lui	a2, 522240
	bgeu	a2, a1, .LBB4_4
.Ltmp54:
	.loc	5 8 17
	srli	a0, a0, 16
.Ltmp55:
	.loc	5 8 16 is_stmt 0
	ori	a0, a0, 64
	j	.LBB4_5
.LBB4_4:
.Ltmp56:
	.loc	5 13 8 is_stmt 1
	srli	a1, a0, 15
	lui	a2, 24
	addi	a2, a2, -1
	and	a2, a2, a0
	snez	a2, a2
	.loc	5 0 0 is_stmt 0
	and	a1, a1, a2
	srli	a0, a0, 16
.Ltmp57:
	.loc	5 13 8
	add	a0, a0, a1
.Ltmp58:
	.loc	9 749 6 is_stmt 1
	slli	a0, a0, 16
	srli	a0, a0, 16
.Ltmp59:
.LBB4_5:
	slli	a0, a0, 16
	or	a0, a0, zero
.Ltmp60:
	.loc	8 701 6
	lw	ra, 12(sp)
	.loc	8 701 6 epilogue_begin is_stmt 0
	addi	sp, sp, 16
	ret
.Ltmp61:
.Lfunc_end4:
	.size	_ZN65_$LT$half..bfloat..bf16$u20$as$u20$core..str..traits..FromStr$GT$8from_str17h1cab31c8db233adaE, .Lfunc_end4-_ZN65_$LT$half..bfloat..bf16$u20$as$u20$core..str..traits..FromStr$GT$8from_str17h1cab31c8db233adaE
	.cfi_endproc
	.file	10 "/Users/steve/.rustup/toolchains/nightly-2024-02-01-aarch64-apple-darwin/lib/rustlib/src/rust/library/core/src/ops" "function.rs"

	.section	".text._ZN55_$LT$half..bfloat..bf16$u20$as$u20$core..fmt..Debug$GT$3fmt17h1dba0cc716fd869fE","ax",@progbits
	.globl	_ZN55_$LT$half..bfloat..bf16$u20$as$u20$core..fmt..Debug$GT$3fmt17h1dba0cc716fd869fE
	.p2align	1
	.type	_ZN55_$LT$half..bfloat..bf16$u20$as$u20$core..fmt..Debug$GT$3fmt17h1dba0cc716fd869fE,@function
_ZN55_$LT$half..bfloat..bf16$u20$as$u20$core..fmt..Debug$GT$3fmt17h1dba0cc716fd869fE:
.Lfunc_begin5:
	.loc	8 705 0 is_stmt 1
	.cfi_startproc
	addi	sp, sp, -48
	.cfi_def_cfa_offset 48
.Ltmp62:
	.loc	8 706 27 prologue_end
	sw	ra, 44(sp)
	.cfi_offset ra, -4
	lhu	a2, 0(a0)
	mv	a0, a1
.Ltmp63:
	.loc	5 88 8
	slli	a1, a2, 17
	srli	a1, a1, 17
	lui	a3, 8
	addi	a3, a3, -128
	sltu	a1, a3, a1
.Ltmp64:
	.file	11 "/Users/steve/.rustup/toolchains/nightly-2024-02-01-aarch64-apple-darwin/lib/rustlib/src/rust/library/core/src/num" "f32.rs"
	.loc	11 1230 22
	slli	a1, a1, 22
	slli	a2, a2, 16
.Ltmp65:
	or	a1, a1, a2
	sw	a1, 40(sp)
	addi	a1, sp, 40
.Ltmp66:
	.loc	8 706 9
	sw	a1, 32(sp)
	lui	a1, %hi(_ZN4core3fmt5float50_$LT$impl$u20$core..fmt..Debug$u20$for$u20$f32$GT$3fmt17hb620954518339fc5E)
	addi	a1, a1, %lo(_ZN4core3fmt5float50_$LT$impl$u20$core..fmt..Debug$u20$for$u20$f32$GT$3fmt17hb620954518339fc5E)
	sw	a1, 36(sp)
.Ltmp67:
	.loc	1 335 9
	lui	a1, %hi(.L__unnamed_2)
	addi	a1, a1, %lo(.L__unnamed_2)
.Ltmp68:
	sw	a1, 8(sp)
	li	a1, 1
.Ltmp69:
	sw	a1, 12(sp)
	sw	zero, 24(sp)
	addi	a2, sp, 32
	sw	a2, 16(sp)
	sw	a1, 20(sp)
.Ltmp70:
	.loc	8 706 9
	addi	a1, sp, 8
	call	_ZN4core3fmt9Formatter9write_fmt17hf1a4b1e0be961690E
.Ltmp71:
	.loc	8 707 6
	lw	ra, 44(sp)
	.loc	8 707 6 epilogue_begin is_stmt 0
	addi	sp, sp, 48
	ret
.Ltmp72:
.Lfunc_end5:
	.size	_ZN55_$LT$half..bfloat..bf16$u20$as$u20$core..fmt..Debug$GT$3fmt17h1dba0cc716fd869fE, .Lfunc_end5-_ZN55_$LT$half..bfloat..bf16$u20$as$u20$core..fmt..Debug$GT$3fmt17h1dba0cc716fd869fE
	.cfi_endproc

	.section	".text._ZN57_$LT$half..bfloat..bf16$u20$as$u20$core..fmt..Display$GT$3fmt17h885e2c90d4a4866dE","ax",@progbits
	.globl	_ZN57_$LT$half..bfloat..bf16$u20$as$u20$core..fmt..Display$GT$3fmt17h885e2c90d4a4866dE
	.p2align	1
	.type	_ZN57_$LT$half..bfloat..bf16$u20$as$u20$core..fmt..Display$GT$3fmt17h885e2c90d4a4866dE,@function
_ZN57_$LT$half..bfloat..bf16$u20$as$u20$core..fmt..Display$GT$3fmt17h885e2c90d4a4866dE:
.Lfunc_begin6:
	.loc	8 711 0 is_stmt 1
	.cfi_startproc
	addi	sp, sp, -48
	.cfi_def_cfa_offset 48
.Ltmp73:
	.loc	8 712 25 prologue_end
	sw	ra, 44(sp)
	.cfi_offset ra, -4
	lhu	a2, 0(a0)
	mv	a0, a1
.Ltmp74:
	.loc	5 88 8
	slli	a1, a2, 17
	srli	a1, a1, 17
	lui	a3, 8
	addi	a3, a3, -128
	sltu	a1, a3, a1
.Ltmp75:
	.loc	11 1230 22
	slli	a1, a1, 22
	slli	a2, a2, 16
.Ltmp76:
	or	a1, a1, a2
	sw	a1, 40(sp)
	addi	a1, sp, 40
.Ltmp77:
	.loc	8 712 9
	sw	a1, 32(sp)
	lui	a1, %hi(_ZN4core3fmt5float52_$LT$impl$u20$core..fmt..Display$u20$for$u20$f32$GT$3fmt17h312c0d157667aab2E)
	addi	a1, a1, %lo(_ZN4core3fmt5float52_$LT$impl$u20$core..fmt..Display$u20$for$u20$f32$GT$3fmt17h312c0d157667aab2E)
	sw	a1, 36(sp)
.Ltmp78:
	.loc	1 335 9
	lui	a1, %hi(.L__unnamed_2)
	addi	a1, a1, %lo(.L__unnamed_2)
.Ltmp79:
	sw	a1, 8(sp)
	li	a1, 1
.Ltmp80:
	sw	a1, 12(sp)
	sw	zero, 24(sp)
	addi	a2, sp, 32
	sw	a2, 16(sp)
	sw	a1, 20(sp)
.Ltmp81:
	.loc	8 712 9
	addi	a1, sp, 8
	call	_ZN4core3fmt9Formatter9write_fmt17hf1a4b1e0be961690E
.Ltmp82:
	.loc	8 713 6
	lw	ra, 44(sp)
	.loc	8 713 6 epilogue_begin is_stmt 0
	addi	sp, sp, 48
	ret
.Ltmp83:
.Lfunc_end6:
	.size	_ZN57_$LT$half..bfloat..bf16$u20$as$u20$core..fmt..Display$GT$3fmt17h885e2c90d4a4866dE, .Lfunc_end6-_ZN57_$LT$half..bfloat..bf16$u20$as$u20$core..fmt..Display$GT$3fmt17h885e2c90d4a4866dE
	.cfi_endproc

	.section	".text._ZN58_$LT$half..bfloat..bf16$u20$as$u20$core..fmt..LowerExp$GT$3fmt17hcc11ec377a9d493dE","ax",@progbits
	.globl	_ZN58_$LT$half..bfloat..bf16$u20$as$u20$core..fmt..LowerExp$GT$3fmt17hcc11ec377a9d493dE
	.p2align	1
	.type	_ZN58_$LT$half..bfloat..bf16$u20$as$u20$core..fmt..LowerExp$GT$3fmt17hcc11ec377a9d493dE,@function
_ZN58_$LT$half..bfloat..bf16$u20$as$u20$core..fmt..LowerExp$GT$3fmt17hcc11ec377a9d493dE:
.Lfunc_begin7:
	.loc	8 717 0 is_stmt 1
	.cfi_startproc
	addi	sp, sp, -48
	.cfi_def_cfa_offset 48
.Ltmp84:
	.loc	8 718 27 prologue_end
	sw	ra, 44(sp)
	.cfi_offset ra, -4
	lhu	a2, 0(a0)
	mv	a0, a1
.Ltmp85:
	.loc	5 88 8
	slli	a1, a2, 17
	srli	a1, a1, 17
	lui	a3, 8
	addi	a3, a3, -128
	sltu	a1, a3, a1
.Ltmp86:
	.loc	11 1230 22
	slli	a1, a1, 22
	slli	a2, a2, 16
.Ltmp87:
	or	a1, a1, a2
	sw	a1, 40(sp)
	addi	a1, sp, 40
.Ltmp88:
	.loc	8 718 9
	sw	a1, 32(sp)
	lui	a1, %hi(_ZN4core3fmt5float53_$LT$impl$u20$core..fmt..LowerExp$u20$for$u20$f32$GT$3fmt17hd266b588f3195c99E)
	addi	a1, a1, %lo(_ZN4core3fmt5float53_$LT$impl$u20$core..fmt..LowerExp$u20$for$u20$f32$GT$3fmt17hd266b588f3195c99E)
	sw	a1, 36(sp)
.Ltmp89:
	.loc	1 335 9
	lui	a1, %hi(.L__unnamed_2)
	addi	a1, a1, %lo(.L__unnamed_2)
.Ltmp90:
	sw	a1, 8(sp)
	li	a1, 1
.Ltmp91:
	sw	a1, 12(sp)
	sw	zero, 24(sp)
	addi	a2, sp, 32
	sw	a2, 16(sp)
	sw	a1, 20(sp)
.Ltmp92:
	.loc	8 718 9
	addi	a1, sp, 8
	call	_ZN4core3fmt9Formatter9write_fmt17hf1a4b1e0be961690E
.Ltmp93:
	.loc	8 719 6
	lw	ra, 44(sp)
	.loc	8 719 6 epilogue_begin is_stmt 0
	addi	sp, sp, 48
	ret
.Ltmp94:
.Lfunc_end7:
	.size	_ZN58_$LT$half..bfloat..bf16$u20$as$u20$core..fmt..LowerExp$GT$3fmt17hcc11ec377a9d493dE, .Lfunc_end7-_ZN58_$LT$half..bfloat..bf16$u20$as$u20$core..fmt..LowerExp$GT$3fmt17hcc11ec377a9d493dE
	.cfi_endproc

	.section	".text._ZN58_$LT$half..bfloat..bf16$u20$as$u20$core..fmt..UpperExp$GT$3fmt17hc9e7f05b34f92b06E","ax",@progbits
	.globl	_ZN58_$LT$half..bfloat..bf16$u20$as$u20$core..fmt..UpperExp$GT$3fmt17hc9e7f05b34f92b06E
	.p2align	1
	.type	_ZN58_$LT$half..bfloat..bf16$u20$as$u20$core..fmt..UpperExp$GT$3fmt17hc9e7f05b34f92b06E,@function
_ZN58_$LT$half..bfloat..bf16$u20$as$u20$core..fmt..UpperExp$GT$3fmt17hc9e7f05b34f92b06E:
.Lfunc_begin8:
	.loc	8 723 0 is_stmt 1
	.cfi_startproc
	addi	sp, sp, -48
	.cfi_def_cfa_offset 48
.Ltmp95:
	.loc	8 724 27 prologue_end
	sw	ra, 44(sp)
	.cfi_offset ra, -4
	lhu	a2, 0(a0)
	mv	a0, a1
.Ltmp96:
	.loc	5 88 8
	slli	a1, a2, 17
	srli	a1, a1, 17
	lui	a3, 8
	addi	a3, a3, -128
	sltu	a1, a3, a1
.Ltmp97:
	.loc	11 1230 22
	slli	a1, a1, 22
	slli	a2, a2, 16
.Ltmp98:
	or	a1, a1, a2
	sw	a1, 40(sp)
	addi	a1, sp, 40
.Ltmp99:
	.loc	8 724 9
	sw	a1, 32(sp)
	lui	a1, %hi(_ZN4core3fmt5float53_$LT$impl$u20$core..fmt..UpperExp$u20$for$u20$f32$GT$3fmt17h3f81283a2dff05a6E)
	addi	a1, a1, %lo(_ZN4core3fmt5float53_$LT$impl$u20$core..fmt..UpperExp$u20$for$u20$f32$GT$3fmt17h3f81283a2dff05a6E)
	sw	a1, 36(sp)
.Ltmp100:
	.loc	1 335 9
	lui	a1, %hi(.L__unnamed_2)
	addi	a1, a1, %lo(.L__unnamed_2)
.Ltmp101:
	sw	a1, 8(sp)
	li	a1, 1
.Ltmp102:
	sw	a1, 12(sp)
	sw	zero, 24(sp)
	addi	a2, sp, 32
	sw	a2, 16(sp)
	sw	a1, 20(sp)
.Ltmp103:
	.loc	8 724 9
	addi	a1, sp, 8
	call	_ZN4core3fmt9Formatter9write_fmt17hf1a4b1e0be961690E
.Ltmp104:
	.loc	8 725 6
	lw	ra, 44(sp)
	.loc	8 725 6 epilogue_begin is_stmt 0
	addi	sp, sp, 48
	ret
.Ltmp105:
.Lfunc_end8:
	.size	_ZN58_$LT$half..bfloat..bf16$u20$as$u20$core..fmt..UpperExp$GT$3fmt17hc9e7f05b34f92b06E, .Lfunc_end8-_ZN58_$LT$half..bfloat..bf16$u20$as$u20$core..fmt..UpperExp$GT$3fmt17hc9e7f05b34f92b06E
	.cfi_endproc

	.section	".text._ZN56_$LT$half..bfloat..bf16$u20$as$u20$core..fmt..Binary$GT$3fmt17h8c0004d3303ef8c1E","ax",@progbits
	.globl	_ZN56_$LT$half..bfloat..bf16$u20$as$u20$core..fmt..Binary$GT$3fmt17h8c0004d3303ef8c1E
	.p2align	1
	.type	_ZN56_$LT$half..bfloat..bf16$u20$as$u20$core..fmt..Binary$GT$3fmt17h8c0004d3303ef8c1E,@function
_ZN56_$LT$half..bfloat..bf16$u20$as$u20$core..fmt..Binary$GT$3fmt17h8c0004d3303ef8c1E:
.Lfunc_begin9:
	.loc	8 729 0 is_stmt 1
	.cfi_startproc
	addi	sp, sp, -48
	.cfi_def_cfa_offset 48
	sw	ra, 44(sp)
	.cfi_offset ra, -4
	mv	a2, a1
.Ltmp106:
	.loc	8 730 9 prologue_end
	sw	a0, 36(sp)
	lui	a0, %hi(_ZN4core3fmt3num51_$LT$impl$u20$core..fmt..Binary$u20$for$u20$u16$GT$3fmt17he36b5d5b3f3e077fE)
.Ltmp107:
	addi	a0, a0, %lo(_ZN4core3fmt3num51_$LT$impl$u20$core..fmt..Binary$u20$for$u20$u16$GT$3fmt17he36b5d5b3f3e077fE)
	sw	a0, 40(sp)
.Ltmp108:
	.loc	1 335 9
	lui	a0, %hi(.L__unnamed_2)
	addi	a0, a0, %lo(.L__unnamed_2)
.Ltmp109:
	sw	a0, 12(sp)
	li	a0, 1
.Ltmp110:
	sw	a0, 16(sp)
	sw	zero, 28(sp)
	addi	a1, sp, 36
	sw	a1, 20(sp)
	sw	a0, 24(sp)
.Ltmp111:
	.loc	8 730 9
	addi	a1, sp, 12
	mv	a0, a2
.Ltmp112:
	call	_ZN4core3fmt9Formatter9write_fmt17hf1a4b1e0be961690E
.Ltmp113:
	.loc	8 731 6
	lw	ra, 44(sp)
	.loc	8 731 6 epilogue_begin is_stmt 0
	addi	sp, sp, 48
	ret
.Ltmp114:
.Lfunc_end9:
	.size	_ZN56_$LT$half..bfloat..bf16$u20$as$u20$core..fmt..Binary$GT$3fmt17h8c0004d3303ef8c1E, .Lfunc_end9-_ZN56_$LT$half..bfloat..bf16$u20$as$u20$core..fmt..Binary$GT$3fmt17h8c0004d3303ef8c1E
	.cfi_endproc

	.section	".text._ZN55_$LT$half..bfloat..bf16$u20$as$u20$core..fmt..Octal$GT$3fmt17h3b88b285971e85a4E","ax",@progbits
	.globl	_ZN55_$LT$half..bfloat..bf16$u20$as$u20$core..fmt..Octal$GT$3fmt17h3b88b285971e85a4E
	.p2align	1
	.type	_ZN55_$LT$half..bfloat..bf16$u20$as$u20$core..fmt..Octal$GT$3fmt17h3b88b285971e85a4E,@function
_ZN55_$LT$half..bfloat..bf16$u20$as$u20$core..fmt..Octal$GT$3fmt17h3b88b285971e85a4E:
.Lfunc_begin10:
	.loc	8 735 0 is_stmt 1
	.cfi_startproc
	addi	sp, sp, -48
	.cfi_def_cfa_offset 48
	sw	ra, 44(sp)
	.cfi_offset ra, -4
	mv	a2, a1
.Ltmp115:
	.loc	8 736 9 prologue_end
	sw	a0, 36(sp)
	lui	a0, %hi(_ZN4core3fmt3num50_$LT$impl$u20$core..fmt..Octal$u20$for$u20$u16$GT$3fmt17hbce82f1cc3e5d6bfE)
.Ltmp116:
	addi	a0, a0, %lo(_ZN4core3fmt3num50_$LT$impl$u20$core..fmt..Octal$u20$for$u20$u16$GT$3fmt17hbce82f1cc3e5d6bfE)
	sw	a0, 40(sp)
.Ltmp117:
	.loc	1 335 9
	lui	a0, %hi(.L__unnamed_2)
	addi	a0, a0, %lo(.L__unnamed_2)
.Ltmp118:
	sw	a0, 12(sp)
	li	a0, 1
.Ltmp119:
	sw	a0, 16(sp)
	sw	zero, 28(sp)
	addi	a1, sp, 36
	sw	a1, 20(sp)
	sw	a0, 24(sp)
.Ltmp120:
	.loc	8 736 9
	addi	a1, sp, 12
	mv	a0, a2
.Ltmp121:
	call	_ZN4core3fmt9Formatter9write_fmt17hf1a4b1e0be961690E
.Ltmp122:
	.loc	8 737 6
	lw	ra, 44(sp)
	.loc	8 737 6 epilogue_begin is_stmt 0
	addi	sp, sp, 48
	ret
.Ltmp123:
.Lfunc_end10:
	.size	_ZN55_$LT$half..bfloat..bf16$u20$as$u20$core..fmt..Octal$GT$3fmt17h3b88b285971e85a4E, .Lfunc_end10-_ZN55_$LT$half..bfloat..bf16$u20$as$u20$core..fmt..Octal$GT$3fmt17h3b88b285971e85a4E
	.cfi_endproc

	.section	".text._ZN58_$LT$half..bfloat..bf16$u20$as$u20$core..fmt..LowerHex$GT$3fmt17h1353d0bc8293732bE","ax",@progbits
	.globl	_ZN58_$LT$half..bfloat..bf16$u20$as$u20$core..fmt..LowerHex$GT$3fmt17h1353d0bc8293732bE
	.p2align	1
	.type	_ZN58_$LT$half..bfloat..bf16$u20$as$u20$core..fmt..LowerHex$GT$3fmt17h1353d0bc8293732bE,@function
_ZN58_$LT$half..bfloat..bf16$u20$as$u20$core..fmt..LowerHex$GT$3fmt17h1353d0bc8293732bE:
.Lfunc_begin11:
	.loc	8 741 0 is_stmt 1
	.cfi_startproc
	addi	sp, sp, -48
	.cfi_def_cfa_offset 48
	sw	ra, 44(sp)
	.cfi_offset ra, -4
	mv	a2, a1
.Ltmp124:
	.loc	8 742 9 prologue_end
	sw	a0, 36(sp)
	lui	a0, %hi(_ZN4core3fmt3num53_$LT$impl$u20$core..fmt..LowerHex$u20$for$u20$u16$GT$3fmt17h262bc756144a79b4E)
.Ltmp125:
	addi	a0, a0, %lo(_ZN4core3fmt3num53_$LT$impl$u20$core..fmt..LowerHex$u20$for$u20$u16$GT$3fmt17h262bc756144a79b4E)
	sw	a0, 40(sp)
.Ltmp126:
	.loc	1 335 9
	lui	a0, %hi(.L__unnamed_2)
	addi	a0, a0, %lo(.L__unnamed_2)
.Ltmp127:
	sw	a0, 12(sp)
	li	a0, 1
.Ltmp128:
	sw	a0, 16(sp)
	sw	zero, 28(sp)
	addi	a1, sp, 36
	sw	a1, 20(sp)
	sw	a0, 24(sp)
.Ltmp129:
	.loc	8 742 9
	addi	a1, sp, 12
	mv	a0, a2
.Ltmp130:
	call	_ZN4core3fmt9Formatter9write_fmt17hf1a4b1e0be961690E
.Ltmp131:
	.loc	8 743 6
	lw	ra, 44(sp)
	.loc	8 743 6 epilogue_begin is_stmt 0
	addi	sp, sp, 48
	ret
.Ltmp132:
.Lfunc_end11:
	.size	_ZN58_$LT$half..bfloat..bf16$u20$as$u20$core..fmt..LowerHex$GT$3fmt17h1353d0bc8293732bE, .Lfunc_end11-_ZN58_$LT$half..bfloat..bf16$u20$as$u20$core..fmt..LowerHex$GT$3fmt17h1353d0bc8293732bE
	.cfi_endproc

	.section	".text._ZN58_$LT$half..bfloat..bf16$u20$as$u20$core..fmt..UpperHex$GT$3fmt17he950e2ed2e2c27c9E","ax",@progbits
	.globl	_ZN58_$LT$half..bfloat..bf16$u20$as$u20$core..fmt..UpperHex$GT$3fmt17he950e2ed2e2c27c9E
	.p2align	1
	.type	_ZN58_$LT$half..bfloat..bf16$u20$as$u20$core..fmt..UpperHex$GT$3fmt17he950e2ed2e2c27c9E,@function
_ZN58_$LT$half..bfloat..bf16$u20$as$u20$core..fmt..UpperHex$GT$3fmt17he950e2ed2e2c27c9E:
.Lfunc_begin12:
	.loc	8 747 0 is_stmt 1
	.cfi_startproc
	addi	sp, sp, -48
	.cfi_def_cfa_offset 48
	sw	ra, 44(sp)
	.cfi_offset ra, -4
	mv	a2, a1
.Ltmp133:
	.loc	8 748 9 prologue_end
	sw	a0, 36(sp)
	lui	a0, %hi(_ZN4core3fmt3num53_$LT$impl$u20$core..fmt..UpperHex$u20$for$u20$u16$GT$3fmt17h2b07dc8f7e66ec5dE)
.Ltmp134:
	addi	a0, a0, %lo(_ZN4core3fmt3num53_$LT$impl$u20$core..fmt..UpperHex$u20$for$u20$u16$GT$3fmt17h2b07dc8f7e66ec5dE)
	sw	a0, 40(sp)
.Ltmp135:
	.loc	1 335 9
	lui	a0, %hi(.L__unnamed_2)
	addi	a0, a0, %lo(.L__unnamed_2)
.Ltmp136:
	sw	a0, 12(sp)
	li	a0, 1
.Ltmp137:
	sw	a0, 16(sp)
	sw	zero, 28(sp)
	addi	a1, sp, 36
	sw	a1, 20(sp)
	sw	a0, 24(sp)
.Ltmp138:
	.loc	8 748 9
	addi	a1, sp, 12
	mv	a0, a2
.Ltmp139:
	call	_ZN4core3fmt9Formatter9write_fmt17hf1a4b1e0be961690E
.Ltmp140:
	.loc	8 749 6
	lw	ra, 44(sp)
	.loc	8 749 6 epilogue_begin is_stmt 0
	addi	sp, sp, 48
	ret
.Ltmp141:
.Lfunc_end12:
	.size	_ZN58_$LT$half..bfloat..bf16$u20$as$u20$core..fmt..UpperHex$GT$3fmt17he950e2ed2e2c27c9E, .Lfunc_end12-_ZN58_$LT$half..bfloat..bf16$u20$as$u20$core..fmt..UpperHex$GT$3fmt17he950e2ed2e2c27c9E
	.cfi_endproc

	.section	".text._ZN60_$LT$half..bfloat..bf16$u20$as$u20$core..ops..arith..Add$GT$3add17h2847113dd84c0663E","ax",@progbits
	.globl	_ZN60_$LT$half..bfloat..bf16$u20$as$u20$core..ops..arith..Add$GT$3add17h2847113dd84c0663E
	.p2align	1
	.type	_ZN60_$LT$half..bfloat..bf16$u20$as$u20$core..ops..arith..Add$GT$3add17h2847113dd84c0663E,@function
_ZN60_$LT$half..bfloat..bf16$u20$as$u20$core..ops..arith..Add$GT$3add17h2847113dd84c0663E:
.Lfunc_begin13:
	.loc	8 763 0 is_stmt 1
	.cfi_startproc
	addi	sp, sp, -16
	.cfi_def_cfa_offset 16
	sw	ra, 12(sp)
	.cfi_offset ra, -4
	lui	a2, 8
	addi	a3, a2, -1
.Ltmp142:
	.loc	5 88 8 prologue_end
	and	a4, a0, a3
	addi	a2, a2, -128
	sltu	a4, a2, a4
.Ltmp143:
	.loc	5 88 8 is_stmt 0
	and	a3, a3, a1
	sltu	a2, a2, a3
	.loc	5 0 0
	slli	a2, a2, 22
	slli	a1, a1, 16
.Ltmp144:
	or	a1, a1, a2
.Ltmp145:
	slli	a4, a4, 22
	slli	a0, a0, 16
.Ltmp146:
	or	a0, a0, a4
.Ltmp147:
	.loc	8 764 24 is_stmt 1
	call	__addsf3@plt
.Ltmp148:
	.loc	5 6 8
	slli	a1, a0, 1
	srli	a1, a1, 1
	lui	a2, 522240
	bgeu	a2, a1, .LBB13_2
.Ltmp149:
	.loc	5 8 17
	srli	a0, a0, 16
.Ltmp150:
	.loc	5 8 16 is_stmt 0
	ori	a0, a0, 64
.Ltmp151:
	.loc	8 765 6 is_stmt 1
	lw	ra, 12(sp)
	.loc	8 765 6 epilogue_begin is_stmt 0
	addi	sp, sp, 16
	ret
.LBB13_2:
.Ltmp152:
	.loc	5 13 8 is_stmt 1
	srli	a1, a0, 15
	lui	a2, 24
	addi	a2, a2, -1
	and	a2, a2, a0
	snez	a2, a2
	.loc	5 0 0 is_stmt 0
	and	a1, a1, a2
	srli	a0, a0, 16
.Ltmp153:
	.loc	5 13 8
	add	a0, a0, a1
.Ltmp154:
	.loc	8 765 6 is_stmt 1
	lw	ra, 12(sp)
	.loc	8 765 6 epilogue_begin is_stmt 0
	addi	sp, sp, 16
	ret
.Ltmp155:
.Lfunc_end13:
	.size	_ZN60_$LT$half..bfloat..bf16$u20$as$u20$core..ops..arith..Add$GT$3add17h2847113dd84c0663E, .Lfunc_end13-_ZN60_$LT$half..bfloat..bf16$u20$as$u20$core..ops..arith..Add$GT$3add17h2847113dd84c0663E
	.cfi_endproc

	.section	".text._ZN60_$LT$half..bfloat..bf16$u20$as$u20$core..ops..arith..Sub$GT$3sub17hf20fb9fe2e91430aE","ax",@progbits
	.globl	_ZN60_$LT$half..bfloat..bf16$u20$as$u20$core..ops..arith..Sub$GT$3sub17hf20fb9fe2e91430aE
	.p2align	1
	.type	_ZN60_$LT$half..bfloat..bf16$u20$as$u20$core..ops..arith..Sub$GT$3sub17hf20fb9fe2e91430aE,@function
_ZN60_$LT$half..bfloat..bf16$u20$as$u20$core..ops..arith..Sub$GT$3sub17hf20fb9fe2e91430aE:
.Lfunc_begin14:
	.loc	8 812 0 is_stmt 1
	.cfi_startproc
	addi	sp, sp, -16
	.cfi_def_cfa_offset 16
	sw	ra, 12(sp)
	.cfi_offset ra, -4
	lui	a2, 8
	addi	a3, a2, -1
.Ltmp156:
	.loc	5 88 8 prologue_end
	and	a4, a0, a3
	addi	a2, a2, -128
	sltu	a4, a2, a4
.Ltmp157:
	.loc	5 88 8 is_stmt 0
	and	a3, a3, a1
	sltu	a2, a2, a3
	.loc	5 0 0
	slli	a2, a2, 22
	slli	a1, a1, 16
.Ltmp158:
	or	a1, a1, a2
.Ltmp159:
	slli	a4, a4, 22
	slli	a0, a0, 16
.Ltmp160:
	or	a0, a0, a4
.Ltmp161:
	.loc	8 813 24 is_stmt 1
	call	__subsf3@plt
.Ltmp162:
	.loc	5 6 8
	slli	a1, a0, 1
	srli	a1, a1, 1
	lui	a2, 522240
	bgeu	a2, a1, .LBB14_2
.Ltmp163:
	.loc	5 8 17
	srli	a0, a0, 16
.Ltmp164:
	.loc	5 8 16 is_stmt 0
	ori	a0, a0, 64
.Ltmp165:
	.loc	8 814 6 is_stmt 1
	lw	ra, 12(sp)
	.loc	8 814 6 epilogue_begin is_stmt 0
	addi	sp, sp, 16
	ret
.LBB14_2:
.Ltmp166:
	.loc	5 13 8 is_stmt 1
	srli	a1, a0, 15
	lui	a2, 24
	addi	a2, a2, -1
	and	a2, a2, a0
	snez	a2, a2
	.loc	5 0 0 is_stmt 0
	and	a1, a1, a2
	srli	a0, a0, 16
.Ltmp167:
	.loc	5 13 8
	add	a0, a0, a1
.Ltmp168:
	.loc	8 814 6 is_stmt 1
	lw	ra, 12(sp)
	.loc	8 814 6 epilogue_begin is_stmt 0
	addi	sp, sp, 16
	ret
.Ltmp169:
.Lfunc_end14:
	.size	_ZN60_$LT$half..bfloat..bf16$u20$as$u20$core..ops..arith..Sub$GT$3sub17hf20fb9fe2e91430aE, .Lfunc_end14-_ZN60_$LT$half..bfloat..bf16$u20$as$u20$core..ops..arith..Sub$GT$3sub17hf20fb9fe2e91430aE
	.cfi_endproc

	.section	".text._ZN60_$LT$half..bfloat..bf16$u20$as$u20$core..ops..arith..Mul$GT$3mul17h030ca779843ef70eE","ax",@progbits
	.globl	_ZN60_$LT$half..bfloat..bf16$u20$as$u20$core..ops..arith..Mul$GT$3mul17h030ca779843ef70eE
	.p2align	1
	.type	_ZN60_$LT$half..bfloat..bf16$u20$as$u20$core..ops..arith..Mul$GT$3mul17h030ca779843ef70eE,@function
_ZN60_$LT$half..bfloat..bf16$u20$as$u20$core..ops..arith..Mul$GT$3mul17h030ca779843ef70eE:
.Lfunc_begin15:
	.loc	8 861 0 is_stmt 1
	.cfi_startproc
	addi	sp, sp, -16
	.cfi_def_cfa_offset 16
	sw	ra, 12(sp)
	.cfi_offset ra, -4
	lui	a2, 8
	addi	a3, a2, -1
.Ltmp170:
	.loc	5 88 8 prologue_end
	and	a4, a0, a3
	addi	a2, a2, -128
	sltu	a4, a2, a4
.Ltmp171:
	.loc	5 88 8 is_stmt 0
	and	a3, a3, a1
	sltu	a2, a2, a3
	.loc	5 0 0
	slli	a2, a2, 22
	slli	a1, a1, 16
.Ltmp172:
	or	a1, a1, a2
.Ltmp173:
	slli	a4, a4, 22
	slli	a0, a0, 16
.Ltmp174:
	or	a0, a0, a4
.Ltmp175:
	.loc	8 862 24 is_stmt 1
	call	__mulsf3@plt
.Ltmp176:
	.loc	5 6 8
	slli	a1, a0, 1
	srli	a1, a1, 1
	lui	a2, 522240
	bgeu	a2, a1, .LBB15_2
.Ltmp177:
	.loc	5 8 17
	srli	a0, a0, 16
.Ltmp178:
	.loc	5 8 16 is_stmt 0
	ori	a0, a0, 64
.Ltmp179:
	.loc	8 863 6 is_stmt 1
	lw	ra, 12(sp)
	.loc	8 863 6 epilogue_begin is_stmt 0
	addi	sp, sp, 16
	ret
.LBB15_2:
.Ltmp180:
	.loc	5 13 8 is_stmt 1
	srli	a1, a0, 15
	lui	a2, 24
	addi	a2, a2, -1
	and	a2, a2, a0
	snez	a2, a2
	.loc	5 0 0 is_stmt 0
	and	a1, a1, a2
	srli	a0, a0, 16
.Ltmp181:
	.loc	5 13 8
	add	a0, a0, a1
.Ltmp182:
	.loc	8 863 6 is_stmt 1
	lw	ra, 12(sp)
	.loc	8 863 6 epilogue_begin is_stmt 0
	addi	sp, sp, 16
	ret
.Ltmp183:
.Lfunc_end15:
	.size	_ZN60_$LT$half..bfloat..bf16$u20$as$u20$core..ops..arith..Mul$GT$3mul17h030ca779843ef70eE, .Lfunc_end15-_ZN60_$LT$half..bfloat..bf16$u20$as$u20$core..ops..arith..Mul$GT$3mul17h030ca779843ef70eE
	.cfi_endproc

	.section	".text._ZN60_$LT$half..bfloat..bf16$u20$as$u20$core..ops..arith..Div$GT$3div17h72a10570889ac76eE","ax",@progbits
	.globl	_ZN60_$LT$half..bfloat..bf16$u20$as$u20$core..ops..arith..Div$GT$3div17h72a10570889ac76eE
	.p2align	1
	.type	_ZN60_$LT$half..bfloat..bf16$u20$as$u20$core..ops..arith..Div$GT$3div17h72a10570889ac76eE,@function
_ZN60_$LT$half..bfloat..bf16$u20$as$u20$core..ops..arith..Div$GT$3div17h72a10570889ac76eE:
.Lfunc_begin16:
	.loc	8 910 0 is_stmt 1
	.cfi_startproc
	addi	sp, sp, -16
	.cfi_def_cfa_offset 16
	sw	ra, 12(sp)
	.cfi_offset ra, -4
	lui	a2, 8
	addi	a3, a2, -1
.Ltmp184:
	.loc	5 88 8 prologue_end
	and	a4, a0, a3
	addi	a2, a2, -128
	sltu	a4, a2, a4
.Ltmp185:
	.loc	5 88 8 is_stmt 0
	and	a3, a3, a1
	sltu	a2, a2, a3
	.loc	5 0 0
	slli	a2, a2, 22
	slli	a1, a1, 16
.Ltmp186:
	or	a1, a1, a2
.Ltmp187:
	slli	a4, a4, 22
	slli	a0, a0, 16
.Ltmp188:
	or	a0, a0, a4
.Ltmp189:
	.loc	8 911 24 is_stmt 1
	call	__divsf3@plt
.Ltmp190:
	.loc	5 6 8
	slli	a1, a0, 1
	srli	a1, a1, 1
	lui	a2, 522240
	bgeu	a2, a1, .LBB16_2
.Ltmp191:
	.loc	5 8 17
	srli	a0, a0, 16
.Ltmp192:
	.loc	5 8 16 is_stmt 0
	ori	a0, a0, 64
.Ltmp193:
	.loc	8 912 6 is_stmt 1
	lw	ra, 12(sp)
	.loc	8 912 6 epilogue_begin is_stmt 0
	addi	sp, sp, 16
	ret
.LBB16_2:
.Ltmp194:
	.loc	5 13 8 is_stmt 1
	srli	a1, a0, 15
	lui	a2, 24
	addi	a2, a2, -1
	and	a2, a2, a0
	snez	a2, a2
	.loc	5 0 0 is_stmt 0
	and	a1, a1, a2
	srli	a0, a0, 16
.Ltmp195:
	.loc	5 13 8
	add	a0, a0, a1
.Ltmp196:
	.loc	8 912 6 is_stmt 1
	lw	ra, 12(sp)
	.loc	8 912 6 epilogue_begin is_stmt 0
	addi	sp, sp, 16
	ret
.Ltmp197:
.Lfunc_end16:
	.size	_ZN60_$LT$half..bfloat..bf16$u20$as$u20$core..ops..arith..Div$GT$3div17h72a10570889ac76eE, .Lfunc_end16-_ZN60_$LT$half..bfloat..bf16$u20$as$u20$core..ops..arith..Div$GT$3div17h72a10570889ac76eE
	.cfi_endproc

	.section	".text._ZN60_$LT$half..bfloat..bf16$u20$as$u20$core..ops..arith..Rem$GT$3rem17heb2561b27da67d31E","ax",@progbits
	.globl	_ZN60_$LT$half..bfloat..bf16$u20$as$u20$core..ops..arith..Rem$GT$3rem17heb2561b27da67d31E
	.p2align	1
	.type	_ZN60_$LT$half..bfloat..bf16$u20$as$u20$core..ops..arith..Rem$GT$3rem17heb2561b27da67d31E,@function
_ZN60_$LT$half..bfloat..bf16$u20$as$u20$core..ops..arith..Rem$GT$3rem17heb2561b27da67d31E:
.Lfunc_begin17:
	.loc	8 959 0 is_stmt 1
	.cfi_startproc
	addi	sp, sp, -16
	.cfi_def_cfa_offset 16
	sw	ra, 12(sp)
	.cfi_offset ra, -4
	lui	a2, 8
	addi	a3, a2, -1
.Ltmp198:
	.loc	5 88 8 prologue_end
	and	a4, a0, a3
	addi	a2, a2, -128
	sltu	a4, a2, a4
.Ltmp199:
	.loc	5 88 8 is_stmt 0
	and	a3, a3, a1
	sltu	a2, a2, a3
	.loc	5 0 0
	slli	a2, a2, 22
	slli	a1, a1, 16
.Ltmp200:
	or	a1, a1, a2
.Ltmp201:
	slli	a4, a4, 22
	slli	a0, a0, 16
.Ltmp202:
	or	a0, a0, a4
.Ltmp203:
	.loc	8 960 24 is_stmt 1
	call	fmodf@plt
.Ltmp204:
	.loc	5 6 8
	slli	a1, a0, 1
	srli	a1, a1, 1
	lui	a2, 522240
	bgeu	a2, a1, .LBB17_2
.Ltmp205:
	.loc	5 8 17
	srli	a0, a0, 16
.Ltmp206:
	.loc	5 8 16 is_stmt 0
	ori	a0, a0, 64
.Ltmp207:
	.loc	8 961 6 is_stmt 1
	lw	ra, 12(sp)
	.loc	8 961 6 epilogue_begin is_stmt 0
	addi	sp, sp, 16
	ret
.LBB17_2:
.Ltmp208:
	.loc	5 13 8 is_stmt 1
	srli	a1, a0, 15
	lui	a2, 24
	addi	a2, a2, -1
	and	a2, a2, a0
	snez	a2, a2
	.loc	5 0 0 is_stmt 0
	and	a1, a1, a2
	srli	a0, a0, 16
.Ltmp209:
	.loc	5 13 8
	add	a0, a0, a1
.Ltmp210:
	.loc	8 961 6 is_stmt 1
	lw	ra, 12(sp)
	.loc	8 961 6 epilogue_begin is_stmt 0
	addi	sp, sp, 16
	ret
.Ltmp211:
.Lfunc_end17:
	.size	_ZN60_$LT$half..bfloat..bf16$u20$as$u20$core..ops..arith..Rem$GT$3rem17heb2561b27da67d31E, .Lfunc_end17-_ZN60_$LT$half..bfloat..bf16$u20$as$u20$core..ops..arith..Rem$GT$3rem17heb2561b27da67d31E
	.cfi_endproc

	.section	.text._ZN4half8binary167convert19f16_to_f32_fallback17h5b61584095d15fe6E,"ax",@progbits
	.globl	_ZN4half8binary167convert19f16_to_f32_fallback17h5b61584095d15fe6E
	.p2align	1
	.type	_ZN4half8binary167convert19f16_to_f32_fallback17h5b61584095d15fe6E,@function
_ZN4half8binary167convert19f16_to_f32_fallback17h5b61584095d15fe6E:
.Lfunc_begin18:
	.file	12 "/Users/steve/.cargo/registry/src/index.crates.io-6f17d22bba15001f/half-1.8.3" "src/binary16/convert.rs"
	.loc	12 269 0 is_stmt 1
	.cfi_startproc
	li	a1, 31
	slli	a1, a1, 10
.Ltmp212:
	.loc	12 271 8 prologue_end
	addi	a2, a1, 1023
	and	a2, a2, a0
	beqz	a2, .LBB18_4
.Ltmp213:
	.loc	12 0 8 is_stmt 0
	lui	a3, 8
	.loc	12 275 21 is_stmt 1
	and	a3, a3, a0
.Ltmp214:
	.loc	12 276 20
	and	a2, a0, a1
.Ltmp215:
	.loc	12 277 20
	andi	a0, a0, 1023
.Ltmp216:
	.loc	12 280 8
	bne	a2, a1, .LBB18_5
.Ltmp217:
	.loc	12 0 0 is_stmt 0
	slli	a1, a3, 16
	.loc	12 282 12 is_stmt 1
	beqz	a0, .LBB18_7
.Ltmp218:
	.loc	12 286 72
	slli	a0, a0, 13
.Ltmp219:
	.loc	12 0 72 is_stmt 0
	lui	a2, 523264
.Ltmp220:
	.loc	12 286 35
	or	a0, a0, a2
	or	a0, a0, a1
.Ltmp221:
	.loc	12 310 2 is_stmt 1
	ret
.Ltmp222:
.LBB18_4:
	.loc	12 272 31
	slli	a0, a0, 16
.Ltmp223:
	.loc	12 310 2
	ret
.LBB18_5:
.Ltmp224:
	.loc	12 291 16
	slli	a1, a3, 16
.Ltmp225:
	.loc	12 296 8
	beqz	a2, .LBB18_8
.Ltmp226:
	.loc	12 0 8 is_stmt 0
	srli	a2, a2, 10
.Ltmp227:
	.loc	12 307 16 is_stmt 1
	addi	a2, a2, 112
.Ltmp228:
	.loc	12 307 15 is_stmt 0
	slli	a2, a2, 23
.Ltmp229:
	.loc	12 308 15 is_stmt 1
	slli	a0, a0, 13
.Ltmp230:
	.loc	12 309 20
	or	a0, a0, a1
.Ltmp231:
	or	a0, a0, a2
.Ltmp232:
	.loc	12 310 2
	ret
.Ltmp233:
.LBB18_7:
	.loc	12 0 2 is_stmt 0
	lui	a0, 522240
.Ltmp234:
	.loc	12 283 35 is_stmt 1
	or	a0, a0, a1
.Ltmp235:
	.loc	12 310 2
	ret
.Ltmp236:
.LBB18_8:
	.loc	12 0 2 is_stmt 0
	beqz	a0, .LBB18_10
.Ltmp237:
	.loc	6 1108 5 is_stmt 1
	srli	a2, a0, 1
.Ltmp238:
	or	a2, a2, a0
	srli	a3, a2, 2
.Ltmp239:
	or	a3, a3, a2
	srli	a4, a3, 4
	srli	a2, a2, 8
	or	a2, a2, a3
	or	a2, a2, a4
	not	a2, a2
	srli	a3, a2, 1
	lui	a4, 5
	addi	a4, a4, 1365
	and	a3, a3, a4
	sub	a2, a2, a3
	lui	a3, 3
	addi	a3, a3, 819
	and	a4, a2, a3
	srli	a2, a2, 2
	and	a2, a2, a3
	add	a2, a2, a4
	srli	a3, a2, 4
	add	a2, a2, a3
	andi	a3, a2, 15
	slli	a2, a2, 20
	srli	a2, a2, 28
	add	a2, a2, a3
	j	.LBB18_11
.Ltmp240:
.LBB18_10:
	.loc	6 0 5 is_stmt 0
	li	a2, 16
.Ltmp241:
.LBB18_11:
	.loc	12 301 19 is_stmt 1
	slli	a3, a2, 23
.Ltmp242:
	.loc	12 302 32
	addi	a2, a2, 8
.Ltmp243:
	.loc	12 302 19 is_stmt 0
	sll	a0, a0, a2
.Ltmp244:
	slli	a0, a0, 9
	srli	a0, a0, 9
.Ltmp245:
	.loc	12 303 31 is_stmt 1
	sub	a3, a3, a1
.Ltmp246:
	.loc	12 0 31 is_stmt 0
	lui	a1, 241664
.Ltmp247:
	.loc	12 303 31
	sub	a3, a3, a1
	sub	a0, a0, a3
.Ltmp248:
	.loc	12 310 2 is_stmt 1
	ret
.Ltmp249:
.Lfunc_end18:
	.size	_ZN4half8binary167convert19f16_to_f32_fallback17h5b61584095d15fe6E, .Lfunc_end18-_ZN4half8binary167convert19f16_to_f32_fallback17h5b61584095d15fe6E
	.cfi_endproc

	.section	.text._ZN4half8binary167convert19f16_to_f64_fallback17h7d92d573a64bf5c8E,"ax",@progbits
	.globl	_ZN4half8binary167convert19f16_to_f64_fallback17h7d92d573a64bf5c8E
	.p2align	1
	.type	_ZN4half8binary167convert19f16_to_f64_fallback17h7d92d573a64bf5c8E,@function
_ZN4half8binary167convert19f16_to_f64_fallback17h7d92d573a64bf5c8E:
.Lfunc_begin19:
	.loc	12 312 0
	.cfi_startproc
	mv	a1, a0
.Ltmp250:
	li	a0, 31
	slli	a0, a0, 10
.Ltmp251:
	.loc	12 314 8 prologue_end
	addi	a2, a0, 1023
	and	a2, a2, a1
	beqz	a2, .LBB19_4
.Ltmp252:
	.loc	12 0 8 is_stmt 0
	lui	a2, 8
	.loc	12 318 21 is_stmt 1
	and	a2, a2, a1
.Ltmp253:
	.loc	12 319 20
	and	a3, a1, a0
.Ltmp254:
	.loc	12 320 20
	andi	a1, a1, 1023
.Ltmp255:
	.loc	12 0 0 is_stmt 0
	slli	a2, a2, 16
	.loc	12 323 8 is_stmt 1
	bne	a3, a0, .LBB19_5
.Ltmp256:
	.loc	12 0 8 is_stmt 0
	li	a0, 0
	.loc	12 325 12 is_stmt 1
	beqz	a1, .LBB19_7
.Ltmp257:
	.loc	12 329 82
	slli	a1, a1, 10
	lui	a3, 524160
.Ltmp258:
	.loc	12 329 35 is_stmt 0
	or	a1, a1, a3
	or	a1, a1, a2
.Ltmp259:
	.loc	12 353 2 is_stmt 1
	ret
.LBB19_4:
.Ltmp260:
	.loc	12 0 2 is_stmt 0
	li	a0, 0
	.loc	12 315 31 is_stmt 1
	slli	a1, a1, 16
.Ltmp261:
	.loc	12 353 2
	ret
.LBB19_5:
.Ltmp262:
	.loc	12 339 8
	beqz	a3, .LBB19_8
.Ltmp263:
	.loc	12 0 8 is_stmt 0
	li	a0, 0
	srli	a3, a3, 10
.Ltmp264:
	.loc	12 350 16 is_stmt 1
	addi	a3, a3, 1008
.Ltmp265:
	.loc	12 350 15 is_stmt 0
	slli	a3, a3, 20
.Ltmp266:
	.loc	12 351 15 is_stmt 1
	slli	a1, a1, 10
.Ltmp267:
	.loc	12 352 20
	or	a1, a1, a2
.Ltmp268:
	or	a1, a1, a3
.Ltmp269:
	.loc	12 353 2
	ret
.Ltmp270:
.LBB19_7:
	.loc	12 0 2 is_stmt 0
	lui	a1, 524032
.Ltmp271:
	.loc	12 326 35 is_stmt 1
	or	a1, a1, a2
.Ltmp272:
	.loc	12 353 2
	ret
.Ltmp273:
.LBB19_8:
	.loc	12 0 2 is_stmt 0
	beqz	a1, .LBB19_10
.Ltmp274:
	.loc	6 1108 5 is_stmt 1
	srli	a0, a1, 1
	or	a0, a0, a1
	srli	a3, a0, 2
.Ltmp275:
	or	a3, a3, a0
	srli	a4, a3, 4
	srli	a0, a0, 8
	or	a0, a0, a3
	or	a0, a0, a4
	not	a0, a0
	srli	a3, a0, 1
	lui	a4, 5
	addi	a4, a4, 1365
	and	a3, a3, a4
	sub	a0, a0, a3
	lui	a3, 3
	addi	a3, a3, 819
	and	a4, a0, a3
	srli	a0, a0, 2
	and	a0, a0, a3
	add	a0, a0, a4
	srli	a3, a0, 4
	add	a0, a0, a3
	andi	a3, a0, 15
	slli	a0, a0, 20
	srli	a0, a0, 28
	add	a3, a3, a0
	j	.LBB19_11
.Ltmp276:
.LBB19_10:
	.loc	6 0 5 is_stmt 0
	li	a3, 16
.Ltmp277:
.LBB19_11:
	li	a0, 0
	li	a4, 1014
.Ltmp278:
	.loc	12 344 20 is_stmt 1
	sub	a4, a4, a3
	.loc	12 344 19 is_stmt 0
	slli	a4, a4, 20
.Ltmp279:
	.loc	12 345 19 is_stmt 1
	addi	a3, a3, 5
.Ltmp280:
	sll	a1, a1, a3
	slti	a3, a3, 0
	addi	a3, a3, -1
	and	a1, a1, a3
	slli	a1, a1, 12
	srli	a1, a1, 12
.Ltmp281:
	.loc	12 346 31
	or	a2, a2, a4
	or	a1, a1, a2
.Ltmp282:
	.loc	12 353 2
	ret
.Ltmp283:
.Lfunc_end19:
	.size	_ZN4half8binary167convert19f16_to_f64_fallback17h7d92d573a64bf5c8E, .Lfunc_end19-_ZN4half8binary167convert19f16_to_f64_fallback17h7d92d573a64bf5c8E
	.cfi_endproc

	.section	.text._ZN4half8binary167convert23f16x4_to_f32x4_fallback17hf0e2c78b2eef7828E,"ax",@progbits
	.p2align	1
	.type	_ZN4half8binary167convert23f16x4_to_f32x4_fallback17hf0e2c78b2eef7828E,@function
_ZN4half8binary167convert23f16x4_to_f32x4_fallback17hf0e2c78b2eef7828E:
.Lfunc_begin20:
	.cfi_startproc
	.cfi_def_cfa_offset 0
	.loc	12 360 29 prologue_end
	beqz	a2, .LBB20_57
.Ltmp284:
	lhu	a6, 0(a1)
	li	t4, 31
	slli	t4, t4, 10
.Ltmp285:
	.loc	12 271 8
	addi	t3, t4, 1023
	and	a3, a6, t3
	beqz	a3, .LBB20_5
.Ltmp286:
	.loc	12 0 8 is_stmt 0
	lui	a3, 8
	.loc	12 275 21 is_stmt 1
	and	a4, a6, a3
.Ltmp287:
	.loc	12 276 20
	and	a5, a6, t4
.Ltmp288:
	.loc	12 277 20
	andi	a3, a6, 1023
.Ltmp289:
	.loc	12 280 8
	bne	a5, t4, .LBB20_6
.Ltmp290:
	.loc	12 0 0 is_stmt 0
	slli	a4, a4, 16
.Ltmp291:
	.loc	12 282 12 is_stmt 1
	beqz	a3, .LBB20_8
.Ltmp292:
	.loc	12 286 72
	slli	a3, a3, 13
.Ltmp293:
	.loc	12 286 35 is_stmt 0
	or	a3, a3, a4
	lui	a4, 523264
	or	a6, a3, a4
.Ltmp294:
	.loc	12 0 35
	j	.LBB20_14
.Ltmp295:
.LBB20_5:
	.loc	12 272 31 is_stmt 1
	slli	a6, a6, 16
.Ltmp296:
	.loc	12 0 31 is_stmt 0
	j	.LBB20_14
.Ltmp297:
.LBB20_6:
	.loc	12 291 16 is_stmt 1
	slli	a6, a4, 16
.Ltmp298:
	.loc	12 296 8
	beqz	a5, .LBB20_9
.Ltmp299:
	.loc	12 0 8 is_stmt 0
	srli	a5, a5, 10
.Ltmp300:
	.loc	12 307 16 is_stmt 1
	addi	a4, a5, 112
.Ltmp301:
	.loc	12 307 15 is_stmt 0
	slli	a4, a4, 23
.Ltmp302:
	.loc	12 308 15 is_stmt 1
	slli	a3, a3, 13
.Ltmp303:
	.loc	12 309 20
	or	a3, a3, a6
.Ltmp304:
	.loc	12 0 20 is_stmt 0
	j	.LBB20_13
.Ltmp305:
.LBB20_8:
	lui	a3, 522240
.Ltmp306:
	j	.LBB20_13
.Ltmp307:
.LBB20_9:
	lui	a7, 2048
	addi	a7, a7, -1
.Ltmp308:
	.loc	6 1108 5 is_stmt 1
	beqz	a3, .LBB20_11
.Ltmp309:
	srli	a4, a3, 1
.Ltmp310:
	or	a4, a4, a3
	srli	a5, a4, 2
.Ltmp311:
	or	a5, a5, a4
	srli	t0, a5, 4
	srli	a4, a4, 8
	or	a4, a4, a5
	or	a4, a4, t0
	not	a4, a4
	srli	t0, a4, 1
	lui	a5, 5
	addi	a5, a5, 1365
	and	a5, t0, a5
	sub	a4, a4, a5
	lui	a5, 3
	addi	a5, a5, 819
	and	t0, a4, a5
	srli	a4, a4, 2
	and	a4, a4, a5
	add	a4, a4, t0
	srli	a5, a4, 4
	add	a4, a4, a5
	andi	t0, a4, 15
	slli	a4, a4, 20
	srli	a4, a4, 28
	add	t0, t0, a4
	j	.LBB20_12
.Ltmp312:
.LBB20_11:
	.loc	6 0 5 is_stmt 0
	li	t0, 16
.Ltmp313:
.LBB20_12:
	.loc	12 302 32 is_stmt 1
	addi	a4, t0, 8
	.loc	12 302 19 is_stmt 0
	sll	a3, a3, a4
.Ltmp314:
	and	a3, a3, a7
	lui	a4, 241664
.Ltmp315:
	.loc	12 303 31 is_stmt 1
	or	a4, a6, a4
	slli	t0, t0, 23
.Ltmp316:
	sub	a4, a4, t0
.Ltmp317:
.LBB20_13:
	.loc	12 0 0 is_stmt 0
	or	a6, a4, a3
.Ltmp318:
.LBB20_14:
	li	a3, 1
	.loc	12 361 29 is_stmt 1
	beq	a2, a3, .LBB20_58
.Ltmp319:
	lhu	a7, 2(a1)
.Ltmp320:
	.loc	12 271 8
	and	a3, a7, t3
	beqz	a3, .LBB20_19
.Ltmp321:
	.loc	12 0 8 is_stmt 0
	lui	a3, 8
	.loc	12 275 21 is_stmt 1
	and	a4, a7, a3
.Ltmp322:
	.loc	12 276 20
	and	a5, a7, t4
.Ltmp323:
	.loc	12 277 20
	andi	t2, a7, 1023
	li	a3, 31
	slli	a3, a3, 10
	slli	a7, a4, 16
.Ltmp324:
	.loc	12 280 8
	bne	a5, a3, .LBB20_20
.Ltmp325:
	.loc	12 282 12
	beqz	t2, .LBB20_23
.Ltmp326:
	.loc	12 286 72
	slli	t2, t2, 13
.Ltmp327:
	.loc	12 286 35 is_stmt 0
	or	a3, a7, t2
	lui	a4, 523264
.Ltmp328:
	.loc	12 0 35
	j	.LBB20_22
.Ltmp329:
.LBB20_19:
	.loc	12 272 31 is_stmt 1
	slli	a7, a7, 16
.Ltmp330:
	.loc	12 0 31 is_stmt 0
	j	.LBB20_28
.Ltmp331:
.LBB20_20:
	.loc	12 296 8 is_stmt 1
	beqz	a5, .LBB20_24
.Ltmp332:
	.loc	12 0 8 is_stmt 0
	srli	a5, a5, 10
.Ltmp333:
	.loc	12 307 16 is_stmt 1
	addi	a3, a5, 112
	.loc	12 307 15 is_stmt 0
	slli	a3, a3, 23
.Ltmp334:
	.loc	12 308 15 is_stmt 1
	slli	t2, t2, 13
.Ltmp335:
	.loc	12 309 20
	or	a4, t2, a7
.Ltmp336:
.LBB20_22:
	.loc	12 0 0 is_stmt 0
	or	a7, a3, a4
	j	.LBB20_28
.Ltmp337:
.LBB20_23:
	lui	a3, 522240
	.loc	12 283 35 is_stmt 1
	or	a7, a7, a3
	j	.LBB20_28
.Ltmp338:
.LBB20_24:
	.loc	12 0 35 is_stmt 0
	lui	t0, 2048
	addi	t0, t0, -1
.Ltmp339:
	.loc	6 1108 5 is_stmt 1
	beqz	t2, .LBB20_26
.Ltmp340:
	srli	a3, t2, 1
	or	a3, t2, a3
	srli	a4, a3, 2
.Ltmp341:
	or	a4, a4, a3
	srli	a5, a4, 4
.Ltmp342:
	srli	a3, a3, 8
	or	a3, a3, a4
	or	a3, a3, a5
	not	a3, a3
	srli	a4, a3, 1
	lui	a5, 5
	addi	a5, a5, 1365
	and	a4, a4, a5
	sub	a3, a3, a4
	lui	a4, 3
	addi	a4, a4, 819
	and	a5, a3, a4
	srli	a3, a3, 2
	and	a3, a3, a4
	add	a3, a3, a5
	srli	a4, a3, 4
	add	a3, a3, a4
	andi	t1, a3, 15
	slli	a3, a3, 20
	srli	a3, a3, 28
	add	t1, t1, a3
	j	.LBB20_27
.Ltmp343:
.LBB20_26:
	.loc	6 0 5 is_stmt 0
	li	t1, 16
.Ltmp344:
.LBB20_27:
	.loc	12 302 32 is_stmt 1
	addi	a3, t1, 8
	.loc	12 302 19 is_stmt 0
	sll	a3, t2, a3
	and	a3, a3, t0
	lui	a4, 241664
.Ltmp345:
	.loc	12 303 31 is_stmt 1
	or	a4, a7, a4
	slli	t1, t1, 23
.Ltmp346:
	sub	a4, a4, t1
	or	a7, a4, a3
.Ltmp347:
.LBB20_28:
	.loc	12 0 31 is_stmt 0
	li	a3, 2
	.loc	12 362 29 is_stmt 1
	bgeu	a3, a2, .LBB20_59
.Ltmp348:
	lhu	a3, 4(a1)
.Ltmp349:
	.loc	12 271 8
	and	a4, a3, t3
	beqz	a4, .LBB20_33
.Ltmp350:
	.loc	12 0 8 is_stmt 0
	lui	a4, 8
	.loc	12 275 21 is_stmt 1
	and	t0, a3, a4
.Ltmp351:
	.loc	12 276 20
	and	a5, a3, t4
	li	a4, 31
	slli	a4, a4, 10
.Ltmp352:
	.loc	12 277 20
	andi	a3, a3, 1023
.Ltmp353:
	.loc	12 291 16
	slli	t0, t0, 16
.Ltmp354:
	.loc	12 280 8
	bne	a5, a4, .LBB20_34
.Ltmp355:
	.loc	12 282 12
	beqz	a3, .LBB20_36
.Ltmp356:
	.loc	12 286 72
	slli	a3, a3, 13
.Ltmp357:
	.loc	12 286 35 is_stmt 0
	or	a3, t0, a3
	lui	a4, 523264
	or	a3, a3, a4
	j	.LBB20_42
.Ltmp358:
.LBB20_33:
	.loc	12 272 31 is_stmt 1
	slli	a3, a3, 16
.Ltmp359:
	.loc	12 0 31 is_stmt 0
	j	.LBB20_42
.Ltmp360:
.LBB20_34:
	.loc	12 296 8 is_stmt 1
	beqz	a5, .LBB20_37
.Ltmp361:
	.loc	12 0 8 is_stmt 0
	srli	a5, a5, 10
.Ltmp362:
	.loc	12 307 16 is_stmt 1
	addi	a4, a5, 112
	.loc	12 307 15 is_stmt 0
	slli	a4, a4, 23
.Ltmp363:
	.loc	12 308 15 is_stmt 1
	slli	a3, a3, 13
.Ltmp364:
	.loc	12 309 20
	or	a3, a3, t0
.Ltmp365:
	.loc	12 0 20 is_stmt 0
	j	.LBB20_41
.Ltmp366:
.LBB20_36:
	lui	a3, 522240
.Ltmp367:
	.loc	12 283 35 is_stmt 1
	or	a3, t0, a3
	j	.LBB20_42
.Ltmp368:
.LBB20_37:
	.loc	12 0 35 is_stmt 0
	lui	t1, 2048
	addi	t1, t1, -1
.Ltmp369:
	.loc	6 1108 5 is_stmt 1
	beqz	a3, .LBB20_39
.Ltmp370:
	srli	a4, a3, 1
	or	a4, a4, a3
	srli	a5, a4, 2
.Ltmp371:
	or	a5, a5, a4
	srli	t2, a5, 4
	srli	a4, a4, 8
	or	a4, a4, a5
	or	a4, a4, t2
	not	a4, a4
	srli	t2, a4, 1
	lui	a5, 5
	addi	a5, a5, 1365
	and	a5, t2, a5
	sub	a4, a4, a5
	lui	a5, 3
	addi	a5, a5, 819
	and	t2, a4, a5
	srli	a4, a4, 2
	and	a4, a4, a5
	add	a4, a4, t2
	srli	a5, a4, 4
	add	a4, a4, a5
	andi	t2, a4, 15
	slli	a4, a4, 20
	srli	a4, a4, 28
	add	t2, t2, a4
	j	.LBB20_40
.Ltmp372:
.LBB20_39:
	.loc	6 0 5 is_stmt 0
	li	t2, 16
.Ltmp373:
.LBB20_40:
	.loc	12 302 32 is_stmt 1
	addi	a4, t2, 8
	.loc	12 302 19 is_stmt 0
	sll	a3, a3, a4
.Ltmp374:
	and	a3, a3, t1
	lui	a4, 241664
.Ltmp375:
	.loc	12 303 31 is_stmt 1
	or	a4, t0, a4
	slli	t2, t2, 23
.Ltmp376:
	sub	a4, a4, t2
.Ltmp377:
.LBB20_41:
	.loc	12 0 0 is_stmt 0
	or	a3, a3, a4
.Ltmp378:
.LBB20_42:
	li	a4, 3
	.loc	12 363 29 is_stmt 1
	beq	a2, a4, .LBB20_60
.Ltmp379:
	lhu	a1, 6(a1)
.Ltmp380:
	.loc	12 271 8
	and	a2, a1, t3
.Ltmp381:
	beqz	a2, .LBB20_47
.Ltmp382:
	.loc	12 0 8 is_stmt 0
	lui	a2, 8
	.loc	12 275 21 is_stmt 1
	and	a2, a2, a1
.Ltmp383:
	.loc	12 276 20
	and	a4, a1, t4
	li	a5, 31
	slli	a5, a5, 10
.Ltmp384:
	.loc	12 277 20
	andi	a1, a1, 1023
.Ltmp385:
	.loc	12 291 16
	slli	a2, a2, 16
.Ltmp386:
	.loc	12 280 8
	bne	a4, a5, .LBB20_48
.Ltmp387:
	.loc	12 282 12
	beqz	a1, .LBB20_50
.Ltmp388:
	.loc	12 286 72
	slli	a1, a1, 13
.Ltmp389:
	.loc	12 286 35 is_stmt 0
	or	a1, a1, a2
	lui	a2, 523264
	or	a1, a1, a2
	j	.LBB20_56
.Ltmp390:
.LBB20_47:
	.loc	12 272 31 is_stmt 1
	slli	a1, a1, 16
.Ltmp391:
	.loc	12 0 31 is_stmt 0
	j	.LBB20_56
.LBB20_48:
.Ltmp392:
	.loc	12 296 8 is_stmt 1
	beqz	a4, .LBB20_51
.Ltmp393:
	.loc	12 0 8 is_stmt 0
	srli	a4, a4, 10
.Ltmp394:
	.loc	12 307 16 is_stmt 1
	addi	a4, a4, 112
.Ltmp395:
	.loc	12 307 15 is_stmt 0
	slli	a4, a4, 23
.Ltmp396:
	.loc	12 308 15 is_stmt 1
	slli	a1, a1, 13
.Ltmp397:
	.loc	12 309 20
	or	a1, a1, a2
.Ltmp398:
	or	a1, a1, a4
	j	.LBB20_56
.Ltmp399:
.LBB20_50:
	.loc	12 0 20 is_stmt 0
	lui	a1, 522240
.Ltmp400:
	j	.LBB20_55
.Ltmp401:
.LBB20_51:
	lui	a4, 2048
.Ltmp402:
	addi	t0, a4, -1
.Ltmp403:
	.loc	6 1108 5 is_stmt 1
	beqz	a1, .LBB20_53
.Ltmp404:
	srli	a5, a1, 1
	or	a4, a1, a5
	srli	a5, a4, 2
	or	a5, a5, a4
	srli	t1, a5, 4
	srli	a4, a4, 8
	or	a4, a4, a5
	or	a4, a4, t1
	not	a4, a4
	srli	t1, a4, 1
	lui	a5, 5
	addi	a5, a5, 1365
	and	a5, t1, a5
	sub	a4, a4, a5
	lui	a5, 3
	addi	a5, a5, 819
	and	t1, a4, a5
	srli	a4, a4, 2
	and	a4, a4, a5
	add	a4, a4, t1
	srli	a5, a4, 4
	add	a4, a4, a5
	andi	a5, a4, 15
	slli	a4, a4, 20
	srli	a4, a4, 28
	add	a5, a5, a4
	j	.LBB20_54
.Ltmp405:
.LBB20_53:
	.loc	6 0 5 is_stmt 0
	li	a5, 16
.Ltmp406:
.LBB20_54:
	.loc	12 302 32 is_stmt 1
	addi	a4, a5, 8
	.loc	12 302 19 is_stmt 0
	sll	a1, a1, a4
.Ltmp407:
	and	a1, a1, t0
	lui	a4, 241664
.Ltmp408:
	.loc	12 303 31 is_stmt 1
	or	a2, a2, a4
.Ltmp409:
	slli	a5, a5, 23
.Ltmp410:
	sub	a2, a2, a5
.Ltmp411:
.LBB20_55:
	.loc	12 0 0 is_stmt 0
	or	a1, a1, a2
.Ltmp412:
.LBB20_56:
	.loc	12 359 5 is_stmt 1
	sw	a6, 0(a0)
	sw	a7, 4(a0)
	sw	a3, 8(a0)
	sw	a1, 12(a0)
	.loc	12 365 2
	ret
.LBB20_57:
.Ltmp413:
	.loc	12 360 29
	lui	a0, %hi(.L__unnamed_3)
	addi	a2, a0, %lo(.L__unnamed_3)
.Ltmp414:
	li	a0, 0
	li	a1, 0
.Ltmp415:
	call	_ZN4core9panicking18panic_bounds_check17hf1abd9f97fd59941E
.LBB20_58:
.Ltmp416:
	.loc	12 361 29
	lui	a0, %hi(.L__unnamed_4)
	addi	a2, a0, %lo(.L__unnamed_4)
.Ltmp417:
	li	a0, 1
	li	a1, 1
.Ltmp418:
	call	_ZN4core9panicking18panic_bounds_check17hf1abd9f97fd59941E
.LBB20_59:
.Ltmp419:
	.loc	12 362 29
	lui	a0, %hi(.L__unnamed_5)
	addi	a2, a0, %lo(.L__unnamed_5)
.Ltmp420:
	li	a0, 2
	li	a1, 2
.Ltmp421:
	call	_ZN4core9panicking18panic_bounds_check17hf1abd9f97fd59941E
.LBB20_60:
.Ltmp422:
	.loc	12 363 29
	lui	a0, %hi(.L__unnamed_6)
	addi	a2, a0, %lo(.L__unnamed_6)
.Ltmp423:
	li	a0, 3
	li	a1, 3
.Ltmp424:
	call	_ZN4core9panicking18panic_bounds_check17hf1abd9f97fd59941E
.Ltmp425:
.Lfunc_end20:
	.size	_ZN4half8binary167convert23f16x4_to_f32x4_fallback17hf0e2c78b2eef7828E, .Lfunc_end20-_ZN4half8binary167convert23f16x4_to_f32x4_fallback17hf0e2c78b2eef7828E
	.cfi_endproc

	.section	.text._ZN4half8binary167convert23f32x4_to_f16x4_fallback17h29d4f1cc56f048afE,"ax",@progbits
	.p2align	1
	.type	_ZN4half8binary167convert23f32x4_to_f16x4_fallback17h29d4f1cc56f048afE,@function
_ZN4half8binary167convert23f32x4_to_f16x4_fallback17h29d4f1cc56f048afE:
.Lfunc_begin21:
	.cfi_startproc
	.cfi_def_cfa_offset 0
	.loc	12 372 29 prologue_end
	beqz	a2, .LBB21_45
.Ltmp426:
	.loc	12 0 29 is_stmt 0
	lui	t1, 2048
	addi	t1, t1, -1
	.loc	12 372 29
	lw	a4, 0(a1)
	li	a7, 31
	slli	a7, a7, 10
	lui	a3, 524288
.Ltmp427:
	.loc	12 149 16 is_stmt 1
	and	a3, a3, a4
	lui	t0, 522240
.Ltmp428:
	.loc	12 150 15
	and	a5, a4, t0
.Ltmp429:
	.loc	12 151 15
	and	t2, a4, t1
	srli	a6, a3, 16
.Ltmp430:
	.loc	12 154 8
	bne	a5, t0, .LBB21_3
.Ltmp431:
	.loc	12 156 26
	snez	a3, t2
.Ltmp432:
	.loc	12 156 23 is_stmt 0
	slli	a3, a3, 9
.Ltmp433:
	.loc	12 157 54 is_stmt 1
	srli	a4, t2, 13
.Ltmp434:
	.loc	12 157 17 is_stmt 0
	or	a4, a4, a6
	.loc	12 157 16
	or	a3, a3, a4
.Ltmp435:
	or	a6, a3, a7
	j	.LBB21_11
.Ltmp436:
.LBB21_3:
	.loc	12 0 16
	lui	a3, 290816
.Ltmp437:
	.loc	12 167 8 is_stmt 1
	bgeu	a3, a5, .LBB21_5
.Ltmp438:
	.loc	12 168 16
	or	a6, a6, a7
.Ltmp439:
	.loc	12 0 16 is_stmt 0
	j	.LBB21_11
.Ltmp440:
.LBB21_5:
	srli	t0, a5, 23
.Ltmp441:
	li	a3, 113
	.loc	12 172 8 is_stmt 1
	bgeu	t0, a3, .LBB21_10
.Ltmp442:
	.loc	12 174 12
	srli	a5, a5, 24
.Ltmp443:
	.loc	12 0 12 is_stmt 0
	li	a3, 51
	.loc	12 174 12
	bltu	a5, a3, .LBB21_11
.Ltmp444:
	.loc	12 0 12
	li	a3, 30
	.loc	12 174 12
	sub	t3, a3, t0
	lui	a4, 2048
.Ltmp445:
	.loc	12 179 19 is_stmt 1
	or	a4, t2, a4
	li	a5, 29
.Ltmp446:
	.loc	12 182 30
	sub	a5, a5, t0
.Ltmp447:
	.loc	12 183 12
	srl	a3, a4, a5
	andi	t0, a3, 1
.Ltmp448:
	.loc	12 180 28
	srl	a3, a4, t3
.Ltmp449:
	.loc	12 183 12
	beqz	t0, .LBB21_9
.Ltmp450:
	.loc	12 0 12 is_stmt 0
	andi	t0, a5, 31
	li	a5, 3
	.loc	12 183 46
	sll	a5, a5, t0
	.loc	12 183 45
	addi	a5, a5, -1
	.loc	12 183 38
	and	a4, a4, a5
.Ltmp451:
	snez	a4, a4
	add	a3, a3, a4
.Ltmp452:
.LBB21_9:
	.loc	12 187 16 is_stmt 1
	or	a6, a3, a6
.Ltmp453:
	.loc	12 0 16 is_stmt 0
	j	.LBB21_11
.Ltmp454:
.LBB21_10:
	.loc	12 191 20 is_stmt 1
	srli	a5, a5, 13
.Ltmp455:
	.loc	12 0 20 is_stmt 0
	lui	a3, 4
	.loc	12 191 20
	add	t0, a5, a3
.Ltmp456:
	.loc	12 192 20 is_stmt 1
	srli	t2, t2, 13
.Ltmp457:
	.loc	12 195 8
	srli	a3, a4, 12
	lui	a5, 3
	addi	a5, a5, -1
	and	a4, a4, a5
.Ltmp458:
	.loc	12 0 8 is_stmt 0
	snez	a4, a4
	and	a3, a3, a4
	or	a4, t2, a6
	or	a6, t0, a4
.Ltmp459:
	.loc	12 195 8
	add	a6, a6, a3
.Ltmp460:
.LBB21_11:
	.loc	12 0 8
	li	a3, 1
	.loc	12 373 29 is_stmt 1
	beq	a2, a3, .LBB21_46
.Ltmp461:
	lw	a4, 4(a1)
	lui	a3, 524288
.Ltmp462:
	.loc	12 149 16
	and	a3, a3, a4
	lui	t2, 522240
.Ltmp463:
	.loc	12 150 15
	and	a5, a4, t2
.Ltmp464:
	.loc	12 151 15
	and	t3, a4, t1
	srli	t0, a3, 16
.Ltmp465:
	.loc	12 154 8
	bne	a5, t2, .LBB21_14
.Ltmp466:
	.loc	12 156 26
	snez	a3, t3
.Ltmp467:
	.loc	12 156 23 is_stmt 0
	slli	a3, a3, 9
.Ltmp468:
	.loc	12 157 54 is_stmt 1
	srli	a4, t3, 13
.Ltmp469:
	.loc	12 157 17 is_stmt 0
	or	a4, a4, t0
	.loc	12 157 16
	or	a3, a3, a4
.Ltmp470:
	or	t0, a3, a7
	j	.LBB21_22
.Ltmp471:
.LBB21_14:
	.loc	12 0 16
	lui	a3, 290816
.Ltmp472:
	.loc	12 167 8 is_stmt 1
	bgeu	a3, a5, .LBB21_16
.Ltmp473:
	.loc	12 168 16
	or	t0, t0, a7
.Ltmp474:
	.loc	12 0 16 is_stmt 0
	j	.LBB21_22
.Ltmp475:
.LBB21_16:
	srli	t2, a5, 23
.Ltmp476:
	li	a3, 113
	.loc	12 172 8 is_stmt 1
	bgeu	t2, a3, .LBB21_21
.Ltmp477:
	.loc	12 174 12
	srli	a5, a5, 24
.Ltmp478:
	.loc	12 0 12 is_stmt 0
	li	a3, 51
	.loc	12 174 12
	bltu	a5, a3, .LBB21_22
.Ltmp479:
	.loc	12 0 12
	li	a3, 30
	.loc	12 174 12
	sub	t4, a3, t2
	lui	a4, 2048
.Ltmp480:
	.loc	12 179 19 is_stmt 1
	or	a4, t3, a4
	li	a5, 29
.Ltmp481:
	.loc	12 182 30
	sub	a5, a5, t2
.Ltmp482:
	.loc	12 183 12
	srl	a3, a4, a5
	andi	t2, a3, 1
.Ltmp483:
	.loc	12 180 28
	srl	a3, a4, t4
.Ltmp484:
	.loc	12 183 12
	beqz	t2, .LBB21_20
.Ltmp485:
	.loc	12 0 12 is_stmt 0
	andi	t2, a5, 31
	li	a5, 3
	.loc	12 183 46
	sll	a5, a5, t2
	.loc	12 183 45
	addi	a5, a5, -1
	.loc	12 183 38
	and	a4, a4, a5
.Ltmp486:
	snez	a4, a4
	add	a3, a3, a4
.Ltmp487:
.LBB21_20:
	.loc	12 187 16 is_stmt 1
	or	t0, a3, t0
.Ltmp488:
	.loc	12 0 16 is_stmt 0
	j	.LBB21_22
.Ltmp489:
.LBB21_21:
	.loc	12 191 20 is_stmt 1
	srli	a5, a5, 13
.Ltmp490:
	.loc	12 0 20 is_stmt 0
	lui	a3, 4
	.loc	12 191 20
	add	t2, a5, a3
.Ltmp491:
	.loc	12 192 20 is_stmt 1
	srli	t3, t3, 13
.Ltmp492:
	.loc	12 195 8
	srli	a3, a4, 12
	lui	a5, 3
	addi	a5, a5, -1
	and	a4, a4, a5
.Ltmp493:
	.loc	12 0 8 is_stmt 0
	snez	a4, a4
	and	a3, a3, a4
	or	a4, t3, t0
	or	t0, t2, a4
.Ltmp494:
	.loc	12 195 8
	add	t0, t0, a3
.Ltmp495:
.LBB21_22:
	.loc	12 0 8
	li	a3, 2
	.loc	12 374 29 is_stmt 1
	bgeu	a3, a2, .LBB21_47
.Ltmp496:
	lw	a3, 8(a1)
	lui	a5, 524288
.Ltmp497:
	.loc	12 149 16
	and	a5, a5, a3
	lui	t2, 522240
.Ltmp498:
	.loc	12 150 15
	and	a4, a3, t2
.Ltmp499:
	.loc	12 151 15
	and	t4, a3, t1
.Ltmp500:
	.loc	12 154 8
	bne	a4, t2, .LBB21_25
.Ltmp501:
	.loc	12 156 26
	snez	a3, t4
.Ltmp502:
	.loc	12 156 23 is_stmt 0
	slli	a3, a3, 9
.Ltmp503:
	.loc	12 157 17 is_stmt 1
	srli	a5, a5, 16
.Ltmp504:
	.loc	12 157 54 is_stmt 0
	srli	a4, t4, 13
.Ltmp505:
	.loc	12 157 17
	or	a4, a4, a5
	.loc	12 157 16
	or	a3, a3, a4
.Ltmp506:
	or	t2, a3, a7
	j	.LBB21_33
.Ltmp507:
.LBB21_25:
	.loc	12 0 16
	lui	t3, 290816
	.loc	12 161 21 is_stmt 1
	srli	t2, a5, 16
.Ltmp508:
	.loc	12 167 8
	bgeu	t3, a4, .LBB21_27
.Ltmp509:
	.loc	12 168 16
	or	t2, t2, a7
.Ltmp510:
	.loc	12 0 16 is_stmt 0
	j	.LBB21_33
.Ltmp511:
.LBB21_27:
	srli	t3, a4, 23
.Ltmp512:
	li	a5, 113
.Ltmp513:
	.loc	12 172 8 is_stmt 1
	bgeu	t3, a5, .LBB21_32
.Ltmp514:
	.loc	12 174 12
	srli	a4, a4, 24
.Ltmp515:
	.loc	12 0 12 is_stmt 0
	li	a3, 51
.Ltmp516:
	.loc	12 174 12
	bltu	a4, a3, .LBB21_33
.Ltmp517:
	.loc	12 0 12
	li	a3, 30
	.loc	12 174 12
	sub	t5, a3, t3
	lui	a4, 2048
	.loc	12 179 19 is_stmt 1
	or	a4, t4, a4
	li	a5, 29
.Ltmp518:
	.loc	12 182 30
	sub	a5, a5, t3
.Ltmp519:
	.loc	12 183 12
	srl	a3, a4, a5
	andi	t3, a3, 1
.Ltmp520:
	.loc	12 180 28
	srl	a3, a4, t5
.Ltmp521:
	.loc	12 183 12
	beqz	t3, .LBB21_31
.Ltmp522:
	.loc	12 0 12 is_stmt 0
	andi	t3, a5, 31
	li	a5, 3
	.loc	12 183 46
	sll	a5, a5, t3
	.loc	12 183 45
	addi	a5, a5, -1
	.loc	12 183 38
	and	a4, a4, a5
.Ltmp523:
	snez	a4, a4
	add	a3, a3, a4
.Ltmp524:
.LBB21_31:
	.loc	12 187 16 is_stmt 1
	or	t2, a3, t2
.Ltmp525:
	.loc	12 0 16 is_stmt 0
	j	.LBB21_33
.Ltmp526:
.LBB21_32:
	.loc	12 191 20 is_stmt 1
	srli	a4, a4, 13
.Ltmp527:
	.loc	12 0 20 is_stmt 0
	lui	a5, 4
	.loc	12 191 20
	add	t3, a4, a5
.Ltmp528:
	.loc	12 192 20 is_stmt 1
	srli	t4, t4, 13
.Ltmp529:
	.loc	12 195 8
	srli	a4, a3, 12
	lui	a5, 3
	addi	a5, a5, -1
	and	a3, a3, a5
.Ltmp530:
	.loc	12 0 8 is_stmt 0
	snez	a3, a3
	and	a3, a3, a4
	or	a4, t4, t2
	or	t2, t3, a4
.Ltmp531:
	.loc	12 195 8
	add	t2, t2, a3
.Ltmp532:
.LBB21_33:
	.loc	12 0 8
	li	a3, 3
	.loc	12 375 29 is_stmt 1
	beq	a2, a3, .LBB21_48
.Ltmp533:
	lw	a3, 12(a1)
	lui	a1, 524288
.Ltmp534:
	.loc	12 149 16
	and	a1, a1, a3
	lui	a5, 522240
.Ltmp535:
	.loc	12 150 15
	and	a4, a3, a5
.Ltmp536:
	.loc	12 151 15
	and	a2, a3, t1
.Ltmp537:
	.loc	12 154 8
	bne	a4, a5, .LBB21_36
.Ltmp538:
	.loc	12 156 26
	snez	a3, a2
.Ltmp539:
	.loc	12 156 23 is_stmt 0
	slli	a3, a3, 9
.Ltmp540:
	.loc	12 157 17 is_stmt 1
	srli	a1, a1, 16
.Ltmp541:
	.loc	12 157 54 is_stmt 0
	srli	a2, a2, 13
.Ltmp542:
	.loc	12 157 17
	or	a1, a1, a2
	.loc	12 157 16
	or	a1, a1, a3
	or	a1, a1, a7
	j	.LBB21_44
.Ltmp543:
.LBB21_36:
	.loc	12 0 16
	lui	a5, 290816
	.loc	12 161 21 is_stmt 1
	srli	a1, a1, 16
.Ltmp544:
	.loc	12 167 8
	bgeu	a5, a4, .LBB21_38
.Ltmp545:
	.loc	12 168 16
	or	a1, a1, a7
.Ltmp546:
	.loc	12 0 16 is_stmt 0
	j	.LBB21_44
.Ltmp547:
.LBB21_38:
	srli	a7, a4, 23
.Ltmp548:
	li	a5, 113
	.loc	12 172 8 is_stmt 1
	bgeu	a7, a5, .LBB21_43
.Ltmp549:
	.loc	12 174 12
	srli	a4, a4, 24
.Ltmp550:
	.loc	12 0 12 is_stmt 0
	li	a3, 51
.Ltmp551:
	.loc	12 174 12
	bltu	a4, a3, .LBB21_44
.Ltmp552:
	.loc	12 0 12
	li	a3, 30
	.loc	12 174 12
	sub	t1, a3, a7
	lui	a3, 2048
	.loc	12 179 19 is_stmt 1
	or	a3, a3, a2
	li	a2, 29
.Ltmp553:
	.loc	12 182 30
	sub	a4, a2, a7
.Ltmp554:
	.loc	12 183 12
	srl	a2, a3, a4
	andi	a5, a2, 1
.Ltmp555:
	.loc	12 180 28
	srl	a2, a3, t1
.Ltmp556:
	.loc	12 183 12
	beqz	a5, .LBB21_42
.Ltmp557:
	.loc	12 0 12 is_stmt 0
	andi	a4, a4, 31
	li	a5, 3
	.loc	12 183 46
	sll	a4, a5, a4
	.loc	12 183 45
	addi	a4, a4, -1
	.loc	12 183 38
	and	a3, a3, a4
.Ltmp558:
	snez	a3, a3
	add	a2, a2, a3
.Ltmp559:
.LBB21_42:
	.loc	12 187 16 is_stmt 1
	or	a1, a1, a2
.Ltmp560:
	.loc	12 0 16 is_stmt 0
	j	.LBB21_44
.Ltmp561:
.LBB21_43:
	.loc	12 191 20 is_stmt 1
	srli	a4, a4, 13
.Ltmp562:
	.loc	12 0 20 is_stmt 0
	lui	a5, 4
	.loc	12 191 20
	add	a7, a4, a5
.Ltmp563:
	.loc	12 192 20 is_stmt 1
	srli	a2, a2, 13
.Ltmp564:
	.loc	12 195 8
	srli	a5, a3, 12
	lui	a4, 3
	addi	a4, a4, -1
	and	a3, a3, a4
.Ltmp565:
	.loc	12 0 8 is_stmt 0
	snez	a3, a3
	and	a3, a3, a5
	or	a1, a1, a2
.Ltmp566:
	or	a1, a7, a1
	.loc	12 195 8
	add	a1, a1, a3
.Ltmp567:
.LBB21_44:
	.loc	12 371 5 is_stmt 1
	sh	a6, 0(a0)
	sh	t0, 2(a0)
	sh	t2, 4(a0)
	sh	a1, 6(a0)
	.loc	12 377 2
	ret
.LBB21_45:
.Ltmp568:
	.loc	12 372 29
	lui	a0, %hi(.L__unnamed_7)
	addi	a2, a0, %lo(.L__unnamed_7)
.Ltmp569:
	li	a0, 0
	li	a1, 0
.Ltmp570:
	call	_ZN4core9panicking18panic_bounds_check17hf1abd9f97fd59941E
.LBB21_46:
.Ltmp571:
	.loc	12 373 29
	lui	a0, %hi(.L__unnamed_8)
	addi	a2, a0, %lo(.L__unnamed_8)
.Ltmp572:
	li	a0, 1
	li	a1, 1
.Ltmp573:
	call	_ZN4core9panicking18panic_bounds_check17hf1abd9f97fd59941E
.LBB21_47:
.Ltmp574:
	.loc	12 374 29
	lui	a0, %hi(.L__unnamed_9)
	addi	a2, a0, %lo(.L__unnamed_9)
.Ltmp575:
	li	a0, 2
	li	a1, 2
.Ltmp576:
	call	_ZN4core9panicking18panic_bounds_check17hf1abd9f97fd59941E
.LBB21_48:
.Ltmp577:
	.loc	12 375 29
	lui	a0, %hi(.L__unnamed_10)
	addi	a2, a0, %lo(.L__unnamed_10)
.Ltmp578:
	li	a0, 3
	li	a1, 3
.Ltmp579:
	call	_ZN4core9panicking18panic_bounds_check17hf1abd9f97fd59941E
.Ltmp580:
.Lfunc_end21:
	.size	_ZN4half8binary167convert23f32x4_to_f16x4_fallback17h29d4f1cc56f048afE, .Lfunc_end21-_ZN4half8binary167convert23f32x4_to_f16x4_fallback17h29d4f1cc56f048afE
	.cfi_endproc

	.section	.text._ZN4half8binary167convert23f16x4_to_f64x4_fallback17h041cbc1a66fe84eaE,"ax",@progbits
	.p2align	1
	.type	_ZN4half8binary167convert23f16x4_to_f64x4_fallback17h041cbc1a66fe84eaE,@function
_ZN4half8binary167convert23f16x4_to_f64x4_fallback17h041cbc1a66fe84eaE:
.Lfunc_begin22:
	.loc	12 380 0
	.cfi_startproc
	addi	sp, sp, -16
	.cfi_def_cfa_offset 16
.Ltmp581:
	.loc	12 384 29 prologue_end
	sw	s0, 12(sp)
	sw	s1, 8(sp)
	.cfi_offset s0, -4
	.cfi_offset s1, -8
	beqz	a2, .LBB22_55
.Ltmp582:
	lhu	a7, 0(a1)
	li	s0, 31
	slli	s1, s0, 10
.Ltmp583:
	.loc	12 314 8
	addi	t6, s1, 1023
	and	a3, a7, t6
	beqz	a3, .LBB22_5
.Ltmp584:
	.loc	12 0 8 is_stmt 0
	lui	a3, 8
	.loc	12 318 21 is_stmt 1
	and	a5, a7, a3
.Ltmp585:
	.loc	12 319 20
	and	a3, a7, s1
.Ltmp586:
	.loc	12 320 20
	andi	a4, a7, 1023
.Ltmp587:
	.loc	12 323 8
	bne	a3, s1, .LBB22_11
.Ltmp588:
	.loc	12 0 0 is_stmt 0
	slli	a3, a5, 16
.Ltmp589:
	li	a6, 0
	.loc	12 325 12 is_stmt 1
	beqz	a4, .LBB22_17
.Ltmp590:
	.loc	12 329 82
	slli	a4, a4, 10
	.loc	12 329 35 is_stmt 0
	or	a3, a3, a4
	lui	a4, 524160
	.loc	12 0 0
	or	a7, a3, a4
.Ltmp591:
	li	a3, 1
.Ltmp592:
	.loc	12 385 29 is_stmt 1
	bne	a2, a3, .LBB22_6
	j	.LBB22_13
.Ltmp593:
.LBB22_5:
	.loc	12 0 29 is_stmt 0
	li	a6, 0
.Ltmp594:
	.loc	12 315 31 is_stmt 1
	slli	a7, a7, 16
.Ltmp595:
	.loc	12 0 31 is_stmt 0
	li	a3, 1
.Ltmp596:
	.loc	12 385 29 is_stmt 1
	beq	a2, a3, .LBB22_13
.Ltmp597:
.LBB22_6:
	lhu	t1, 2(a1)
.Ltmp598:
	.loc	12 314 8
	and	a3, t1, t6
	beqz	a3, .LBB22_10
.Ltmp599:
	.loc	12 0 8 is_stmt 0
	lui	a3, 8
	.loc	12 318 21 is_stmt 1
	and	a5, t1, a3
.Ltmp600:
	.loc	12 319 20
	and	a3, t1, s1
.Ltmp601:
	.loc	12 320 20
	andi	a4, t1, 1023
	li	s0, 31
	slli	s0, s0, 10
.Ltmp602:
	.loc	12 0 20 is_stmt 0
	slli	t1, a5, 16
.Ltmp603:
	.loc	12 323 8 is_stmt 1
	bne	a3, s0, .LBB22_14
.Ltmp604:
	.loc	12 0 8 is_stmt 0
	li	t0, 0
	.loc	12 325 12 is_stmt 1
	beqz	a4, .LBB22_20
.Ltmp605:
	.loc	12 329 82
	slli	a4, a4, 10
	.loc	12 329 35 is_stmt 0
	or	a3, t1, a4
.Ltmp606:
	.loc	12 0 35
	lui	a4, 524160
	j	.LBB22_16
.Ltmp607:
.LBB22_10:
	li	t0, 0
	.loc	12 315 31 is_stmt 1
	slli	t1, t1, 16
.Ltmp608:
	.loc	12 0 31 is_stmt 0
	j	.LBB22_27
.Ltmp609:
.LBB22_11:
	.loc	12 334 16 is_stmt 1
	slli	a7, a5, 16
.Ltmp610:
	.loc	12 339 8
	beqz	a3, .LBB22_18
.Ltmp611:
	.loc	12 0 8 is_stmt 0
	li	a6, 0
	srli	a3, a3, 10
.Ltmp612:
	.loc	12 350 16 is_stmt 1
	addi	a3, a3, 1008
.Ltmp613:
	.loc	12 350 15 is_stmt 0
	slli	a3, a3, 20
.Ltmp614:
	.loc	12 351 15 is_stmt 1
	slli	a4, a4, 10
.Ltmp615:
	.loc	12 352 20
	or	a4, a4, a7
.Ltmp616:
	.loc	12 0 0 is_stmt 0
	or	a7, a3, a4
.Ltmp617:
	li	a3, 1
.Ltmp618:
	.loc	12 385 29 is_stmt 1
	bne	a2, a3, .LBB22_6
.Ltmp619:
.LBB22_13:
	lui	a0, %hi(.L__unnamed_11)
	addi	a2, a0, %lo(.L__unnamed_11)
.Ltmp620:
	li	a0, 1
	li	a1, 1
.Ltmp621:
	call	_ZN4core9panicking18panic_bounds_check17hf1abd9f97fd59941E
.LBB22_14:
.Ltmp622:
	.loc	12 339 8
	beqz	a3, .LBB22_21
.Ltmp623:
	.loc	12 0 8 is_stmt 0
	li	t0, 0
	srli	a3, a3, 10
.Ltmp624:
	.loc	12 350 16 is_stmt 1
	addi	a3, a3, 1008
.Ltmp625:
	.loc	12 350 15 is_stmt 0
	slli	a3, a3, 20
.Ltmp626:
	.loc	12 351 15 is_stmt 1
	slli	a4, a4, 10
.Ltmp627:
	.loc	12 352 20
	or	a4, a4, t1
.Ltmp628:
.LBB22_16:
	.loc	12 0 0 is_stmt 0
	or	t1, a3, a4
	j	.LBB22_27
.Ltmp629:
.LBB22_17:
	lui	a4, 524032
.Ltmp630:
	or	a7, a3, a4
.Ltmp631:
	li	a3, 1
	bne	a2, a3, .LBB22_6
	j	.LBB22_13
.Ltmp632:
.LBB22_18:
	lui	t0, 256
	addi	t0, t0, -1
.Ltmp633:
	.loc	6 1108 5 is_stmt 1
	beqz	a4, .LBB22_23
.Ltmp634:
	srli	a3, a4, 1
.Ltmp635:
	or	a3, a3, a4
	srli	a5, a3, 2
	or	a5, a5, a3
	srli	a6, a5, 4
	srli	a3, a3, 8
	or	a3, a3, a5
	or	a3, a3, a6
	not	a3, a3
	srli	a6, a3, 1
	lui	a5, 5
	addi	a5, a5, 1365
	and	a5, a6, a5
	sub	a3, a3, a5
	lui	a5, 3
	addi	a5, a5, 819
	and	a6, a3, a5
	srli	a3, a3, 2
	and	a3, a3, a5
	add	a3, a3, a6
	srli	a5, a3, 4
	add	a3, a3, a5
	andi	t1, a3, 15
	slli	a3, a3, 20
	srli	a3, a3, 28
	add	t1, t1, a3
	j	.LBB22_24
.Ltmp636:
.LBB22_20:
	.loc	6 0 5 is_stmt 0
	lui	a3, 524032
.Ltmp637:
	.loc	12 326 35 is_stmt 1
	or	t1, t1, a3
	j	.LBB22_27
.Ltmp638:
.LBB22_21:
	.loc	12 0 35 is_stmt 0
	lui	t2, 256
	addi	t2, t2, -1
.Ltmp639:
	.loc	6 1108 5 is_stmt 1
	beqz	a4, .LBB22_25
.Ltmp640:
	srli	a3, a4, 1
.Ltmp641:
	or	a3, a3, a4
	srli	a5, a3, 2
	or	a5, a5, a3
	srli	s0, a5, 4
	srli	a3, a3, 8
	or	a3, a3, a5
	or	a3, a3, s0
	not	a3, a3
	srli	a5, a3, 1
	lui	s0, 5
	addi	s0, s0, 1365
	and	a5, a5, s0
	sub	a3, a3, a5
	lui	a5, 3
	addi	a5, a5, 819
	and	s0, a3, a5
	srli	a3, a3, 2
	and	a3, a3, a5
	add	a3, a3, s0
	srli	a5, a3, 4
	add	a3, a3, a5
	andi	t3, a3, 15
	slli	a3, a3, 20
	srli	a3, a3, 28
	add	t3, t3, a3
	j	.LBB22_26
.Ltmp642:
.LBB22_23:
	.loc	6 0 5 is_stmt 0
	li	t1, 16
.Ltmp643:
.LBB22_24:
	li	a6, 0
	li	a3, 1014
.Ltmp644:
	.loc	12 344 20 is_stmt 1
	sub	a3, a3, t1
	.loc	12 344 19 is_stmt 0
	slli	a3, a3, 20
.Ltmp645:
	.loc	12 345 19 is_stmt 1
	addi	t1, t1, 5
.Ltmp646:
	sll	a4, a4, t1
	slti	a5, t1, 0
	addi	a5, a5, -1
	and	a4, a4, t0
	and	a4, a4, a5
.Ltmp647:
	.loc	12 346 31
	or	a3, a3, a7
.Ltmp648:
	or	a7, a4, a3
.Ltmp649:
	.loc	12 0 31 is_stmt 0
	li	a3, 1
.Ltmp650:
	.loc	12 385 29 is_stmt 1
	bne	a2, a3, .LBB22_6
	j	.LBB22_13
.Ltmp651:
.LBB22_25:
	.loc	12 0 29 is_stmt 0
	li	t3, 16
.Ltmp652:
.LBB22_26:
	li	t0, 0
	li	a3, 1014
.Ltmp653:
	.loc	12 344 20 is_stmt 1
	sub	a3, a3, t3
	.loc	12 344 19 is_stmt 0
	slli	a3, a3, 20
.Ltmp654:
	.loc	12 345 19 is_stmt 1
	addi	t3, t3, 5
.Ltmp655:
	sll	a4, a4, t3
	slti	a5, t3, 0
	addi	a5, a5, -1
	and	a4, a4, t2
	and	a4, a4, a5
.Ltmp656:
	.loc	12 346 31
	or	a3, a3, t1
.Ltmp657:
	or	t1, a4, a3
.Ltmp658:
.LBB22_27:
	.loc	12 0 31 is_stmt 0
	li	a3, 2
	.loc	12 386 29 is_stmt 1
	bgeu	a3, a2, .LBB22_56
.Ltmp659:
	lhu	a4, 4(a1)
.Ltmp660:
	.loc	12 314 8
	and	a3, a4, t6
	beqz	a3, .LBB22_32
.Ltmp661:
	.loc	12 0 8 is_stmt 0
	lui	a3, 8
	.loc	12 318 21 is_stmt 1
	and	t3, a4, a3
.Ltmp662:
	.loc	12 319 20
	and	a3, a4, s1
	li	a5, 31
	slli	a5, a5, 10
.Ltmp663:
	.loc	12 320 20
	andi	a4, a4, 1023
.Ltmp664:
	.loc	12 323 8
	bne	a3, a5, .LBB22_38
.Ltmp665:
	.loc	12 0 0 is_stmt 0
	slli	a3, t3, 16
.Ltmp666:
	li	t2, 0
	.loc	12 325 12 is_stmt 1
	beqz	a4, .LBB22_43
.Ltmp667:
	.loc	12 329 82
	slli	a4, a4, 10
	.loc	12 329 35 is_stmt 0
	or	a3, a3, a4
	lui	a4, 524160
	.loc	12 0 0
	or	a4, a4, a3
	li	a3, 3
.Ltmp668:
	.loc	12 387 29 is_stmt 1
	bne	a2, a3, .LBB22_33
	j	.LBB22_40
.Ltmp669:
.LBB22_32:
	.loc	12 0 29 is_stmt 0
	li	t2, 0
.Ltmp670:
	.loc	12 315 31 is_stmt 1
	slli	a4, a4, 16
.Ltmp671:
	.loc	12 0 31 is_stmt 0
	li	a3, 3
.Ltmp672:
	.loc	12 387 29 is_stmt 1
	beq	a2, a3, .LBB22_40
.Ltmp673:
.LBB22_33:
	lhu	a1, 6(a1)
.Ltmp674:
	.loc	12 314 8
	and	a2, a1, t6
.Ltmp675:
	beqz	a2, .LBB22_37
.Ltmp676:
	.loc	12 0 8 is_stmt 0
	lui	a2, 8
	.loc	12 318 21 is_stmt 1
	and	a2, a2, a1
.Ltmp677:
	.loc	12 319 20
	and	a3, a1, s1
	li	a5, 31
	slli	a5, a5, 10
.Ltmp678:
	.loc	12 320 20
	andi	a1, a1, 1023
.Ltmp679:
	.loc	12 334 16
	slli	a2, a2, 16
	.loc	12 323 8
	bne	a3, a5, .LBB22_41
.Ltmp680:
	.loc	12 0 8 is_stmt 0
	li	a5, 0
	.loc	12 325 12 is_stmt 1
	beqz	a1, .LBB22_44
.Ltmp681:
	.loc	12 329 82
	slli	a1, a1, 10
	.loc	12 329 35 is_stmt 0
	or	a1, a1, a2
	lui	a2, 524160
	j	.LBB22_53
.Ltmp682:
.LBB22_37:
	.loc	12 0 35
	li	a5, 0
	.loc	12 315 31 is_stmt 1
	slli	a1, a1, 16
.Ltmp683:
	.loc	12 0 31 is_stmt 0
	j	.LBB22_54
.Ltmp684:
.LBB22_38:
	.loc	12 334 16 is_stmt 1
	slli	t3, t3, 16
.Ltmp685:
	.loc	12 339 8
	beqz	a3, .LBB22_45
.Ltmp686:
	.loc	12 0 8 is_stmt 0
	li	t2, 0
	srli	a3, a3, 10
.Ltmp687:
	.loc	12 350 16 is_stmt 1
	addi	a3, a3, 1008
.Ltmp688:
	.loc	12 350 15 is_stmt 0
	slli	a3, a3, 20
.Ltmp689:
	.loc	12 351 15 is_stmt 1
	slli	a4, a4, 10
.Ltmp690:
	.loc	12 352 20
	or	a4, a4, t3
.Ltmp691:
	.loc	12 0 0 is_stmt 0
	or	a4, a4, a3
	li	a3, 3
.Ltmp692:
	.loc	12 387 29 is_stmt 1
	bne	a2, a3, .LBB22_33
.Ltmp693:
.LBB22_40:
	lui	a0, %hi(.L__unnamed_12)
	addi	a2, a0, %lo(.L__unnamed_12)
.Ltmp694:
	li	a0, 3
	li	a1, 3
.Ltmp695:
	call	_ZN4core9panicking18panic_bounds_check17hf1abd9f97fd59941E
.LBB22_41:
.Ltmp696:
	.loc	12 339 8
	beqz	a3, .LBB22_47
.Ltmp697:
	.loc	12 0 8 is_stmt 0
	li	a5, 0
	srli	a3, a3, 10
.Ltmp698:
	.loc	12 350 16 is_stmt 1
	addi	a3, a3, 1008
.Ltmp699:
	.loc	12 350 15 is_stmt 0
	slli	a3, a3, 20
.Ltmp700:
	.loc	12 351 15 is_stmt 1
	slli	a1, a1, 10
.Ltmp701:
	.loc	12 352 20
	or	a1, a1, a2
.Ltmp702:
	or	a1, a1, a3
.Ltmp703:
	.loc	12 0 20 is_stmt 0
	j	.LBB22_54
.Ltmp704:
.LBB22_43:
	lui	a4, 524032
.Ltmp705:
	or	a4, a4, a3
	li	a3, 3
	bne	a2, a3, .LBB22_33
	j	.LBB22_40
.Ltmp706:
.LBB22_44:
	lui	a1, 524032
.Ltmp707:
	.loc	12 326 35 is_stmt 1
	or	a1, a1, a2
	j	.LBB22_54
.Ltmp708:
.LBB22_45:
	.loc	12 0 35 is_stmt 0
	lui	t4, 256
	addi	t4, t4, -1
.Ltmp709:
	.loc	6 1108 5 is_stmt 1
	beqz	a4, .LBB22_49
.Ltmp710:
	srli	a3, a4, 1
.Ltmp711:
	or	a3, a3, a4
	srli	a5, a3, 2
	or	a5, a5, a3
	srli	s0, a5, 4
	srli	a3, a3, 8
	or	a3, a3, a5
	or	a3, a3, s0
	not	a3, a3
	srli	a5, a3, 1
	lui	s0, 5
	addi	s0, s0, 1365
	and	a5, a5, s0
	sub	a3, a3, a5
	lui	a5, 3
	addi	a5, a5, 819
	and	s0, a3, a5
	srli	a3, a3, 2
	and	a3, a3, a5
	add	a3, a3, s0
	srli	a5, a3, 4
	add	a3, a3, a5
	andi	t5, a3, 15
	slli	a3, a3, 20
	srli	a3, a3, 28
	add	t5, t5, a3
	j	.LBB22_50
.Ltmp712:
.LBB22_47:
	.loc	6 0 5 is_stmt 0
	lui	t3, 256
	addi	t3, t3, -1
.Ltmp713:
	.loc	6 1108 5
	beqz	a1, .LBB22_51
.Ltmp714:
	srli	a3, a1, 1
.Ltmp715:
	or	a3, a3, a1
	srli	a5, a3, 2
	or	a5, a5, a3
	srli	s1, a5, 4
	srli	a3, a3, 8
	or	a3, a3, a5
	or	a3, a3, s1
	not	a3, a3
	srli	a5, a3, 1
	lui	s1, 5
	addi	s1, s1, 1365
	and	a5, a5, s1
	sub	a3, a3, a5
	lui	a5, 3
	addi	a5, a5, 819
	and	s1, a3, a5
	srli	a3, a3, 2
	and	a3, a3, a5
	add	a3, a3, s1
	srli	a5, a3, 4
	add	a3, a3, a5
	andi	a5, a3, 15
	slli	a3, a3, 20
	srli	a3, a3, 28
	add	a3, a3, a5
	j	.LBB22_52
.Ltmp716:
.LBB22_49:
	.loc	6 0 5
	li	t5, 16
.Ltmp717:
.LBB22_50:
	li	t2, 0
	li	a3, 1014
.Ltmp718:
	.loc	12 344 20 is_stmt 1
	sub	a3, a3, t5
	.loc	12 344 19 is_stmt 0
	slli	a3, a3, 20
.Ltmp719:
	.loc	12 345 19 is_stmt 1
	addi	t5, t5, 5
.Ltmp720:
	sll	a4, a4, t5
	slti	a5, t5, 0
	addi	a5, a5, -1
	and	a4, a4, t4
	and	a4, a4, a5
.Ltmp721:
	.loc	12 346 31
	or	a3, a3, t3
.Ltmp722:
	or	a4, a4, a3
.Ltmp723:
	.loc	12 0 31 is_stmt 0
	li	a3, 3
.Ltmp724:
	.loc	12 387 29 is_stmt 1
	bne	a2, a3, .LBB22_33
	j	.LBB22_40
.Ltmp725:
.LBB22_51:
	.loc	12 0 29 is_stmt 0
	li	a3, 16
.Ltmp726:
.LBB22_52:
	li	a5, 0
	li	s1, 1014
.Ltmp727:
	.loc	12 344 20 is_stmt 1
	sub	s1, s1, a3
	.loc	12 344 19 is_stmt 0
	slli	s1, s1, 20
.Ltmp728:
	.loc	12 345 19 is_stmt 1
	addi	a3, a3, 5
.Ltmp729:
	sll	a1, a1, a3
	slti	a3, a3, 0
	addi	a3, a3, -1
	and	a1, a1, t3
	and	a1, a1, a3
.Ltmp730:
	.loc	12 346 31
	or	a2, a2, s1
.Ltmp731:
.LBB22_53:
	.loc	12 0 0 is_stmt 0
	or	a1, a1, a2
.Ltmp732:
.LBB22_54:
	.loc	12 383 5 is_stmt 1
	sw	a6, 0(a0)
	sw	a7, 4(a0)
	sw	t0, 8(a0)
	sw	t1, 12(a0)
	sw	t2, 16(a0)
	sw	a4, 20(a0)
	sw	a5, 24(a0)
	sw	a1, 28(a0)
	.loc	12 389 2
	lw	s0, 12(sp)
	lw	s1, 8(sp)
	.loc	12 389 2 epilogue_begin is_stmt 0
	addi	sp, sp, 16
	ret
.LBB22_55:
.Ltmp733:
	.loc	12 384 29 is_stmt 1
	lui	a0, %hi(.L__unnamed_13)
	addi	a2, a0, %lo(.L__unnamed_13)
.Ltmp734:
	li	a0, 0
	li	a1, 0
.Ltmp735:
	call	_ZN4core9panicking18panic_bounds_check17hf1abd9f97fd59941E
.LBB22_56:
.Ltmp736:
	.loc	12 386 29
	lui	a0, %hi(.L__unnamed_14)
	addi	a2, a0, %lo(.L__unnamed_14)
.Ltmp737:
	li	a0, 2
	li	a1, 2
.Ltmp738:
	call	_ZN4core9panicking18panic_bounds_check17hf1abd9f97fd59941E
.Ltmp739:
.Lfunc_end22:
	.size	_ZN4half8binary167convert23f16x4_to_f64x4_fallback17h041cbc1a66fe84eaE, .Lfunc_end22-_ZN4half8binary167convert23f16x4_to_f64x4_fallback17h041cbc1a66fe84eaE
	.cfi_endproc

	.section	.text._ZN4half8binary167convert23f64x4_to_f16x4_fallback17ha4e0ba34de1513afE,"ax",@progbits
	.p2align	1
	.type	_ZN4half8binary167convert23f64x4_to_f16x4_fallback17ha4e0ba34de1513afE,@function
_ZN4half8binary167convert23f64x4_to_f16x4_fallback17ha4e0ba34de1513afE:
.Lfunc_begin23:
	.cfi_startproc
	.cfi_def_cfa_offset 0
	.loc	12 396 29 prologue_end
	beqz	a2, .LBB23_45
.Ltmp740:
	.loc	12 0 29 is_stmt 0
	lui	t1, 256
	addi	t1, t1, -1
	.loc	12 396 29
	lw	a4, 4(a1)
.Ltmp741:
	.loc	12 0 29
	li	a7, 31
	slli	a7, a7, 10
.Ltmp742:
	lui	a3, 524288
.Ltmp743:
	.loc	12 210 16 is_stmt 1
	and	a3, a3, a4
	lui	t0, 524032
.Ltmp744:
	.loc	12 211 15
	and	a5, a4, t0
.Ltmp745:
	.loc	12 212 15
	and	t2, a4, t1
	srli	a6, a3, 16
.Ltmp746:
	.loc	12 215 8
	bne	a5, t0, .LBB23_3
.Ltmp747:
	.loc	12 396 0
	lw	a3, 0(a1)
.Ltmp748:
	.loc	12 218 26
	or	a3, t2, a3
.Ltmp749:
	snez	a3, a3
	.loc	12 218 23 is_stmt 0
	slli	a3, a3, 9
.Ltmp750:
	.loc	12 223 54 is_stmt 1
	srli	a4, t2, 10
.Ltmp751:
	.loc	12 223 17 is_stmt 0
	or	a4, a4, a6
	.loc	12 223 16
	or	a4, a4, a7
	or	a6, a4, a3
	j	.LBB23_11
.Ltmp752:
.LBB23_3:
	.loc	12 0 16
	lui	a3, 265728
.Ltmp753:
	.loc	12 233 8 is_stmt 1
	bgeu	a3, a5, .LBB23_5
.Ltmp754:
	.loc	12 234 16
	or	a6, a6, a7
.Ltmp755:
	.loc	12 0 16 is_stmt 0
	j	.LBB23_11
.Ltmp756:
.LBB23_5:
	srli	t0, a5, 20
.Ltmp757:
	li	a3, 1009
	.loc	12 238 8 is_stmt 1
	bgeu	t0, a3, .LBB23_10
.Ltmp758:
	.loc	12 0 8 is_stmt 0
	li	a3, 997
	.loc	12 240 12 is_stmt 1
	bltu	t0, a3, .LBB23_11
.Ltmp759:
	.loc	12 0 12 is_stmt 0
	li	a3, 26
	.loc	12 240 12
	sub	t3, a3, t0
	lui	a3, 256
	.loc	12 245 19 is_stmt 1
	or	a4, t2, a3
.Ltmp760:
	.loc	12 0 19 is_stmt 0
	li	a3, 27
.Ltmp761:
	.loc	12 246 35 is_stmt 1
	sub	t0, a3, t0
.Ltmp762:
	.loc	12 249 12
	srl	a3, a4, t3
	andi	a5, a3, 1
.Ltmp763:
	.loc	12 246 28
	srl	a3, a4, t0
.Ltmp764:
	.loc	12 249 12
	beqz	a5, .LBB23_9
.Ltmp765:
	.loc	12 0 12 is_stmt 0
	andi	t0, t3, 31
	li	a5, 3
	.loc	12 249 46
	sll	a5, a5, t0
	.loc	12 249 45
	addi	a5, a5, -1
	.loc	12 249 38
	and	a4, a4, a5
.Ltmp766:
	snez	a4, a4
	add	a3, a3, a4
.Ltmp767:
.LBB23_9:
	.loc	12 253 16 is_stmt 1
	or	a6, a3, a6
.Ltmp768:
	.loc	12 0 16 is_stmt 0
	j	.LBB23_11
.Ltmp769:
.LBB23_10:
	.loc	12 257 20 is_stmt 1
	srli	a5, a5, 10
.Ltmp770:
	.loc	12 0 20 is_stmt 0
	lui	a3, 4
	.loc	12 257 20
	add	t0, a5, a3
.Ltmp771:
	.loc	12 258 20 is_stmt 1
	srli	a5, t2, 10
.Ltmp772:
	.loc	12 261 8
	srli	a3, a4, 9
	andi	a4, a4, 1535
.Ltmp773:
	.loc	12 0 8 is_stmt 0
	snez	a4, a4
	and	a3, a3, a4
	or	a4, a5, a6
	or	a6, t0, a4
.Ltmp774:
	.loc	12 261 8
	add	a6, a6, a3
.Ltmp775:
.LBB23_11:
	.loc	12 0 8
	li	a3, 1
	.loc	12 397 29 is_stmt 1
	beq	a2, a3, .LBB23_46
.Ltmp776:
	lw	a4, 12(a1)
.Ltmp777:
	.loc	12 0 29 is_stmt 0
	lui	a3, 524288
.Ltmp778:
	.loc	12 210 16 is_stmt 1
	and	a3, a3, a4
	lui	t2, 524032
.Ltmp779:
	.loc	12 211 15
	and	a5, a4, t2
.Ltmp780:
	.loc	12 212 15
	and	t3, a4, t1
	srli	t0, a3, 16
.Ltmp781:
	.loc	12 215 8
	bne	a5, t2, .LBB23_14
.Ltmp782:
	.loc	12 397 0
	lw	a3, 8(a1)
.Ltmp783:
	.loc	12 218 26
	or	a3, t3, a3
.Ltmp784:
	snez	a3, a3
	.loc	12 218 23 is_stmt 0
	slli	a3, a3, 9
.Ltmp785:
	.loc	12 223 54 is_stmt 1
	srli	a4, t3, 10
.Ltmp786:
	.loc	12 223 17 is_stmt 0
	or	a4, a4, t0
	.loc	12 223 16
	or	a4, a4, a7
	or	t0, a4, a3
	j	.LBB23_22
.Ltmp787:
.LBB23_14:
	.loc	12 0 16
	lui	a3, 265728
.Ltmp788:
	.loc	12 233 8 is_stmt 1
	bgeu	a3, a5, .LBB23_16
.Ltmp789:
	.loc	12 234 16
	or	t0, t0, a7
.Ltmp790:
	.loc	12 0 16 is_stmt 0
	j	.LBB23_22
.Ltmp791:
.LBB23_16:
	srli	t2, a5, 20
.Ltmp792:
	li	a3, 1009
	.loc	12 238 8 is_stmt 1
	bgeu	t2, a3, .LBB23_21
.Ltmp793:
	.loc	12 0 8 is_stmt 0
	li	a3, 997
	.loc	12 240 12 is_stmt 1
	bltu	t2, a3, .LBB23_22
.Ltmp794:
	.loc	12 0 12 is_stmt 0
	li	a3, 26
	.loc	12 240 12
	sub	t4, a3, t2
	lui	a3, 256
	.loc	12 245 19 is_stmt 1
	or	a4, t3, a3
.Ltmp795:
	.loc	12 0 19 is_stmt 0
	li	a3, 27
.Ltmp796:
	.loc	12 246 35 is_stmt 1
	sub	t2, a3, t2
.Ltmp797:
	.loc	12 249 12
	srl	a3, a4, t4
	andi	a5, a3, 1
.Ltmp798:
	.loc	12 246 28
	srl	a3, a4, t2
.Ltmp799:
	.loc	12 249 12
	beqz	a5, .LBB23_20
.Ltmp800:
	.loc	12 0 12 is_stmt 0
	andi	t2, t4, 31
	li	a5, 3
	.loc	12 249 46
	sll	a5, a5, t2
	.loc	12 249 45
	addi	a5, a5, -1
	.loc	12 249 38
	and	a4, a4, a5
.Ltmp801:
	snez	a4, a4
	add	a3, a3, a4
.Ltmp802:
.LBB23_20:
	.loc	12 253 16 is_stmt 1
	or	t0, a3, t0
.Ltmp803:
	.loc	12 0 16 is_stmt 0
	j	.LBB23_22
.Ltmp804:
.LBB23_21:
	.loc	12 257 20 is_stmt 1
	srli	a5, a5, 10
.Ltmp805:
	.loc	12 0 20 is_stmt 0
	lui	a3, 4
	.loc	12 257 20
	add	t2, a5, a3
.Ltmp806:
	.loc	12 258 20 is_stmt 1
	srli	a5, t3, 10
.Ltmp807:
	.loc	12 261 8
	srli	a3, a4, 9
	andi	a4, a4, 1535
.Ltmp808:
	.loc	12 0 8 is_stmt 0
	snez	a4, a4
	and	a3, a3, a4
	or	a4, a5, t0
	or	t0, t2, a4
.Ltmp809:
	.loc	12 261 8
	add	t0, t0, a3
.Ltmp810:
.LBB23_22:
	.loc	12 0 8
	li	a3, 2
	.loc	12 398 29 is_stmt 1
	bgeu	a3, a2, .LBB23_47
.Ltmp811:
	lw	a3, 20(a1)
.Ltmp812:
	.loc	12 0 29 is_stmt 0
	lui	a5, 524288
.Ltmp813:
	.loc	12 210 16 is_stmt 1
	and	t2, a3, a5
	lui	a5, 524032
.Ltmp814:
	.loc	12 211 15
	and	a4, a3, a5
.Ltmp815:
	.loc	12 212 15
	and	t4, a3, t1
.Ltmp816:
	.loc	12 215 8
	bne	a4, a5, .LBB23_25
.Ltmp817:
	.loc	12 398 0
	lw	a3, 16(a1)
.Ltmp818:
	.loc	12 218 26
	or	a3, t4, a3
.Ltmp819:
	snez	a3, a3
	.loc	12 218 23 is_stmt 0
	slli	a3, a3, 9
.Ltmp820:
	.loc	12 223 17 is_stmt 1
	srli	a4, t2, 16
.Ltmp821:
	.loc	12 223 54 is_stmt 0
	srli	a5, t4, 10
	.loc	12 223 17
	or	a4, a4, a5
	.loc	12 223 16
	or	a4, a4, a7
	or	t2, a4, a3
.Ltmp822:
	.loc	12 0 16
	j	.LBB23_33
.Ltmp823:
.LBB23_25:
	lui	a5, 265728
	.loc	12 227 21 is_stmt 1
	srli	t2, t2, 16
.Ltmp824:
	.loc	12 233 8
	bgeu	a5, a4, .LBB23_27
.Ltmp825:
	.loc	12 234 16
	or	t2, t2, a7
.Ltmp826:
	.loc	12 0 16 is_stmt 0
	j	.LBB23_33
.Ltmp827:
.LBB23_27:
	srli	t3, a4, 20
.Ltmp828:
	li	a5, 1009
	.loc	12 238 8 is_stmt 1
	bgeu	t3, a5, .LBB23_32
.Ltmp829:
	.loc	12 0 8 is_stmt 0
	li	a3, 997
.Ltmp830:
	.loc	12 240 12 is_stmt 1
	bltu	t3, a3, .LBB23_33
.Ltmp831:
	.loc	12 0 12 is_stmt 0
	li	a3, 26
	.loc	12 240 12
	sub	t5, a3, t3
	lui	a3, 256
	.loc	12 245 19 is_stmt 1
	or	a4, t4, a3
.Ltmp832:
	.loc	12 0 19 is_stmt 0
	li	a3, 27
.Ltmp833:
	.loc	12 246 35 is_stmt 1
	sub	t3, a3, t3
.Ltmp834:
	.loc	12 249 12
	srl	a3, a4, t5
	andi	a5, a3, 1
.Ltmp835:
	.loc	12 246 28
	srl	a3, a4, t3
.Ltmp836:
	.loc	12 249 12
	beqz	a5, .LBB23_31
.Ltmp837:
	.loc	12 0 12 is_stmt 0
	andi	t3, t5, 31
	li	a5, 3
	.loc	12 249 46
	sll	a5, a5, t3
	.loc	12 249 45
	addi	a5, a5, -1
	.loc	12 249 38
	and	a4, a4, a5
.Ltmp838:
	snez	a4, a4
	add	a3, a3, a4
.Ltmp839:
.LBB23_31:
	.loc	12 253 16 is_stmt 1
	or	t2, a3, t2
.Ltmp840:
	.loc	12 0 16 is_stmt 0
	j	.LBB23_33
.Ltmp841:
.LBB23_32:
	.loc	12 257 20 is_stmt 1
	srli	a4, a4, 10
.Ltmp842:
	.loc	12 0 20 is_stmt 0
	lui	a5, 4
	.loc	12 257 20
	add	t3, a4, a5
.Ltmp843:
	.loc	12 258 20 is_stmt 1
	srli	a5, t4, 10
.Ltmp844:
	.loc	12 261 8
	srli	a4, a3, 9
	andi	a3, a3, 1535
.Ltmp845:
	.loc	12 0 8 is_stmt 0
	snez	a3, a3
	and	a3, a3, a4
	or	a4, a5, t2
	or	t2, t3, a4
.Ltmp846:
	.loc	12 261 8
	add	t2, t2, a3
.Ltmp847:
.LBB23_33:
	.loc	12 0 8
	li	a3, 3
	.loc	12 399 29 is_stmt 1
	beq	a2, a3, .LBB23_48
.Ltmp848:
	lw	a3, 28(a1)
.Ltmp849:
	.loc	12 0 29 is_stmt 0
	lui	a5, 524288
.Ltmp850:
	.loc	12 210 16 is_stmt 1
	and	a5, a5, a3
	lui	a2, 524032
.Ltmp851:
	.loc	12 211 15
	and	a4, a3, a2
.Ltmp852:
	.loc	12 212 15
	and	t1, a3, t1
.Ltmp853:
	.loc	12 215 8
	bne	a4, a2, .LBB23_37
.Ltmp854:
	.loc	12 399 0
	lw	a1, 24(a1)
.Ltmp855:
	.loc	12 218 26
	or	a1, t1, a1
.Ltmp856:
	snez	a1, a1
	.loc	12 218 23 is_stmt 0
	slli	a1, a1, 9
.Ltmp857:
	.loc	12 223 17 is_stmt 1
	srli	a5, a5, 16
.Ltmp858:
	.loc	12 223 54 is_stmt 0
	srli	a2, t1, 10
	.loc	12 223 17
	or	a2, a2, a5
	.loc	12 223 16
	or	a2, a2, a7
.Ltmp859:
.LBB23_36:
	.loc	12 0 0
	or	a1, a1, a2
	j	.LBB23_44
.Ltmp860:
.LBB23_37:
	lui	a2, 265728
	.loc	12 227 21 is_stmt 1
	srli	a1, a5, 16
.Ltmp861:
	.loc	12 233 8
	bgeu	a2, a4, .LBB23_39
.Ltmp862:
	.loc	12 234 16
	or	a1, a1, a7
.Ltmp863:
	.loc	12 0 16 is_stmt 0
	j	.LBB23_44
.Ltmp864:
.LBB23_39:
	srli	a5, a4, 20
.Ltmp865:
	li	a2, 1009
	.loc	12 238 8 is_stmt 1
	bgeu	a5, a2, .LBB23_43
.Ltmp866:
	.loc	12 0 8 is_stmt 0
	li	a2, 997
	.loc	12 240 12 is_stmt 1
	bltu	a5, a2, .LBB23_44
.Ltmp867:
	.loc	12 0 12 is_stmt 0
	li	a4, 26
.Ltmp868:
	.loc	12 240 12
	sub	a4, a4, a5
	lui	a2, 256
	.loc	12 245 19 is_stmt 1
	or	a3, t1, a2
.Ltmp869:
	.loc	12 0 19 is_stmt 0
	li	a2, 27
.Ltmp870:
	.loc	12 246 35 is_stmt 1
	sub	a2, a2, a5
.Ltmp871:
	.loc	12 249 12
	srl	a5, a3, a4
.Ltmp872:
	andi	a5, a5, 1
.Ltmp873:
	.loc	12 246 28
	srl	a2, a3, a2
.Ltmp874:
	.loc	12 249 12
	beqz	a5, .LBB23_36
.Ltmp875:
	.loc	12 0 12 is_stmt 0
	andi	a4, a4, 31
	li	a5, 3
	.loc	12 249 46
	sll	a4, a5, a4
	.loc	12 249 45
	addi	a4, a4, -1
	.loc	12 249 38
	and	a3, a3, a4
.Ltmp876:
	snez	a3, a3
	add	a2, a2, a3
.Ltmp877:
	.loc	12 0 38
	j	.LBB23_36
.Ltmp878:
.LBB23_43:
	.loc	12 257 20 is_stmt 1
	srli	a4, a4, 10
.Ltmp879:
	.loc	12 0 20 is_stmt 0
	lui	a2, 4
	.loc	12 257 20
	add	a2, a2, a4
.Ltmp880:
	.loc	12 258 20 is_stmt 1
	srli	a4, t1, 10
.Ltmp881:
	.loc	12 261 8
	srli	a5, a3, 9
.Ltmp882:
	.loc	12 0 8 is_stmt 0
	andi	a3, a3, 1535
.Ltmp883:
	snez	a3, a3
	and	a3, a3, a5
	or	a1, a1, a4
.Ltmp884:
	or	a1, a1, a2
	.loc	12 261 8
	add	a1, a1, a3
.Ltmp885:
.LBB23_44:
	.loc	12 395 5 is_stmt 1
	sh	a6, 0(a0)
	sh	t0, 2(a0)
	sh	t2, 4(a0)
	sh	a1, 6(a0)
	.loc	12 401 2
	ret
.LBB23_45:
.Ltmp886:
	.loc	12 396 29
	lui	a0, %hi(.L__unnamed_15)
	addi	a2, a0, %lo(.L__unnamed_15)
.Ltmp887:
	li	a0, 0
	li	a1, 0
.Ltmp888:
	call	_ZN4core9panicking18panic_bounds_check17hf1abd9f97fd59941E
.LBB23_46:
.Ltmp889:
	.loc	12 397 29
	lui	a0, %hi(.L__unnamed_16)
	addi	a2, a0, %lo(.L__unnamed_16)
.Ltmp890:
	li	a0, 1
	li	a1, 1
.Ltmp891:
	call	_ZN4core9panicking18panic_bounds_check17hf1abd9f97fd59941E
.LBB23_47:
.Ltmp892:
	.loc	12 398 29
	lui	a0, %hi(.L__unnamed_17)
	addi	a2, a0, %lo(.L__unnamed_17)
.Ltmp893:
	li	a0, 2
	li	a1, 2
.Ltmp894:
	call	_ZN4core9panicking18panic_bounds_check17hf1abd9f97fd59941E
.LBB23_48:
.Ltmp895:
	.loc	12 399 29
	lui	a0, %hi(.L__unnamed_18)
	addi	a2, a0, %lo(.L__unnamed_18)
.Ltmp896:
	li	a0, 3
	li	a1, 3
.Ltmp897:
	call	_ZN4core9panicking18panic_bounds_check17hf1abd9f97fd59941E
.Ltmp898:
.Lfunc_end23:
	.size	_ZN4half8binary167convert23f64x4_to_f16x4_fallback17ha4e0ba34de1513afE, .Lfunc_end23-_ZN4half8binary167convert23f64x4_to_f16x4_fallback17ha4e0ba34de1513afE
	.cfi_endproc

	.section	".text._ZN66_$LT$half..binary16..f16$u20$as$u20$core..str..traits..FromStr$GT$8from_str17h08609dafb9804c18E","ax",@progbits
	.globl	_ZN66_$LT$half..binary16..f16$u20$as$u20$core..str..traits..FromStr$GT$8from_str17h08609dafb9804c18E
	.p2align	1
	.type	_ZN66_$LT$half..binary16..f16$u20$as$u20$core..str..traits..FromStr$GT$8from_str17h08609dafb9804c18E,@function
_ZN66_$LT$half..binary16..f16$u20$as$u20$core..str..traits..FromStr$GT$8from_str17h08609dafb9804c18E:
.Lfunc_begin24:
	.file	13 "/Users/steve/.cargo/registry/src/index.crates.io-6f17d22bba15001f/half-1.8.3" "src/binary16.rs"
	.loc	13 793 0
	.cfi_startproc
	addi	sp, sp, -16
	.cfi_def_cfa_offset 16
	sw	ra, 12(sp)
	.cfi_offset ra, -4
	mv	a2, a1
.Ltmp899:
	mv	a1, a0
.Ltmp900:
	.loc	13 794 9 prologue_end
	addi	a0, sp, 4
.Ltmp901:
	call	_ZN4core3num7dec2flt60_$LT$impl$u20$core..str..traits..FromStr$u20$for$u20$f32$GT$8from_str17h34ea7e9a2cf5dd44E
.Ltmp902:
	.loc	9 745 15
	lbu	a0, 4(sp)
	.loc	9 745 9 is_stmt 0
	beqz	a0, .LBB24_2
	.loc	9 747 17 is_stmt 1
	lbu	a0, 5(sp)
	.loc	9 749 6
	slli	a0, a0, 8
	li	a1, 1
	or	a0, a0, a1
.Ltmp903:
	.loc	13 795 6
	lw	ra, 12(sp)
	.loc	13 795 6 epilogue_begin is_stmt 0
	addi	sp, sp, 16
	ret
.LBB24_2:
.Ltmp904:
	.loc	9 746 16 is_stmt 1
	lw	a2, 8(sp)
	lui	a0, 524288
.Ltmp905:
	.loc	12 149 16
	and	a0, a0, a2
	lui	a4, 522240
.Ltmp906:
	.loc	12 150 15
	and	a3, a2, a4
.Ltmp907:
	.loc	12 151 15
	slli	a1, a2, 9
	srli	a1, a1, 9
.Ltmp908:
	.loc	12 154 8
	bne	a3, a4, .LBB24_4
.Ltmp909:
	.loc	12 156 26
	snez	a2, a1
.Ltmp910:
	.loc	12 156 23 is_stmt 0
	slli	a2, a2, 9
.Ltmp911:
	.loc	12 157 17 is_stmt 1
	srli	a0, a0, 16
.Ltmp912:
	.loc	12 157 54 is_stmt 0
	srli	a1, a1, 13
.Ltmp913:
	.loc	12 157 16
	or	a0, a0, a1
	or	a0, a0, a2
	j	.LBB24_5
.Ltmp914:
.LBB24_4:
	.loc	12 0 16
	lui	a4, 290816
	.loc	12 161 21 is_stmt 1
	srli	a0, a0, 16
.Ltmp915:
	.loc	12 167 8
	bgeu	a4, a3, .LBB24_7
.Ltmp916:
.LBB24_5:
	.loc	12 0 8 is_stmt 0
	li	a1, 31
	slli	a1, a1, 10
	or	a0, a0, a1
.Ltmp917:
.LBB24_6:
	.loc	9 749 6 is_stmt 1
	slli	a0, a0, 16
	or	a0, a0, zero
.Ltmp918:
	.loc	13 795 6
	lw	ra, 12(sp)
	.loc	13 795 6 epilogue_begin is_stmt 0
	addi	sp, sp, 16
	ret
.LBB24_7:
.Ltmp919:
	.loc	13 0 6
	srli	a4, a3, 23
.Ltmp920:
	li	a5, 113
.Ltmp921:
	.loc	12 172 8 is_stmt 1
	bgeu	a4, a5, .LBB24_12
.Ltmp922:
	.loc	12 174 12
	srli	a3, a3, 24
.Ltmp923:
	.loc	12 0 12 is_stmt 0
	li	a2, 51
.Ltmp924:
	.loc	12 174 12
	bltu	a3, a2, .LBB24_6
.Ltmp925:
	.loc	12 0 12
	li	a2, 30
	.loc	12 174 12
	sub	a5, a2, a4
	lui	a2, 2048
	.loc	12 179 19 is_stmt 1
	or	a2, a2, a1
	li	a3, 29
.Ltmp926:
	.loc	12 182 30
	sub	a3, a3, a4
.Ltmp927:
	.loc	12 183 12
	srl	a1, a2, a3
.Ltmp928:
	andi	a4, a1, 1
.Ltmp929:
	.loc	12 180 28
	srl	a1, a2, a5
.Ltmp930:
	.loc	12 183 12
	beqz	a4, .LBB24_11
.Ltmp931:
	.loc	12 0 12 is_stmt 0
	andi	a3, a3, 31
	li	a4, 3
	.loc	12 183 46
	sll	a3, a4, a3
	.loc	12 183 45
	addi	a3, a3, -1
	.loc	12 183 38
	and	a2, a2, a3
.Ltmp932:
	snez	a2, a2
	add	a1, a1, a2
.Ltmp933:
.LBB24_11:
	.loc	12 187 16 is_stmt 1
	or	a0, a0, a1
.Ltmp934:
	.loc	12 0 16 is_stmt 0
	j	.LBB24_6
.Ltmp935:
.LBB24_12:
	.loc	12 191 20 is_stmt 1
	srli	a3, a3, 13
.Ltmp936:
	.loc	12 0 20 is_stmt 0
	lui	a4, 4
.Ltmp937:
	.loc	12 191 20
	add	a3, a3, a4
.Ltmp938:
	.loc	12 192 20 is_stmt 1
	srli	a1, a1, 13
.Ltmp939:
	.loc	12 195 8
	srli	a4, a2, 12
	lui	a5, 3
	addi	a5, a5, -1
	and	a2, a2, a5
.Ltmp940:
	.loc	12 0 8 is_stmt 0
	snez	a2, a2
	and	a2, a2, a4
	or	a1, a1, a3
.Ltmp941:
	or	a0, a0, a1
.Ltmp942:
	.loc	12 195 8
	add	a0, a0, a2
	j	.LBB24_6
.Ltmp943:
.Lfunc_end24:
	.size	_ZN66_$LT$half..binary16..f16$u20$as$u20$core..str..traits..FromStr$GT$8from_str17h08609dafb9804c18E, .Lfunc_end24-_ZN66_$LT$half..binary16..f16$u20$as$u20$core..str..traits..FromStr$GT$8from_str17h08609dafb9804c18E
	.cfi_endproc

	.section	".text._ZN56_$LT$half..binary16..f16$u20$as$u20$core..fmt..Debug$GT$3fmt17h335832fe8ac01fe3E","ax",@progbits
	.globl	_ZN56_$LT$half..binary16..f16$u20$as$u20$core..fmt..Debug$GT$3fmt17h335832fe8ac01fe3E
	.p2align	1
	.type	_ZN56_$LT$half..binary16..f16$u20$as$u20$core..fmt..Debug$GT$3fmt17h335832fe8ac01fe3E,@function
_ZN56_$LT$half..binary16..f16$u20$as$u20$core..fmt..Debug$GT$3fmt17h335832fe8ac01fe3E:
.Lfunc_begin25:
	.cfi_startproc
	.loc	13 800 27 prologue_end is_stmt 1
	lhu	a2, 0(a0)
	li	a3, 31
	slli	a3, a3, 10
.Ltmp944:
	.loc	12 271 8
	addi	a0, a3, 1023
.Ltmp945:
	and	a4, a2, a0
	mv	a0, a1
.Ltmp946:
	beqz	a4, .LBB25_4
.Ltmp947:
	.loc	12 0 8 is_stmt 0
	lui	a5, 8
	.loc	12 275 21 is_stmt 1
	and	a5, a5, a2
.Ltmp948:
	.loc	12 276 20
	and	a4, a2, a3
.Ltmp949:
	.loc	12 277 20
	andi	a1, a2, 1023
.Ltmp950:
	.loc	12 280 8
	bne	a4, a3, .LBB25_5
.Ltmp951:
	.loc	12 0 0 is_stmt 0
	slli	a5, a5, 16
.Ltmp952:
	.loc	12 282 12 is_stmt 1
	beqz	a1, .LBB25_7
.Ltmp953:
	.loc	12 286 72
	slli	a1, a1, 13
.Ltmp954:
	.loc	12 286 35 is_stmt 0
	or	a1, a1, a5
	lui	a2, 523264
.Ltmp955:
	or	a1, a1, a2
	j	.LBB25_12
.Ltmp956:
.LBB25_4:
	.loc	12 272 31 is_stmt 1
	slli	a1, a2, 16
	j	.LBB25_12
.Ltmp957:
.LBB25_5:
	.loc	12 291 16
	slli	a2, a5, 16
.Ltmp958:
	.loc	12 296 8
	beqz	a4, .LBB25_8
.Ltmp959:
	.loc	12 0 8 is_stmt 0
	srli	a4, a4, 10
.Ltmp960:
	.loc	12 307 16 is_stmt 1
	addi	a3, a4, 112
	.loc	12 307 15 is_stmt 0
	slli	a3, a3, 23
.Ltmp961:
	.loc	12 308 15 is_stmt 1
	slli	a1, a1, 13
.Ltmp962:
	.loc	12 309 20
	or	a1, a1, a2
.Ltmp963:
	or	a1, a1, a3
	j	.LBB25_12
.Ltmp964:
.LBB25_7:
	.loc	12 0 20 is_stmt 0
	lui	a1, 522240
.Ltmp965:
	.loc	12 283 35 is_stmt 1
	or	a1, a1, a5
	j	.LBB25_12
.Ltmp966:
.LBB25_8:
	.loc	6 1108 5
	beqz	a1, .LBB25_10
.Ltmp967:
	srli	a3, a1, 1
	or	a3, a3, a1
	srli	a4, a3, 2
.Ltmp968:
	or	a4, a4, a3
	srli	a5, a4, 4
.Ltmp969:
	srli	a3, a3, 8
	or	a3, a3, a4
	or	a3, a3, a5
	not	a3, a3
	srli	a4, a3, 1
	lui	a5, 5
	addi	a5, a5, 1365
	and	a4, a4, a5
	sub	a3, a3, a4
	lui	a4, 3
	addi	a4, a4, 819
	and	a5, a3, a4
	srli	a3, a3, 2
	and	a3, a3, a4
	add	a3, a3, a5
	srli	a4, a3, 4
	add	a3, a3, a4
	andi	a4, a3, 15
	slli	a3, a3, 20
	srli	a3, a3, 28
	add	a3, a3, a4
	j	.LBB25_11
.Ltmp970:
.LBB25_10:
	.loc	6 0 5 is_stmt 0
	li	a3, 16
.Ltmp971:
.LBB25_11:
	.loc	12 302 32 is_stmt 1
	addi	a4, a3, 8
	.loc	12 302 19 is_stmt 0
	sll	a1, a1, a4
.Ltmp972:
	slli	a1, a1, 9
	srli	a1, a1, 9
	lui	a4, 241664
.Ltmp973:
	.loc	12 303 31 is_stmt 1
	or	a2, a2, a4
.Ltmp974:
	slli	a3, a3, 23
.Ltmp975:
	sub	a2, a2, a3
	or	a1, a1, a2
.Ltmp976:
.LBB25_12:
	addi	sp, sp, -48
	.cfi_def_cfa_offset 48
	.loc	12 70 13
	sw	ra, 44(sp)
	.cfi_offset ra, -4
	sw	a1, 40(sp)
	addi	a1, sp, 40
.Ltmp977:
	.loc	13 800 9
	sw	a1, 32(sp)
	lui	a1, %hi(_ZN4core3fmt5float50_$LT$impl$u20$core..fmt..Debug$u20$for$u20$f32$GT$3fmt17hb620954518339fc5E)
	addi	a1, a1, %lo(_ZN4core3fmt5float50_$LT$impl$u20$core..fmt..Debug$u20$for$u20$f32$GT$3fmt17hb620954518339fc5E)
	sw	a1, 36(sp)
.Ltmp978:
	.loc	1 335 9
	lui	a1, %hi(.L__unnamed_2)
	addi	a1, a1, %lo(.L__unnamed_2)
.Ltmp979:
	sw	a1, 8(sp)
	li	a1, 1
.Ltmp980:
	sw	a1, 12(sp)
	sw	zero, 24(sp)
	addi	a2, sp, 32
	sw	a2, 16(sp)
	sw	a1, 20(sp)
.Ltmp981:
	.loc	13 800 9
	addi	a1, sp, 8
	call	_ZN4core3fmt9Formatter9write_fmt17hf1a4b1e0be961690E
.Ltmp982:
	.loc	13 801 6
	lw	ra, 44(sp)
	.loc	13 801 6 epilogue_begin is_stmt 0
	addi	sp, sp, 48
	ret
.Ltmp983:
.Lfunc_end25:
	.size	_ZN56_$LT$half..binary16..f16$u20$as$u20$core..fmt..Debug$GT$3fmt17h335832fe8ac01fe3E, .Lfunc_end25-_ZN56_$LT$half..binary16..f16$u20$as$u20$core..fmt..Debug$GT$3fmt17h335832fe8ac01fe3E
	.cfi_endproc

	.section	".text._ZN58_$LT$half..binary16..f16$u20$as$u20$core..fmt..Display$GT$3fmt17he00bfc4df4e86b8dE","ax",@progbits
	.globl	_ZN58_$LT$half..binary16..f16$u20$as$u20$core..fmt..Display$GT$3fmt17he00bfc4df4e86b8dE
	.p2align	1
	.type	_ZN58_$LT$half..binary16..f16$u20$as$u20$core..fmt..Display$GT$3fmt17he00bfc4df4e86b8dE,@function
_ZN58_$LT$half..binary16..f16$u20$as$u20$core..fmt..Display$GT$3fmt17he00bfc4df4e86b8dE:
.Lfunc_begin26:
	.cfi_startproc
	.loc	13 806 25 prologue_end is_stmt 1
	lhu	a2, 0(a0)
	li	a3, 31
	slli	a3, a3, 10
.Ltmp984:
	.loc	12 271 8
	addi	a0, a3, 1023
.Ltmp985:
	and	a4, a2, a0
	mv	a0, a1
.Ltmp986:
	beqz	a4, .LBB26_4
.Ltmp987:
	.loc	12 0 8 is_stmt 0
	lui	a5, 8
	.loc	12 275 21 is_stmt 1
	and	a5, a5, a2
.Ltmp988:
	.loc	12 276 20
	and	a4, a2, a3
.Ltmp989:
	.loc	12 277 20
	andi	a1, a2, 1023
.Ltmp990:
	.loc	12 280 8
	bne	a4, a3, .LBB26_5
.Ltmp991:
	.loc	12 0 0 is_stmt 0
	slli	a5, a5, 16
.Ltmp992:
	.loc	12 282 12 is_stmt 1
	beqz	a1, .LBB26_7
.Ltmp993:
	.loc	12 286 72
	slli	a1, a1, 13
.Ltmp994:
	.loc	12 286 35 is_stmt 0
	or	a1, a1, a5
	lui	a2, 523264
.Ltmp995:
	or	a1, a1, a2
	j	.LBB26_12
.Ltmp996:
.LBB26_4:
	.loc	12 272 31 is_stmt 1
	slli	a1, a2, 16
	j	.LBB26_12
.Ltmp997:
.LBB26_5:
	.loc	12 291 16
	slli	a2, a5, 16
.Ltmp998:
	.loc	12 296 8
	beqz	a4, .LBB26_8
.Ltmp999:
	.loc	12 0 8 is_stmt 0
	srli	a4, a4, 10
.Ltmp1000:
	.loc	12 307 16 is_stmt 1
	addi	a3, a4, 112
	.loc	12 307 15 is_stmt 0
	slli	a3, a3, 23
.Ltmp1001:
	.loc	12 308 15 is_stmt 1
	slli	a1, a1, 13
.Ltmp1002:
	.loc	12 309 20
	or	a1, a1, a2
.Ltmp1003:
	or	a1, a1, a3
	j	.LBB26_12
.Ltmp1004:
.LBB26_7:
	.loc	12 0 20 is_stmt 0
	lui	a1, 522240
.Ltmp1005:
	.loc	12 283 35 is_stmt 1
	or	a1, a1, a5
	j	.LBB26_12
.Ltmp1006:
.LBB26_8:
	.loc	6 1108 5
	beqz	a1, .LBB26_10
.Ltmp1007:
	srli	a3, a1, 1
	or	a3, a3, a1
	srli	a4, a3, 2
.Ltmp1008:
	or	a4, a4, a3
	srli	a5, a4, 4
.Ltmp1009:
	srli	a3, a3, 8
	or	a3, a3, a4
	or	a3, a3, a5
	not	a3, a3
	srli	a4, a3, 1
	lui	a5, 5
	addi	a5, a5, 1365
	and	a4, a4, a5
	sub	a3, a3, a4
	lui	a4, 3
	addi	a4, a4, 819
	and	a5, a3, a4
	srli	a3, a3, 2
	and	a3, a3, a4
	add	a3, a3, a5
	srli	a4, a3, 4
	add	a3, a3, a4
	andi	a4, a3, 15
	slli	a3, a3, 20
	srli	a3, a3, 28
	add	a3, a3, a4
	j	.LBB26_11
.Ltmp1010:
.LBB26_10:
	.loc	6 0 5 is_stmt 0
	li	a3, 16
.Ltmp1011:
.LBB26_11:
	.loc	12 302 32 is_stmt 1
	addi	a4, a3, 8
	.loc	12 302 19 is_stmt 0
	sll	a1, a1, a4
.Ltmp1012:
	slli	a1, a1, 9
	srli	a1, a1, 9
	lui	a4, 241664
.Ltmp1013:
	.loc	12 303 31 is_stmt 1
	or	a2, a2, a4
.Ltmp1014:
	slli	a3, a3, 23
.Ltmp1015:
	sub	a2, a2, a3
	or	a1, a1, a2
.Ltmp1016:
.LBB26_12:
	addi	sp, sp, -48
	.cfi_def_cfa_offset 48
	.loc	12 70 13
	sw	ra, 44(sp)
	.cfi_offset ra, -4
	sw	a1, 40(sp)
	addi	a1, sp, 40
.Ltmp1017:
	.loc	13 806 9
	sw	a1, 32(sp)
	lui	a1, %hi(_ZN4core3fmt5float52_$LT$impl$u20$core..fmt..Display$u20$for$u20$f32$GT$3fmt17h312c0d157667aab2E)
	addi	a1, a1, %lo(_ZN4core3fmt5float52_$LT$impl$u20$core..fmt..Display$u20$for$u20$f32$GT$3fmt17h312c0d157667aab2E)
	sw	a1, 36(sp)
.Ltmp1018:
	.loc	1 335 9
	lui	a1, %hi(.L__unnamed_2)
	addi	a1, a1, %lo(.L__unnamed_2)
.Ltmp1019:
	sw	a1, 8(sp)
	li	a1, 1
.Ltmp1020:
	sw	a1, 12(sp)
	sw	zero, 24(sp)
	addi	a2, sp, 32
	sw	a2, 16(sp)
	sw	a1, 20(sp)
.Ltmp1021:
	.loc	13 806 9
	addi	a1, sp, 8
	call	_ZN4core3fmt9Formatter9write_fmt17hf1a4b1e0be961690E
.Ltmp1022:
	.loc	13 807 6
	lw	ra, 44(sp)
	.loc	13 807 6 epilogue_begin is_stmt 0
	addi	sp, sp, 48
	ret
.Ltmp1023:
.Lfunc_end26:
	.size	_ZN58_$LT$half..binary16..f16$u20$as$u20$core..fmt..Display$GT$3fmt17he00bfc4df4e86b8dE, .Lfunc_end26-_ZN58_$LT$half..binary16..f16$u20$as$u20$core..fmt..Display$GT$3fmt17he00bfc4df4e86b8dE
	.cfi_endproc

	.section	".text._ZN59_$LT$half..binary16..f16$u20$as$u20$core..fmt..LowerExp$GT$3fmt17h190ffe3771de4700E","ax",@progbits
	.globl	_ZN59_$LT$half..binary16..f16$u20$as$u20$core..fmt..LowerExp$GT$3fmt17h190ffe3771de4700E
	.p2align	1
	.type	_ZN59_$LT$half..binary16..f16$u20$as$u20$core..fmt..LowerExp$GT$3fmt17h190ffe3771de4700E,@function
_ZN59_$LT$half..binary16..f16$u20$as$u20$core..fmt..LowerExp$GT$3fmt17h190ffe3771de4700E:
.Lfunc_begin27:
	.cfi_startproc
	.loc	13 812 27 prologue_end is_stmt 1
	lhu	a2, 0(a0)
	li	a3, 31
	slli	a3, a3, 10
.Ltmp1024:
	.loc	12 271 8
	addi	a0, a3, 1023
.Ltmp1025:
	and	a4, a2, a0
	mv	a0, a1
.Ltmp1026:
	beqz	a4, .LBB27_4
.Ltmp1027:
	.loc	12 0 8 is_stmt 0
	lui	a5, 8
	.loc	12 275 21 is_stmt 1
	and	a5, a5, a2
.Ltmp1028:
	.loc	12 276 20
	and	a4, a2, a3
.Ltmp1029:
	.loc	12 277 20
	andi	a1, a2, 1023
.Ltmp1030:
	.loc	12 280 8
	bne	a4, a3, .LBB27_5
.Ltmp1031:
	.loc	12 0 0 is_stmt 0
	slli	a5, a5, 16
.Ltmp1032:
	.loc	12 282 12 is_stmt 1
	beqz	a1, .LBB27_7
.Ltmp1033:
	.loc	12 286 72
	slli	a1, a1, 13
.Ltmp1034:
	.loc	12 286 35 is_stmt 0
	or	a1, a1, a5
	lui	a2, 523264
.Ltmp1035:
	or	a1, a1, a2
	j	.LBB27_12
.Ltmp1036:
.LBB27_4:
	.loc	12 272 31 is_stmt 1
	slli	a1, a2, 16
	j	.LBB27_12
.Ltmp1037:
.LBB27_5:
	.loc	12 291 16
	slli	a2, a5, 16
.Ltmp1038:
	.loc	12 296 8
	beqz	a4, .LBB27_8
.Ltmp1039:
	.loc	12 0 8 is_stmt 0
	srli	a4, a4, 10
.Ltmp1040:
	.loc	12 307 16 is_stmt 1
	addi	a3, a4, 112
	.loc	12 307 15 is_stmt 0
	slli	a3, a3, 23
.Ltmp1041:
	.loc	12 308 15 is_stmt 1
	slli	a1, a1, 13
.Ltmp1042:
	.loc	12 309 20
	or	a1, a1, a2
.Ltmp1043:
	or	a1, a1, a3
	j	.LBB27_12
.Ltmp1044:
.LBB27_7:
	.loc	12 0 20 is_stmt 0
	lui	a1, 522240
.Ltmp1045:
	.loc	12 283 35 is_stmt 1
	or	a1, a1, a5
	j	.LBB27_12
.Ltmp1046:
.LBB27_8:
	.loc	6 1108 5
	beqz	a1, .LBB27_10
.Ltmp1047:
	srli	a3, a1, 1
	or	a3, a3, a1
	srli	a4, a3, 2
.Ltmp1048:
	or	a4, a4, a3
	srli	a5, a4, 4
.Ltmp1049:
	srli	a3, a3, 8
	or	a3, a3, a4
	or	a3, a3, a5
	not	a3, a3
	srli	a4, a3, 1
	lui	a5, 5
	addi	a5, a5, 1365
	and	a4, a4, a5
	sub	a3, a3, a4
	lui	a4, 3
	addi	a4, a4, 819
	and	a5, a3, a4
	srli	a3, a3, 2
	and	a3, a3, a4
	add	a3, a3, a5
	srli	a4, a3, 4
	add	a3, a3, a4
	andi	a4, a3, 15
	slli	a3, a3, 20
	srli	a3, a3, 28
	add	a3, a3, a4
	j	.LBB27_11
.Ltmp1050:
.LBB27_10:
	.loc	6 0 5 is_stmt 0
	li	a3, 16
.Ltmp1051:
.LBB27_11:
	.loc	12 302 32 is_stmt 1
	addi	a4, a3, 8
	.loc	12 302 19 is_stmt 0
	sll	a1, a1, a4
.Ltmp1052:
	slli	a1, a1, 9
	srli	a1, a1, 9
	lui	a4, 241664
.Ltmp1053:
	.loc	12 303 31 is_stmt 1
	or	a2, a2, a4
.Ltmp1054:
	slli	a3, a3, 23
.Ltmp1055:
	sub	a2, a2, a3
	or	a1, a1, a2
.Ltmp1056:
.LBB27_12:
	addi	sp, sp, -48
	.cfi_def_cfa_offset 48
	.loc	12 70 13
	sw	ra, 44(sp)
	.cfi_offset ra, -4
	sw	a1, 40(sp)
	addi	a1, sp, 40
.Ltmp1057:
	.loc	13 812 9
	sw	a1, 32(sp)
	lui	a1, %hi(_ZN4core3fmt5float53_$LT$impl$u20$core..fmt..LowerExp$u20$for$u20$f32$GT$3fmt17hd266b588f3195c99E)
	addi	a1, a1, %lo(_ZN4core3fmt5float53_$LT$impl$u20$core..fmt..LowerExp$u20$for$u20$f32$GT$3fmt17hd266b588f3195c99E)
	sw	a1, 36(sp)
.Ltmp1058:
	.loc	1 335 9
	lui	a1, %hi(.L__unnamed_2)
	addi	a1, a1, %lo(.L__unnamed_2)
.Ltmp1059:
	sw	a1, 8(sp)
	li	a1, 1
.Ltmp1060:
	sw	a1, 12(sp)
	sw	zero, 24(sp)
	addi	a2, sp, 32
	sw	a2, 16(sp)
	sw	a1, 20(sp)
.Ltmp1061:
	.loc	13 812 9
	addi	a1, sp, 8
	call	_ZN4core3fmt9Formatter9write_fmt17hf1a4b1e0be961690E
.Ltmp1062:
	.loc	13 813 6
	lw	ra, 44(sp)
	.loc	13 813 6 epilogue_begin is_stmt 0
	addi	sp, sp, 48
	ret
.Ltmp1063:
.Lfunc_end27:
	.size	_ZN59_$LT$half..binary16..f16$u20$as$u20$core..fmt..LowerExp$GT$3fmt17h190ffe3771de4700E, .Lfunc_end27-_ZN59_$LT$half..binary16..f16$u20$as$u20$core..fmt..LowerExp$GT$3fmt17h190ffe3771de4700E
	.cfi_endproc

	.section	".text._ZN59_$LT$half..binary16..f16$u20$as$u20$core..fmt..UpperExp$GT$3fmt17h53f250bba774c77eE","ax",@progbits
	.globl	_ZN59_$LT$half..binary16..f16$u20$as$u20$core..fmt..UpperExp$GT$3fmt17h53f250bba774c77eE
	.p2align	1
	.type	_ZN59_$LT$half..binary16..f16$u20$as$u20$core..fmt..UpperExp$GT$3fmt17h53f250bba774c77eE,@function
_ZN59_$LT$half..binary16..f16$u20$as$u20$core..fmt..UpperExp$GT$3fmt17h53f250bba774c77eE:
.Lfunc_begin28:
	.cfi_startproc
	.loc	13 818 27 prologue_end is_stmt 1
	lhu	a2, 0(a0)
	li	a3, 31
	slli	a3, a3, 10
.Ltmp1064:
	.loc	12 271 8
	addi	a0, a3, 1023
.Ltmp1065:
	and	a4, a2, a0
	mv	a0, a1
.Ltmp1066:
	beqz	a4, .LBB28_4
.Ltmp1067:
	.loc	12 0 8 is_stmt 0
	lui	a5, 8
	.loc	12 275 21 is_stmt 1
	and	a5, a5, a2
.Ltmp1068:
	.loc	12 276 20
	and	a4, a2, a3
.Ltmp1069:
	.loc	12 277 20
	andi	a1, a2, 1023
.Ltmp1070:
	.loc	12 280 8
	bne	a4, a3, .LBB28_5
.Ltmp1071:
	.loc	12 0 0 is_stmt 0
	slli	a5, a5, 16
.Ltmp1072:
	.loc	12 282 12 is_stmt 1
	beqz	a1, .LBB28_7
.Ltmp1073:
	.loc	12 286 72
	slli	a1, a1, 13
.Ltmp1074:
	.loc	12 286 35 is_stmt 0
	or	a1, a1, a5
	lui	a2, 523264
.Ltmp1075:
	or	a1, a1, a2
	j	.LBB28_12
.Ltmp1076:
.LBB28_4:
	.loc	12 272 31 is_stmt 1
	slli	a1, a2, 16
	j	.LBB28_12
.Ltmp1077:
.LBB28_5:
	.loc	12 291 16
	slli	a2, a5, 16
.Ltmp1078:
	.loc	12 296 8
	beqz	a4, .LBB28_8
.Ltmp1079:
	.loc	12 0 8 is_stmt 0
	srli	a4, a4, 10
.Ltmp1080:
	.loc	12 307 16 is_stmt 1
	addi	a3, a4, 112
	.loc	12 307 15 is_stmt 0
	slli	a3, a3, 23
.Ltmp1081:
	.loc	12 308 15 is_stmt 1
	slli	a1, a1, 13
.Ltmp1082:
	.loc	12 309 20
	or	a1, a1, a2
.Ltmp1083:
	or	a1, a1, a3
	j	.LBB28_12
.Ltmp1084:
.LBB28_7:
	.loc	12 0 20 is_stmt 0
	lui	a1, 522240
.Ltmp1085:
	.loc	12 283 35 is_stmt 1
	or	a1, a1, a5
	j	.LBB28_12
.Ltmp1086:
.LBB28_8:
	.loc	6 1108 5
	beqz	a1, .LBB28_10
.Ltmp1087:
	srli	a3, a1, 1
	or	a3, a3, a1
	srli	a4, a3, 2
.Ltmp1088:
	or	a4, a4, a3
	srli	a5, a4, 4
.Ltmp1089:
	srli	a3, a3, 8
	or	a3, a3, a4
	or	a3, a3, a5
	not	a3, a3
	srli	a4, a3, 1
	lui	a5, 5
	addi	a5, a5, 1365
	and	a4, a4, a5
	sub	a3, a3, a4
	lui	a4, 3
	addi	a4, a4, 819
	and	a5, a3, a4
	srli	a3, a3, 2
	and	a3, a3, a4
	add	a3, a3, a5
	srli	a4, a3, 4
	add	a3, a3, a4
	andi	a4, a3, 15
	slli	a3, a3, 20
	srli	a3, a3, 28
	add	a3, a3, a4
	j	.LBB28_11
.Ltmp1090:
.LBB28_10:
	.loc	6 0 5 is_stmt 0
	li	a3, 16
.Ltmp1091:
.LBB28_11:
	.loc	12 302 32 is_stmt 1
	addi	a4, a3, 8
	.loc	12 302 19 is_stmt 0
	sll	a1, a1, a4
.Ltmp1092:
	slli	a1, a1, 9
	srli	a1, a1, 9
	lui	a4, 241664
.Ltmp1093:
	.loc	12 303 31 is_stmt 1
	or	a2, a2, a4
.Ltmp1094:
	slli	a3, a3, 23
.Ltmp1095:
	sub	a2, a2, a3
	or	a1, a1, a2
.Ltmp1096:
.LBB28_12:
	addi	sp, sp, -48
	.cfi_def_cfa_offset 48
	.loc	12 70 13
	sw	ra, 44(sp)
	.cfi_offset ra, -4
	sw	a1, 40(sp)
	addi	a1, sp, 40
.Ltmp1097:
	.loc	13 818 9
	sw	a1, 32(sp)
	lui	a1, %hi(_ZN4core3fmt5float53_$LT$impl$u20$core..fmt..UpperExp$u20$for$u20$f32$GT$3fmt17h3f81283a2dff05a6E)
	addi	a1, a1, %lo(_ZN4core3fmt5float53_$LT$impl$u20$core..fmt..UpperExp$u20$for$u20$f32$GT$3fmt17h3f81283a2dff05a6E)
	sw	a1, 36(sp)
.Ltmp1098:
	.loc	1 335 9
	lui	a1, %hi(.L__unnamed_2)
	addi	a1, a1, %lo(.L__unnamed_2)
.Ltmp1099:
	sw	a1, 8(sp)
	li	a1, 1
.Ltmp1100:
	sw	a1, 12(sp)
	sw	zero, 24(sp)
	addi	a2, sp, 32
	sw	a2, 16(sp)
	sw	a1, 20(sp)
.Ltmp1101:
	.loc	13 818 9
	addi	a1, sp, 8
	call	_ZN4core3fmt9Formatter9write_fmt17hf1a4b1e0be961690E
.Ltmp1102:
	.loc	13 819 6
	lw	ra, 44(sp)
	.loc	13 819 6 epilogue_begin is_stmt 0
	addi	sp, sp, 48
	ret
.Ltmp1103:
.Lfunc_end28:
	.size	_ZN59_$LT$half..binary16..f16$u20$as$u20$core..fmt..UpperExp$GT$3fmt17h53f250bba774c77eE, .Lfunc_end28-_ZN59_$LT$half..binary16..f16$u20$as$u20$core..fmt..UpperExp$GT$3fmt17h53f250bba774c77eE
	.cfi_endproc

	.section	".text._ZN80_$LT$$u5b$half..binary16..f16$u5d$$u20$as$u20$half..slice..HalfFloatSliceExt$GT$22convert_from_f32_slice17h6c1e6f5447768706E","ax",@progbits
	.globl	_ZN80_$LT$$u5b$half..binary16..f16$u5d$$u20$as$u20$half..slice..HalfFloatSliceExt$GT$22convert_from_f32_slice17h6c1e6f5447768706E
	.p2align	1
	.type	_ZN80_$LT$$u5b$half..binary16..f16$u5d$$u20$as$u20$half..slice..HalfFloatSliceExt$GT$22convert_from_f32_slice17h6c1e6f5447768706E,@function
_ZN80_$LT$$u5b$half..binary16..f16$u5d$$u20$as$u20$half..slice..HalfFloatSliceExt$GT$22convert_from_f32_slice17h6c1e6f5447768706E:
.Lfunc_begin29:
	.file	14 "/Users/steve/.cargo/registry/src/index.crates.io-6f17d22bba15001f/half-1.8.3" "src/slice.rs"
	.loc	14 315 0 is_stmt 1
	.cfi_startproc
	addi	sp, sp, -80
	.cfi_def_cfa_offset 80
.Ltmp1104:
	.loc	14 0 0 is_stmt 0
	sw	ra, 76(sp)
	sw	s0, 72(sp)
	sw	s1, 68(sp)
	sw	s2, 64(sp)
	sw	s3, 60(sp)
	sw	s4, 56(sp)
	sw	s5, 52(sp)
	sw	s6, 48(sp)
	sw	s7, 44(sp)
.Ltmp1105:
	.cfi_offset ra, -4
	.cfi_offset s0, -8
	.cfi_offset s1, -12
	.cfi_offset s2, -16
	.cfi_offset s3, -20
	.cfi_offset s4, -24
	.cfi_offset s5, -28
	.cfi_offset s6, -32
	.cfi_offset s7, -36
	.loc	14 317 13 prologue_end is_stmt 1
	sw	a1, 4(sp)
.Ltmp1106:
	.loc	14 318 13
	sw	a3, 36(sp)
.Ltmp1107:
	.loc	14 316 9
	bne	a1, a3, .LBB29_12
.Ltmp1108:
	.loc	14 0 9 is_stmt 0
	mv	s3, a2
.Ltmp1109:
	mv	s4, a1
.Ltmp1110:
	mv	s2, a0
.Ltmp1111:
	li	s6, 0
.Ltmp1112:
	.file	15 "/Users/steve/.rustup/toolchains/nightly-2024-02-01-aarch64-apple-darwin/lib/rustlib/src/rust/library/core/src/slice" "iter.rs"
	.loc	15 1835 23 is_stmt 1
	andi	s5, a1, -4
.Ltmp1113:
	.loc	15 1879 12
	beqz	s5, .LBB29_6
.Ltmp1114:
	.loc	15 0 12 is_stmt 0
	lui	s7, 262144
	mv	s0, s2
	mv	s1, s3
.Ltmp1115:
.LBB29_3:
	.loc	12 93 13 is_stmt 1
	addi	a0, sp, 8
	li	a2, 4
	mv	a1, s1
	call	_ZN4half8binary167convert23f32x4_to_f16x4_fallback17h29d4f1cc56f048afE
.Ltmp1116:
	.file	16 "/Users/steve/.rustup/toolchains/nightly-2024-02-01-aarch64-apple-darwin/lib/rustlib/src/rust/library/core/src/slice" "index.rs"
	.loc	16 402 12
	addi	s7, s7, -1
	beqz	s7, .LBB29_10
.Ltmp1117:
	.loc	16 404 19
	addi	a0, s6, 4
	bltu	s4, a0, .LBB29_11
.Ltmp1118:
	.file	17 "/Users/steve/.rustup/toolchains/nightly-2024-02-01-aarch64-apple-darwin/lib/rustlib/src/rust/library/core/src" "intrinsics.rs"
	.loc	17 2774 9
	lw	a0, 12(sp)
	lw	a1, 8(sp)
.Ltmp1119:
	.loc	16 0 0 is_stmt 0
	addi	s6, s6, 4
.Ltmp1120:
	.loc	17 2774 9
	sh	a0, 4(s0)
	sh	a1, 0(s0)
	srli	a0, a0, 16
	sh	a0, 6(s0)
	srli	a1, a1, 16
	sh	a1, 2(s0)
.Ltmp1121:
	.loc	16 0 0
	addi	s0, s0, 8
.Ltmp1122:
	addi	s1, s1, 16
.Ltmp1123:
	.loc	15 1879 12 is_stmt 1
	bne	s5, s6, .LBB29_3
.Ltmp1124:
.LBB29_6:
	.loc	14 0 0 is_stmt 0
	andi	s0, s4, 3
.Ltmp1125:
	.loc	14 332 13 is_stmt 1
	beqz	s0, .LBB29_9
.Ltmp1126:
	.loc	14 0 0 is_stmt 0
	slli	s5, s5, 2
	add	s3, s3, s5
.Ltmp1127:
	.loc	17 2774 9 is_stmt 1
	slli	s1, s0, 2
	li	a2, 16
	sub	a2, a2, s1
	addi	a0, sp, 8
	add	a0, a0, s1
	li	a1, 0
	call	memset@plt
	addi	a0, sp, 8
	mv	a1, s3
	mv	a2, s1
	call	memcpy@plt
.Ltmp1128:
	.loc	12 93 13
	addi	a0, sp, 36
	addi	a1, sp, 8
	li	a2, 4
	call	_ZN4half8binary167convert23f32x4_to_f16x4_fallback17h29d4f1cc56f048afE
.Ltmp1129:
	.loc	14 337 27
	or	a0, s6, s0
.Ltmp1130:
	.loc	16 404 19
	bltu	s4, a0, .LBB29_13
.Ltmp1131:
	.file	18 "/Users/steve/.rustup/toolchains/nightly-2024-02-01-aarch64-apple-darwin/lib/rustlib/src/rust/library/core/src/ptr" "mut_ptr.rs"
	.loc	18 1045 18
	slli	a0, s6, 1
.Ltmp1132:
	add	a0, a0, s2
.Ltmp1133:
	.loc	17 2774 9
	slli	a2, s0, 1
	addi	a1, sp, 36
	call	memcpy@plt
.Ltmp1134:
.LBB29_9:
	.loc	14 340 6
	lw	ra, 76(sp)
	lw	s0, 72(sp)
	lw	s1, 68(sp)
	lw	s2, 64(sp)
.Ltmp1135:
	lw	s3, 60(sp)
	lw	s4, 56(sp)
.Ltmp1136:
	lw	s5, 52(sp)
	lw	s6, 48(sp)
	lw	s7, 44(sp)
	.loc	14 340 6 epilogue_begin is_stmt 0
	addi	sp, sp, 80
	ret
.LBB29_10:
.Ltmp1137:
	.loc	16 403 13 is_stmt 1
	lui	a0, %hi(.L__unnamed_19)
	addi	a2, a0, %lo(.L__unnamed_19)
	li	a0, -4
	li	a1, 0
	call	_ZN4core5slice5index22slice_index_order_fail17h940d5a7ad9f42007E
.Ltmp1138:
.LBB29_11:
	.loc	16 405 13
	lui	a1, %hi(.L__unnamed_19)
	addi	a2, a1, %lo(.L__unnamed_19)
	mv	a1, s4
	call	_ZN4core5slice5index24slice_end_index_len_fail17he0d721b4a6ea45a9E
.Ltmp1139:
.LBB29_12:
	.loc	14 316 9
	lui	a0, %hi(.L__unnamed_20)
.Ltmp1140:
	addi	a0, a0, %lo(.L__unnamed_20)
	sw	a0, 8(sp)
	li	a0, 1
	sw	a0, 12(sp)
	lui	a0, %hi(.L__unnamed_21)
	addi	a0, a0, %lo(.L__unnamed_21)
	sw	a0, 16(sp)
	sw	zero, 20(sp)
	sw	zero, 24(sp)
	lui	a0, %hi(.L__unnamed_22)
	addi	a3, a0, %lo(.L__unnamed_22)
.Ltmp1141:
	addi	a0, sp, 4
	addi	a1, sp, 36
.Ltmp1142:
	addi	a2, sp, 8
.Ltmp1143:
	call	_ZN4core9panicking13assert_failed17h119c65bc1ce658e9E
.Ltmp1144:
.LBB29_13:
	.loc	16 405 13
	lui	a1, %hi(.L__unnamed_23)
	addi	a2, a1, %lo(.L__unnamed_23)
	mv	a1, s4
	call	_ZN4core5slice5index24slice_end_index_len_fail17he0d721b4a6ea45a9E
.Ltmp1145:
.Lfunc_end29:
	.size	_ZN80_$LT$$u5b$half..binary16..f16$u5d$$u20$as$u20$half..slice..HalfFloatSliceExt$GT$22convert_from_f32_slice17h6c1e6f5447768706E, .Lfunc_end29-_ZN80_$LT$$u5b$half..binary16..f16$u5d$$u20$as$u20$half..slice..HalfFloatSliceExt$GT$22convert_from_f32_slice17h6c1e6f5447768706E
	.cfi_endproc
	.file	19 "/Users/steve/.rustup/toolchains/nightly-2024-02-01-aarch64-apple-darwin/lib/rustlib/src/rust/library/core/src/slice" "mod.rs"
	.file	20 "/Users/steve/.rustup/toolchains/nightly-2024-02-01-aarch64-apple-darwin/lib/rustlib/src/rust/library/core/src/iter/traits" "iterator.rs"

	.section	".text._ZN80_$LT$$u5b$half..binary16..f16$u5d$$u20$as$u20$half..slice..HalfFloatSliceExt$GT$22convert_from_f64_slice17h37740dba144958cdE","ax",@progbits
	.globl	_ZN80_$LT$$u5b$half..binary16..f16$u5d$$u20$as$u20$half..slice..HalfFloatSliceExt$GT$22convert_from_f64_slice17h37740dba144958cdE
	.p2align	1
	.type	_ZN80_$LT$$u5b$half..binary16..f16$u5d$$u20$as$u20$half..slice..HalfFloatSliceExt$GT$22convert_from_f64_slice17h37740dba144958cdE,@function
_ZN80_$LT$$u5b$half..binary16..f16$u5d$$u20$as$u20$half..slice..HalfFloatSliceExt$GT$22convert_from_f64_slice17h37740dba144958cdE:
.Lfunc_begin30:
	.loc	14 342 0
	.cfi_startproc
	addi	sp, sp, -96
	.cfi_def_cfa_offset 96
.Ltmp1146:
	.loc	14 0 0 is_stmt 0
	sw	ra, 92(sp)
	sw	s0, 88(sp)
	sw	s1, 84(sp)
	sw	s2, 80(sp)
	sw	s3, 76(sp)
	sw	s4, 72(sp)
	sw	s5, 68(sp)
	sw	s6, 64(sp)
	sw	s7, 60(sp)
.Ltmp1147:
	.cfi_offset ra, -4
	.cfi_offset s0, -8
	.cfi_offset s1, -12
	.cfi_offset s2, -16
	.cfi_offset s3, -20
	.cfi_offset s4, -24
	.cfi_offset s5, -28
	.cfi_offset s6, -32
	.cfi_offset s7, -36
	.loc	14 344 13 prologue_end is_stmt 1
	sw	a1, 12(sp)
.Ltmp1148:
	.loc	14 345 13
	sw	a3, 52(sp)
.Ltmp1149:
	.loc	14 343 9
	bne	a1, a3, .LBB30_12
.Ltmp1150:
	.loc	14 0 9 is_stmt 0
	mv	s3, a2
.Ltmp1151:
	mv	s4, a1
.Ltmp1152:
	mv	s2, a0
.Ltmp1153:
	li	s6, 0
.Ltmp1154:
	.loc	15 1835 23 is_stmt 1
	andi	s5, a1, -4
.Ltmp1155:
	.loc	15 1879 12
	beqz	s5, .LBB30_6
.Ltmp1156:
	.loc	15 0 12 is_stmt 0
	lui	s7, 262144
	mv	s0, s2
	mv	s1, s3
.Ltmp1157:
.LBB30_3:
	.loc	12 113 13 is_stmt 1
	addi	a0, sp, 16
	li	a2, 4
	mv	a1, s1
	call	_ZN4half8binary167convert23f64x4_to_f16x4_fallback17ha4e0ba34de1513afE
.Ltmp1158:
	.loc	16 402 12
	addi	s7, s7, -1
	beqz	s7, .LBB30_10
.Ltmp1159:
	.loc	16 404 19
	addi	a0, s6, 4
	bltu	s4, a0, .LBB30_11
.Ltmp1160:
	.loc	17 2774 9
	lw	a0, 20(sp)
	lw	a1, 16(sp)
.Ltmp1161:
	.loc	16 0 0 is_stmt 0
	addi	s6, s6, 4
.Ltmp1162:
	.loc	17 2774 9
	sh	a0, 4(s0)
	sh	a1, 0(s0)
	srli	a0, a0, 16
	sh	a0, 6(s0)
	srli	a1, a1, 16
	sh	a1, 2(s0)
.Ltmp1163:
	.loc	16 0 0
	addi	s0, s0, 8
.Ltmp1164:
	addi	s1, s1, 32
.Ltmp1165:
	.loc	15 1879 12 is_stmt 1
	bne	s5, s6, .LBB30_3
.Ltmp1166:
.LBB30_6:
	.loc	14 0 0 is_stmt 0
	andi	s0, s4, 3
.Ltmp1167:
	.loc	14 359 13 is_stmt 1
	beqz	s0, .LBB30_9
.Ltmp1168:
	.loc	14 0 0 is_stmt 0
	slli	s5, s5, 3
	add	s3, s3, s5
.Ltmp1169:
	.loc	17 2774 9 is_stmt 1
	slli	s1, s0, 3
	li	a2, 32
	sub	a2, a2, s1
	addi	a0, sp, 16
	add	a0, a0, s1
	li	a1, 0
	call	memset@plt
	addi	a0, sp, 16
	mv	a1, s3
	mv	a2, s1
	call	memcpy@plt
.Ltmp1170:
	.loc	12 113 13
	addi	a0, sp, 52
	addi	a1, sp, 16
	li	a2, 4
	call	_ZN4half8binary167convert23f64x4_to_f16x4_fallback17ha4e0ba34de1513afE
.Ltmp1171:
	.loc	14 364 27
	or	a0, s6, s0
.Ltmp1172:
	.loc	16 404 19
	bltu	s4, a0, .LBB30_13
.Ltmp1173:
	.loc	18 1045 18
	slli	a0, s6, 1
.Ltmp1174:
	add	a0, a0, s2
.Ltmp1175:
	.loc	17 2774 9
	slli	a2, s0, 1
	addi	a1, sp, 52
	call	memcpy@plt
.Ltmp1176:
.LBB30_9:
	.loc	14 367 6
	lw	ra, 92(sp)
	lw	s0, 88(sp)
	lw	s1, 84(sp)
	lw	s2, 80(sp)
.Ltmp1177:
	lw	s3, 76(sp)
	lw	s4, 72(sp)
.Ltmp1178:
	lw	s5, 68(sp)
	lw	s6, 64(sp)
	lw	s7, 60(sp)
	.loc	14 367 6 epilogue_begin is_stmt 0
	addi	sp, sp, 96
	ret
.LBB30_10:
.Ltmp1179:
	.loc	16 403 13 is_stmt 1
	lui	a0, %hi(.L__unnamed_24)
	addi	a2, a0, %lo(.L__unnamed_24)
	li	a0, -4
	li	a1, 0
	call	_ZN4core5slice5index22slice_index_order_fail17h940d5a7ad9f42007E
.Ltmp1180:
.LBB30_11:
	.loc	16 405 13
	lui	a1, %hi(.L__unnamed_24)
	addi	a2, a1, %lo(.L__unnamed_24)
	mv	a1, s4
	call	_ZN4core5slice5index24slice_end_index_len_fail17he0d721b4a6ea45a9E
.Ltmp1181:
.LBB30_12:
	.loc	14 343 9
	lui	a0, %hi(.L__unnamed_20)
.Ltmp1182:
	addi	a0, a0, %lo(.L__unnamed_20)
	sw	a0, 16(sp)
	li	a0, 1
	sw	a0, 20(sp)
	lui	a0, %hi(.L__unnamed_21)
	addi	a0, a0, %lo(.L__unnamed_21)
	sw	a0, 24(sp)
	sw	zero, 28(sp)
	sw	zero, 32(sp)
	lui	a0, %hi(.L__unnamed_25)
	addi	a3, a0, %lo(.L__unnamed_25)
.Ltmp1183:
	addi	a0, sp, 12
	addi	a1, sp, 52
.Ltmp1184:
	addi	a2, sp, 16
.Ltmp1185:
	call	_ZN4core9panicking13assert_failed17h119c65bc1ce658e9E
.Ltmp1186:
.LBB30_13:
	.loc	16 405 13
	lui	a1, %hi(.L__unnamed_26)
	addi	a2, a1, %lo(.L__unnamed_26)
	mv	a1, s4
	call	_ZN4core5slice5index24slice_end_index_len_fail17he0d721b4a6ea45a9E
.Ltmp1187:
.Lfunc_end30:
	.size	_ZN80_$LT$$u5b$half..binary16..f16$u5d$$u20$as$u20$half..slice..HalfFloatSliceExt$GT$22convert_from_f64_slice17h37740dba144958cdE, .Lfunc_end30-_ZN80_$LT$$u5b$half..binary16..f16$u5d$$u20$as$u20$half..slice..HalfFloatSliceExt$GT$22convert_from_f64_slice17h37740dba144958cdE
	.cfi_endproc

	.section	".text._ZN80_$LT$$u5b$half..binary16..f16$u5d$$u20$as$u20$half..slice..HalfFloatSliceExt$GT$20convert_to_f32_slice17h103b0f914e0ee51cE","ax",@progbits
	.globl	_ZN80_$LT$$u5b$half..binary16..f16$u5d$$u20$as$u20$half..slice..HalfFloatSliceExt$GT$20convert_to_f32_slice17h103b0f914e0ee51cE
	.p2align	1
	.type	_ZN80_$LT$$u5b$half..binary16..f16$u5d$$u20$as$u20$half..slice..HalfFloatSliceExt$GT$20convert_to_f32_slice17h103b0f914e0ee51cE,@function
_ZN80_$LT$$u5b$half..binary16..f16$u5d$$u20$as$u20$half..slice..HalfFloatSliceExt$GT$20convert_to_f32_slice17h103b0f914e0ee51cE:
.Lfunc_begin31:
	.loc	14 369 0
	.cfi_startproc
	addi	sp, sp, -80
	.cfi_def_cfa_offset 80
.Ltmp1188:
	.loc	14 0 0 is_stmt 0
	sw	ra, 76(sp)
	sw	s0, 72(sp)
	sw	s1, 68(sp)
	sw	s2, 64(sp)
	sw	s3, 60(sp)
	sw	s4, 56(sp)
	sw	s5, 52(sp)
	sw	s6, 48(sp)
	sw	s7, 44(sp)
.Ltmp1189:
	.cfi_offset ra, -4
	.cfi_offset s0, -8
	.cfi_offset s1, -12
	.cfi_offset s2, -16
	.cfi_offset s3, -20
	.cfi_offset s4, -24
	.cfi_offset s5, -28
	.cfi_offset s6, -32
	.cfi_offset s7, -36
	.loc	14 371 13 prologue_end is_stmt 1
	sw	a1, 4(sp)
.Ltmp1190:
	.loc	14 372 13
	sw	a3, 32(sp)
.Ltmp1191:
	.loc	14 370 9
	bne	a1, a3, .LBB31_12
.Ltmp1192:
	.loc	14 0 9 is_stmt 0
	mv	s2, a2
.Ltmp1193:
	mv	s4, a1
.Ltmp1194:
	mv	s3, a0
.Ltmp1195:
	li	s6, 0
.Ltmp1196:
	.loc	15 1835 23 is_stmt 1
	andi	s5, a1, -4
.Ltmp1197:
	.loc	15 1879 12
	beqz	s5, .LBB31_6
.Ltmp1198:
	.loc	15 0 12 is_stmt 0
	lui	s7, 262144
	mv	s0, s2
	mv	s1, s3
.Ltmp1199:
.LBB31_3:
	.loc	12 103 13 is_stmt 1
	addi	a0, sp, 8
	li	a2, 4
	mv	a1, s1
	call	_ZN4half8binary167convert23f16x4_to_f32x4_fallback17hf0e2c78b2eef7828E
.Ltmp1200:
	.loc	16 402 12
	addi	s7, s7, -1
	beqz	s7, .LBB31_10
.Ltmp1201:
	.loc	16 404 19
	addi	a0, s6, 4
	bltu	s4, a0, .LBB31_11
.Ltmp1202:
	.loc	16 0 0 is_stmt 0
	addi	s6, s6, 4
.Ltmp1203:
	.loc	17 2774 9 is_stmt 1
	lw	a0, 20(sp)
	lw	a1, 16(sp)
	lw	a2, 12(sp)
	lw	a3, 8(sp)
	sw	a0, 12(s0)
	sw	a1, 8(s0)
	sw	a2, 4(s0)
	sw	a3, 0(s0)
.Ltmp1204:
	.loc	16 0 0 is_stmt 0
	addi	s0, s0, 16
.Ltmp1205:
	addi	s1, s1, 8
.Ltmp1206:
	.loc	15 1879 12 is_stmt 1
	bne	s5, s6, .LBB31_3
.Ltmp1207:
.LBB31_6:
	.loc	14 0 0 is_stmt 0
	andi	s0, s4, 3
.Ltmp1208:
	.loc	14 386 13 is_stmt 1
	beqz	s0, .LBB31_9
.Ltmp1209:
	.loc	14 0 13 is_stmt 0
	slli	a1, s5, 1
	add	a1, a1, s3
.Ltmp1210:
	.loc	14 387 27 is_stmt 1
	sw	zero, 36(sp)
	sw	zero, 32(sp)
.Ltmp1211:
	.loc	17 2774 9
	slli	a2, s0, 1
	addi	a0, sp, 32
	call	memcpy@plt
.Ltmp1212:
	.loc	12 103 13
	addi	a0, sp, 8
	addi	a1, sp, 32
	li	a2, 4
	call	_ZN4half8binary167convert23f16x4_to_f32x4_fallback17hf0e2c78b2eef7828E
.Ltmp1213:
	.loc	14 391 26
	or	a0, s6, s0
	bltu	s4, a0, .LBB31_13
.Ltmp1214:
	.loc	18 1045 18
	slli	a0, s6, 2
.Ltmp1215:
	add	a0, a0, s2
.Ltmp1216:
	.loc	17 2774 9
	slli	a2, s0, 2
	addi	a1, sp, 8
	call	memcpy@plt
.Ltmp1217:
.LBB31_9:
	.loc	14 394 6
	lw	ra, 76(sp)
	lw	s0, 72(sp)
	lw	s1, 68(sp)
	lw	s2, 64(sp)
.Ltmp1218:
	lw	s3, 60(sp)
.Ltmp1219:
	lw	s4, 56(sp)
.Ltmp1220:
	lw	s5, 52(sp)
	lw	s6, 48(sp)
	lw	s7, 44(sp)
	.loc	14 394 6 epilogue_begin is_stmt 0
	addi	sp, sp, 80
	ret
.LBB31_10:
.Ltmp1221:
	.loc	16 403 13 is_stmt 1
	lui	a0, %hi(.L__unnamed_27)
	addi	a2, a0, %lo(.L__unnamed_27)
	li	a0, -4
	li	a1, 0
	call	_ZN4core5slice5index22slice_index_order_fail17h940d5a7ad9f42007E
.Ltmp1222:
.LBB31_11:
	.loc	16 405 13
	lui	a1, %hi(.L__unnamed_27)
	addi	a2, a1, %lo(.L__unnamed_27)
	mv	a1, s4
	call	_ZN4core5slice5index24slice_end_index_len_fail17he0d721b4a6ea45a9E
.Ltmp1223:
.LBB31_12:
	.loc	14 370 9
	lui	a0, %hi(.L__unnamed_20)
.Ltmp1224:
	addi	a0, a0, %lo(.L__unnamed_20)
	sw	a0, 8(sp)
	li	a0, 1
	sw	a0, 12(sp)
	lui	a0, %hi(.L__unnamed_21)
	addi	a0, a0, %lo(.L__unnamed_21)
	sw	a0, 16(sp)
	sw	zero, 20(sp)
	sw	zero, 24(sp)
	lui	a0, %hi(.L__unnamed_28)
	addi	a3, a0, %lo(.L__unnamed_28)
.Ltmp1225:
	addi	a0, sp, 4
	addi	a1, sp, 32
.Ltmp1226:
	addi	a2, sp, 8
.Ltmp1227:
	call	_ZN4core9panicking13assert_failed17h119c65bc1ce658e9E
.Ltmp1228:
.LBB31_13:
	.loc	16 405 13
	lui	a1, %hi(.L__unnamed_29)
	addi	a2, a1, %lo(.L__unnamed_29)
	mv	a1, s4
	call	_ZN4core5slice5index24slice_end_index_len_fail17he0d721b4a6ea45a9E
.Ltmp1229:
.Lfunc_end31:
	.size	_ZN80_$LT$$u5b$half..binary16..f16$u5d$$u20$as$u20$half..slice..HalfFloatSliceExt$GT$20convert_to_f32_slice17h103b0f914e0ee51cE, .Lfunc_end31-_ZN80_$LT$$u5b$half..binary16..f16$u5d$$u20$as$u20$half..slice..HalfFloatSliceExt$GT$20convert_to_f32_slice17h103b0f914e0ee51cE
	.cfi_endproc

	.section	".text._ZN80_$LT$$u5b$half..binary16..f16$u5d$$u20$as$u20$half..slice..HalfFloatSliceExt$GT$20convert_to_f64_slice17h5525513f9f187e00E","ax",@progbits
	.globl	_ZN80_$LT$$u5b$half..binary16..f16$u5d$$u20$as$u20$half..slice..HalfFloatSliceExt$GT$20convert_to_f64_slice17h5525513f9f187e00E
	.p2align	1
	.type	_ZN80_$LT$$u5b$half..binary16..f16$u5d$$u20$as$u20$half..slice..HalfFloatSliceExt$GT$20convert_to_f64_slice17h5525513f9f187e00E,@function
_ZN80_$LT$$u5b$half..binary16..f16$u5d$$u20$as$u20$half..slice..HalfFloatSliceExt$GT$20convert_to_f64_slice17h5525513f9f187e00E:
.Lfunc_begin32:
	.loc	14 396 0
	.cfi_startproc
	addi	sp, sp, -96
	.cfi_def_cfa_offset 96
.Ltmp1230:
	.loc	14 0 0 is_stmt 0
	sw	ra, 92(sp)
	sw	s0, 88(sp)
	sw	s1, 84(sp)
	sw	s2, 80(sp)
	sw	s3, 76(sp)
	sw	s4, 72(sp)
	sw	s5, 68(sp)
	sw	s6, 64(sp)
	sw	s7, 60(sp)
.Ltmp1231:
	.cfi_offset ra, -4
	.cfi_offset s0, -8
	.cfi_offset s1, -12
	.cfi_offset s2, -16
	.cfi_offset s3, -20
	.cfi_offset s4, -24
	.cfi_offset s5, -28
	.cfi_offset s6, -32
	.cfi_offset s7, -36
	.loc	14 398 13 prologue_end is_stmt 1
	sw	a1, 12(sp)
.Ltmp1232:
	.loc	14 399 13
	sw	a3, 16(sp)
.Ltmp1233:
	.loc	14 397 9
	bne	a1, a3, .LBB32_12
.Ltmp1234:
	.loc	14 0 9 is_stmt 0
	mv	s2, a2
.Ltmp1235:
	mv	s4, a1
.Ltmp1236:
	mv	s3, a0
.Ltmp1237:
	li	s6, 0
.Ltmp1238:
	.loc	15 1835 23 is_stmt 1
	andi	s5, a1, -4
.Ltmp1239:
	.loc	15 1879 12
	beqz	s5, .LBB32_6
.Ltmp1240:
	.loc	15 0 12 is_stmt 0
	lui	s7, 262144
	mv	s0, s2
	mv	s1, s3
.Ltmp1241:
.LBB32_3:
	.loc	12 123 13 is_stmt 1
	addi	a0, sp, 24
	li	a2, 4
	mv	a1, s1
	call	_ZN4half8binary167convert23f16x4_to_f64x4_fallback17h041cbc1a66fe84eaE
.Ltmp1242:
	.loc	16 402 12
	addi	s7, s7, -1
	beqz	s7, .LBB32_10
.Ltmp1243:
	.loc	16 404 19
	addi	a0, s6, 4
	bltu	s4, a0, .LBB32_11
.Ltmp1244:
	.loc	17 2774 9
	lw	a0, 52(sp)
	lw	a1, 48(sp)
	sw	a0, 28(s0)
	lw	a0, 44(sp)
	lw	a2, 40(sp)
	sw	a1, 24(s0)
	lw	a1, 36(sp)
	sw	a0, 20(s0)
	sw	a2, 16(s0)
	lw	a0, 32(sp)
	sw	a1, 12(s0)
	lw	a1, 28(sp)
	lw	a2, 24(sp)
	sw	a0, 8(s0)
.Ltmp1245:
	.loc	16 0 0 is_stmt 0
	addi	s6, s6, 4
.Ltmp1246:
	.loc	17 2774 9
	sw	a1, 4(s0)
	sw	a2, 0(s0)
.Ltmp1247:
	.loc	16 0 0
	addi	s0, s0, 32
.Ltmp1248:
	addi	s1, s1, 8
.Ltmp1249:
	.loc	15 1879 12 is_stmt 1
	bne	s5, s6, .LBB32_3
.Ltmp1250:
.LBB32_6:
	.loc	14 0 0 is_stmt 0
	andi	s0, s4, 3
.Ltmp1251:
	.loc	14 413 13 is_stmt 1
	beqz	s0, .LBB32_9
.Ltmp1252:
	.loc	14 0 13 is_stmt 0
	slli	a1, s5, 1
	add	a1, a1, s3
.Ltmp1253:
	.loc	14 414 27 is_stmt 1
	sw	zero, 20(sp)
	sw	zero, 16(sp)
.Ltmp1254:
	.loc	17 2774 9
	slli	a2, s0, 1
	addi	a0, sp, 16
	call	memcpy@plt
.Ltmp1255:
	.loc	12 123 13
	addi	a0, sp, 24
	addi	a1, sp, 16
	li	a2, 4
	call	_ZN4half8binary167convert23f16x4_to_f64x4_fallback17h041cbc1a66fe84eaE
.Ltmp1256:
	.loc	14 418 26
	or	a0, s6, s0
	bltu	s4, a0, .LBB32_13
.Ltmp1257:
	.loc	18 1045 18
	slli	a0, s6, 3
.Ltmp1258:
	add	a0, a0, s2
.Ltmp1259:
	.loc	17 2774 9
	slli	a2, s0, 3
	addi	a1, sp, 24
	call	memcpy@plt
.Ltmp1260:
.LBB32_9:
	.loc	14 421 6
	lw	ra, 92(sp)
	lw	s0, 88(sp)
	lw	s1, 84(sp)
	lw	s2, 80(sp)
.Ltmp1261:
	lw	s3, 76(sp)
.Ltmp1262:
	lw	s4, 72(sp)
.Ltmp1263:
	lw	s5, 68(sp)
	lw	s6, 64(sp)
	lw	s7, 60(sp)
	.loc	14 421 6 epilogue_begin is_stmt 0
	addi	sp, sp, 96
	ret
.LBB32_10:
.Ltmp1264:
	.loc	16 403 13 is_stmt 1
	lui	a0, %hi(.L__unnamed_30)
	addi	a2, a0, %lo(.L__unnamed_30)
	li	a0, -4
	li	a1, 0
	call	_ZN4core5slice5index22slice_index_order_fail17h940d5a7ad9f42007E
.Ltmp1265:
.LBB32_11:
	.loc	16 405 13
	lui	a1, %hi(.L__unnamed_30)
	addi	a2, a1, %lo(.L__unnamed_30)
	mv	a1, s4
	call	_ZN4core5slice5index24slice_end_index_len_fail17he0d721b4a6ea45a9E
.Ltmp1266:
.LBB32_12:
	.loc	14 397 9
	lui	a0, %hi(.L__unnamed_20)
.Ltmp1267:
	addi	a0, a0, %lo(.L__unnamed_20)
	sw	a0, 24(sp)
	li	a0, 1
	sw	a0, 28(sp)
	lui	a0, %hi(.L__unnamed_21)
	addi	a0, a0, %lo(.L__unnamed_21)
	sw	a0, 32(sp)
	sw	zero, 36(sp)
	sw	zero, 40(sp)
	lui	a0, %hi(.L__unnamed_31)
	addi	a3, a0, %lo(.L__unnamed_31)
.Ltmp1268:
	addi	a0, sp, 12
	addi	a1, sp, 16
.Ltmp1269:
	addi	a2, sp, 24
.Ltmp1270:
	call	_ZN4core9panicking13assert_failed17h119c65bc1ce658e9E
.Ltmp1271:
.LBB32_13:
	.loc	16 405 13
	lui	a1, %hi(.L__unnamed_32)
	addi	a2, a1, %lo(.L__unnamed_32)
	mv	a1, s4
	call	_ZN4core5slice5index24slice_end_index_len_fail17he0d721b4a6ea45a9E
.Ltmp1272:
.Lfunc_end32:
	.size	_ZN80_$LT$$u5b$half..binary16..f16$u5d$$u20$as$u20$half..slice..HalfFloatSliceExt$GT$20convert_to_f64_slice17h5525513f9f187e00E, .Lfunc_end32-_ZN80_$LT$$u5b$half..binary16..f16$u5d$$u20$as$u20$half..slice..HalfFloatSliceExt$GT$20convert_to_f64_slice17h5525513f9f187e00E
	.cfi_endproc

	.section	".text._ZN79_$LT$$u5b$half..bfloat..bf16$u5d$$u20$as$u20$half..slice..HalfFloatSliceExt$GT$22convert_from_f32_slice17h3d3705917e35acf7E","ax",@progbits
	.globl	_ZN79_$LT$$u5b$half..bfloat..bf16$u5d$$u20$as$u20$half..slice..HalfFloatSliceExt$GT$22convert_from_f32_slice17h3d3705917e35acf7E
	.p2align	1
	.type	_ZN79_$LT$$u5b$half..bfloat..bf16$u5d$$u20$as$u20$half..slice..HalfFloatSliceExt$GT$22convert_from_f32_slice17h3d3705917e35acf7E,@function
_ZN79_$LT$$u5b$half..bfloat..bf16$u5d$$u20$as$u20$half..slice..HalfFloatSliceExt$GT$22convert_from_f32_slice17h3d3705917e35acf7E:
.Lfunc_begin33:
	.loc	14 459 0
	.cfi_startproc
	addi	sp, sp, -32
	.cfi_def_cfa_offset 32
.Ltmp1273:
	.loc	14 461 13 prologue_end
	sw	a1, 0(sp)
.Ltmp1274:
	.loc	14 462 13
	sw	a3, 4(sp)
.Ltmp1275:
	.loc	14 460 9
	bne	a1, a3, .LBB33_10
.Ltmp1276:
	.file	21 "/Users/steve/.rustup/toolchains/nightly-2024-02-01-aarch64-apple-darwin/lib/rustlib/src/rust/library/core/src/slice/iter" "macros.rs"
	.loc	21 162 24
	beqz	a1, .LBB33_8
.Ltmp1277:
	.loc	5 6 8
	slli	t1, a1, 2
	addi	a4, a1, 1
	lui	a6, 522240
	lui	a7, 24
	addi	a7, a7, -1
.Ltmp1278:
.LBB33_3:
	.loc	14 468 38
	lw	a3, 0(a2)
.Ltmp1279:
	.loc	5 6 8
	slli	a5, a3, 1
	srli	a5, a5, 1
	srli	t0, a3, 16
	bgeu	a6, a5, .LBB33_5
.Ltmp1280:
	.loc	5 8 16
	ori	a5, t0, 64
	j	.LBB33_6
.Ltmp1281:
.LBB33_5:
	.loc	5 13 8
	srli	a5, a3, 15
	and	a3, a3, a7
.Ltmp1282:
	.loc	5 0 8 is_stmt 0
	snez	a3, a3
	and	a3, a3, a5
	.loc	5 13 8
	add	a5, a3, t0
.Ltmp1283:
.LBB33_6:
	.loc	14 468 13 is_stmt 1
	addi	a4, a4, -1
	beqz	a4, .LBB33_9
.Ltmp1284:
	addi	t1, t1, -4
.Ltmp1285:
	sh	a5, 0(a0)
.Ltmp1286:
	addi	a0, a0, 2
.Ltmp1287:
	.loc	14 0 0 is_stmt 0
	addi	a2, a2, 4
.Ltmp1288:
	.loc	21 162 24 is_stmt 1
	bnez	t1, .LBB33_3
.Ltmp1289:
.LBB33_8:
	.loc	14 470 6 epilogue_begin
	addi	sp, sp, 32
	ret
.Ltmp1290:
.LBB33_9:
	.loc	14 468 13
	lui	a0, %hi(.L__unnamed_33)
	addi	a2, a0, %lo(.L__unnamed_33)
.Ltmp1291:
	mv	a0, a1
	call	_ZN4core9panicking18panic_bounds_check17hf1abd9f97fd59941E
.Ltmp1292:
.LBB33_10:
	.loc	14 460 9
	lui	a0, %hi(.L__unnamed_20)
.Ltmp1293:
	addi	a0, a0, %lo(.L__unnamed_20)
	sw	a0, 8(sp)
	li	a0, 1
	sw	a0, 12(sp)
	lui	a0, %hi(.L__unnamed_21)
	addi	a0, a0, %lo(.L__unnamed_21)
	sw	a0, 16(sp)
	sw	zero, 20(sp)
	sw	zero, 24(sp)
	lui	a0, %hi(.L__unnamed_34)
	addi	a3, a0, %lo(.L__unnamed_34)
.Ltmp1294:
	mv	a0, sp
	addi	a1, sp, 4
.Ltmp1295:
	addi	a2, sp, 8
.Ltmp1296:
	call	_ZN4core9panicking13assert_failed17h119c65bc1ce658e9E
.Ltmp1297:
.Lfunc_end33:
	.size	_ZN79_$LT$$u5b$half..bfloat..bf16$u5d$$u20$as$u20$half..slice..HalfFloatSliceExt$GT$22convert_from_f32_slice17h3d3705917e35acf7E, .Lfunc_end33-_ZN79_$LT$$u5b$half..bfloat..bf16$u5d$$u20$as$u20$half..slice..HalfFloatSliceExt$GT$22convert_from_f32_slice17h3d3705917e35acf7E
	.cfi_endproc
	.file	22 "/Users/steve/.rustup/toolchains/nightly-2024-02-01-aarch64-apple-darwin/lib/rustlib/src/rust/library/core/src/iter/adapters" "enumerate.rs"

	.section	".text._ZN79_$LT$$u5b$half..bfloat..bf16$u5d$$u20$as$u20$half..slice..HalfFloatSliceExt$GT$22convert_from_f64_slice17hf097205836cc1e4dE","ax",@progbits
	.globl	_ZN79_$LT$$u5b$half..bfloat..bf16$u5d$$u20$as$u20$half..slice..HalfFloatSliceExt$GT$22convert_from_f64_slice17hf097205836cc1e4dE
	.p2align	1
	.type	_ZN79_$LT$$u5b$half..bfloat..bf16$u5d$$u20$as$u20$half..slice..HalfFloatSliceExt$GT$22convert_from_f64_slice17hf097205836cc1e4dE,@function
_ZN79_$LT$$u5b$half..bfloat..bf16$u5d$$u20$as$u20$half..slice..HalfFloatSliceExt$GT$22convert_from_f64_slice17hf097205836cc1e4dE:
.Lfunc_begin34:
	.loc	14 472 0
	.cfi_startproc
	addi	sp, sp, -80
	.cfi_def_cfa_offset 80
.Ltmp1298:
	.loc	14 0 0 is_stmt 0
	sw	s0, 76(sp)
	sw	s1, 72(sp)
	sw	s2, 68(sp)
	sw	s3, 64(sp)
	sw	s4, 60(sp)
	sw	s5, 56(sp)
	sw	s6, 52(sp)
	sw	s7, 48(sp)
	sw	s8, 44(sp)
.Ltmp1299:
	.cfi_offset s0, -4
	.cfi_offset s1, -8
	.cfi_offset s2, -12
	.cfi_offset s3, -16
	.cfi_offset s4, -20
	.cfi_offset s5, -24
	.cfi_offset s6, -28
	.cfi_offset s7, -32
	.cfi_offset s8, -36
	.loc	14 474 13 prologue_end is_stmt 1
	sw	a1, 12(sp)
.Ltmp1300:
	.loc	14 475 13
	sw	a3, 16(sp)
.Ltmp1301:
	.loc	14 473 9
	bne	a1, a3, .LBB34_17
.Ltmp1302:
	.loc	21 162 24
	beqz	a1, .LBB34_15
.Ltmp1303:
	.loc	21 0 24 is_stmt 0
	lui	a3, 8
.Ltmp1304:
	addi	a7, a3, -128
.Ltmp1305:
	.loc	5 32 8 is_stmt 1
	slli	s8, a1, 3
	addi	a5, a1, 1
	lui	a6, 524288
	lui	s4, 524032
	lui	t0, 294400
	li	t1, 897
	li	t2, 441
	lui	t3, 256
	li	t4, 14
	li	t5, 13
	li	t6, 3
	lui	s2, 4
	lui	s3, 3
	addi	s3, s3, -1
.Ltmp1306:
.LBB34_3:
	.loc	14 481 38
	lw	a4, 4(a2)
.Ltmp1307:
	.loc	5 27 16
	and	s1, a4, a6
.Ltmp1308:
	.loc	5 28 15
	and	s0, a4, s4
.Ltmp1309:
	.loc	5 29 15
	slli	a3, a4, 12
	srli	s7, a3, 12
	srli	s5, s1, 16
.Ltmp1310:
	.loc	5 32 8
	bne	s0, s4, .LBB34_5
.Ltmp1311:
	.loc	14 481 0
	lw	a3, 0(a2)
.Ltmp1312:
	.loc	5 35 26
	or	a3, s7, a3
.Ltmp1313:
	snez	a3, a3
	.loc	5 35 23 is_stmt 0
	slli	a3, a3, 6
.Ltmp1314:
	.loc	5 40 54 is_stmt 1
	srli	a4, s7, 13
.Ltmp1315:
	.loc	5 40 17 is_stmt 0
	or	a4, a4, s5
	.loc	5 40 16
	or	a4, a4, a7
	or	s5, a4, a3
	j	.LBB34_13
.Ltmp1316:
.LBB34_5:
	.loc	5 50 8 is_stmt 1
	bgeu	t0, s0, .LBB34_7
.Ltmp1317:
	.loc	5 51 16
	or	s5, s5, a7
.Ltmp1318:
	.loc	5 0 16 is_stmt 0
	j	.LBB34_13
.Ltmp1319:
.LBB34_7:
	srli	s6, s0, 20
.Ltmp1320:
	.loc	5 55 8 is_stmt 1
	bgeu	s6, t1, .LBB34_12
.Ltmp1321:
	.loc	5 57 12
	srli	s0, s0, 21
.Ltmp1322:
	bltu	s0, t2, .LBB34_13
.Ltmp1323:
	.loc	5 62 19
	or	s0, s7, t3
.Ltmp1324:
	.loc	5 63 35
	sub	a3, t4, s6
.Ltmp1325:
	.loc	5 65 30
	sub	s1, t5, s6
.Ltmp1326:
	.loc	5 66 12
	srl	a4, s0, s1
.Ltmp1327:
	andi	a4, a4, 1
.Ltmp1328:
	.loc	5 63 28
	srl	a3, s0, a3
.Ltmp1329:
	.loc	5 66 12
	beqz	a4, .LBB34_11
.Ltmp1330:
	.loc	5 0 0 is_stmt 0
	andi	s1, s1, 31
.Ltmp1331:
	.loc	5 66 46
	sll	a4, t6, s1
	.loc	5 66 45
	addi	a4, a4, -1
	.loc	5 66 38
	and	a4, a4, s0
	snez	a4, a4
	add	a3, a3, a4
.Ltmp1332:
.LBB34_11:
	.loc	5 70 16 is_stmt 1
	or	s5, a3, s5
.Ltmp1333:
	.loc	5 0 16 is_stmt 0
	j	.LBB34_13
.Ltmp1334:
.LBB34_12:
	.loc	5 74 20 is_stmt 1
	srli	s0, s0, 13
.Ltmp1335:
	add	s0, s0, s2
.Ltmp1336:
	.loc	5 75 20
	srli	a3, s7, 13
.Ltmp1337:
	.loc	5 78 8
	srli	s1, a4, 12
.Ltmp1338:
	.loc	5 0 8 is_stmt 0
	and	a4, a4, s3
.Ltmp1339:
	snez	a4, a4
	and	a4, a4, s1
	or	a3, a3, s0
.Ltmp1340:
	or	s5, a3, s5
.Ltmp1341:
	.loc	5 78 8
	add	s5, s5, a4
.Ltmp1342:
.LBB34_13:
	.loc	14 481 13 is_stmt 1
	addi	a5, a5, -1
	beqz	a5, .LBB34_16
.Ltmp1343:
	addi	s8, s8, -8
.Ltmp1344:
	sh	s5, 0(a0)
.Ltmp1345:
	addi	a0, a0, 2
.Ltmp1346:
	.loc	14 0 0 is_stmt 0
	addi	a2, a2, 8
.Ltmp1347:
	.loc	21 162 24 is_stmt 1
	bnez	s8, .LBB34_3
.Ltmp1348:
.LBB34_15:
	.loc	14 483 6
	lw	s0, 76(sp)
	lw	s1, 72(sp)
	lw	s2, 68(sp)
	lw	s3, 64(sp)
	lw	s4, 60(sp)
	lw	s5, 56(sp)
	lw	s6, 52(sp)
	lw	s7, 48(sp)
	lw	s8, 44(sp)
	.loc	14 483 6 epilogue_begin is_stmt 0
	addi	sp, sp, 80
	ret
.Ltmp1349:
.LBB34_16:
	.loc	14 481 13 is_stmt 1
	lui	a0, %hi(.L__unnamed_35)
	addi	a2, a0, %lo(.L__unnamed_35)
.Ltmp1350:
	mv	a0, a1
	call	_ZN4core9panicking18panic_bounds_check17hf1abd9f97fd59941E
.Ltmp1351:
.LBB34_17:
	.loc	14 473 9
	lui	a0, %hi(.L__unnamed_20)
.Ltmp1352:
	addi	a0, a0, %lo(.L__unnamed_20)
	sw	a0, 20(sp)
	li	a0, 1
	sw	a0, 24(sp)
	lui	a0, %hi(.L__unnamed_21)
	addi	a0, a0, %lo(.L__unnamed_21)
	sw	a0, 28(sp)
	sw	zero, 32(sp)
	sw	zero, 36(sp)
	lui	a0, %hi(.L__unnamed_36)
	addi	a3, a0, %lo(.L__unnamed_36)
.Ltmp1353:
	addi	a0, sp, 12
	addi	a1, sp, 16
.Ltmp1354:
	addi	a2, sp, 20
.Ltmp1355:
	call	_ZN4core9panicking13assert_failed17h119c65bc1ce658e9E
.Ltmp1356:
.Lfunc_end34:
	.size	_ZN79_$LT$$u5b$half..bfloat..bf16$u5d$$u20$as$u20$half..slice..HalfFloatSliceExt$GT$22convert_from_f64_slice17hf097205836cc1e4dE, .Lfunc_end34-_ZN79_$LT$$u5b$half..bfloat..bf16$u5d$$u20$as$u20$half..slice..HalfFloatSliceExt$GT$22convert_from_f64_slice17hf097205836cc1e4dE
	.cfi_endproc

	.section	".text._ZN79_$LT$$u5b$half..bfloat..bf16$u5d$$u20$as$u20$half..slice..HalfFloatSliceExt$GT$20convert_to_f32_slice17h9d23e3d4c368f882E","ax",@progbits
	.globl	_ZN79_$LT$$u5b$half..bfloat..bf16$u5d$$u20$as$u20$half..slice..HalfFloatSliceExt$GT$20convert_to_f32_slice17h9d23e3d4c368f882E
	.p2align	1
	.type	_ZN79_$LT$$u5b$half..bfloat..bf16$u5d$$u20$as$u20$half..slice..HalfFloatSliceExt$GT$20convert_to_f32_slice17h9d23e3d4c368f882E,@function
_ZN79_$LT$$u5b$half..bfloat..bf16$u5d$$u20$as$u20$half..slice..HalfFloatSliceExt$GT$20convert_to_f32_slice17h9d23e3d4c368f882E:
.Lfunc_begin35:
	.loc	14 485 0
	.cfi_startproc
	addi	sp, sp, -32
	.cfi_def_cfa_offset 32
.Ltmp1357:
	.loc	14 487 13 prologue_end
	sw	a1, 0(sp)
.Ltmp1358:
	.loc	14 488 13
	sw	a3, 4(sp)
.Ltmp1359:
	.loc	14 486 9
	bne	a1, a3, .LBB35_7
.Ltmp1360:
	.loc	21 162 24
	beqz	a1, .LBB35_5
.Ltmp1361:
	.loc	14 494 13
	slli	a3, a1, 1
.Ltmp1362:
	addi	a4, a1, 1
	lui	a5, 8
	addi	a6, a5, -128
.Ltmp1363:
.LBB35_3:
	addi	a4, a4, -1
	beqz	a4, .LBB35_6
.Ltmp1364:
	.loc	14 494 22 is_stmt 0
	lhu	a7, 0(a0)
	.loc	14 494 0
	addi	a3, a3, -2
.Ltmp1365:
	.loc	5 88 8 is_stmt 1
	slli	a5, a7, 17
	srli	a5, a5, 17
	sltu	a5, a6, a5
.Ltmp1366:
	.loc	5 0 0 is_stmt 0
	slli	a5, a5, 22
	slli	a7, a7, 16
.Ltmp1367:
	or	a5, a5, a7
.Ltmp1368:
	.loc	14 494 13 is_stmt 1
	sw	a5, 0(a2)
.Ltmp1369:
	.loc	14 494 0 is_stmt 0
	addi	a2, a2, 4
.Ltmp1370:
	.file	23 "/Users/steve/.rustup/toolchains/nightly-2024-02-01-aarch64-apple-darwin/lib/rustlib/src/rust/library/core/src/ptr" "non_null.rs"
	.loc	23 623 37 is_stmt 1
	addi	a0, a0, 2
.Ltmp1371:
	.loc	21 162 24
	bnez	a3, .LBB35_3
.Ltmp1372:
.LBB35_5:
	.loc	14 496 6 epilogue_begin
	addi	sp, sp, 32
	ret
.Ltmp1373:
.LBB35_6:
	.loc	14 494 13
	lui	a0, %hi(.L__unnamed_37)
.Ltmp1374:
	addi	a2, a0, %lo(.L__unnamed_37)
	mv	a0, a1
	call	_ZN4core9panicking18panic_bounds_check17hf1abd9f97fd59941E
.Ltmp1375:
.LBB35_7:
	.loc	14 486 9
	lui	a0, %hi(.L__unnamed_20)
.Ltmp1376:
	addi	a0, a0, %lo(.L__unnamed_20)
	sw	a0, 8(sp)
	li	a0, 1
	sw	a0, 12(sp)
	lui	a0, %hi(.L__unnamed_21)
	addi	a0, a0, %lo(.L__unnamed_21)
	sw	a0, 16(sp)
	sw	zero, 20(sp)
	sw	zero, 24(sp)
	lui	a0, %hi(.L__unnamed_38)
	addi	a3, a0, %lo(.L__unnamed_38)
.Ltmp1377:
	mv	a0, sp
	addi	a1, sp, 4
.Ltmp1378:
	addi	a2, sp, 8
.Ltmp1379:
	call	_ZN4core9panicking13assert_failed17h119c65bc1ce658e9E
.Ltmp1380:
.Lfunc_end35:
	.size	_ZN79_$LT$$u5b$half..bfloat..bf16$u5d$$u20$as$u20$half..slice..HalfFloatSliceExt$GT$20convert_to_f32_slice17h9d23e3d4c368f882E, .Lfunc_end35-_ZN79_$LT$$u5b$half..bfloat..bf16$u5d$$u20$as$u20$half..slice..HalfFloatSliceExt$GT$20convert_to_f32_slice17h9d23e3d4c368f882E
	.cfi_endproc

	.section	".text._ZN79_$LT$$u5b$half..bfloat..bf16$u5d$$u20$as$u20$half..slice..HalfFloatSliceExt$GT$20convert_to_f64_slice17h2413d063034aec4bE","ax",@progbits
	.globl	_ZN79_$LT$$u5b$half..bfloat..bf16$u5d$$u20$as$u20$half..slice..HalfFloatSliceExt$GT$20convert_to_f64_slice17h2413d063034aec4bE
	.p2align	1
	.type	_ZN79_$LT$$u5b$half..bfloat..bf16$u5d$$u20$as$u20$half..slice..HalfFloatSliceExt$GT$20convert_to_f64_slice17h2413d063034aec4bE,@function
_ZN79_$LT$$u5b$half..bfloat..bf16$u5d$$u20$as$u20$half..slice..HalfFloatSliceExt$GT$20convert_to_f64_slice17h2413d063034aec4bE:
.Lfunc_begin36:
	.loc	14 498 0
	.cfi_startproc
	addi	sp, sp, -48
	.cfi_def_cfa_offset 48
.Ltmp1381:
	.loc	14 0 0 is_stmt 0
	sw	s0, 44(sp)
	sw	s1, 40(sp)
	sw	s2, 36(sp)
	sw	s3, 32(sp)
.Ltmp1382:
	.cfi_offset s0, -4
	.cfi_offset s1, -8
	.cfi_offset s2, -12
	.cfi_offset s3, -16
	.loc	14 500 13 prologue_end is_stmt 1
	sw	a1, 0(sp)
.Ltmp1383:
	.loc	14 501 13
	sw	a3, 4(sp)
.Ltmp1384:
	.loc	14 499 9
	bne	a1, a3, .LBB36_20
.Ltmp1385:
	.loc	21 162 24
	beqz	a1, .LBB36_18
.Ltmp1386:
	.loc	21 0 24 is_stmt 0
	lui	a6, 8
	addi	t5, a6, -128
.Ltmp1387:
	.loc	5 97 8 is_stmt 1
	slli	a5, a1, 1
	addi	a3, a1, 1
.Ltmp1388:
	.loc	5 0 8 is_stmt 0
	addi	a7, t5, 127
	lui	t0, 524032
	lui	t1, 524160
	li	t2, 905
	lui	a4, 5
	addi	t3, a4, 1365
	lui	a4, 3
	addi	t4, a4, 819
.Ltmp1389:
.LBB36_3:
	.loc	14 507 22 is_stmt 1
	lhu	a4, 0(a0)
.Ltmp1390:
	.loc	5 97 8
	and	s1, a4, a7
	beqz	s1, .LBB36_7
.Ltmp1391:
	.loc	5 101 21
	and	t6, a4, a6
.Ltmp1392:
	.loc	5 102 20
	and	s1, a4, t5
.Ltmp1393:
	.loc	5 103 20
	andi	a4, a4, 127
.Ltmp1394:
	.loc	5 0 20 is_stmt 0
	slli	t6, t6, 16
.Ltmp1395:
	.loc	5 106 8 is_stmt 1
	bne	s1, t5, .LBB36_8
.Ltmp1396:
	.loc	5 0 8 is_stmt 0
	li	s0, 0
	.loc	5 108 12 is_stmt 1
	beqz	a4, .LBB36_10
.Ltmp1397:
	.loc	5 112 82
	slli	a4, a4, 13
	.loc	5 112 35 is_stmt 0
	or	a4, t6, a4
	or	a4, a4, t1
	j	.LBB36_16
.Ltmp1398:
.LBB36_7:
	.loc	5 0 35
	li	s0, 0
	.loc	5 98 31 is_stmt 1
	slli	a4, a4, 16
.Ltmp1399:
	.loc	5 0 31 is_stmt 0
	j	.LBB36_16
.Ltmp1400:
.LBB36_8:
	.loc	5 122 8 is_stmt 1
	beqz	s1, .LBB36_11
.Ltmp1401:
	.loc	5 0 8 is_stmt 0
	li	s0, 0
	srli	s1, s1, 7
.Ltmp1402:
	.loc	5 132 16 is_stmt 1
	addi	s1, s1, 896
.Ltmp1403:
	.loc	5 132 15 is_stmt 0
	slli	s1, s1, 20
.Ltmp1404:
	.loc	5 133 15 is_stmt 1
	slli	a4, a4, 13
.Ltmp1405:
	.loc	5 134 20
	or	a4, a4, t6
.Ltmp1406:
	.loc	5 0 20 is_stmt 0
	j	.LBB36_15
.Ltmp1407:
.LBB36_10:
	.loc	5 109 35 is_stmt 1
	or	a4, t6, t0
	j	.LBB36_16
.Ltmp1408:
.LBB36_11:
	.loc	6 1108 5
	beqz	a4, .LBB36_13
.Ltmp1409:
	srli	s0, a4, 1
	or	s0, s0, a4
	srli	s1, s0, 2
.Ltmp1410:
	or	s0, s0, s1
	srli	s1, s0, 4
	or	s0, s0, s1
	not	s0, s0
	srli	s1, s0, 1
	and	s1, s1, t3
	sub	s0, s0, s1
	and	s1, s0, t4
	srli	s0, s0, 2
	and	s0, s0, t4
	add	s0, s0, s1
	srli	s1, s0, 4
	add	s0, s0, s1
	andi	s1, s0, 15
	slli	s0, s0, 20
	srli	s0, s0, 28
	add	s2, s1, s0
	j	.LBB36_14
.Ltmp1411:
.LBB36_13:
	.loc	6 0 5 is_stmt 0
	li	s2, 16
.Ltmp1412:
.LBB36_14:
	li	s0, 0
.Ltmp1413:
	.loc	5 127 20 is_stmt 1
	sub	s1, t2, s2
	.loc	5 127 19 is_stmt 0
	slli	s3, s1, 20
.Ltmp1414:
	.loc	5 128 19 is_stmt 1
	addi	s2, s2, 5
.Ltmp1415:
	sll	a4, a4, s2
	slti	s1, s2, 0
	addi	s1, s1, -1
	and	a4, a4, s1
	slli	a4, a4, 12
	srli	s1, a4, 12
.Ltmp1416:
	.loc	5 129 31
	or	a4, s3, t6
.Ltmp1417:
.LBB36_15:
	.loc	5 0 0 is_stmt 0
	or	a4, a4, s1
.Ltmp1418:
.LBB36_16:
	.loc	14 507 13 is_stmt 1
	addi	a3, a3, -1
	beqz	a3, .LBB36_19
.Ltmp1419:
	addi	a5, a5, -2
.Ltmp1420:
	sw	s0, 0(a2)
	sw	a4, 4(a2)
.Ltmp1421:
	addi	a2, a2, 8
.Ltmp1422:
	.loc	14 0 0 is_stmt 0
	addi	a0, a0, 2
.Ltmp1423:
	.loc	21 162 24 is_stmt 1
	bnez	a5, .LBB36_3
.Ltmp1424:
.LBB36_18:
	.loc	14 509 6
	lw	s0, 44(sp)
	lw	s1, 40(sp)
	lw	s2, 36(sp)
	lw	s3, 32(sp)
	.loc	14 509 6 epilogue_begin is_stmt 0
	addi	sp, sp, 48
	ret
.Ltmp1425:
.LBB36_19:
	.loc	14 507 13 is_stmt 1
	lui	a0, %hi(.L__unnamed_39)
.Ltmp1426:
	addi	a2, a0, %lo(.L__unnamed_39)
	mv	a0, a1
	call	_ZN4core9panicking18panic_bounds_check17hf1abd9f97fd59941E
.Ltmp1427:
.LBB36_20:
	.loc	14 499 9
	lui	a0, %hi(.L__unnamed_20)
.Ltmp1428:
	addi	a0, a0, %lo(.L__unnamed_20)
	sw	a0, 8(sp)
	li	a0, 1
	sw	a0, 12(sp)
	lui	a0, %hi(.L__unnamed_21)
	addi	a0, a0, %lo(.L__unnamed_21)
	sw	a0, 16(sp)
	sw	zero, 20(sp)
	sw	zero, 24(sp)
	lui	a0, %hi(.L__unnamed_40)
	addi	a3, a0, %lo(.L__unnamed_40)
.Ltmp1429:
	mv	a0, sp
	addi	a1, sp, 4
.Ltmp1430:
	addi	a2, sp, 8
.Ltmp1431:
	call	_ZN4core9panicking13assert_failed17h119c65bc1ce658e9E
.Ltmp1432:
.Lfunc_end36:
	.size	_ZN79_$LT$$u5b$half..bfloat..bf16$u5d$$u20$as$u20$half..slice..HalfFloatSliceExt$GT$20convert_to_f64_slice17h2413d063034aec4bE, .Lfunc_end36-_ZN79_$LT$$u5b$half..bfloat..bf16$u5d$$u20$as$u20$half..slice..HalfFloatSliceExt$GT$20convert_to_f64_slice17h2413d063034aec4bE
	.cfi_endproc

	.type	.L__unnamed_21,@object
	.section	.rodata..L__unnamed_21,"a",@progbits
	.p2align	2, 0x0
.L__unnamed_21:
	.size	.L__unnamed_21, 0

	.type	.L__unnamed_1,@object
	.section	.rodata..L__unnamed_1,"a",@progbits
	.p2align	2, 0x0
.L__unnamed_1:
	.word	_ZN4core3ptr30drop_in_place$LT$$RF$usize$GT$17hddb05b0085174bdfE
	.asciz	"\004\000\000\000\004\000\000"
	.word	_ZN42_$LT$$RF$T$u20$as$u20$core..fmt..Debug$GT$3fmt17hd0b06c7631d34856E
	.size	.L__unnamed_1, 16

	.type	.L__unnamed_2,@object
	.section	.rodata..L__unnamed_2,"a",@progbits
	.p2align	2, 0x0
.L__unnamed_2:
	.word	.L__unnamed_21
	.zero	4
	.size	.L__unnamed_2, 8

	.type	.L__unnamed_41,@object
	.section	.rodata..L__unnamed_41,"a",@progbits
.L__unnamed_41:
	.ascii	"/Users/steve/.cargo/registry/src/index.crates.io-6f17d22bba15001f/half-1.8.3/src/binary16/convert.rs"
	.size	.L__unnamed_41, 100

	.type	.L__unnamed_3,@object
	.section	.rodata..L__unnamed_3,"a",@progbits
	.p2align	2, 0x0
.L__unnamed_3:
	.word	.L__unnamed_41
	.asciz	"d\000\000\000h\001\000\000\035\000\000"
	.size	.L__unnamed_3, 16

	.type	.L__unnamed_4,@object
	.section	.rodata..L__unnamed_4,"a",@progbits
	.p2align	2, 0x0
.L__unnamed_4:
	.word	.L__unnamed_41
	.asciz	"d\000\000\000i\001\000\000\035\000\000"
	.size	.L__unnamed_4, 16

	.type	.L__unnamed_5,@object
	.section	.rodata..L__unnamed_5,"a",@progbits
	.p2align	2, 0x0
.L__unnamed_5:
	.word	.L__unnamed_41
	.asciz	"d\000\000\000j\001\000\000\035\000\000"
	.size	.L__unnamed_5, 16

	.type	.L__unnamed_6,@object
	.section	.rodata..L__unnamed_6,"a",@progbits
	.p2align	2, 0x0
.L__unnamed_6:
	.word	.L__unnamed_41
	.asciz	"d\000\000\000k\001\000\000\035\000\000"
	.size	.L__unnamed_6, 16

	.type	.L__unnamed_7,@object
	.section	.rodata..L__unnamed_7,"a",@progbits
	.p2align	2, 0x0
.L__unnamed_7:
	.word	.L__unnamed_41
	.asciz	"d\000\000\000t\001\000\000\035\000\000"
	.size	.L__unnamed_7, 16

	.type	.L__unnamed_8,@object
	.section	.rodata..L__unnamed_8,"a",@progbits
	.p2align	2, 0x0
.L__unnamed_8:
	.word	.L__unnamed_41
	.asciz	"d\000\000\000u\001\000\000\035\000\000"
	.size	.L__unnamed_8, 16

	.type	.L__unnamed_9,@object
	.section	.rodata..L__unnamed_9,"a",@progbits
	.p2align	2, 0x0
.L__unnamed_9:
	.word	.L__unnamed_41
	.asciz	"d\000\000\000v\001\000\000\035\000\000"
	.size	.L__unnamed_9, 16

	.type	.L__unnamed_10,@object
	.section	.rodata..L__unnamed_10,"a",@progbits
	.p2align	2, 0x0
.L__unnamed_10:
	.word	.L__unnamed_41
	.asciz	"d\000\000\000w\001\000\000\035\000\000"
	.size	.L__unnamed_10, 16

	.type	.L__unnamed_13,@object
	.section	.rodata..L__unnamed_13,"a",@progbits
	.p2align	2, 0x0
.L__unnamed_13:
	.word	.L__unnamed_41
	.asciz	"d\000\000\000\200\001\000\000\035\000\000"
	.size	.L__unnamed_13, 16

	.type	.L__unnamed_11,@object
	.section	.rodata..L__unnamed_11,"a",@progbits
	.p2align	2, 0x0
.L__unnamed_11:
	.word	.L__unnamed_41
	.asciz	"d\000\000\000\201\001\000\000\035\000\000"
	.size	.L__unnamed_11, 16

	.type	.L__unnamed_14,@object
	.section	.rodata..L__unnamed_14,"a",@progbits
	.p2align	2, 0x0
.L__unnamed_14:
	.word	.L__unnamed_41
	.asciz	"d\000\000\000\202\001\000\000\035\000\000"
	.size	.L__unnamed_14, 16

	.type	.L__unnamed_12,@object
	.section	.rodata..L__unnamed_12,"a",@progbits
	.p2align	2, 0x0
.L__unnamed_12:
	.word	.L__unnamed_41
	.asciz	"d\000\000\000\203\001\000\000\035\000\000"
	.size	.L__unnamed_12, 16

	.type	.L__unnamed_15,@object
	.section	.rodata..L__unnamed_15,"a",@progbits
	.p2align	2, 0x0
.L__unnamed_15:
	.word	.L__unnamed_41
	.asciz	"d\000\000\000\214\001\000\000\035\000\000"
	.size	.L__unnamed_15, 16

	.type	.L__unnamed_16,@object
	.section	.rodata..L__unnamed_16,"a",@progbits
	.p2align	2, 0x0
.L__unnamed_16:
	.word	.L__unnamed_41
	.asciz	"d\000\000\000\215\001\000\000\035\000\000"
	.size	.L__unnamed_16, 16

	.type	.L__unnamed_17,@object
	.section	.rodata..L__unnamed_17,"a",@progbits
	.p2align	2, 0x0
.L__unnamed_17:
	.word	.L__unnamed_41
	.asciz	"d\000\000\000\216\001\000\000\035\000\000"
	.size	.L__unnamed_17, 16

	.type	.L__unnamed_18,@object
	.section	.rodata..L__unnamed_18,"a",@progbits
	.p2align	2, 0x0
.L__unnamed_18:
	.word	.L__unnamed_41
	.asciz	"d\000\000\000\217\001\000\000\035\000\000"
	.size	.L__unnamed_18, 16

	.type	.L__unnamed_42,@object
	.section	.rodata..L__unnamed_42,"a",@progbits
.L__unnamed_42:
	.ascii	"destination and source slices have different lengths"
	.size	.L__unnamed_42, 52

	.type	.L__unnamed_20,@object
	.section	.rodata..L__unnamed_20,"a",@progbits
	.p2align	2, 0x0
.L__unnamed_20:
	.word	.L__unnamed_42
	.asciz	"4\000\000"
	.size	.L__unnamed_20, 8

	.type	.L__unnamed_43,@object
	.section	.rodata..L__unnamed_43,"a",@progbits
.L__unnamed_43:
	.ascii	"/Users/steve/.cargo/registry/src/index.crates.io-6f17d22bba15001f/half-1.8.3/src/slice.rs"
	.size	.L__unnamed_43, 89

	.type	.L__unnamed_22,@object
	.section	.rodata..L__unnamed_22,"a",@progbits
	.p2align	2, 0x0
.L__unnamed_22:
	.word	.L__unnamed_43
	.asciz	"Y\000\000\000<\001\000\000\t\000\000"
	.size	.L__unnamed_22, 16

	.type	.L__unnamed_23,@object
	.section	.rodata..L__unnamed_23,"a",@progbits
	.p2align	2, 0x0
.L__unnamed_23:
	.word	.L__unnamed_43
	.asciz	"Y\000\000\000Q\001\000\000\021\000\000"
	.size	.L__unnamed_23, 16

	.type	.L__unnamed_19,@object
	.section	.rodata..L__unnamed_19,"a",@progbits
	.p2align	2, 0x0
.L__unnamed_19:
	.word	.L__unnamed_43
	.asciz	"Y\000\000\000G\001\000\000\021\000\000"
	.size	.L__unnamed_19, 16

	.type	.L__unnamed_25,@object
	.section	.rodata..L__unnamed_25,"a",@progbits
	.p2align	2, 0x0
.L__unnamed_25:
	.word	.L__unnamed_43
	.asciz	"Y\000\000\000W\001\000\000\t\000\000"
	.size	.L__unnamed_25, 16

	.type	.L__unnamed_26,@object
	.section	.rodata..L__unnamed_26,"a",@progbits
	.p2align	2, 0x0
.L__unnamed_26:
	.word	.L__unnamed_43
	.asciz	"Y\000\000\000l\001\000\000\021\000\000"
	.size	.L__unnamed_26, 16

	.type	.L__unnamed_24,@object
	.section	.rodata..L__unnamed_24,"a",@progbits
	.p2align	2, 0x0
.L__unnamed_24:
	.word	.L__unnamed_43
	.asciz	"Y\000\000\000b\001\000\000\021\000\000"
	.size	.L__unnamed_24, 16

	.type	.L__unnamed_28,@object
	.section	.rodata..L__unnamed_28,"a",@progbits
	.p2align	2, 0x0
.L__unnamed_28:
	.word	.L__unnamed_43
	.asciz	"Y\000\000\000r\001\000\000\t\000\000"
	.size	.L__unnamed_28, 16

	.type	.L__unnamed_29,@object
	.section	.rodata..L__unnamed_29,"a",@progbits
	.p2align	2, 0x0
.L__unnamed_29:
	.word	.L__unnamed_43
	.asciz	"Y\000\000\000\207\001\000\000\020\000\000"
	.size	.L__unnamed_29, 16

	.type	.L__unnamed_27,@object
	.section	.rodata..L__unnamed_27,"a",@progbits
	.p2align	2, 0x0
.L__unnamed_27:
	.word	.L__unnamed_43
	.asciz	"Y\000\000\000}\001\000\000\020\000\000"
	.size	.L__unnamed_27, 16

	.type	.L__unnamed_31,@object
	.section	.rodata..L__unnamed_31,"a",@progbits
	.p2align	2, 0x0
.L__unnamed_31:
	.word	.L__unnamed_43
	.asciz	"Y\000\000\000\215\001\000\000\t\000\000"
	.size	.L__unnamed_31, 16

	.type	.L__unnamed_32,@object
	.section	.rodata..L__unnamed_32,"a",@progbits
	.p2align	2, 0x0
.L__unnamed_32:
	.word	.L__unnamed_43
	.asciz	"Y\000\000\000\242\001\000\000\020\000\000"
	.size	.L__unnamed_32, 16

	.type	.L__unnamed_30,@object
	.section	.rodata..L__unnamed_30,"a",@progbits
	.p2align	2, 0x0
.L__unnamed_30:
	.word	.L__unnamed_43
	.asciz	"Y\000\000\000\230\001\000\000\020\000\000"
	.size	.L__unnamed_30, 16

	.type	.L__unnamed_34,@object
	.section	.rodata..L__unnamed_34,"a",@progbits
	.p2align	2, 0x0
.L__unnamed_34:
	.word	.L__unnamed_43
	.asciz	"Y\000\000\000\314\001\000\000\t\000\000"
	.size	.L__unnamed_34, 16

	.type	.L__unnamed_33,@object
	.section	.rodata..L__unnamed_33,"a",@progbits
	.p2align	2, 0x0
.L__unnamed_33:
	.word	.L__unnamed_43
	.asciz	"Y\000\000\000\324\001\000\000\r\000\000"
	.size	.L__unnamed_33, 16

	.type	.L__unnamed_36,@object
	.section	.rodata..L__unnamed_36,"a",@progbits
	.p2align	2, 0x0
.L__unnamed_36:
	.word	.L__unnamed_43
	.asciz	"Y\000\000\000\331\001\000\000\t\000\000"
	.size	.L__unnamed_36, 16

	.type	.L__unnamed_35,@object
	.section	.rodata..L__unnamed_35,"a",@progbits
	.p2align	2, 0x0
.L__unnamed_35:
	.word	.L__unnamed_43
	.asciz	"Y\000\000\000\341\001\000\000\r\000\000"
	.size	.L__unnamed_35, 16

	.type	.L__unnamed_38,@object
	.section	.rodata..L__unnamed_38,"a",@progbits
	.p2align	2, 0x0
.L__unnamed_38:
	.word	.L__unnamed_43
	.asciz	"Y\000\000\000\346\001\000\000\t\000\000"
	.size	.L__unnamed_38, 16

	.type	.L__unnamed_37,@object
	.section	.rodata..L__unnamed_37,"a",@progbits
	.p2align	2, 0x0
.L__unnamed_37:
	.word	.L__unnamed_43
	.asciz	"Y\000\000\000\356\001\000\000\r\000\000"
	.size	.L__unnamed_37, 16

	.type	.L__unnamed_40,@object
	.section	.rodata..L__unnamed_40,"a",@progbits
	.p2align	2, 0x0
.L__unnamed_40:
	.word	.L__unnamed_43
	.asciz	"Y\000\000\000\363\001\000\000\t\000\000"
	.size	.L__unnamed_40, 16

	.type	.L__unnamed_39,@object
	.section	.rodata..L__unnamed_39,"a",@progbits
	.p2align	2, 0x0
.L__unnamed_39:
	.word	.L__unnamed_43
	.asciz	"Y\000\000\000\373\001\000\000\r\000\000"
	.size	.L__unnamed_39, 16

	.section	.rodata..L__unnamed_1,"a",@progbits
.Lsec_end0:
	.section	".text._ZN42_$LT$$RF$T$u20$as$u20$core..fmt..Debug$GT$3fmt17hd0b06c7631d34856E","ax",@progbits
.Lsec_end1:
	.section	".text._ZN4core3ptr30drop_in_place$LT$$RF$usize$GT$17hddb05b0085174bdfE","ax",@progbits
.Lsec_end2:
	.section	.text.unlikely._ZN4core9panicking13assert_failed17h119c65bc1ce658e9E,"ax",@progbits
.Lsec_end3:
	.section	.text._ZN4half6bfloat7convert11bf16_to_f6417h0496e446fdc94ba6E,"ax",@progbits
.Lsec_end4:
	.section	".text._ZN65_$LT$half..bfloat..bf16$u20$as$u20$core..str..traits..FromStr$GT$8from_str17h1cab31c8db233adaE","ax",@progbits
.Lsec_end5:
	.section	".text._ZN55_$LT$half..bfloat..bf16$u20$as$u20$core..fmt..Debug$GT$3fmt17h1dba0cc716fd869fE","ax",@progbits
.Lsec_end6:
	.section	".text._ZN57_$LT$half..bfloat..bf16$u20$as$u20$core..fmt..Display$GT$3fmt17h885e2c90d4a4866dE","ax",@progbits
.Lsec_end7:
	.section	".text._ZN58_$LT$half..bfloat..bf16$u20$as$u20$core..fmt..LowerExp$GT$3fmt17hcc11ec377a9d493dE","ax",@progbits
.Lsec_end8:
	.section	".text._ZN58_$LT$half..bfloat..bf16$u20$as$u20$core..fmt..UpperExp$GT$3fmt17hc9e7f05b34f92b06E","ax",@progbits
.Lsec_end9:
	.section	".text._ZN56_$LT$half..bfloat..bf16$u20$as$u20$core..fmt..Binary$GT$3fmt17h8c0004d3303ef8c1E","ax",@progbits
.Lsec_end10:
	.section	".text._ZN55_$LT$half..bfloat..bf16$u20$as$u20$core..fmt..Octal$GT$3fmt17h3b88b285971e85a4E","ax",@progbits
.Lsec_end11:
	.section	".text._ZN58_$LT$half..bfloat..bf16$u20$as$u20$core..fmt..LowerHex$GT$3fmt17h1353d0bc8293732bE","ax",@progbits
.Lsec_end12:
	.section	".text._ZN58_$LT$half..bfloat..bf16$u20$as$u20$core..fmt..UpperHex$GT$3fmt17he950e2ed2e2c27c9E","ax",@progbits
.Lsec_end13:
	.section	".text._ZN60_$LT$half..bfloat..bf16$u20$as$u20$core..ops..arith..Add$GT$3add17h2847113dd84c0663E","ax",@progbits
.Lsec_end14:
	.section	".text._ZN60_$LT$half..bfloat..bf16$u20$as$u20$core..ops..arith..Sub$GT$3sub17hf20fb9fe2e91430aE","ax",@progbits
.Lsec_end15:
	.section	".text._ZN60_$LT$half..bfloat..bf16$u20$as$u20$core..ops..arith..Mul$GT$3mul17h030ca779843ef70eE","ax",@progbits
.Lsec_end16:
	.section	".text._ZN60_$LT$half..bfloat..bf16$u20$as$u20$core..ops..arith..Div$GT$3div17h72a10570889ac76eE","ax",@progbits
.Lsec_end17:
	.section	".text._ZN60_$LT$half..bfloat..bf16$u20$as$u20$core..ops..arith..Rem$GT$3rem17heb2561b27da67d31E","ax",@progbits
.Lsec_end18:
	.section	.text._ZN4half8binary167convert19f16_to_f32_fallback17h5b61584095d15fe6E,"ax",@progbits
.Lsec_end19:
	.section	.text._ZN4half8binary167convert19f16_to_f64_fallback17h7d92d573a64bf5c8E,"ax",@progbits
.Lsec_end20:
	.section	.text._ZN4half8binary167convert23f16x4_to_f32x4_fallback17hf0e2c78b2eef7828E,"ax",@progbits
.Lsec_end21:
	.section	.text._ZN4half8binary167convert23f32x4_to_f16x4_fallback17h29d4f1cc56f048afE,"ax",@progbits
.Lsec_end22:
	.section	.text._ZN4half8binary167convert23f16x4_to_f64x4_fallback17h041cbc1a66fe84eaE,"ax",@progbits
.Lsec_end23:
	.section	.text._ZN4half8binary167convert23f64x4_to_f16x4_fallback17ha4e0ba34de1513afE,"ax",@progbits
.Lsec_end24:
	.section	".text._ZN66_$LT$half..binary16..f16$u20$as$u20$core..str..traits..FromStr$GT$8from_str17h08609dafb9804c18E","ax",@progbits
.Lsec_end25:
	.section	".text._ZN56_$LT$half..binary16..f16$u20$as$u20$core..fmt..Debug$GT$3fmt17h335832fe8ac01fe3E","ax",@progbits
.Lsec_end26:
	.section	".text._ZN58_$LT$half..binary16..f16$u20$as$u20$core..fmt..Display$GT$3fmt17he00bfc4df4e86b8dE","ax",@progbits
.Lsec_end27:
	.section	".text._ZN59_$LT$half..binary16..f16$u20$as$u20$core..fmt..LowerExp$GT$3fmt17h190ffe3771de4700E","ax",@progbits
.Lsec_end28:
	.section	".text._ZN59_$LT$half..binary16..f16$u20$as$u20$core..fmt..UpperExp$GT$3fmt17h53f250bba774c77eE","ax",@progbits
.Lsec_end29:
	.section	".text._ZN80_$LT$$u5b$half..binary16..f16$u5d$$u20$as$u20$half..slice..HalfFloatSliceExt$GT$22convert_from_f32_slice17h6c1e6f5447768706E","ax",@progbits
.Lsec_end30:
	.section	".text._ZN80_$LT$$u5b$half..binary16..f16$u5d$$u20$as$u20$half..slice..HalfFloatSliceExt$GT$22convert_from_f64_slice17h37740dba144958cdE","ax",@progbits
.Lsec_end31:
	.section	".text._ZN80_$LT$$u5b$half..binary16..f16$u5d$$u20$as$u20$half..slice..HalfFloatSliceExt$GT$20convert_to_f32_slice17h103b0f914e0ee51cE","ax",@progbits
.Lsec_end32:
	.section	".text._ZN80_$LT$$u5b$half..binary16..f16$u5d$$u20$as$u20$half..slice..HalfFloatSliceExt$GT$20convert_to_f64_slice17h5525513f9f187e00E","ax",@progbits
.Lsec_end33:
	.section	".text._ZN79_$LT$$u5b$half..bfloat..bf16$u5d$$u20$as$u20$half..slice..HalfFloatSliceExt$GT$22convert_from_f32_slice17h3d3705917e35acf7E","ax",@progbits
.Lsec_end34:
	.section	".text._ZN79_$LT$$u5b$half..bfloat..bf16$u5d$$u20$as$u20$half..slice..HalfFloatSliceExt$GT$22convert_from_f64_slice17hf097205836cc1e4dE","ax",@progbits
.Lsec_end35:
	.section	".text._ZN79_$LT$$u5b$half..bfloat..bf16$u5d$$u20$as$u20$half..slice..HalfFloatSliceExt$GT$20convert_to_f32_slice17h9d23e3d4c368f882E","ax",@progbits
.Lsec_end36:
	.section	".text._ZN79_$LT$$u5b$half..bfloat..bf16$u5d$$u20$as$u20$half..slice..HalfFloatSliceExt$GT$20convert_to_f64_slice17h2413d063034aec4bE","ax",@progbits
.Lsec_end37:
	.section	".note.GNU-stack","",@progbits