	.text
	.attribute	4, 16
	.attribute	5, "rv32i2p0_m2p0_a2p0_c2p0"
	.file	"many_chunks.7b25f865-cgu.0"
	.section	.text._ZN5alloc7raw_vec11finish_grow17h862016746d2f359dE,"ax",@progbits
	.p2align	1
	.type	_ZN5alloc7raw_vec11finish_grow17h862016746d2f359dE,@function
_ZN5alloc7raw_vec11finish_grow17h862016746d2f359dE:
.Lfunc_begin0:
	.file	1 "/Users/georg/.rustup/toolchains/nightly-2023-01-03-aarch64-apple-darwin/lib/rustlib/src/rust/library/alloc/src" "raw_vec.rs"
	.loc	1 448 0
	.cfi_sections .debug_frame
	.cfi_startproc
	addi	sp, sp, -16
	.cfi_def_cfa_offset 16
	sw	ra, 12(sp)
	sw	s0, 8(sp)
	sw	s1, 4(sp)
	sw	s2, 0(sp)
	.cfi_offset ra, -4
	.cfi_offset s0, -8
	.cfi_offset s1, -12
	.cfi_offset s2, -16
	mv	s1, a1
.Ltmp0:
	mv	s0, a0
.Ltmp1:
	.file	2 "/Users/georg/.rustup/toolchains/nightly-2023-01-03-aarch64-apple-darwin/lib/rustlib/src/rust/library/core/src" "result.rs"
	.loc	2 858 9 prologue_end
	beqz	a2, .LBB0_6
.Ltmp2:
	.loc	1 506 8
	bltz	s1, .LBB0_7
.Ltmp3:
	.loc	1 0 8 is_stmt 0
	mv	s2, a2
.Ltmp4:
	.loc	1 461 25 is_stmt 1
	lw	a0, 8(a3)
	beqz	a0, .LBB0_9
.Ltmp5:
	.loc	1 461 36 is_stmt 0
	lw	a1, 4(a3)
.Ltmp6:
	.loc	1 0 36
	beqz	a1, .LBB0_9
.Ltmp7:
	lw	a0, 0(a3)
.Ltmp8:
	.file	3 "/Users/georg/.rustup/toolchains/nightly-2023-01-03-aarch64-apple-darwin/lib/rustlib/src/rust/library/alloc/src" "alloc.rs"
	.loc	3 132 14 is_stmt 1
	mv	a2, s2
	mv	a3, s1
.Ltmp9:
	call	__rust_realloc
.Ltmp10:
	.loc	2 858 9
	bnez	a0, .LBB0_11
.Ltmp11:
.LBB0_5:
	.loc	2 860 23
	sw	s1, 4(s0)
	sw	s2, 8(s0)
	j	.LBB0_8
.Ltmp12:
.LBB0_6:
	.loc	2 2107 23
	sw	s1, 4(s0)
.Ltmp13:
.LBB0_7:
	.loc	1 0 0 is_stmt 0
	sw	zero, 8(s0)
.Ltmp14:
.LBB0_8:
	li	a1, 1
	j	.LBB0_12
.Ltmp15:
.LBB0_9:
	beqz	s1, .LBB0_13
.Ltmp16:
	mv	a0, s1
	mv	a1, s2
	call	__rust_alloc
.Ltmp17:
	.loc	2 858 9 is_stmt 1
	beqz	a0, .LBB0_5
.Ltmp18:
.LBB0_11:
	.loc	2 0 9 is_stmt 0
	li	a1, 0
.Ltmp19:
	.loc	2 859 22 is_stmt 1
	sw	a0, 4(s0)
	sw	s1, 8(s0)
.Ltmp20:
.LBB0_12:
	.loc	1 0 0 is_stmt 0
	sw	a1, 0(s0)
	.loc	1 473 2 is_stmt 1
	lw	ra, 12(sp)
	lw	s0, 8(sp)
	lw	s1, 4(sp)
.Ltmp21:
	lw	s2, 0(sp)
	addi	sp, sp, 16
	ret
.Ltmp22:
.LBB0_13:
	.loc	1 0 2 is_stmt 0
	mv	a0, s2
	bnez	a0, .LBB0_11
	j	.LBB0_5
.Lfunc_end0:
	.size	_ZN5alloc7raw_vec11finish_grow17h862016746d2f359dE, .Lfunc_end0-_ZN5alloc7raw_vec11finish_grow17h862016746d2f359dE
	.cfi_endproc

	.section	".text._ZN5alloc7raw_vec19RawVec$LT$T$C$A$GT$16reserve_for_push17hda58fa1bff2773ddE","ax",@progbits
	.p2align	1
	.type	_ZN5alloc7raw_vec19RawVec$LT$T$C$A$GT$16reserve_for_push17hda58fa1bff2773ddE,@function
_ZN5alloc7raw_vec19RawVec$LT$T$C$A$GT$16reserve_for_push17hda58fa1bff2773ddE:
.Lfunc_begin1:
	.loc	1 297 0 is_stmt 1
	.cfi_startproc
	addi	sp, sp, -48
	.cfi_def_cfa_offset 48
.Ltmp23:
	.file	4 "/Users/georg/.rustup/toolchains/nightly-2023-01-03-aarch64-apple-darwin/lib/rustlib/src/rust/library/core/src/num" "uint_macros.rs"
	.loc	4 1479 26 prologue_end
	sw	ra, 44(sp)
	sw	s0, 40(sp)
	sw	s1, 36(sp)
	.cfi_offset ra, -4
	.cfi_offset s0, -8
	.cfi_offset s1, -12
	addi	a1, a1, 1
.Ltmp24:
	.loc	1 390 28
	beqz	a1, .LBB1_11
.Ltmp25:
	.loc	1 0 28 is_stmt 0
	mv	s0, a0
.Ltmp26:
	.loc	1 394 28 is_stmt 1
	lw	a0, 0(a0)
	slli	s1, a0, 1
.Ltmp27:
	.file	5 "/Users/georg/.rustup/toolchains/nightly-2023-01-03-aarch64-apple-darwin/lib/rustlib/src/rust/library/core/src" "cmp.rs"
	.loc	5 0 0 is_stmt 0
	bltu	a1, s1, .LBB1_3
.Ltmp28:
	mv	s1, a1
.Ltmp29:
.LBB1_3:
	li	a1, 4
.Ltmp30:
	bltu	a1, s1, .LBB1_5
.Ltmp31:
	li	s1, 4
.Ltmp32:
.LBB1_5:
	srli	a1, s1, 29
	seqz	a2, a1
.Ltmp33:
	.file	6 "/Users/georg/.rustup/toolchains/nightly-2023-01-03-aarch64-apple-darwin/lib/rustlib/src/rust/library/core/src/alloc" "layout.rs"
	.loc	6 452 16 is_stmt 1
	slli	a1, s1, 2
	slli	a2, a2, 2
.Ltmp34:
	.loc	1 241 12
	beqz	a0, .LBB1_7
.Ltmp35:
	.loc	1 400 43
	lw	a3, 4(s0)
.Ltmp36:
	.loc	6 452 16
	slli	a0, a0, 2
.Ltmp37:
	.loc	1 248 17
	sw	a3, 24(sp)
	sw	a0, 28(sp)
	li	a0, 4
	sw	a0, 32(sp)
	j	.LBB1_8
.Ltmp38:
.LBB1_7:
	.loc	1 242 13
	sw	zero, 32(sp)
.Ltmp39:
.LBB1_8:
	.loc	1 400 19
	addi	a0, sp, 8
	addi	a3, sp, 24
	call	_ZN5alloc7raw_vec11finish_grow17h862016746d2f359dE
.Ltmp40:
	.loc	2 2091 15
	lw	a1, 8(sp)
	.loc	2 2091 9 is_stmt 0
	lw	a0, 12(sp)
.Ltmp41:
	.loc	1 400 19 is_stmt 1
	beqz	a1, .LBB1_12
.Ltmp42:
	.loc	1 0 0 is_stmt 0
	lw	a1, 16(sp)
	lui	a2, 524288
	addi	a2, a2, 1
.Ltmp43:
	.loc	1 488 5 is_stmt 1
	beq	a1, a2, .LBB1_13
.Ltmp44:
	bnez	a1, .LBB1_14
.Ltmp45:
.LBB1_11:
	.loc	1 489 34
	call	_ZN5alloc7raw_vec17capacity_overflow17h2c1c04a797021fabE
	unimp	
.Ltmp46:
.LBB1_12:
	.loc	1 368 9
	sw	a0, 4(s0)
	.loc	1 369 9
	sw	s1, 0(s0)
.Ltmp47:
.LBB1_13:
	.loc	1 299 6
	lw	ra, 44(sp)
	lw	s0, 40(sp)
.Ltmp48:
	lw	s1, 36(sp)
	addi	sp, sp, 48
	ret
.LBB1_14:
.Ltmp49:
	.loc	1 490 43
	call	_ZN5alloc5alloc18handle_alloc_error17hd9333cd203b4ffb7E
.Ltmp50:
	unimp	
.Ltmp51:
.Lfunc_end1:
	.size	_ZN5alloc7raw_vec19RawVec$LT$T$C$A$GT$16reserve_for_push17hda58fa1bff2773ddE, .Lfunc_end1-_ZN5alloc7raw_vec19RawVec$LT$T$C$A$GT$16reserve_for_push17hda58fa1bff2773ddE
	.cfi_endproc

	.section	.text.main,"ax",@progbits
	.globl	main
	.p2align	1
	.type	main,@function
main:
.Lfunc_begin2:
	.file	7 "/private/var/folders/sm/xh2t696x06zfh9q5m4xxg3y00000gn/T/40d967f993b24a8d963c1a89fc9ce196" "src/lib.rs"
	.loc	7 7 0
	.cfi_startproc
	addi	sp, sp, -16
	.cfi_def_cfa_offset 16
.Ltmp52:
	.file	8 "/Users/georg/.rustup/toolchains/nightly-2023-01-03-aarch64-apple-darwin/lib/rustlib/src/rust/library/alloc/src/vec" "mod.rs"
	.loc	8 425 9 prologue_end
	sw	ra, 12(sp)
	.cfi_offset ra, -4
	sw	zero, 0(sp)
	li	a0, 4
	sw	a0, 4(sp)
	sw	zero, 8(sp)
.Ltmp53:
	.loc	8 1835 13
	mv	a0, sp
	li	a1, 0
	call	_ZN5alloc7raw_vec19RawVec$LT$T$C$A$GT$16reserve_for_push17hda58fa1bff2773ddE
	.loc	8 1838 45
	lw	a1, 8(sp)
.Ltmp54:
	.loc	1 224 9
	lw	a0, 4(sp)
.Ltmp55:
	.file	9 "/Users/georg/.rustup/toolchains/nightly-2023-01-03-aarch64-apple-darwin/lib/rustlib/src/rust/library/core/src/ptr" "mut_ptr.rs"
	.loc	9 499 18
	slli	a1, a1, 2
.Ltmp56:
	add	a2, a0, a1
	li	a1, 1
.Ltmp57:
	.file	10 "/Users/georg/.rustup/toolchains/nightly-2023-01-03-aarch64-apple-darwin/lib/rustlib/src/rust/library/core/src/ptr" "mod.rs"
	.loc	10 1354 9
	sw	a1, 0(a2)
	lui	a2, 24
.Ltmp58:
	.loc	10 0 9 is_stmt 0
	addi	a2, a2, 1696
	li	a4, 1
.Ltmp59:
.LBB2_1:
	mv	a3, a4
.Ltmp60:
	.loc	5 1435 52 is_stmt 1
	addi	a2, a2, -1
.Ltmp61:
	.loc	7 16 19
	add	a4, a4, a1
.Ltmp62:
	.loc	7 0 19 is_stmt 0
	mv	a1, a3
.Ltmp63:
	.file	11 "/Users/georg/.rustup/toolchains/nightly-2023-01-03-aarch64-apple-darwin/lib/rustlib/src/rust/library/core/src/iter" "range.rs"
	.loc	11 621 12 is_stmt 1
	bnez	a2, .LBB2_1
.Ltmp64:
	.loc	7 21 5
	blez	a3, .LBB2_6
.Ltmp65:
	.loc	7 22 1
	lw	a1, 0(sp)
.Ltmp66:
	.loc	1 241 12
	beqz	a1, .LBB2_5
.Ltmp67:
	.loc	6 452 16
	slli	a1, a1, 2
.Ltmp68:
	.loc	3 113 14
	li	a2, 4
	lw	ra, 12(sp)
	addi	sp, sp, 16
	tail	__rust_dealloc
.Ltmp69:
.LBB2_5:
	.loc	7 22 2
	lw	ra, 12(sp)
	addi	sp, sp, 16
	ret
.LBB2_6:
.Ltmp70:
	.loc	7 21 5
	lui	a0, %hi(.L__unnamed_1)
	addi	a0, a0, %lo(.L__unnamed_1)
	lui	a1, %hi(.L__unnamed_2)
	addi	a2, a1, %lo(.L__unnamed_2)
	li	a1, 23
	call	_ZN4core9panicking5panic17h83c2c4098b58b628E
.Ltmp71:
	unimp	
.Ltmp72:
.Lfunc_end2:
	.size	main, .Lfunc_end2-main
	.cfi_endproc

	.type	.L__unnamed_1,@object
	.section	.rodata..L__unnamed_1,"a",@progbits
.L__unnamed_1:
	.ascii	"assertion failed: a > 0"
	.size	.L__unnamed_1, 23

	.type	.L__unnamed_3,@object
	.section	.rodata..L__unnamed_3,"a",@progbits
.L__unnamed_3:
	.ascii	"src/lib.rs"
	.size	.L__unnamed_3, 10

	.type	.L__unnamed_2,@object
	.section	.rodata..L__unnamed_2,"a",@progbits
	.p2align	2
.L__unnamed_2:
	.word	.L__unnamed_3
	.asciz	"\n\000\000\000\025\000\000\000\005\000\000"
	.size	.L__unnamed_2, 16

	.section	.text._ZN5alloc7raw_vec11finish_grow17h862016746d2f359dE,"ax",@progbits
.Lsec_end0:
	.section	".text._ZN5alloc7raw_vec19RawVec$LT$T$C$A$GT$16reserve_for_push17hda58fa1bff2773ddE","ax",@progbits
.Lsec_end1:
	.section	.text.main,"ax",@progbits
.Lsec_end2:
	.section	".note.GNU-stack","",@progbits