	.text
	.attribute	4, 16
	.attribute	5, "rv32i2p0_m2p0_a2p0_c2p0"
	.file	"compiler_builtins.52674b22-cgu.0"
	.section	.text._ZN17compiler_builtins5float3add8__addsf317hdacba25b5e3a7288E,"ax",@progbits
	.hidden	_ZN17compiler_builtins5float3add8__addsf317hdacba25b5e3a7288E
	.globl	_ZN17compiler_builtins5float3add8__addsf317hdacba25b5e3a7288E
	.p2align	1
	.type	_ZN17compiler_builtins5float3add8__addsf317hdacba25b5e3a7288E,@function
_ZN17compiler_builtins5float3add8__addsf317hdacba25b5e3a7288E:
.Lfunc_begin0:
	.file	1 "/Users/georg/.cargo/registry/src/github.com-1ecc6299db9ec823/compiler_builtins-0.1.85" "src/macros.rs"
	.loc	1 386 0
	.cfi_sections .debug_frame
	.cfi_startproc
	lui	a2, 524288
	addi	a2, a2, -1
.Ltmp0:
	.file	2 "/Users/georg/.rustup/toolchains/nightly-2023-01-03-aarch64-apple-darwin/lib/rustlib/src/rust/library/core/src/ops" "bit.rs"
	.loc	2 176 46 prologue_end
	and	a4, a0, a2
.Ltmp1:
	.loc	2 176 46 is_stmt 0
	and	a7, a1, a2
	lui	a2, 526336
.Ltmp2:
	.file	3 "/Users/georg/.rustup/toolchains/nightly-2023-01-03-aarch64-apple-darwin/lib/rustlib/src/rust/library/core/src" "cmp.rs"
	.loc	3 1439 52 is_stmt 1
	add	a5, a4, a2
	addi	a3, a2, 1
	sltu	a5, a5, a3
	add	a2, a2, a7
	sltu	a2, a2, a3
.Ltmp3:
	.file	4 "/Users/georg/.cargo/registry/src/github.com-1ecc6299db9ec823/compiler_builtins-0.1.85" "src/float/add.rs"
	.loc	4 34 8
	or	a2, a2, a5
.Ltmp4:
	beqz	a2, .LBB0_12
.Ltmp5:
	.loc	4 0 8 is_stmt 0
	lui	a2, 522240
	.loc	4 36 12 is_stmt 1
	bgeu	a2, a4, .LBB0_3
.Ltmp6:
	.loc	4 0 12 is_stmt 0
	lui	a0, 1024
.Ltmp7:
	.loc	2 278 45 is_stmt 1
	or	a0, a0, a4
.Ltmp8:
	.loc	1 389 10
	ret
.Ltmp9:
.LBB0_3:
	.loc	4 40 12
	bgeu	a2, a7, .LBB0_5
.Ltmp10:
	.loc	4 0 12 is_stmt 0
	lui	a0, 1024
.Ltmp11:
	.loc	2 278 45 is_stmt 1
	or	a0, a7, a0
.Ltmp12:
	.loc	1 389 10
	ret
.Ltmp13:
.LBB0_5:
	.loc	1 0 10 is_stmt 0
	lui	a2, 522240
.Ltmp14:
	.loc	4 44 12 is_stmt 1
	bne	a4, a2, .LBB0_8
.Ltmp15:
	.loc	2 380 48
	xor	a1, a1, a0
.Ltmp16:
	.loc	2 0 48 is_stmt 0
	lui	a3, 524288
.Ltmp17:
	lui	a2, 523264
.Ltmp18:
	.loc	4 46 16 is_stmt 1
	beq	a1, a3, .LBB0_43
.Ltmp19:
	.loc	1 389 10
	ret
.Ltmp20:
.LBB0_8:
	.loc	4 55 12
	bne	a7, a2, .LBB0_10
.Ltmp21:
	.loc	1 389 10
	mv	a0, a1
.Ltmp22:
	ret
.Ltmp23:
.LBB0_10:
	.loc	4 60 12
	beqz	a4, .LBB0_45
.Ltmp24:
	.loc	4 0 12 is_stmt 0
	mv	a2, a0
	.loc	4 70 12 is_stmt 1
	beqz	a7, .LBB0_43
.Ltmp25:
.LBB0_12:
	.loc	4 0 12 is_stmt 0
	lui	a2, 2048
	addi	a6, a2, -1
	.loc	4 76 8 is_stmt 1
	bltu	a4, a7, .LBB0_14
.Ltmp26:
	.loc	4 0 8 is_stmt 0
	mv	a3, a1
	j	.LBB0_15
.Ltmp27:
.LBB0_14:
	mv	a3, a0
	mv	a0, a1
.Ltmp28:
.LBB0_15:
	.loc	2 601 17 is_stmt 1
	slli	a1, a0, 1
.Ltmp29:
	srli	t0, a1, 24
.Ltmp30:
	.loc	2 601 17 is_stmt 0
	slli	a1, a3, 1
	srli	a5, a1, 24
.Ltmp31:
	.loc	2 176 46 is_stmt 1
	and	t1, a0, a6
.Ltmp32:
	.loc	4 90 8
	beqz	t0, .LBB0_17
.Ltmp33:
	.loc	4 0 0 is_stmt 0
	and	a2, a3, a6
	bnez	a5, .LBB0_25
	j	.LBB0_21
.Ltmp34:
.LBB0_17:
	beqz	t1, .LBB0_19
.Ltmp35:
	.file	5 "/Users/georg/.rustup/toolchains/nightly-2023-01-03-aarch64-apple-darwin/lib/rustlib/src/rust/library/core/src/num" "uint_macros.rs"
	.loc	5 131 13 is_stmt 1
	srli	a1, t1, 1
	or	a1, t1, a1
	srli	a2, a1, 2
	or	a1, a1, a2
	srli	a2, a1, 4
	or	a1, a1, a2
	srli	a2, a1, 8
	or	a1, a1, a2
	srli	a2, a1, 16
	or	a1, a1, a2
	not	a1, a1
	srli	a7, a1, 1
.Ltmp36:
	.loc	5 0 13 is_stmt 0
	lui	a2, 349525
	addi	a2, a2, 1365
	.loc	5 131 13
	and	a2, a7, a2
	sub	a1, a1, a2
	lui	a2, 209715
	addi	a2, a2, 819
	and	a7, a1, a2
	srli	a1, a1, 2
	and	a1, a1, a2
	add	a1, a1, a7
	srli	a2, a1, 4
	add	a1, a1, a2
	lui	a2, 61681
	addi	a2, a2, -241
	and	a1, a1, a2
	lui	a2, 4112
	addi	a2, a2, 257
	mul	a1, a1, a2
	srli	a1, a1, 24
	j	.LBB0_20
.Ltmp37:
.LBB0_19:
	.loc	5 0 13
	li	a1, 32
.Ltmp38:
.LBB0_20:
	.loc	5 1203 13 is_stmt 1
	addi	a2, a1, 24
	li	a4, 9
.Ltmp39:
	.file	6 "/Users/georg/.rustup/toolchains/nightly-2023-01-03-aarch64-apple-darwin/lib/rustlib/src/rust/library/core/src/num" "int_macros.rs"
	.loc	6 1164 13
	sub	t0, a4, a1
.Ltmp40:
	.file	7 "/Users/georg/.cargo/registry/src/github.com-1ecc6299db9ec823/compiler_builtins-0.1.85" "src/float/mod.rs"
	.loc	7 164 21
	sll	t1, t1, a2
.Ltmp41:
	.loc	4 0 0 is_stmt 0
	and	a2, a3, a6
.Ltmp42:
	.loc	4 95 8 is_stmt 1
	bnez	a5, .LBB0_25
.Ltmp43:
.LBB0_21:
	.loc	5 131 13
	beqz	a2, .LBB0_23
.Ltmp44:
	srli	a1, a2, 1
	or	a1, a1, a2
	srli	a4, a1, 2
	or	a1, a1, a4
	srli	a4, a1, 4
	or	a1, a1, a4
	srli	a4, a1, 8
	or	a1, a1, a4
	srli	a4, a1, 16
	or	a1, a1, a4
	not	a1, a1
	srli	a4, a1, 1
	lui	a5, 349525
.Ltmp45:
	.loc	5 0 13 is_stmt 0
	addi	a5, a5, 1365
	.loc	5 131 13
	and	a4, a4, a5
	sub	a1, a1, a4
	lui	a4, 209715
	addi	a4, a4, 819
	and	a5, a1, a4
	srli	a1, a1, 2
	and	a1, a1, a4
	add	a1, a1, a5
	srli	a4, a1, 4
	add	a1, a1, a4
	lui	a4, 61681
	addi	a4, a4, -241
	and	a1, a1, a4
	lui	a4, 4112
	addi	a4, a4, 257
	mul	a1, a1, a4
	srli	a1, a1, 24
	j	.LBB0_24
.Ltmp46:
.LBB0_23:
	.loc	5 0 13
	li	a1, 32
.Ltmp47:
.LBB0_24:
	.loc	5 1203 13 is_stmt 1
	addi	a4, a1, 24
	li	a5, 9
.Ltmp48:
	.loc	6 1164 13
	sub	a5, a5, a1
.Ltmp49:
	.loc	7 164 21
	sll	a2, a2, a4
.Ltmp50:
.LBB0_25:
	.loc	2 380 48
	xor	a3, a3, a0
.Ltmp51:
	.loc	2 481 17
	slli	a4, t1, 3
	lui	a7, 16384
.Ltmp52:
	.loc	2 481 17 is_stmt 0
	slli	a1, a2, 3
	or	a1, a1, a7
.Ltmp53:
	.loc	4 116 8 is_stmt 1
	bne	t0, a5, .LBB0_27
.Ltmp54:
	.loc	4 0 8 is_stmt 0
	mv	a2, a1
.Ltmp55:
	j	.LBB0_29
.Ltmp56:
.LBB0_27:
	sub	a5, t0, a5
.Ltmp57:
	li	t1, 31
	li	a2, 1
.Ltmp58:
	.loc	4 117 12 is_stmt 1
	bltu	t1, a5, .LBB0_29
.Ltmp59:
	.loc	5 1203 13
	neg	a2, a5
.Ltmp60:
	.loc	2 481 17
	sll	a2, a1, a2
.Ltmp61:
	.loc	3 1348 52
	snez	a2, a2
.Ltmp62:
	.loc	2 601 17
	srl	a1, a1, a5
.Ltmp63:
	.loc	2 278 45
	or	a2, a2, a1
.Ltmp64:
.LBB0_29:
	.loc	4 0 0 is_stmt 0
	or	a1, a4, a7
.Ltmp65:
	.loc	4 125 8 is_stmt 1
	bltz	a3, .LBB0_32
.Ltmp66:
	.file	8 "/Users/georg/.rustup/toolchains/nightly-2023-01-03-aarch64-apple-darwin/lib/rustlib/src/rust/library/core/src/ops" "arith.rs"
	.loc	8 763 51
	add	a3, a2, a1
.Ltmp67:
	.loc	4 146 12
	slli	a1, a3, 4
	bgez	a1, .LBB0_35
.Ltmp68:
	.loc	2 176 46
	andi	a1, a3, 1
.Ltmp69:
	.loc	2 601 17
	srli	a2, a3, 1
.Ltmp70:
	.loc	2 278 45
	or	a3, a1, a2
.Ltmp71:
	.loc	4 149 13
	addi	t0, t0, 1
.Ltmp72:
	.loc	4 0 13 is_stmt 0
	j	.LBB0_35
.Ltmp73:
.LBB0_32:
	.loc	5 1203 13 is_stmt 1
	sub	a3, a1, a2
.Ltmp74:
	.loc	4 128 12
	beqz	a3, .LBB0_44
.Ltmp75:
	.loc	3 1435 52
	srli	a1, a3, 26
.Ltmp76:
	.loc	4 134 12
	bnez	a1, .LBB0_35
.Ltmp77:
	.loc	5 131 13
	srli	a1, a3, 1
	or	a1, a1, a3
	srli	a2, a1, 2
.Ltmp78:
	or	a1, a1, a2
	srli	a2, a1, 4
	or	a1, a1, a2
	srli	a2, a1, 8
	or	a1, a1, a2
	srli	a2, a1, 16
	or	a1, a1, a2
	not	a1, a1
	srli	a2, a1, 1
	lui	a4, 349525
	addi	a4, a4, 1365
	and	a2, a2, a4
	sub	a1, a1, a2
	lui	a2, 209715
	addi	a2, a2, 819
	and	a4, a1, a2
	srli	a1, a1, 2
	and	a1, a1, a2
	add	a1, a1, a4
	srli	a2, a1, 4
	add	a1, a1, a2
	lui	a2, 61681
	addi	a2, a2, -241
	and	a1, a1, a2
	lui	a2, 4112
	addi	a2, a2, 257
	mul	a1, a1, a2
	srli	a1, a1, 24
.Ltmp79:
	.loc	4 136 17
	addi	a1, a1, -5
.Ltmp80:
	.loc	2 945 17
	sll	a3, a3, a1
.Ltmp81:
	.loc	4 138 13
	sub	t0, t0, a1
.Ltmp82:
.LBB0_35:
	.loc	4 0 13 is_stmt 0
	lui	a1, 524288
	li	a2, 254
	and	a0, a0, a1
.Ltmp83:
	.loc	4 154 8 is_stmt 1
	bge	a2, t0, .LBB0_37
.Ltmp84:
	.loc	4 0 8 is_stmt 0
	lui	a1, 522240
.Ltmp85:
	.loc	2 278 45 is_stmt 1
	or	a0, a0, a1
.Ltmp86:
	.loc	1 389 10
	ret
.Ltmp87:
.LBB0_37:
	.loc	4 158 8
	bgtz	t0, .LBB0_39
.Ltmp88:
	.loc	4 0 8 is_stmt 0
	li	a1, 1
	.loc	4 161 21 is_stmt 1
	sub	a1, a1, t0
.Ltmp89:
	.loc	5 1203 13
	addi	a2, t0, -1
.Ltmp90:
	.loc	2 481 17
	sll	a2, a3, a2
.Ltmp91:
	.loc	3 1348 52
	snez	a2, a2
.Ltmp92:
	.loc	2 601 17
	srl	a1, a3, a1
.Ltmp93:
	.loc	2 278 45
	or	a3, a1, a2
.Ltmp94:
	.loc	2 0 45 is_stmt 0
	li	t0, 0
.Ltmp95:
.LBB0_39:
	.loc	4 170 35 is_stmt 1
	andi	a4, a3, 7
.Ltmp96:
	.loc	2 601 17
	srli	a1, a3, 3
.Ltmp97:
	.loc	2 176 46
	and	a2, a1, a6
.Ltmp98:
	.loc	2 481 17
	slli	a3, t0, 23
.Ltmp99:
	.loc	2 807 53
	or	a2, a2, a3
.Ltmp100:
	.loc	2 0 53 is_stmt 0
	li	a3, 4
.Ltmp101:
	.loc	2 807 53
	or	a2, a2, a0
.Ltmp102:
	.loc	4 181 8 is_stmt 1
	bgeu	a3, a4, .LBB0_41
.Ltmp103:
	.loc	8 763 51
	addi	a0, a2, 1
.Ltmp104:
	.loc	1 389 10
	ret
.Ltmp105:
.LBB0_41:
	.loc	4 184 8
	bne	a4, a3, .LBB0_43
.Ltmp106:
	.loc	2 176 46
	andi	a0, a1, 1
.Ltmp107:
	.loc	8 763 51
	add	a2, a2, a0
.Ltmp108:
.LBB0_43:
	.loc	1 389 10
	mv	a0, a2
	ret
.LBB0_44:
	li	a0, 0
	ret
.LBB0_45:
.Ltmp109:
	.loc	1 0 10 is_stmt 0
	mv	a2, a1
.Ltmp110:
	.loc	4 62 16 is_stmt 1
	bnez	a7, .LBB0_43
.Ltmp111:
	.loc	2 176 46
	and	a0, a0, a1
.Ltmp112:
	.loc	1 389 10
	ret
.Ltmp113:
.Lfunc_end0:
	.size	_ZN17compiler_builtins5float3add8__addsf317hdacba25b5e3a7288E, .Lfunc_end0-_ZN17compiler_builtins5float3add8__addsf317hdacba25b5e3a7288E
	.cfi_endproc
	.file	9 "/Users/georg/.cargo/registry/src/github.com-1ecc6299db9ec823/compiler_builtins-0.1.85" "src/int/mod.rs"

	.section	.text.__addsf3,"ax",@progbits
	.hidden	__addsf3
	.globl	__addsf3
	.p2align	1
	.type	__addsf3,@function
__addsf3:
.Lfunc_begin1:
	.loc	1 394 0
	.cfi_startproc
	.loc	1 395 17 prologue_end
	tail	_ZN17compiler_builtins5float3add8__addsf317hdacba25b5e3a7288E
.Ltmp114:
.Lfunc_end1:
	.size	__addsf3, .Lfunc_end1-__addsf3
	.cfi_endproc

	.section	.text._ZN17compiler_builtins5float3add8__adddf317hb40dd8bc41e310b7E,"ax",@progbits
	.hidden	_ZN17compiler_builtins5float3add8__adddf317hb40dd8bc41e310b7E
	.globl	_ZN17compiler_builtins5float3add8__adddf317hb40dd8bc41e310b7E
	.p2align	1
	.type	_ZN17compiler_builtins5float3add8__adddf317hb40dd8bc41e310b7E,@function
_ZN17compiler_builtins5float3add8__adddf317hb40dd8bc41e310b7E:
.Lfunc_begin2:
	.loc	1 386 0
	.cfi_startproc
	lui	a4, 524288
	addi	a6, a4, -1
.Ltmp115:
	.loc	2 176 46 prologue_end
	and	t2, a1, a6
.Ltmp116:
	.loc	2 176 46 is_stmt 0
	and	t1, a3, a6
	lui	a7, 524544
.Ltmp117:
	.loc	3 1439 52 is_stmt 1
	beqz	t2, .LBB2_3
.Ltmp118:
	.loc	3 0 52 is_stmt 0
	add	a4, t2, a7
	sltu	a4, a4, a7
.Ltmp119:
	bnez	t1, .LBB2_4
.Ltmp120:
.LBB2_2:
	seqz	a5, a2
	j	.LBB2_5
.Ltmp121:
.LBB2_3:
	seqz	a4, a0
.Ltmp122:
	beqz	t1, .LBB2_2
.Ltmp123:
.LBB2_4:
	add	a5, t1, a7
	sltu	a5, a5, a7
.Ltmp124:
.LBB2_5:
	addi	sp, sp, -16
	.cfi_def_cfa_offset 16
	.loc	4 34 8 is_stmt 1
	sw	s0, 12(sp)
	sw	s1, 8(sp)
	sw	s2, 4(sp)
	.cfi_offset s0, -4
	.cfi_offset s1, -8
	.cfi_offset s2, -12
	or	a4, a4, a5
.Ltmp125:
	beqz	a4, .LBB2_21
.Ltmp126:
	.loc	4 0 8 is_stmt 0
	lui	a4, 524032
.Ltmp127:
	.loc	3 1441 52 is_stmt 1
	beq	t2, a4, .LBB2_13
.Ltmp128:
	.loc	3 0 52 is_stmt 0
	sltu	a4, a4, t2
.Ltmp129:
	.loc	4 36 12 is_stmt 1
	bnez	a4, .LBB2_14
.Ltmp130:
.LBB2_8:
	.loc	4 0 12 is_stmt 0
	lui	a4, 524032
.Ltmp131:
	.loc	3 1441 52 is_stmt 1
	beq	t1, a4, .LBB2_15
.Ltmp132:
	.loc	3 0 52 is_stmt 0
	sltu	a4, a4, t1
.Ltmp133:
	.loc	4 40 12 is_stmt 1
	bnez	a4, .LBB2_16
.Ltmp134:
.LBB2_10:
	.loc	4 0 12 is_stmt 0
	lui	a4, 524032
.Ltmp135:
	.loc	3 1346 52 is_stmt 1
	xor	a5, t2, a4
	or	a5, a5, a0
.Ltmp136:
	.loc	4 44 12
	bnez	a5, .LBB2_17
.Ltmp137:
	.loc	4 0 12 is_stmt 0
	li	t0, 0
.Ltmp138:
	.loc	2 380 48 is_stmt 1
	xor	a2, a2, a0
.Ltmp139:
	xor	a3, a3, a1
.Ltmp140:
	.loc	2 0 48 is_stmt 0
	lui	a4, 524288
.Ltmp141:
	.loc	3 1346 52 is_stmt 1
	xor	a3, a3, a4
	or	a2, a2, a3
	lui	a7, 524160
.Ltmp142:
	.loc	4 46 16
	beqz	a2, .LBB2_80
.Ltmp143:
	.loc	4 0 16 is_stmt 0
	mv	a7, a1
	j	.LBB2_79
.Ltmp144:
.LBB2_13:
	snez	a4, a0
.Ltmp145:
	.loc	4 36 12 is_stmt 1
	beqz	a4, .LBB2_8
.Ltmp146:
.LBB2_14:
	.loc	4 0 12 is_stmt 0
	lui	a1, 128
.Ltmp147:
	.loc	2 278 45 is_stmt 1
	or	a7, t2, a1
.Ltmp148:
	.loc	2 0 45 is_stmt 0
	j	.LBB2_79
.Ltmp149:
.LBB2_15:
	snez	a4, a2
.Ltmp150:
	.loc	4 40 12 is_stmt 1
	beqz	a4, .LBB2_10
.Ltmp151:
.LBB2_16:
	.loc	4 0 12 is_stmt 0
	lui	a0, 128
.Ltmp152:
	.loc	2 278 45 is_stmt 1
	or	a7, t1, a0
.Ltmp153:
	.loc	2 0 45 is_stmt 0
	mv	t0, a2
.Ltmp154:
	j	.LBB2_80
.Ltmp155:
.LBB2_17:
	.loc	3 1346 52 is_stmt 1
	xor	a4, t1, a4
	or	a4, a4, a2
.Ltmp156:
	.loc	4 55 12
	bnez	a4, .LBB2_19
.Ltmp157:
	.loc	4 0 12 is_stmt 0
	mv	t0, a2
	mv	a7, a3
	j	.LBB2_80
.Ltmp158:
.LBB2_19:
	.loc	3 1346 52 is_stmt 1
	or	a4, a0, t2
.Ltmp159:
	.loc	4 60 12
	beqz	a4, .LBB2_81
.Ltmp160:
	.loc	4 0 0 is_stmt 0
	or	a4, a2, t1
	mv	t0, a0
	mv	a7, a1
	.loc	4 70 12 is_stmt 1
	beqz	a4, .LBB2_80
.Ltmp161:
.LBB2_21:
	.loc	4 0 12 is_stmt 0
	lui	a4, 256
.Ltmp162:
	.loc	3 1441 52 is_stmt 1
	beq	t1, t2, .LBB2_24
.Ltmp163:
	.loc	3 0 52 is_stmt 0
	sltu	a5, t2, t1
	addi	a7, a4, -1
.Ltmp164:
	.loc	4 76 8 is_stmt 1
	beqz	a5, .LBB2_25
.Ltmp165:
.LBB2_23:
	.loc	4 0 8 is_stmt 0
	mv	t4, a0
	mv	t2, a1
.Ltmp166:
	mv	a0, a2
.Ltmp167:
	mv	a1, a3
.Ltmp168:
	j	.LBB2_26
.Ltmp169:
.LBB2_24:
	sltu	a5, a0, a2
	addi	a7, a4, -1
.Ltmp170:
	.loc	4 76 8
	bnez	a5, .LBB2_23
.Ltmp171:
.LBB2_25:
	.loc	4 0 8
	mv	t4, a2
	mv	t2, a3
.Ltmp172:
.LBB2_26:
	.loc	9 368 62 is_stmt 1
	slli	a2, a1, 1
.Ltmp173:
	srli	t3, a2, 21
.Ltmp174:
	.loc	9 368 62 is_stmt 0
	slli	a2, t2, 1
	srli	a3, a2, 21
.Ltmp175:
	.loc	2 176 46 is_stmt 1
	and	t1, a1, a7
.Ltmp176:
	.loc	4 90 8
	beqz	t3, .LBB2_28
.Ltmp177:
	.loc	4 0 8 is_stmt 0
	mv	t0, a0
	and	a5, t2, a7
	bnez	a3, .LBB2_41
	j	.LBB2_34
.Ltmp178:
.LBB2_28:
	.loc	5 131 13 is_stmt 1
	srli	t0, a0, 1
	lui	a2, 349525
	addi	a4, a2, 1365
	lui	a2, 209715
	addi	a2, a2, 819
	lui	a5, 61681
	addi	t3, a5, -241
.Ltmp179:
	.loc	5 0 13 is_stmt 0
	lui	a5, 4112
	addi	t5, a5, 257
	.loc	5 131 13
	bnez	t1, .LBB2_30
.Ltmp180:
	.loc	5 0 13
	or	a5, a0, t0
	srli	s0, a5, 2
	or	a5, a5, s0
	srli	s0, a5, 4
	or	a5, a5, s0
	srli	s0, a5, 8
	or	a5, a5, s0
	srli	s0, a5, 16
	or	a5, a5, s0
	not	a5, a5
	srli	s0, a5, 1
	and	a4, a4, s0
	sub	a4, a5, a4
	and	a5, a4, a2
	srli	a4, a4, 2
	and	a2, a2, a4
	add	a2, a2, a5
	srli	a4, a2, 4
	add	a2, a2, a4
	and	a2, a2, t3
	mul	a2, a2, t5
	srli	a2, a2, 24
	addi	t5, a2, 32
	j	.LBB2_31
.Ltmp181:
.LBB2_30:
	srli	s0, t1, 1
	or	s0, t1, s0
	srli	a5, s0, 2
	or	a5, a5, s0
	srli	s0, a5, 4
	or	a5, a5, s0
	srli	s0, a5, 8
	or	a5, a5, s0
	srli	s0, a5, 16
	or	a5, a5, s0
	not	a5, a5
	srli	s0, a5, 1
	and	a4, a4, s0
	sub	a4, a5, a4
	and	a5, a4, a2
	srli	a4, a4, 2
	and	a2, a2, a4
	add	a2, a2, a5
	srli	a4, a2, 4
	add	a2, a2, a4
	and	a2, a2, t3
	mul	a2, a2, t5
	srli	t5, a2, 24
.Ltmp182:
.LBB2_31:
	.loc	5 1203 13 is_stmt 1
	addi	a5, t5, 53
.Ltmp183:
	.loc	7 164 21
	andi	a2, a5, 63
	addi	a4, a2, -32
	li	t3, 12
	bltz	a4, .LBB2_33
.Ltmp184:
	.loc	7 0 21 is_stmt 0
	li	t0, 0
	sll	t1, a0, a4
.Ltmp185:
	sub	t3, t3, t5
.Ltmp186:
	and	a5, t2, a7
	bnez	a3, .LBB2_41
	j	.LBB2_34
.Ltmp187:
.LBB2_33:
	sll	a4, t1, a5
	xori	a2, a2, 31
	srl	a2, t0, a2
	or	t1, a4, a2
	sll	t0, a0, a5
.Ltmp188:
	sub	t3, t3, t5
.Ltmp189:
	and	a5, t2, a7
.Ltmp190:
	.loc	4 95 8 is_stmt 1
	bnez	a3, .LBB2_41
.Ltmp191:
.LBB2_34:
	.loc	5 131 13
	srli	t5, t4, 1
	lui	a2, 349525
	addi	a3, a2, 1365
.Ltmp192:
	.loc	5 0 13 is_stmt 0
	lui	a2, 209715
	addi	a2, a2, 819
	lui	a4, 61681
	addi	t6, a4, -241
	lui	a4, 4112
	addi	a4, a4, 257
	.loc	5 131 13
	bnez	a5, .LBB2_36
.Ltmp193:
	.loc	5 0 13
	or	s0, t4, t5
	srli	s1, s0, 2
	or	s0, s0, s1
	srli	s1, s0, 4
	or	s0, s0, s1
	srli	s1, s0, 8
	or	s0, s0, s1
	srli	s1, s0, 16
	or	s0, s0, s1
	not	s0, s0
	srli	s1, s0, 1
	and	a3, a3, s1
	sub	a3, s0, a3
	and	s0, a3, a2
	srli	a3, a3, 2
	and	a2, a2, a3
	add	a2, a2, s0
	srli	a3, a2, 4
	add	a2, a2, a3
	and	a2, a2, t6
	mul	a2, a2, a4
	srli	a2, a2, 24
	addi	a2, a2, 32
	j	.LBB2_37
.Ltmp194:
.LBB2_36:
	srli	s0, a5, 1
	or	s0, s0, a5
	srli	s1, s0, 2
	or	s0, s0, s1
	srli	s1, s0, 4
	or	s0, s0, s1
	srli	s1, s0, 8
	or	s0, s0, s1
	srli	s1, s0, 16
	or	s0, s0, s1
	not	s0, s0
	srli	s1, s0, 1
	and	a3, a3, s1
	sub	a3, s0, a3
	and	s0, a3, a2
	srli	a3, a3, 2
	and	a2, a2, a3
	add	a2, a2, s0
	srli	a3, a2, 4
	add	a2, a2, a3
	and	a2, a2, t6
	mul	a2, a2, a4
	srli	a2, a2, 24
.Ltmp195:
.LBB2_37:
	.loc	5 1203 13 is_stmt 1
	addi	a4, a2, 53
.Ltmp196:
	.loc	7 164 21
	andi	a3, a4, 63
	addi	s0, a3, -32
	li	t6, 12
	bltz	s0, .LBB2_39
.Ltmp197:
	.loc	7 0 21 is_stmt 0
	sll	a5, t4, s0
.Ltmp198:
	li	t4, 0
.Ltmp199:
	j	.LBB2_40
.Ltmp200:
.LBB2_39:
	sll	a5, a5, a4
.Ltmp201:
	xori	a3, a3, 31
	srl	a3, t5, a3
	or	a5, a5, a3
	sll	t4, t4, a4
.Ltmp202:
.LBB2_40:
	sub	a3, t6, a2
.Ltmp203:
.LBB2_41:
	.loc	2 380 48 is_stmt 1
	xor	t2, t2, a1
.Ltmp204:
	.loc	2 481 17
	srli	a2, t0, 29
	slli	a4, t1, 3
	or	t5, a4, a2
.Ltmp205:
	.loc	2 0 17 is_stmt 0
	lui	t1, 2048
.Ltmp206:
	.loc	2 481 17
	srli	a2, t4, 29
	slli	a4, a5, 3
	or	a2, a2, a4
	slli	a4, t4, 3
.Ltmp207:
	or	a2, a2, t1
.Ltmp208:
	.loc	4 116 8 is_stmt 1
	beq	t3, a3, .LBB2_50
.Ltmp209:
	.loc	4 0 0 is_stmt 0
	sub	a3, t3, a3
.Ltmp210:
	li	a5, 63
.Ltmp211:
	.loc	4 117 12 is_stmt 1
	bltu	a5, a3, .LBB2_45
.Ltmp212:
	.loc	5 1203 13
	neg	t4, a3
.Ltmp213:
	.loc	2 481 17
	andi	t6, t4, 63
	addi	a5, t6, -32
	bltz	a5, .LBB2_46
.Ltmp214:
	.loc	2 0 17 is_stmt 0
	sll	t6, a4, a5
.Ltmp215:
	.loc	3 1348 52 is_stmt 1
	bltz	a5, .LBB2_47
	j	.LBB2_48
.Ltmp216:
.LBB2_45:
	.loc	3 0 52 is_stmt 0
	li	a2, 0
.Ltmp217:
	li	a4, 1
.Ltmp218:
	slli	a5, t0, 3
.Ltmp219:
	or	a3, t5, t1
.Ltmp220:
	.loc	4 125 8 is_stmt 1
	bgez	t2, .LBB2_51
	j	.LBB2_54
.Ltmp221:
.LBB2_46:
	.loc	4 0 8 is_stmt 0
	sll	s2, a2, t4
	xori	s1, t6, 31
	srli	s0, a4, 1
	srl	s1, s0, s1
	or	t6, s2, s1
.Ltmp222:
	.loc	3 1348 52 is_stmt 1
	bgez	a5, .LBB2_48
.Ltmp223:
.LBB2_47:
	.loc	3 0 52 is_stmt 0
	sll	a5, a4, t4
	or	t6, t6, a5
.Ltmp224:
.LBB2_48:
	.loc	2 601 17 is_stmt 1
	addi	s0, a3, -32
.Ltmp225:
	.loc	3 1348 52
	snez	a5, t6
.Ltmp226:
	.loc	2 601 17
	bltz	s0, .LBB2_53
.Ltmp227:
	.loc	2 0 17 is_stmt 0
	srl	a4, a2, s0
.Ltmp228:
	li	a2, 0
.Ltmp229:
	.loc	2 278 45 is_stmt 1
	or	a4, a4, a5
.Ltmp230:
.LBB2_50:
	.loc	4 0 0 is_stmt 0
	slli	a5, t0, 3
.Ltmp231:
	or	a3, t5, t1
.Ltmp232:
	.loc	4 125 8 is_stmt 1
	bltz	t2, .LBB2_54
.Ltmp233:
.LBB2_51:
	.loc	8 763 51
	add	a5, a5, a4
.Ltmp234:
	sltu	a4, a5, a4
.Ltmp235:
	add	a2, a2, a3
.Ltmp236:
	add	a3, a2, a4
.Ltmp237:
	.loc	4 146 12
	slli	a2, a3, 7
	bgez	a2, .LBB2_63
.Ltmp238:
	.loc	2 176 46
	andi	a2, a5, 1
.Ltmp239:
	.loc	2 601 17
	srli	a4, a5, 1
	slli	a5, a3, 31
.Ltmp240:
	or	a4, a4, a5
	srli	a3, a3, 1
.Ltmp241:
	.loc	2 278 45
	or	a5, a2, a4
.Ltmp242:
	.loc	4 149 13
	addi	t3, t3, 1
.Ltmp243:
	.loc	4 0 13 is_stmt 0
	j	.LBB2_63
.Ltmp244:
.LBB2_53:
	srl	a4, a4, a3
.Ltmp245:
	xori	s1, a3, 31
	slli	s0, a2, 1
	sll	s1, s0, s1
	or	a4, a4, s1
	srl	a2, a2, a3
.Ltmp246:
	.loc	2 278 45 is_stmt 1
	or	a4, a4, a5
.Ltmp247:
	.loc	4 0 0 is_stmt 0
	slli	a5, t0, 3
.Ltmp248:
	or	a3, t5, t1
.Ltmp249:
	.loc	4 125 8 is_stmt 1
	bgez	t2, .LBB2_51
.Ltmp250:
.LBB2_54:
	.loc	5 1203 13
	sltu	s1, a5, a4
	sub	a2, a3, a2
.Ltmp251:
	sub	a3, a2, s1
.Ltmp252:
	sub	a5, a5, a4
.Ltmp253:
	.loc	3 1346 52
	or	a2, a5, a3
.Ltmp254:
	.loc	4 128 12
	beqz	a2, .LBB2_59
.Ltmp255:
	.loc	3 1435 52
	srli	a2, a3, 23
.Ltmp256:
	.loc	4 134 12
	bnez	a2, .LBB2_63
.Ltmp257:
	.loc	5 131 13
	srli	t0, a5, 1
	lui	a2, 349525
	addi	a4, a2, 1365
.Ltmp258:
	.loc	5 0 13 is_stmt 0
	lui	a2, 209715
	addi	a2, a2, 819
	lui	s1, 61681
	addi	t2, s1, -241
	lui	s1, 4112
	addi	t1, s1, 257
	.loc	5 131 13
	bnez	a3, .LBB2_60
.Ltmp259:
	.loc	5 0 13
	or	s1, a5, t0
	srli	s0, s1, 2
	or	s1, s1, s0
	srli	s0, s1, 4
	or	s1, s1, s0
	srli	s0, s1, 8
	or	s1, s1, s0
	srli	s0, s1, 16
	or	s1, s1, s0
	not	s1, s1
	srli	s0, s1, 1
	and	a4, a4, s0
	sub	a4, s1, a4
	and	s1, a4, a2
	srli	a4, a4, 2
	and	a2, a2, a4
	add	a2, a2, s1
	srli	a4, a2, 4
	add	a2, a2, a4
	and	a2, a2, t2
	mul	a2, a2, t1
	srli	a2, a2, 24
	addi	a2, a2, 32
.Ltmp260:
	.loc	4 136 17 is_stmt 1
	addi	a2, a2, -8
.Ltmp261:
	.loc	2 945 17
	andi	a4, a2, 63
	addi	s0, a4, -32
	bgez	s0, .LBB2_61
.Ltmp262:
.LBB2_58:
	.loc	2 0 17 is_stmt 0
	sll	a3, a3, a2
.Ltmp263:
	xori	a4, a4, 31
	srl	a4, t0, a4
	or	a3, a3, a4
	sll	a5, a5, a2
.Ltmp264:
	j	.LBB2_62
.Ltmp265:
.LBB2_59:
	li	t0, 0
	li	a7, 0
	j	.LBB2_80
.Ltmp266:
.LBB2_60:
	srli	s1, a3, 1
	or	s1, s1, a3
	srli	s0, s1, 2
	or	s1, s1, s0
	srli	s0, s1, 4
	or	s1, s1, s0
	srli	s0, s1, 8
	or	s1, s1, s0
	srli	s0, s1, 16
	or	s1, s1, s0
	not	s1, s1
	srli	s0, s1, 1
	and	a4, a4, s0
	sub	a4, s1, a4
	and	s1, a4, a2
	srli	a4, a4, 2
	and	a2, a2, a4
	add	a2, a2, s1
	srli	a4, a2, 4
	add	a2, a2, a4
	and	a2, a2, t2
	mul	a2, a2, t1
	srli	a2, a2, 24
.Ltmp267:
	.loc	4 136 17 is_stmt 1
	addi	a2, a2, -8
.Ltmp268:
	.loc	2 945 17
	andi	a4, a2, 63
	addi	s0, a4, -32
	bltz	s0, .LBB2_58
.Ltmp269:
.LBB2_61:
	.loc	2 0 17 is_stmt 0
	sll	a3, a5, s0
.Ltmp270:
	li	a5, 0
.Ltmp271:
.LBB2_62:
	.loc	4 138 13 is_stmt 1
	sub	t3, t3, a2
.Ltmp272:
.LBB2_63:
	.loc	4 0 13 is_stmt 0
	li	a2, -1
	addi	a4, a2, 1
	sltu	a2, a4, a2
	add	a2, a2, a6
	and	t0, a0, a4
	li	a4, 2046
	and	a0, a1, a2
.Ltmp273:
	.loc	4 154 8 is_stmt 1
	bge	a4, t3, .LBB2_65
.Ltmp274:
	.loc	4 0 8 is_stmt 0
	lui	a1, 524032
.Ltmp275:
	.loc	2 278 45 is_stmt 1
	or	a7, a0, a1
.Ltmp276:
	.loc	2 0 45 is_stmt 0
	j	.LBB2_80
.Ltmp277:
.LBB2_65:
	li	a6, -1
	.loc	4 158 8 is_stmt 1
	bgtz	t3, .LBB2_74
.Ltmp278:
	.loc	5 1203 13
	addi	t1, t3, -1
.Ltmp279:
	.loc	2 481 17
	andi	a4, t1, 63
	addi	a2, a4, -32
	li	a1, 1
.Ltmp280:
	bltz	a2, .LBB2_68
.Ltmp281:
	.loc	2 0 17 is_stmt 0
	sll	a4, a5, a2
	sub	a1, a1, t3
.Ltmp282:
	.loc	3 1348 52 is_stmt 1
	bltz	a2, .LBB2_69
	j	.LBB2_70
.Ltmp283:
.LBB2_68:
	.loc	3 0 52 is_stmt 0
	sll	s1, a3, t1
	srli	s0, a5, 1
	xori	a4, a4, 31
	srl	a4, s0, a4
	or	a4, a4, s1
	sub	a1, a1, t3
.Ltmp284:
	.loc	3 1348 52
	bgez	a2, .LBB2_70
.Ltmp285:
.LBB2_69:
	.loc	3 0 52
	sll	a2, a5, t1
	or	a4, a4, a2
.Ltmp286:
.LBB2_70:
	.loc	2 601 17 is_stmt 1
	andi	a2, a1, 63
	addi	s0, a2, -32
.Ltmp287:
	.loc	3 1348 52
	snez	a4, a4
.Ltmp288:
	.loc	2 601 17
	bltz	s0, .LBB2_72
.Ltmp289:
	.loc	2 0 17 is_stmt 0
	srl	a1, a3, s0
.Ltmp290:
	li	a3, 0
.Ltmp291:
	j	.LBB2_73
.Ltmp292:
.LBB2_72:
	slli	s1, a3, 1
	srl	a3, a3, a1
.Ltmp293:
	srl	a1, a5, a1
.Ltmp294:
	xori	a2, a2, 31
	sll	a2, s1, a2
	or	a1, a1, a2
.Ltmp295:
.LBB2_73:
	li	t3, 0
.Ltmp296:
	.loc	2 278 45 is_stmt 1
	or	a5, a1, a4
.Ltmp297:
.LBB2_74:
	.loc	4 170 35
	andi	a1, a5, 7
.Ltmp298:
	.loc	2 601 17
	srli	a2, a5, 3
	slli	a4, a3, 29
	or	a2, a2, a4
	srli	a3, a3, 3
.Ltmp299:
	.loc	2 176 46
	and	a4, a2, a6
	and	a3, a3, a7
.Ltmp300:
	.loc	2 481 17
	slli	a5, t3, 20
.Ltmp301:
	.loc	2 807 53
	or	a3, a3, a5
.Ltmp302:
	.loc	2 807 53 is_stmt 0
	or	a7, a3, a0
	li	a0, 4
.Ltmp303:
	or	t0, a4, t0
.Ltmp304:
	.loc	4 181 8 is_stmt 1
	bgeu	a0, a1, .LBB2_76
.Ltmp305:
	.loc	8 763 51
	addi	a0, t0, 1
	j	.LBB2_78
.Ltmp306:
.LBB2_76:
	.loc	8 0 51 is_stmt 0
	bne	a1, a0, .LBB2_80
.Ltmp307:
	.loc	2 176 46 is_stmt 1
	andi	a0, a2, 1
.Ltmp308:
	.loc	8 763 51
	add	a0, a0, t0
.Ltmp309:
.LBB2_78:
	.loc	4 0 0 is_stmt 0
	sltu	a1, a0, t0
.Ltmp310:
	add	a7, a7, a1
.Ltmp311:
.LBB2_79:
	mv	t0, a0
.Ltmp312:
.LBB2_80:
	.loc	1 389 10 is_stmt 1
	mv	a0, t0
	mv	a1, a7
	lw	s0, 12(sp)
	lw	s1, 8(sp)
	lw	s2, 4(sp)
	addi	sp, sp, 16
	ret
.LBB2_81:
.Ltmp313:
	.loc	4 0 0 is_stmt 0
	or	a4, a2, t1
	mv	t0, a2
	mv	a7, a3
	.loc	4 62 16 is_stmt 1
	bnez	a4, .LBB2_80
.Ltmp314:
	.loc	2 176 46
	and	t0, a2, a0
.Ltmp315:
	and	a7, a3, a1
.Ltmp316:
	.loc	2 0 46 is_stmt 0
	j	.LBB2_80
.Ltmp317:
.Lfunc_end2:
	.size	_ZN17compiler_builtins5float3add8__adddf317hb40dd8bc41e310b7E, .Lfunc_end2-_ZN17compiler_builtins5float3add8__adddf317hb40dd8bc41e310b7E
	.cfi_endproc

	.section	.text.__adddf3,"ax",@progbits
	.hidden	__adddf3
	.globl	__adddf3
	.p2align	1
	.type	__adddf3,@function
__adddf3:
.Lfunc_begin3:
	.loc	1 394 0 is_stmt 1
	.cfi_startproc
	.loc	1 395 17 prologue_end
	tail	_ZN17compiler_builtins5float3add8__adddf317hb40dd8bc41e310b7E
.Ltmp318:
.Lfunc_end3:
	.size	__adddf3, .Lfunc_end3-__adddf3
	.cfi_endproc

	.section	.text._ZN17compiler_builtins5float3cmp7__gesf217hcac1037abd4201c4E,"ax",@progbits
	.hidden	_ZN17compiler_builtins5float3cmp7__gesf217hcac1037abd4201c4E
	.globl	_ZN17compiler_builtins5float3cmp7__gesf217hcac1037abd4201c4E
	.p2align	1
	.type	_ZN17compiler_builtins5float3cmp7__gesf217hcac1037abd4201c4E,@function
_ZN17compiler_builtins5float3cmp7__gesf217hcac1037abd4201c4E:
.Lfunc_begin4:
	.loc	1 386 0
	.cfi_startproc
	mv	a2, a0
.Ltmp319:
	lui	a0, 524288
	addi	a0, a0, -1
.Ltmp320:
	.loc	2 176 46 prologue_end
	and	a3, a2, a0
.Ltmp321:
	.loc	2 176 46 is_stmt 0
	and	a4, a1, a0
	lui	a0, 522240
.Ltmp322:
	.loc	3 1441 52 is_stmt 1
	sltu	a5, a0, a3
	sltu	a0, a0, a4
.Ltmp323:
	.file	10 "/Users/georg/.cargo/registry/src/github.com-1ecc6299db9ec823/compiler_builtins-0.1.85" "src/float/cmp.rs"
	.loc	10 50 8
	or	a5, a5, a0
	li	a0, -1
.Ltmp324:
	bnez	a5, .LBB4_5
.Ltmp325:
	.loc	2 278 45
	or	a3, a3, a4
.Ltmp326:
	.loc	10 55 8
	beqz	a3, .LBB4_6
.Ltmp327:
	.loc	2 176 46
	and	a3, a1, a2
.Ltmp328:
	.loc	10 64 8
	bltz	a3, .LBB4_7
.Ltmp329:
	.loc	10 65 12
	blt	a2, a1, .LBB4_5
.Ltmp330:
.LBB4_4:
	.loc	10 0 0 is_stmt 0
	xor	a0, a2, a1
	snez	a0, a0
.Ltmp331:
.LBB4_5:
	.loc	1 389 10 is_stmt 1
	ret
.Ltmp332:
.LBB4_6:
	.loc	1 0 10 is_stmt 0
	li	a0, 0
	.loc	1 389 10
	ret
.Ltmp333:
.LBB4_7:
	.loc	10 76 15 is_stmt 1
	bge	a1, a2, .LBB4_4
	j	.LBB4_5
.Ltmp334:
.Lfunc_end4:
	.size	_ZN17compiler_builtins5float3cmp7__gesf217hcac1037abd4201c4E, .Lfunc_end4-_ZN17compiler_builtins5float3cmp7__gesf217hcac1037abd4201c4E
	.cfi_endproc

	.section	.text.__gesf2,"ax",@progbits
	.hidden	__gesf2
	.globl	__gesf2
	.p2align	1
	.type	__gesf2,@function
__gesf2:
.Lfunc_begin5:
	.loc	1 394 0
	.cfi_startproc
	mv	a2, a0
.Ltmp335:
	lui	a0, 524288
	addi	a0, a0, -1
.Ltmp336:
	.loc	2 176 46 prologue_end
	and	a3, a2, a0
.Ltmp337:
	.loc	2 176 46 is_stmt 0
	and	a4, a1, a0
	lui	a0, 522240
.Ltmp338:
	.loc	3 1441 52 is_stmt 1
	sltu	a5, a0, a3
	sltu	a0, a0, a4
.Ltmp339:
	.loc	10 50 8
	or	a5, a5, a0
	li	a0, -1
.Ltmp340:
	bnez	a5, .LBB5_5
.Ltmp341:
	.loc	2 278 45
	or	a3, a3, a4
.Ltmp342:
	.loc	10 55 8
	beqz	a3, .LBB5_6
.Ltmp343:
	.loc	2 176 46
	and	a3, a1, a2
.Ltmp344:
	.loc	10 64 8
	bltz	a3, .LBB5_7
.Ltmp345:
	.loc	10 65 12
	blt	a2, a1, .LBB5_5
.Ltmp346:
.LBB5_4:
	.loc	10 0 0 is_stmt 0
	xor	a0, a2, a1
	snez	a0, a0
.Ltmp347:
.LBB5_5:
	.loc	1 396 14 is_stmt 1
	ret
.Ltmp348:
.LBB5_6:
	.loc	1 0 14 is_stmt 0
	li	a0, 0
	.loc	1 396 14
	ret
.Ltmp349:
.LBB5_7:
	.loc	10 76 15 is_stmt 1
	bge	a1, a2, .LBB5_4
	j	.LBB5_5
.Ltmp350:
.Lfunc_end5:
	.size	__gesf2, .Lfunc_end5-__gesf2
	.cfi_endproc

	.section	.text._ZN17compiler_builtins5float3cmp10__unordsf217h0b3d8e2d59fc4844E,"ax",@progbits
	.hidden	_ZN17compiler_builtins5float3cmp10__unordsf217h0b3d8e2d59fc4844E
	.globl	_ZN17compiler_builtins5float3cmp10__unordsf217h0b3d8e2d59fc4844E
	.p2align	1
	.type	_ZN17compiler_builtins5float3cmp10__unordsf217h0b3d8e2d59fc4844E,@function
_ZN17compiler_builtins5float3cmp10__unordsf217h0b3d8e2d59fc4844E:
.Lfunc_begin6:
	.loc	1 386 0
	.cfi_startproc
	lui	a2, 524288
	addi	a2, a2, -1
.Ltmp351:
	.loc	2 176 46 prologue_end
	and	a0, a0, a2
.Ltmp352:
	.loc	2 176 46 is_stmt 0
	and	a1, a1, a2
.Ltmp353:
	.loc	2 0 46
	lui	a2, 522240
.Ltmp354:
	.loc	3 1441 52 is_stmt 1
	sltu	a0, a2, a0
.Ltmp355:
	.loc	10 98 5
	sltu	a1, a2, a1
.Ltmp356:
	or	a0, a0, a1
.Ltmp357:
	.loc	1 389 10
	ret
.Ltmp358:
.Lfunc_end6:
	.size	_ZN17compiler_builtins5float3cmp10__unordsf217h0b3d8e2d59fc4844E, .Lfunc_end6-_ZN17compiler_builtins5float3cmp10__unordsf217h0b3d8e2d59fc4844E
	.cfi_endproc

	.section	.text.__unordsf2,"ax",@progbits
	.hidden	__unordsf2
	.globl	__unordsf2
	.p2align	1
	.type	__unordsf2,@function
__unordsf2:
.Lfunc_begin7:
	.loc	1 394 0
	.cfi_startproc
	lui	a2, 524288
	addi	a2, a2, -1
.Ltmp359:
	.loc	2 176 46 prologue_end
	and	a0, a0, a2
.Ltmp360:
	.loc	2 176 46 is_stmt 0
	and	a1, a1, a2
.Ltmp361:
	.loc	2 0 46
	lui	a2, 522240
.Ltmp362:
	.loc	3 1441 52 is_stmt 1
	sltu	a0, a2, a0
.Ltmp363:
	.loc	10 98 5
	sltu	a1, a2, a1
.Ltmp364:
	or	a0, a0, a1
.Ltmp365:
	.loc	1 396 14
	ret
.Ltmp366:
.Lfunc_end7:
	.size	__unordsf2, .Lfunc_end7-__unordsf2
	.cfi_endproc

	.section	.text._ZN17compiler_builtins5float3cmp7__eqsf217hd8cb7c38efbde373E,"ax",@progbits
	.hidden	_ZN17compiler_builtins5float3cmp7__eqsf217hd8cb7c38efbde373E
	.globl	_ZN17compiler_builtins5float3cmp7__eqsf217hd8cb7c38efbde373E
	.p2align	1
	.type	_ZN17compiler_builtins5float3cmp7__eqsf217hd8cb7c38efbde373E,@function
_ZN17compiler_builtins5float3cmp7__eqsf217hd8cb7c38efbde373E:
.Lfunc_begin8:
	.loc	1 386 0
	.cfi_startproc
	lui	a2, 524288
	addi	a2, a2, -1
.Ltmp367:
	.loc	2 176 46 prologue_end
	and	a3, a0, a2
.Ltmp368:
	.loc	2 176 46 is_stmt 0
	and	a4, a1, a2
	lui	a2, 522240
.Ltmp369:
	.loc	3 1441 52 is_stmt 1
	sltu	a5, a2, a3
	sltu	a2, a2, a4
.Ltmp370:
	.loc	10 50 8
	or	a5, a5, a2
	li	a2, 1
.Ltmp371:
	bnez	a5, .LBB8_5
.Ltmp372:
	.loc	2 278 45
	or	a2, a4, a3
.Ltmp373:
	.loc	10 55 8
	beqz	a2, .LBB8_5
.Ltmp374:
	.loc	2 176 46
	and	a2, a1, a0
.Ltmp375:
	.loc	10 64 8
	bltz	a2, .LBB8_6
.Ltmp376:
	.loc	10 0 8 is_stmt 0
	li	a2, -1
	.loc	10 65 12 is_stmt 1
	blt	a0, a1, .LBB8_5
.Ltmp377:
.LBB8_4:
	.loc	10 0 0 is_stmt 0
	xor	a0, a0, a1
.Ltmp378:
	snez	a2, a0
.Ltmp379:
.LBB8_5:
	.loc	1 389 10 is_stmt 1
	mv	a0, a2
	ret
.Ltmp380:
.LBB8_6:
	.loc	1 0 10 is_stmt 0
	li	a2, -1
.Ltmp381:
	.loc	10 76 15 is_stmt 1
	bge	a1, a0, .LBB8_4
	j	.LBB8_5
.Ltmp382:
.Lfunc_end8:
	.size	_ZN17compiler_builtins5float3cmp7__eqsf217hd8cb7c38efbde373E, .Lfunc_end8-_ZN17compiler_builtins5float3cmp7__eqsf217hd8cb7c38efbde373E
	.cfi_endproc

	.section	.text.__eqsf2,"ax",@progbits
	.hidden	__eqsf2
	.globl	__eqsf2
	.p2align	1
	.type	__eqsf2,@function
__eqsf2:
.Lfunc_begin9:
	.loc	1 394 0
	.cfi_startproc
	lui	a2, 524288
	addi	a2, a2, -1
.Ltmp383:
	.loc	2 176 46 prologue_end
	and	a3, a0, a2
.Ltmp384:
	.loc	2 176 46 is_stmt 0
	and	a4, a1, a2
	lui	a2, 522240
.Ltmp385:
	.loc	3 1441 52 is_stmt 1
	sltu	a5, a2, a3
	sltu	a2, a2, a4
.Ltmp386:
	.loc	10 50 8
	or	a5, a5, a2
	li	a2, 1
.Ltmp387:
	bnez	a5, .LBB9_5
.Ltmp388:
	.loc	2 278 45
	or	a2, a4, a3
.Ltmp389:
	.loc	10 55 8
	beqz	a2, .LBB9_5
.Ltmp390:
	.loc	2 176 46
	and	a2, a1, a0
.Ltmp391:
	.loc	10 64 8
	bltz	a2, .LBB9_6
.Ltmp392:
	.loc	10 0 8 is_stmt 0
	li	a2, -1
	.loc	10 65 12 is_stmt 1
	blt	a0, a1, .LBB9_5
.Ltmp393:
.LBB9_4:
	.loc	10 0 0 is_stmt 0
	xor	a0, a0, a1
.Ltmp394:
	snez	a2, a0
.Ltmp395:
.LBB9_5:
	.loc	1 396 14 is_stmt 1
	mv	a0, a2
	ret
.Ltmp396:
.LBB9_6:
	.loc	1 0 14 is_stmt 0
	li	a2, -1
.Ltmp397:
	.loc	10 76 15 is_stmt 1
	bge	a1, a0, .LBB9_4
	j	.LBB9_5
.Ltmp398:
.Lfunc_end9:
	.size	__eqsf2, .Lfunc_end9-__eqsf2
	.cfi_endproc

	.section	.text._ZN17compiler_builtins5float3cmp7__gedf217h1851fb3efc715d14E,"ax",@progbits
	.hidden	_ZN17compiler_builtins5float3cmp7__gedf217h1851fb3efc715d14E
	.globl	_ZN17compiler_builtins5float3cmp7__gedf217h1851fb3efc715d14E
	.p2align	1
	.type	_ZN17compiler_builtins5float3cmp7__gedf217h1851fb3efc715d14E,@function
_ZN17compiler_builtins5float3cmp7__gedf217h1851fb3efc715d14E:
.Lfunc_begin10:
	.loc	1 386 0
	.cfi_startproc
	lui	a4, 524288
	addi	a4, a4, -1
.Ltmp399:
	.loc	2 176 46 prologue_end
	and	t0, a1, a4
	lui	a7, 524032
.Ltmp400:
	.loc	2 176 46 is_stmt 0
	and	a4, a4, a3
.Ltmp401:
	.loc	3 1441 52 is_stmt 1
	beq	t0, a7, .LBB10_4
.Ltmp402:
	.loc	3 0 52 is_stmt 0
	sltu	a6, a7, t0
	bne	a4, a7, .LBB10_5
.Ltmp403:
.LBB10_2:
	snez	a5, a2
	.loc	10 50 8 is_stmt 1
	or	a5, a6, a5
	li	a6, -1
.Ltmp404:
	beqz	a5, .LBB10_6
.Ltmp405:
.LBB10_3:
	.loc	1 389 10
	mv	a0, a6
.Ltmp406:
	ret
.Ltmp407:
.LBB10_4:
	.loc	1 0 10 is_stmt 0
	snez	a6, a0
	beq	a4, a7, .LBB10_2
.Ltmp408:
.LBB10_5:
	sltu	a5, a7, a4
.Ltmp409:
	.loc	10 50 8 is_stmt 1
	or	a5, a6, a5
	li	a6, -1
.Ltmp410:
	bnez	a5, .LBB10_3
.Ltmp411:
.LBB10_6:
	.loc	2 278 45
	or	a5, a2, a0
	or	a4, a4, t0
.Ltmp412:
	.loc	3 1346 52
	or	a4, a4, a5
.Ltmp413:
	.loc	10 55 8
	beqz	a4, .LBB10_10
.Ltmp414:
	.loc	2 176 46
	and	a4, a3, a1
.Ltmp415:
	.loc	10 64 8
	bltz	a4, .LBB10_11
.Ltmp416:
	.loc	3 1435 52
	beq	a1, a3, .LBB10_13
.Ltmp417:
	.loc	3 0 52 is_stmt 0
	slt	a4, a1, a3
	.loc	10 65 12 is_stmt 1
	bnez	a4, .LBB10_3
	j	.LBB10_15
.Ltmp418:
.LBB10_10:
	.loc	1 389 10
	li	a0, 0
.Ltmp419:
	ret
.Ltmp420:
.LBB10_11:
	.loc	3 1441 52
	beq	a1, a3, .LBB10_14
.Ltmp421:
	.loc	3 0 52 is_stmt 0
	slt	a4, a3, a1
	.loc	10 76 15 is_stmt 1
	bnez	a4, .LBB10_3
	j	.LBB10_15
.Ltmp422:
.LBB10_13:
	.loc	10 0 15 is_stmt 0
	sltu	a4, a0, a2
	.loc	10 65 12 is_stmt 1
	bnez	a4, .LBB10_3
	j	.LBB10_15
.Ltmp423:
.LBB10_14:
	.loc	10 0 12 is_stmt 0
	sltu	a4, a2, a0
	.loc	10 76 15 is_stmt 1
	bnez	a4, .LBB10_3
.Ltmp424:
.LBB10_15:
	.loc	10 0 0 is_stmt 0
	xor	a0, a0, a2
.Ltmp425:
	xor	a1, a1, a3
.Ltmp426:
	or	a0, a0, a1
	snez	a6, a0
.Ltmp427:
	.loc	1 389 10 is_stmt 1
	mv	a0, a6
	ret
.Ltmp428:
.Lfunc_end10:
	.size	_ZN17compiler_builtins5float3cmp7__gedf217h1851fb3efc715d14E, .Lfunc_end10-_ZN17compiler_builtins5float3cmp7__gedf217h1851fb3efc715d14E
	.cfi_endproc

	.section	.text.__gedf2,"ax",@progbits
	.hidden	__gedf2
	.globl	__gedf2
	.p2align	1
	.type	__gedf2,@function
__gedf2:
.Lfunc_begin11:
	.loc	1 394 0
	.cfi_startproc
	lui	a4, 524288
	addi	a4, a4, -1
.Ltmp429:
	.loc	2 176 46 prologue_end
	and	t0, a1, a4
	lui	a7, 524032
.Ltmp430:
	.loc	2 176 46 is_stmt 0
	and	a4, a4, a3
.Ltmp431:
	.loc	3 1441 52 is_stmt 1
	beq	t0, a7, .LBB11_4
.Ltmp432:
	.loc	3 0 52 is_stmt 0
	sltu	a6, a7, t0
	bne	a4, a7, .LBB11_5
.Ltmp433:
.LBB11_2:
	snez	a5, a2
	.loc	10 50 8 is_stmt 1
	or	a5, a6, a5
	li	a6, -1
.Ltmp434:
	beqz	a5, .LBB11_6
.Ltmp435:
.LBB11_3:
	.loc	1 396 14
	mv	a0, a6
.Ltmp436:
	ret
.Ltmp437:
.LBB11_4:
	.loc	1 0 14 is_stmt 0
	snez	a6, a0
	beq	a4, a7, .LBB11_2
.Ltmp438:
.LBB11_5:
	sltu	a5, a7, a4
.Ltmp439:
	.loc	10 50 8 is_stmt 1
	or	a5, a6, a5
	li	a6, -1
.Ltmp440:
	bnez	a5, .LBB11_3
.Ltmp441:
.LBB11_6:
	.loc	2 278 45
	or	a5, a2, a0
	or	a4, a4, t0
.Ltmp442:
	.loc	3 1346 52
	or	a4, a4, a5
.Ltmp443:
	.loc	10 55 8
	beqz	a4, .LBB11_10
.Ltmp444:
	.loc	2 176 46
	and	a4, a3, a1
.Ltmp445:
	.loc	10 64 8
	bltz	a4, .LBB11_11
.Ltmp446:
	.loc	3 1435 52
	beq	a1, a3, .LBB11_13
.Ltmp447:
	.loc	3 0 52 is_stmt 0
	slt	a4, a1, a3
	.loc	10 65 12 is_stmt 1
	bnez	a4, .LBB11_3
	j	.LBB11_15
.Ltmp448:
.LBB11_10:
	.loc	1 396 14
	li	a0, 0
.Ltmp449:
	ret
.Ltmp450:
.LBB11_11:
	.loc	3 1441 52
	beq	a1, a3, .LBB11_14
.Ltmp451:
	.loc	3 0 52 is_stmt 0
	slt	a4, a3, a1
	.loc	10 76 15 is_stmt 1
	bnez	a4, .LBB11_3
	j	.LBB11_15
.Ltmp452:
.LBB11_13:
	.loc	10 0 15 is_stmt 0
	sltu	a4, a0, a2
	.loc	10 65 12 is_stmt 1
	bnez	a4, .LBB11_3
	j	.LBB11_15
.Ltmp453:
.LBB11_14:
	.loc	10 0 12 is_stmt 0
	sltu	a4, a2, a0
	.loc	10 76 15 is_stmt 1
	bnez	a4, .LBB11_3
.Ltmp454:
.LBB11_15:
	.loc	10 0 0 is_stmt 0
	xor	a0, a0, a2
.Ltmp455:
	xor	a1, a1, a3
.Ltmp456:
	or	a0, a0, a1
	snez	a6, a0
.Ltmp457:
	.loc	1 396 14 is_stmt 1
	mv	a0, a6
	ret
.Ltmp458:
.Lfunc_end11:
	.size	__gedf2, .Lfunc_end11-__gedf2
	.cfi_endproc

	.section	.text._ZN17compiler_builtins5float3cmp10__unorddf217hf0d9862f802283b3E,"ax",@progbits
	.hidden	_ZN17compiler_builtins5float3cmp10__unorddf217hf0d9862f802283b3E
	.globl	_ZN17compiler_builtins5float3cmp10__unorddf217hf0d9862f802283b3E
	.p2align	1
	.type	_ZN17compiler_builtins5float3cmp10__unorddf217hf0d9862f802283b3E,@function
_ZN17compiler_builtins5float3cmp10__unorddf217hf0d9862f802283b3E:
.Lfunc_begin12:
	.loc	1 386 0
	.cfi_startproc
	lui	a4, 524288
	addi	a5, a4, -1
.Ltmp459:
	.loc	2 176 46 prologue_end
	and	a4, a1, a5
	lui	a1, 524032
.Ltmp460:
	.loc	2 176 46 is_stmt 0
	and	a3, a3, a5
.Ltmp461:
	.loc	3 1441 52 is_stmt 1
	beq	a4, a1, .LBB12_3
.Ltmp462:
	.loc	3 0 52 is_stmt 0
	sltu	a0, a1, a4
.Ltmp463:
	.loc	10 98 5 is_stmt 1
	bne	a3, a1, .LBB12_4
.Ltmp464:
.LBB12_2:
	.loc	10 0 5 is_stmt 0
	snez	a1, a2
	.loc	10 98 5
	or	a0, a0, a1
.Ltmp465:
	.loc	1 389 10 is_stmt 1
	ret
.Ltmp466:
.LBB12_3:
	.loc	1 0 10 is_stmt 0
	snez	a0, a0
.Ltmp467:
	.loc	10 98 5 is_stmt 1
	beq	a3, a1, .LBB12_2
.Ltmp468:
.LBB12_4:
	.loc	10 0 5 is_stmt 0
	sltu	a1, a1, a3
	.loc	10 98 5
	or	a0, a0, a1
.Ltmp469:
	.loc	1 389 10 is_stmt 1
	ret
.Ltmp470:
.Lfunc_end12:
	.size	_ZN17compiler_builtins5float3cmp10__unorddf217hf0d9862f802283b3E, .Lfunc_end12-_ZN17compiler_builtins5float3cmp10__unorddf217hf0d9862f802283b3E
	.cfi_endproc

	.section	.text.__unorddf2,"ax",@progbits
	.hidden	__unorddf2
	.globl	__unorddf2
	.p2align	1
	.type	__unorddf2,@function
__unorddf2:
.Lfunc_begin13:
	.loc	1 394 0
	.cfi_startproc
	lui	a4, 524288
	addi	a5, a4, -1
.Ltmp471:
	.loc	2 176 46 prologue_end
	and	a4, a1, a5
	lui	a1, 524032
.Ltmp472:
	.loc	2 176 46 is_stmt 0
	and	a3, a3, a5
.Ltmp473:
	.loc	3 1441 52 is_stmt 1
	beq	a4, a1, .LBB13_3
.Ltmp474:
	.loc	3 0 52 is_stmt 0
	sltu	a0, a1, a4
.Ltmp475:
	.loc	10 98 5 is_stmt 1
	bne	a3, a1, .LBB13_4
.Ltmp476:
.LBB13_2:
	.loc	10 0 5 is_stmt 0
	snez	a1, a2
	.loc	10 98 5
	or	a0, a0, a1
.Ltmp477:
	.loc	1 396 14 is_stmt 1
	ret
.Ltmp478:
.LBB13_3:
	.loc	1 0 14 is_stmt 0
	snez	a0, a0
.Ltmp479:
	.loc	10 98 5 is_stmt 1
	beq	a3, a1, .LBB13_2
.Ltmp480:
.LBB13_4:
	.loc	10 0 5 is_stmt 0
	sltu	a1, a1, a3
	.loc	10 98 5
	or	a0, a0, a1
.Ltmp481:
	.loc	1 396 14 is_stmt 1
	ret
.Ltmp482:
.Lfunc_end13:
	.size	__unorddf2, .Lfunc_end13-__unorddf2
	.cfi_endproc

	.section	.text._ZN17compiler_builtins5float3cmp7__eqdf217hbf56b846afb3822fE,"ax",@progbits
	.hidden	_ZN17compiler_builtins5float3cmp7__eqdf217hbf56b846afb3822fE
	.globl	_ZN17compiler_builtins5float3cmp7__eqdf217hbf56b846afb3822fE
	.p2align	1
	.type	_ZN17compiler_builtins5float3cmp7__eqdf217hbf56b846afb3822fE,@function
_ZN17compiler_builtins5float3cmp7__eqdf217hbf56b846afb3822fE:
.Lfunc_begin14:
	.loc	1 386 0
	.cfi_startproc
	lui	a4, 524288
	addi	a5, a4, -1
.Ltmp483:
	.loc	2 176 46 prologue_end
	and	a6, a1, a5
	lui	a4, 524032
.Ltmp484:
	.loc	2 176 46 is_stmt 0
	and	a5, a5, a3
.Ltmp485:
	.loc	3 1441 52 is_stmt 1
	beq	a6, a4, .LBB14_4
.Ltmp486:
	.loc	3 0 52 is_stmt 0
	sltu	a7, a4, a6
	bne	a5, a4, .LBB14_5
.Ltmp487:
.LBB14_2:
	snez	a4, a2
	.loc	10 50 8 is_stmt 1
	or	a4, a7, a4
	li	a7, 1
.Ltmp488:
	beqz	a4, .LBB14_6
.Ltmp489:
.LBB14_3:
	.loc	1 389 10
	mv	a0, a7
.Ltmp490:
	ret
.Ltmp491:
.LBB14_4:
	.loc	1 0 10 is_stmt 0
	snez	a7, a0
	beq	a5, a4, .LBB14_2
.Ltmp492:
.LBB14_5:
	sltu	a4, a4, a5
.Ltmp493:
	.loc	10 50 8 is_stmt 1
	or	a4, a7, a4
	li	a7, 1
.Ltmp494:
	bnez	a4, .LBB14_3
.Ltmp495:
.LBB14_6:
	.loc	2 278 45
	or	a4, a2, a0
	or	a5, a5, a6
.Ltmp496:
	.loc	3 1346 52
	or	a4, a4, a5
.Ltmp497:
	.loc	10 55 8
	beqz	a4, .LBB14_10
.Ltmp498:
	.loc	2 176 46
	and	a4, a3, a1
.Ltmp499:
	.loc	10 64 8
	bltz	a4, .LBB14_11
.Ltmp500:
	.loc	3 1435 52
	beq	a1, a3, .LBB14_13
.Ltmp501:
	.loc	3 0 52 is_stmt 0
	slt	a5, a1, a3
	li	a7, -1
	bnez	a5, .LBB14_3
	j	.LBB14_15
.Ltmp502:
.LBB14_10:
	.loc	1 389 10 is_stmt 1
	li	a0, 0
.Ltmp503:
	ret
.Ltmp504:
.LBB14_11:
	.loc	3 1441 52
	beq	a1, a3, .LBB14_14
.Ltmp505:
	.loc	3 0 52 is_stmt 0
	slt	a5, a3, a1
	li	a7, -1
	bnez	a5, .LBB14_3
	j	.LBB14_15
.Ltmp506:
.LBB14_13:
	sltu	a5, a0, a2
	li	a7, -1
	bnez	a5, .LBB14_3
	j	.LBB14_15
.Ltmp507:
.LBB14_14:
	sltu	a5, a2, a0
	li	a7, -1
	bnez	a5, .LBB14_3
.Ltmp508:
.LBB14_15:
	xor	a0, a0, a2
.Ltmp509:
	xor	a1, a1, a3
.Ltmp510:
	or	a0, a0, a1
	snez	a7, a0
.Ltmp511:
	.loc	1 389 10 is_stmt 1
	mv	a0, a7
	ret
.Ltmp512:
.Lfunc_end14:
	.size	_ZN17compiler_builtins5float3cmp7__eqdf217hbf56b846afb3822fE, .Lfunc_end14-_ZN17compiler_builtins5float3cmp7__eqdf217hbf56b846afb3822fE
	.cfi_endproc

	.section	.text.__eqdf2,"ax",@progbits
	.hidden	__eqdf2
	.globl	__eqdf2
	.p2align	1
	.type	__eqdf2,@function
__eqdf2:
.Lfunc_begin15:
	.loc	1 394 0
	.cfi_startproc
	lui	a4, 524288
	addi	a5, a4, -1
.Ltmp513:
	.loc	2 176 46 prologue_end
	and	a6, a1, a5
	lui	a4, 524032
.Ltmp514:
	.loc	2 176 46 is_stmt 0
	and	a5, a5, a3
.Ltmp515:
	.loc	3 1441 52 is_stmt 1
	beq	a6, a4, .LBB15_4
.Ltmp516:
	.loc	3 0 52 is_stmt 0
	sltu	a7, a4, a6
	bne	a5, a4, .LBB15_5
.Ltmp517:
.LBB15_2:
	snez	a4, a2
	.loc	10 50 8 is_stmt 1
	or	a4, a7, a4
	li	a7, 1
.Ltmp518:
	beqz	a4, .LBB15_6
.Ltmp519:
.LBB15_3:
	.loc	1 396 14
	mv	a0, a7
.Ltmp520:
	ret
.Ltmp521:
.LBB15_4:
	.loc	1 0 14 is_stmt 0
	snez	a7, a0
	beq	a5, a4, .LBB15_2
.Ltmp522:
.LBB15_5:
	sltu	a4, a4, a5
.Ltmp523:
	.loc	10 50 8 is_stmt 1
	or	a4, a7, a4
	li	a7, 1
.Ltmp524:
	bnez	a4, .LBB15_3
.Ltmp525:
.LBB15_6:
	.loc	2 278 45
	or	a4, a2, a0
	or	a5, a5, a6
.Ltmp526:
	.loc	3 1346 52
	or	a4, a4, a5
.Ltmp527:
	.loc	10 55 8
	beqz	a4, .LBB15_10
.Ltmp528:
	.loc	2 176 46
	and	a4, a3, a1
.Ltmp529:
	.loc	10 64 8
	bltz	a4, .LBB15_11
.Ltmp530:
	.loc	3 1435 52
	beq	a1, a3, .LBB15_13
.Ltmp531:
	.loc	3 0 52 is_stmt 0
	slt	a5, a1, a3
	li	a7, -1
	bnez	a5, .LBB15_3
	j	.LBB15_15
.Ltmp532:
.LBB15_10:
	.loc	1 396 14 is_stmt 1
	li	a0, 0
.Ltmp533:
	ret
.Ltmp534:
.LBB15_11:
	.loc	3 1441 52
	beq	a1, a3, .LBB15_14
.Ltmp535:
	.loc	3 0 52 is_stmt 0
	slt	a5, a3, a1
	li	a7, -1
	bnez	a5, .LBB15_3
	j	.LBB15_15
.Ltmp536:
.LBB15_13:
	sltu	a5, a0, a2
	li	a7, -1
	bnez	a5, .LBB15_3
	j	.LBB15_15
.Ltmp537:
.LBB15_14:
	sltu	a5, a2, a0
	li	a7, -1
	bnez	a5, .LBB15_3
.Ltmp538:
.LBB15_15:
	xor	a0, a0, a2
.Ltmp539:
	xor	a1, a1, a3
.Ltmp540:
	or	a0, a0, a1
	snez	a7, a0
.Ltmp541:
	.loc	1 396 14 is_stmt 1
	mv	a0, a7
	ret
.Ltmp542:
.Lfunc_end15:
	.size	__eqdf2, .Lfunc_end15-__eqdf2
	.cfi_endproc

	.section	.text._ZN17compiler_builtins5float4conv13__floatunsisf17h2a3e96320e7308aeE,"ax",@progbits
	.hidden	_ZN17compiler_builtins5float4conv13__floatunsisf17h2a3e96320e7308aeE
	.globl	_ZN17compiler_builtins5float4conv13__floatunsisf17h2a3e96320e7308aeE
	.p2align	1
	.type	_ZN17compiler_builtins5float4conv13__floatunsisf17h2a3e96320e7308aeE,@function
_ZN17compiler_builtins5float4conv13__floatunsisf17h2a3e96320e7308aeE:
.Lfunc_begin16:
	.loc	1 386 0
	.cfi_startproc
	.file	11 "/Users/georg/.cargo/registry/src/github.com-1ecc6299db9ec823/compiler_builtins-0.1.85" "src/float/conv.rs"
	.loc	11 9 12 prologue_end
	beqz	a0, .LBB16_2
.Ltmp543:
	.loc	5 131 13
	srli	a1, a0, 1
	or	a1, a1, a0
	srli	a2, a1, 2
	or	a1, a1, a2
	srli	a2, a1, 4
	or	a1, a1, a2
	srli	a2, a1, 8
	or	a1, a1, a2
	srli	a2, a1, 16
	or	a1, a1, a2
	not	a1, a1
	srli	a2, a1, 1
	lui	a3, 349525
	addi	a3, a3, 1365
	and	a2, a2, a3
	sub	a1, a1, a2
	lui	a2, 209715
	addi	a2, a2, 819
	and	a3, a1, a2
	srli	a1, a1, 2
	and	a1, a1, a2
	add	a1, a1, a3
	srli	a2, a1, 4
	add	a1, a1, a2
	lui	a2, 61681
	addi	a2, a2, -241
	and	a1, a1, a2
	lui	a2, 4112
	addi	a2, a2, 257
	mul	a1, a1, a2
	srli	a1, a1, 24
.Ltmp544:
	.loc	11 13 17
	sll	a0, a0, a1
.Ltmp545:
	srli	a2, a0, 8
.Ltmp546:
	.loc	11 14 17
	slli	a0, a0, 24
.Ltmp547:
	.loc	11 15 28
	srli	a3, a0, 31
	.loc	11 15 38 is_stmt 0
	not	a4, a2
	.loc	11 15 27
	and	a3, a3, a4
	.loc	11 15 22
	sub	a0, a0, a3
.Ltmp548:
	.loc	11 15 21
	srli	a0, a0, 31
.Ltmp549:
	.loc	11 15 17
	slli	a1, a1, 23
.Ltmp550:
	.loc	11 17 9 is_stmt 1
	sub	a1, a2, a1
	add	a0, a0, a1
	lui	a1, 321536
	add	a0, a0, a1
.Ltmp551:
.LBB16_2:
	.loc	1 389 10
	ret
.Ltmp552:
.Lfunc_end16:
	.size	_ZN17compiler_builtins5float4conv13__floatunsisf17h2a3e96320e7308aeE, .Lfunc_end16-_ZN17compiler_builtins5float4conv13__floatunsisf17h2a3e96320e7308aeE
	.cfi_endproc

	.section	.text.__floatunsisf,"ax",@progbits
	.hidden	__floatunsisf
	.globl	__floatunsisf
	.p2align	1
	.type	__floatunsisf,@function
__floatunsisf:
.Lfunc_begin17:
	.loc	1 394 0
	.cfi_startproc
	.loc	11 9 12 prologue_end
	beqz	a0, .LBB17_2
.Ltmp553:
	.loc	5 131 13
	srli	a1, a0, 1
	or	a1, a1, a0
	srli	a2, a1, 2
	or	a1, a1, a2
	srli	a2, a1, 4
	or	a1, a1, a2
	srli	a2, a1, 8
	or	a1, a1, a2
	srli	a2, a1, 16
	or	a1, a1, a2
	not	a1, a1
	srli	a2, a1, 1
	lui	a3, 349525
	addi	a3, a3, 1365
	and	a2, a2, a3
	sub	a1, a1, a2
	lui	a2, 209715
	addi	a2, a2, 819
	and	a3, a1, a2
	srli	a1, a1, 2
	and	a1, a1, a2
	add	a1, a1, a3
	srli	a2, a1, 4
	add	a1, a1, a2
	lui	a2, 61681
	addi	a2, a2, -241
	and	a1, a1, a2
	lui	a2, 4112
	addi	a2, a2, 257
	mul	a1, a1, a2
	srli	a1, a1, 24
.Ltmp554:
	.loc	11 13 17
	sll	a0, a0, a1
.Ltmp555:
	srli	a2, a0, 8
.Ltmp556:
	.loc	11 14 17
	slli	a0, a0, 24
.Ltmp557:
	.loc	11 15 28
	srli	a3, a0, 31
	.loc	11 15 38 is_stmt 0
	not	a4, a2
	.loc	11 15 27
	and	a3, a3, a4
	.loc	11 15 22
	sub	a0, a0, a3
.Ltmp558:
	.loc	11 15 21
	srli	a0, a0, 31
.Ltmp559:
	.loc	11 15 17
	slli	a1, a1, 23
.Ltmp560:
	.loc	11 17 9 is_stmt 1
	sub	a1, a2, a1
	add	a0, a0, a1
	lui	a1, 321536
	add	a0, a0, a1
.Ltmp561:
.LBB17_2:
	.loc	1 396 14
	ret
.Ltmp562:
.Lfunc_end17:
	.size	__floatunsisf, .Lfunc_end17-__floatunsisf
	.cfi_endproc

	.section	.text._ZN17compiler_builtins5float4conv13__floatunsidf17h2a594fa6cd7eaa1cE,"ax",@progbits
	.hidden	_ZN17compiler_builtins5float4conv13__floatunsidf17h2a594fa6cd7eaa1cE
	.globl	_ZN17compiler_builtins5float4conv13__floatunsidf17h2a594fa6cd7eaa1cE
	.p2align	1
	.type	_ZN17compiler_builtins5float4conv13__floatunsidf17h2a594fa6cd7eaa1cE,@function
_ZN17compiler_builtins5float4conv13__floatunsidf17h2a594fa6cd7eaa1cE:
.Lfunc_begin18:
	.loc	1 386 0
	.cfi_startproc
	.loc	11 21 12 prologue_end
	beqz	a0, .LBB18_3
.Ltmp563:
	.loc	5 131 13
	srli	a1, a0, 1
	or	a2, a0, a1
	srli	a3, a2, 2
	or	a2, a2, a3
	srli	a3, a2, 4
	or	a2, a2, a3
	srli	a3, a2, 8
	or	a2, a2, a3
	srli	a3, a2, 16
	or	a2, a2, a3
	not	a2, a2
	srli	a3, a2, 1
	lui	a4, 349525
	addi	a4, a4, 1365
	and	a3, a3, a4
	sub	a2, a2, a3
	lui	a3, 209715
	addi	a3, a3, 819
	and	a4, a2, a3
	srli	a2, a2, 2
	and	a2, a2, a3
	add	a2, a2, a4
	srli	a3, a2, 4
	add	a2, a2, a3
	lui	a3, 61681
	addi	a3, a3, -241
	and	a2, a2, a3
	lui	a3, 4112
	addi	a3, a3, 257
	mul	a2, a2, a3
	srli	a3, a2, 24
.Ltmp564:
	.loc	11 25 17
	addi	a4, a3, -11
	bltz	a4, .LBB18_4
.Ltmp565:
	.loc	11 0 17 is_stmt 0
	li	a2, 0
	sll	a1, a0, a4
	j	.LBB18_5
.Ltmp566:
.LBB18_3:
	li	a1, 0
	.loc	1 389 10 is_stmt 1
	li	a0, 0
.Ltmp567:
	ret
.LBB18_4:
.Ltmp568:
	.loc	1 0 10 is_stmt 0
	addi	a2, a3, 21
	xori	a4, a2, 31
	srl	a1, a1, a4
	sll	a2, a0, a2
.Ltmp569:
.LBB18_5:
	li	a0, 1053
.Ltmp570:
	.loc	11 26 17 is_stmt 1
	sub	a0, a0, a3
.Ltmp571:
	.loc	11 27 9
	slli	a0, a0, 20
.Ltmp572:
	add	a1, a1, a0
.Ltmp573:
	.loc	1 389 10
	mv	a0, a2
	ret
.Ltmp574:
.Lfunc_end18:
	.size	_ZN17compiler_builtins5float4conv13__floatunsidf17h2a594fa6cd7eaa1cE, .Lfunc_end18-_ZN17compiler_builtins5float4conv13__floatunsidf17h2a594fa6cd7eaa1cE
	.cfi_endproc

	.section	.text.__floatunsidf,"ax",@progbits
	.hidden	__floatunsidf
	.globl	__floatunsidf
	.p2align	1
	.type	__floatunsidf,@function
__floatunsidf:
.Lfunc_begin19:
	.loc	1 394 0
	.cfi_startproc
	.loc	11 21 12 prologue_end
	beqz	a0, .LBB19_3
.Ltmp575:
	.loc	5 131 13
	srli	a1, a0, 1
	or	a2, a0, a1
	srli	a3, a2, 2
	or	a2, a2, a3
	srli	a3, a2, 4
	or	a2, a2, a3
	srli	a3, a2, 8
	or	a2, a2, a3
	srli	a3, a2, 16
	or	a2, a2, a3
	not	a2, a2
	srli	a3, a2, 1
	lui	a4, 349525
	addi	a4, a4, 1365
	and	a3, a3, a4
	sub	a2, a2, a3
	lui	a3, 209715
	addi	a3, a3, 819
	and	a4, a2, a3
	srli	a2, a2, 2
	and	a2, a2, a3
	add	a2, a2, a4
	srli	a3, a2, 4
	add	a2, a2, a3
	lui	a3, 61681
	addi	a3, a3, -241
	and	a2, a2, a3
	lui	a3, 4112
	addi	a3, a3, 257
	mul	a2, a2, a3
	srli	a3, a2, 24
.Ltmp576:
	.loc	11 25 17
	addi	a4, a3, -11
	bltz	a4, .LBB19_4
.Ltmp577:
	.loc	11 0 17 is_stmt 0
	li	a2, 0
	sll	a1, a0, a4
	j	.LBB19_5
.Ltmp578:
.LBB19_3:
	li	a1, 0
	.loc	1 396 14 is_stmt 1
	li	a0, 0
.Ltmp579:
	ret
.LBB19_4:
.Ltmp580:
	.loc	1 0 14 is_stmt 0
	addi	a2, a3, 21
	xori	a4, a2, 31
	srl	a1, a1, a4
	sll	a2, a0, a2
.Ltmp581:
.LBB19_5:
	li	a0, 1053
.Ltmp582:
	.loc	11 26 17 is_stmt 1
	sub	a0, a0, a3
.Ltmp583:
	.loc	11 27 9
	slli	a0, a0, 20
.Ltmp584:
	add	a1, a1, a0
.Ltmp585:
	.loc	1 396 14
	mv	a0, a2
	ret
.Ltmp586:
.Lfunc_end19:
	.size	__floatunsidf, .Lfunc_end19-__floatunsidf
	.cfi_endproc

	.section	.text._ZN17compiler_builtins5float4conv13__floatundisf17h3b82d9f3eb161330E,"ax",@progbits
	.hidden	_ZN17compiler_builtins5float4conv13__floatundisf17h3b82d9f3eb161330E
	.globl	_ZN17compiler_builtins5float4conv13__floatundisf17h3b82d9f3eb161330E
	.p2align	1
	.type	_ZN17compiler_builtins5float4conv13__floatundisf17h3b82d9f3eb161330E,@function
_ZN17compiler_builtins5float4conv13__floatundisf17h3b82d9f3eb161330E:
.Lfunc_begin20:
	.loc	1 386 0
	.cfi_startproc
	lui	a2, 349525
	addi	a2, a2, 1365
	lui	a3, 209715
	addi	a5, a3, 819
	lui	a3, 61681
	addi	a7, a3, -241
	lui	a4, 4112
	addi	t0, a4, 257
.Ltmp587:
	.loc	5 131 13 prologue_end
	srli	a6, a0, 1
	bnez	a1, .LBB20_3
.Ltmp588:
	.loc	5 0 13 is_stmt 0
	or	a3, a0, a6
	srli	a4, a3, 2
	or	a3, a3, a4
	srli	a4, a3, 4
	or	a3, a3, a4
	srli	a4, a3, 8
	or	a3, a3, a4
	srli	a4, a3, 16
	or	a3, a3, a4
	not	a3, a3
	srli	a4, a3, 1
	and	a2, a2, a4
	sub	a2, a3, a2
	and	a3, a2, a5
	srli	a2, a2, 2
	and	a2, a2, a5
	add	a2, a2, a3
	srli	a3, a2, 4
	add	a2, a2, a3
	and	a2, a2, a7
	mul	a2, a2, t0
	srli	a2, a2, 24
	addi	a3, a2, 32
.Ltmp589:
	.loc	5 915 22 is_stmt 1
	andi	a5, a3, 63
	addi	a4, a5, -32
.Ltmp590:
	.loc	11 36 20
	or	a2, a0, a1
.Ltmp591:
	.loc	5 915 22
	bgez	a4, .LBB20_4
.Ltmp592:
.LBB20_2:
	.loc	5 0 22 is_stmt 0
	sll	a1, a1, a3
.Ltmp593:
	xori	a4, a5, 31
	srl	a4, a6, a4
	or	a4, a4, a1
	sll	a1, a0, a3
	j	.LBB20_5
.Ltmp594:
.LBB20_3:
	srli	a3, a1, 1
	or	a3, a3, a1
	srli	a4, a3, 2
	or	a3, a3, a4
	srli	a4, a3, 4
	or	a3, a3, a4
	srli	a4, a3, 8
	or	a3, a3, a4
	srli	a4, a3, 16
	or	a3, a3, a4
	not	a3, a3
	srli	a4, a3, 1
	and	a2, a2, a4
	sub	a2, a3, a2
	and	a3, a2, a5
	srli	a2, a2, 2
	and	a2, a2, a5
	add	a2, a2, a3
	srli	a3, a2, 4
	add	a2, a2, a3
	and	a2, a2, a7
	mul	a2, a2, t0
	srli	a3, a2, 24
.Ltmp595:
	.loc	5 915 22
	andi	a5, a3, 63
	addi	a4, a5, -32
.Ltmp596:
	.loc	11 36 20 is_stmt 1
	or	a2, a0, a1
.Ltmp597:
	.loc	5 915 22
	bltz	a4, .LBB20_2
.Ltmp598:
.LBB20_4:
	.loc	5 0 22 is_stmt 0
	li	a1, 0
.Ltmp599:
	sll	a4, a0, a4
.Ltmp600:
.LBB20_5:
	.loc	11 34 18 is_stmt 1
	srli	a0, a1, 8
.Ltmp601:
	slli	a5, a4, 24
	or	a5, a5, a0
.Ltmp602:
	.loc	11 33 17
	srli	a0, a4, 8
.Ltmp603:
	.loc	11 34 27
	slli	a1, a1, 16
.Ltmp604:
	srli	a1, a1, 16
	.loc	11 34 17 is_stmt 0
	or	a1, a1, a5
.Ltmp605:
	.loc	11 35 28 is_stmt 1
	srli	a4, a1, 31
.Ltmp606:
	.loc	11 35 38 is_stmt 0
	not	a5, a0
	.loc	11 35 27
	and	a4, a4, a5
	.loc	11 35 22
	sub	a1, a1, a4
.Ltmp607:
	.loc	11 35 21
	srli	a1, a1, 31
	.loc	11 35 17
	beqz	a2, .LBB20_7
.Ltmp608:
	.loc	11 0 17
	slli	a2, a3, 23
	sub	a0, a0, a2
.Ltmp609:
	lui	a2, 387072
	add	a0, a0, a2
.Ltmp610:
.LBB20_7:
	.loc	11 37 9 is_stmt 1
	add	a0, a0, a1
.Ltmp611:
	.loc	1 389 10
	ret
.Ltmp612:
.Lfunc_end20:
	.size	_ZN17compiler_builtins5float4conv13__floatundisf17h3b82d9f3eb161330E, .Lfunc_end20-_ZN17compiler_builtins5float4conv13__floatundisf17h3b82d9f3eb161330E
	.cfi_endproc

	.section	.text.__floatundisf,"ax",@progbits
	.hidden	__floatundisf
	.globl	__floatundisf
	.p2align	1
	.type	__floatundisf,@function
__floatundisf:
.Lfunc_begin21:
	.loc	1 394 0
	.cfi_startproc
	lui	a2, 349525
	addi	a2, a2, 1365
	lui	a3, 209715
	addi	a5, a3, 819
	lui	a3, 61681
	addi	a7, a3, -241
	lui	a4, 4112
	addi	t0, a4, 257
.Ltmp613:
	.loc	5 131 13 prologue_end
	srli	a6, a0, 1
	bnez	a1, .LBB21_3
.Ltmp614:
	.loc	5 0 13 is_stmt 0
	or	a3, a0, a6
	srli	a4, a3, 2
	or	a3, a3, a4
	srli	a4, a3, 4
	or	a3, a3, a4
	srli	a4, a3, 8
	or	a3, a3, a4
	srli	a4, a3, 16
	or	a3, a3, a4
	not	a3, a3
	srli	a4, a3, 1
	and	a2, a2, a4
	sub	a2, a3, a2
	and	a3, a2, a5
	srli	a2, a2, 2
	and	a2, a2, a5
	add	a2, a2, a3
	srli	a3, a2, 4
	add	a2, a2, a3
	and	a2, a2, a7
	mul	a2, a2, t0
	srli	a2, a2, 24
	addi	a3, a2, 32
.Ltmp615:
	.loc	5 915 22 is_stmt 1
	andi	a5, a3, 63
	addi	a4, a5, -32
.Ltmp616:
	.loc	11 36 20
	or	a2, a0, a1
.Ltmp617:
	.loc	5 915 22
	bgez	a4, .LBB21_4
.Ltmp618:
.LBB21_2:
	.loc	5 0 22 is_stmt 0
	sll	a1, a1, a3
.Ltmp619:
	xori	a4, a5, 31
	srl	a4, a6, a4
	or	a4, a4, a1
	sll	a1, a0, a3
	j	.LBB21_5
.Ltmp620:
.LBB21_3:
	srli	a3, a1, 1
	or	a3, a3, a1
	srli	a4, a3, 2
	or	a3, a3, a4
	srli	a4, a3, 4
	or	a3, a3, a4
	srli	a4, a3, 8
	or	a3, a3, a4
	srli	a4, a3, 16
	or	a3, a3, a4
	not	a3, a3
	srli	a4, a3, 1
	and	a2, a2, a4
	sub	a2, a3, a2
	and	a3, a2, a5
	srli	a2, a2, 2
	and	a2, a2, a5
	add	a2, a2, a3
	srli	a3, a2, 4
	add	a2, a2, a3
	and	a2, a2, a7
	mul	a2, a2, t0
	srli	a3, a2, 24
.Ltmp621:
	.loc	5 915 22
	andi	a5, a3, 63
	addi	a4, a5, -32
.Ltmp622:
	.loc	11 36 20 is_stmt 1
	or	a2, a0, a1
.Ltmp623:
	.loc	5 915 22
	bltz	a4, .LBB21_2
.Ltmp624:
.LBB21_4:
	.loc	5 0 22 is_stmt 0
	li	a1, 0
.Ltmp625:
	sll	a4, a0, a4
.Ltmp626:
.LBB21_5:
	.loc	11 34 18 is_stmt 1
	srli	a0, a1, 8
.Ltmp627:
	slli	a5, a4, 24
	or	a5, a5, a0
.Ltmp628:
	.loc	11 33 17
	srli	a0, a4, 8
.Ltmp629:
	.loc	11 34 27
	slli	a1, a1, 16
.Ltmp630:
	srli	a1, a1, 16
	.loc	11 34 17 is_stmt 0
	or	a1, a1, a5
.Ltmp631:
	.loc	11 35 28 is_stmt 1
	srli	a4, a1, 31
.Ltmp632:
	.loc	11 35 38 is_stmt 0
	not	a5, a0
	.loc	11 35 27
	and	a4, a4, a5
	.loc	11 35 22
	sub	a1, a1, a4
.Ltmp633:
	.loc	11 35 21
	srli	a1, a1, 31
	.loc	11 35 17
	beqz	a2, .LBB21_7
.Ltmp634:
	.loc	11 0 17
	slli	a2, a3, 23
	sub	a0, a0, a2
.Ltmp635:
	lui	a2, 387072
	add	a0, a0, a2
.Ltmp636:
.LBB21_7:
	.loc	11 37 9 is_stmt 1
	add	a0, a0, a1
.Ltmp637:
	.loc	1 396 14
	ret
.Ltmp638:
.Lfunc_end21:
	.size	__floatundisf, .Lfunc_end21-__floatundisf
	.cfi_endproc

	.section	.text._ZN17compiler_builtins5float4conv13__floatundidf17h68f487057c015f54E,"ax",@progbits
	.hidden	_ZN17compiler_builtins5float4conv13__floatundidf17h68f487057c015f54E
	.globl	_ZN17compiler_builtins5float4conv13__floatundidf17h68f487057c015f54E
	.p2align	1
	.type	_ZN17compiler_builtins5float4conv13__floatundidf17h68f487057c015f54E,@function
_ZN17compiler_builtins5float4conv13__floatundidf17h68f487057c015f54E:
.Lfunc_begin22:
	.loc	1 386 0
	.cfi_startproc
	.loc	11 41 12 prologue_end
	or	a2, a0, a1
	beqz	a2, .LBB22_4
.Ltmp639:
	.loc	5 131 13
	srli	a6, a0, 1
	lui	a2, 349525
	addi	a2, a2, 1365
	lui	a3, 209715
	addi	a5, a3, 819
	lui	a3, 61681
	addi	a7, a3, -241
	lui	a4, 4112
	addi	t0, a4, 257
	bnez	a1, .LBB22_5
.Ltmp640:
	.loc	5 0 13 is_stmt 0
	or	a3, a0, a6
	srli	a4, a3, 2
	or	a3, a3, a4
	srli	a4, a3, 4
	or	a3, a3, a4
	srli	a4, a3, 8
	or	a3, a3, a4
	srli	a4, a3, 16
	or	a3, a3, a4
	not	a3, a3
	srli	a4, a3, 1
	and	a2, a2, a4
	sub	a2, a3, a2
	and	a3, a2, a5
	srli	a2, a2, 2
	and	a2, a2, a5
	add	a2, a2, a3
	srli	a3, a2, 4
	add	a2, a2, a3
	and	a2, a2, a7
	mul	a2, a2, t0
	srli	a2, a2, 24
	addi	a3, a2, 32
.Ltmp641:
	.loc	11 45 17 is_stmt 1
	addi	a2, a3, -32
	bgez	a2, .LBB22_6
.Ltmp642:
.LBB22_3:
	.loc	11 0 17 is_stmt 0
	sll	a1, a1, a3
.Ltmp643:
	xori	a2, a3, 31
	srl	a2, a6, a2
	or	a2, a2, a1
	sll	a1, a0, a3
	j	.LBB22_7
.Ltmp644:
.LBB22_4:
	li	a0, 0
.Ltmp645:
	li	a1, 0
.Ltmp646:
	.loc	1 389 10 is_stmt 1
	ret
.LBB22_5:
.Ltmp647:
	.loc	1 0 10 is_stmt 0
	srli	a3, a1, 1
	or	a3, a3, a1
	srli	a4, a3, 2
	or	a3, a3, a4
	srli	a4, a3, 4
	or	a3, a3, a4
	srli	a4, a3, 8
	or	a3, a3, a4
	srli	a4, a3, 16
	or	a3, a3, a4
	not	a3, a3
	srli	a4, a3, 1
	and	a2, a2, a4
	sub	a2, a3, a2
	and	a3, a2, a5
	srli	a2, a2, 2
	and	a2, a2, a5
	add	a2, a2, a3
	srli	a3, a2, 4
	add	a2, a2, a3
	and	a2, a2, a7
	mul	a2, a2, t0
	srli	a3, a2, 24
.Ltmp648:
	.loc	11 45 17 is_stmt 1
	addi	a2, a3, -32
	bltz	a2, .LBB22_3
.Ltmp649:
.LBB22_6:
	.loc	11 0 17 is_stmt 0
	li	a1, 0
.Ltmp650:
	sll	a2, a0, a2
.Ltmp651:
.LBB22_7:
	.loc	11 45 17
	srli	a0, a1, 11
.Ltmp652:
	slli	a4, a2, 21
	or	a4, a4, a0
	srli	a0, a2, 11
.Ltmp653:
	.loc	11 46 17 is_stmt 1
	slli	a1, a1, 21
.Ltmp654:
	.loc	11 47 28
	srli	a2, a1, 31
	.loc	11 47 38 is_stmt 0
	not	a5, a4
	.loc	11 47 27
	and	a2, a2, a5
	.loc	11 47 22
	sub	a1, a1, a2
.Ltmp655:
	.loc	11 47 21
	srli	a1, a1, 31
.Ltmp656:
	.loc	11 49 9 is_stmt 1
	slli	a2, a3, 20
.Ltmp657:
	.loc	11 47 17
	sub	a2, a0, a2
.Ltmp658:
	.loc	11 49 9
	add	a0, a4, a1
.Ltmp659:
	sltu	a1, a0, a4
	add	a1, a1, a2
	lui	a2, 277760
	add	a1, a1, a2
.Ltmp660:
	.loc	1 389 10
	ret
.Ltmp661:
.Lfunc_end22:
	.size	_ZN17compiler_builtins5float4conv13__floatundidf17h68f487057c015f54E, .Lfunc_end22-_ZN17compiler_builtins5float4conv13__floatundidf17h68f487057c015f54E
	.cfi_endproc

	.section	.text.__floatundidf,"ax",@progbits
	.hidden	__floatundidf
	.globl	__floatundidf
	.p2align	1
	.type	__floatundidf,@function
__floatundidf:
.Lfunc_begin23:
	.loc	1 394 0
	.cfi_startproc
	.loc	11 41 12 prologue_end
	or	a2, a0, a1
	beqz	a2, .LBB23_4
.Ltmp662:
	.loc	5 131 13
	srli	a6, a0, 1
	lui	a2, 349525
	addi	a2, a2, 1365
	lui	a3, 209715
	addi	a5, a3, 819
	lui	a3, 61681
	addi	a7, a3, -241
	lui	a4, 4112
	addi	t0, a4, 257
	bnez	a1, .LBB23_5
.Ltmp663:
	.loc	5 0 13 is_stmt 0
	or	a3, a0, a6
	srli	a4, a3, 2
	or	a3, a3, a4
	srli	a4, a3, 4
	or	a3, a3, a4
	srli	a4, a3, 8
	or	a3, a3, a4
	srli	a4, a3, 16
	or	a3, a3, a4
	not	a3, a3
	srli	a4, a3, 1
	and	a2, a2, a4
	sub	a2, a3, a2
	and	a3, a2, a5
	srli	a2, a2, 2
	and	a2, a2, a5
	add	a2, a2, a3
	srli	a3, a2, 4
	add	a2, a2, a3
	and	a2, a2, a7
	mul	a2, a2, t0
	srli	a2, a2, 24
	addi	a3, a2, 32
.Ltmp664:
	.loc	11 45 17 is_stmt 1
	addi	a2, a3, -32
	bgez	a2, .LBB23_6
.Ltmp665:
.LBB23_3:
	.loc	11 0 17 is_stmt 0
	sll	a1, a1, a3
.Ltmp666:
	xori	a2, a3, 31
	srl	a2, a6, a2
	or	a2, a2, a1
	sll	a1, a0, a3
	j	.LBB23_7
.Ltmp667:
.LBB23_4:
	li	a0, 0
.Ltmp668:
	li	a1, 0
.Ltmp669:
	.loc	1 396 14 is_stmt 1
	ret
.LBB23_5:
.Ltmp670:
	.loc	1 0 14 is_stmt 0
	srli	a3, a1, 1
	or	a3, a3, a1
	srli	a4, a3, 2
	or	a3, a3, a4
	srli	a4, a3, 4
	or	a3, a3, a4
	srli	a4, a3, 8
	or	a3, a3, a4
	srli	a4, a3, 16
	or	a3, a3, a4
	not	a3, a3
	srli	a4, a3, 1
	and	a2, a2, a4
	sub	a2, a3, a2
	and	a3, a2, a5
	srli	a2, a2, 2
	and	a2, a2, a5
	add	a2, a2, a3
	srli	a3, a2, 4
	add	a2, a2, a3
	and	a2, a2, a7
	mul	a2, a2, t0
	srli	a3, a2, 24
.Ltmp671:
	.loc	11 45 17 is_stmt 1
	addi	a2, a3, -32
	bltz	a2, .LBB23_3
.Ltmp672:
.LBB23_6:
	.loc	11 0 17 is_stmt 0
	li	a1, 0
.Ltmp673:
	sll	a2, a0, a2
.Ltmp674:
.LBB23_7:
	.loc	11 45 17
	srli	a0, a1, 11
.Ltmp675:
	slli	a4, a2, 21
	or	a4, a4, a0
	srli	a0, a2, 11
.Ltmp676:
	.loc	11 46 17 is_stmt 1
	slli	a1, a1, 21
.Ltmp677:
	.loc	11 47 28
	srli	a2, a1, 31
	.loc	11 47 38 is_stmt 0
	not	a5, a4
	.loc	11 47 27
	and	a2, a2, a5
	.loc	11 47 22
	sub	a1, a1, a2
.Ltmp678:
	.loc	11 47 21
	srli	a1, a1, 31
.Ltmp679:
	.loc	11 49 9 is_stmt 1
	slli	a2, a3, 20
.Ltmp680:
	.loc	11 47 17
	sub	a2, a0, a2
.Ltmp681:
	.loc	11 49 9
	add	a0, a4, a1
.Ltmp682:
	sltu	a1, a0, a4
	add	a1, a1, a2
	lui	a2, 277760
	add	a1, a1, a2
.Ltmp683:
	.loc	1 396 14
	ret
.Ltmp684:
.Lfunc_end23:
	.size	__floatundidf, .Lfunc_end23-__floatundidf
	.cfi_endproc

	.section	.text._ZN17compiler_builtins5float4conv13__floatuntisf17h60f9b2616a409d87E,"ax",@progbits
	.hidden	_ZN17compiler_builtins5float4conv13__floatuntisf17h60f9b2616a409d87E
	.globl	_ZN17compiler_builtins5float4conv13__floatuntisf17h60f9b2616a409d87E
	.p2align	1
	.type	_ZN17compiler_builtins5float4conv13__floatuntisf17h60f9b2616a409d87E,@function
_ZN17compiler_builtins5float4conv13__floatuntisf17h60f9b2616a409d87E:
.Lfunc_begin24:
	.loc	1 386 0
	.cfi_startproc
	addi	sp, sp, -16
	.cfi_def_cfa_offset 16
	sw	s0, 12(sp)
	sw	s1, 8(sp)
	sw	s2, 4(sp)
	.cfi_offset s0, -4
	.cfi_offset s1, -8
	.cfi_offset s2, -12
	lw	t2, 0(a0)
	lw	t4, 4(a0)
	lw	t5, 8(a0)
	lw	t6, 12(a0)
.Ltmp685:
	lui	a0, 349525
	addi	a4, a0, 1365
	lui	a0, 209715
	addi	a1, a0, 819
	lui	a0, 61681
	addi	a5, a0, -241
	lui	a0, 4112
	addi	t0, a0, 257
.Ltmp686:
	.loc	5 131 13 prologue_end
	srli	a6, t5, 1
	bnez	t6, .LBB24_3
.Ltmp687:
	.loc	5 0 13 is_stmt 0
	or	a0, t5, a6
	srli	a2, a0, 2
	or	a0, a0, a2
	srli	a2, a0, 4
	or	a0, a0, a2
	srli	a2, a0, 8
	or	a0, a0, a2
	srli	a2, a0, 16
	or	a0, a0, a2
	not	a0, a0
	srli	a2, a0, 1
	and	a2, a2, a4
	sub	a0, a0, a2
	and	a2, a0, a1
	srli	a0, a0, 2
	and	a0, a0, a1
	add	a0, a0, a2
	srli	a2, a0, 4
	add	a0, a0, a2
	and	a0, a0, a5
	mul	a0, a0, t0
	srli	a0, a0, 24
	addi	t1, a0, 32
	.loc	5 131 13
	srli	a7, t2, 1
	beqz	t4, .LBB24_4
.LBB24_2:
	.loc	5 0 13
	srli	a0, t4, 1
	or	a0, t4, a0
	srli	a2, a0, 2
	or	a0, a0, a2
	srli	a2, a0, 4
	or	a0, a0, a2
	srli	a2, a0, 8
	or	a0, a0, a2
	srli	a2, a0, 16
	or	a0, a0, a2
	not	a0, a0
	srli	a2, a0, 1
	and	a2, a2, a4
	sub	a0, a0, a2
	and	a2, a0, a1
	srli	a0, a0, 2
	and	a0, a0, a1
	add	a0, a0, a2
	srli	a1, a0, 4
	add	a0, a0, a1
	and	a0, a0, a5
	mul	a0, a0, t0
	srli	a0, a0, 24
	.loc	5 131 13
	or	a1, t5, t6
	beqz	a1, .LBB24_5
	j	.LBB24_6
.LBB24_3:
	.loc	5 0 13
	srli	a0, t6, 1
	or	a0, t6, a0
	srli	a2, a0, 2
	or	a0, a0, a2
	srli	a2, a0, 4
	or	a0, a0, a2
	srli	a2, a0, 8
	or	a0, a0, a2
	srli	a2, a0, 16
	or	a0, a0, a2
	not	a0, a0
	srli	a2, a0, 1
	and	a2, a2, a4
	sub	a0, a0, a2
	and	a2, a0, a1
	srli	a0, a0, 2
	and	a0, a0, a1
	add	a0, a0, a2
	srli	a2, a0, 4
	add	a0, a0, a2
	and	a0, a0, a5
	mul	a0, a0, t0
	srli	t1, a0, 24
	.loc	5 131 13
	srli	a7, t2, 1
	bnez	t4, .LBB24_2
.LBB24_4:
	.loc	5 0 13
	or	a0, t2, a7
	srli	a2, a0, 2
	or	a0, a0, a2
	srli	a2, a0, 4
	or	a0, a0, a2
	srli	a2, a0, 8
	or	a0, a0, a2
	srli	a2, a0, 16
	or	a0, a0, a2
	not	a0, a0
	srli	a2, a0, 1
	and	a2, a2, a4
	sub	a0, a0, a2
	and	a2, a0, a1
	srli	a0, a0, 2
	and	a0, a0, a1
	add	a0, a0, a2
	srli	a1, a0, 4
	add	a0, a0, a1
	and	a0, a0, a5
	mul	a0, a0, t0
	srli	a0, a0, 24
	addi	a0, a0, 32
	.loc	5 131 13
	or	a1, t5, t6
	bnez	a1, .LBB24_6
.Ltmp688:
.LBB24_5:
	.loc	5 0 13
	addi	t1, a0, 64
.LBB24_6:
.Ltmp689:
	.loc	5 915 22 is_stmt 1
	andi	a5, t1, 127
	neg	a0, a5
	li	t0, 64
	li	a1, 32
	sub	a2, a1, a5
	srl	t3, t4, a0
	bltz	a2, .LBB24_8
.Ltmp690:
	.loc	5 0 22 is_stmt 0
	mv	a3, t3
	.loc	5 915 22
	addi	a1, a5, -32
	bltz	a1, .LBB24_9
	j	.LBB24_10
.Ltmp691:
.LBB24_8:
	.loc	5 0 22
	srl	a0, t2, a0
	sub	a1, t0, a5
	xori	a1, a1, 31
	slli	a3, t4, 1
	sll	a1, a3, a1
	or	a3, a0, a1
	.loc	5 915 22
	addi	a1, a5, -32
	bgez	a1, .LBB24_10
.Ltmp692:
.LBB24_9:
	.loc	5 0 22
	sll	a0, t5, t1
	or	a3, a3, a0
.Ltmp693:
.LBB24_10:
	.loc	5 915 22
	addi	s0, a5, -96
	addi	a0, a5, -64
	bltz	s0, .LBB24_12
.Ltmp694:
	.loc	5 0 22
	li	a4, 0
	.loc	5 915 22
	bgeu	a5, t0, .LBB24_13
	j	.LBB24_14
.Ltmp695:
.LBB24_12:
	.loc	5 0 22
	sll	a4, t2, a0
	.loc	5 915 22
	bltu	a5, t0, .LBB24_14
.Ltmp696:
.LBB24_13:
	.loc	5 0 22
	mv	a3, a4
.Ltmp697:
.LBB24_14:
	mv	a4, t5
	.loc	5 915 22
	bnez	a5, .LBB24_17
.Ltmp698:
	xori	s2, a5, 31
	bltz	a1, .LBB24_18
.Ltmp699:
.LBB24_16:
	.loc	5 0 22
	sll	a3, t5, a1
	.loc	5 915 22
	bltz	a2, .LBB24_19
	j	.LBB24_20
.Ltmp700:
.LBB24_17:
	.loc	5 0 22
	mv	a4, a3
	.loc	5 915 22
	xori	s2, a5, 31
	bgez	a1, .LBB24_16
.Ltmp701:
.LBB24_18:
	.loc	5 0 22
	sll	a3, t6, t1
	srl	s1, a6, s2
	or	a3, a3, s1
	.loc	5 915 22
	bgez	a2, .LBB24_20
.Ltmp702:
.LBB24_19:
	.loc	5 0 22
	or	a3, a3, t3
.Ltmp703:
.LBB24_20:
	.loc	5 915 22
	bltz	s0, .LBB24_22
.Ltmp704:
	.loc	5 0 22
	sll	a0, t2, s0
	.loc	5 915 22
	bgeu	a5, t0, .LBB24_23
	j	.LBB24_24
.Ltmp705:
.LBB24_22:
	.loc	5 0 22
	sll	a2, t4, a0
	xori	a0, a0, 31
	srl	a0, a7, a0
	or	a0, a0, a2
	.loc	5 915 22
	bltu	a5, t0, .LBB24_24
.Ltmp706:
.LBB24_23:
	.loc	5 0 22
	mv	a3, a0
.Ltmp707:
.LBB24_24:
	mv	a0, t6
	.loc	5 915 22
	bnez	a5, .LBB24_27
.Ltmp708:
	bltz	a1, .LBB24_28
.Ltmp709:
.LBB24_26:
	.loc	5 0 22
	sll	a6, t2, a1
	mv	a1, a4
	j	.LBB24_29
.Ltmp710:
.LBB24_27:
	mv	a0, a3
	.loc	5 915 22
	bgez	a1, .LBB24_26
.Ltmp711:
.LBB24_28:
	.loc	5 0 22
	sll	a1, t4, t1
	srl	a2, a7, s2
	or	a6, a1, a2
	sll	a1, t2, t1
	or	a1, a1, a4
.Ltmp712:
.LBB24_29:
	or	a3, t4, t6
	or	s1, t2, t5
.Ltmp713:
	slli	s0, a0, 24
	srli	a2, a4, 8
.Ltmp714:
	.loc	11 56 36 is_stmt 1
	bltu	a5, t0, .LBB24_31
.Ltmp715:
	.loc	11 0 36 is_stmt 0
	mv	a1, a4
.Ltmp716:
.LBB24_31:
	or	a3, a3, s1
.Ltmp717:
	or	a4, a2, s0
	srli	a0, a0, 8
.Ltmp718:
	.loc	11 56 36
	bgeu	a5, t0, .LBB24_33
.Ltmp719:
	.loc	11 0 36
	or	a1, a1, a6
.Ltmp720:
.LBB24_33:
	.loc	11 56 36
	snez	a1, a1
.Ltmp721:
	.loc	11 56 17
	or	a1, a1, a4
.Ltmp722:
	.loc	11 57 28 is_stmt 1
	srli	a2, a4, 31
	.loc	11 57 38 is_stmt 0
	not	a4, a0
	.loc	11 57 27
	and	a2, a2, a4
	.loc	11 57 22
	sub	a1, a1, a2
	.loc	11 57 21
	srli	a1, a1, 31
	.loc	11 57 17
	beqz	a3, .LBB24_35
.Ltmp723:
	.loc	11 0 17
	slli	a2, t1, 23
	sub	a0, a0, a2
.Ltmp724:
	lui	a2, 518144
	add	a0, a0, a2
.Ltmp725:
.LBB24_35:
	.loc	11 59 9 is_stmt 1
	add	a0, a0, a1
.Ltmp726:
	.loc	1 389 10
	lw	s0, 12(sp)
	lw	s1, 8(sp)
	lw	s2, 4(sp)
	addi	sp, sp, 16
	ret
.Ltmp727:
.Lfunc_end24:
	.size	_ZN17compiler_builtins5float4conv13__floatuntisf17h60f9b2616a409d87E, .Lfunc_end24-_ZN17compiler_builtins5float4conv13__floatuntisf17h60f9b2616a409d87E
	.cfi_endproc

	.section	.text.__floatuntisf,"ax",@progbits
	.hidden	__floatuntisf
	.globl	__floatuntisf
	.p2align	1
	.type	__floatuntisf,@function
__floatuntisf:
.Lfunc_begin25:
	.loc	1 394 0
	.cfi_startproc
	addi	sp, sp, -16
	.cfi_def_cfa_offset 16
	sw	s0, 12(sp)
	sw	s1, 8(sp)
	sw	s2, 4(sp)
	.cfi_offset s0, -4
	.cfi_offset s1, -8
	.cfi_offset s2, -12
	lw	t2, 0(a0)
	lw	t4, 4(a0)
	lw	t5, 8(a0)
	lw	t6, 12(a0)
.Ltmp728:
	lui	a0, 349525
	addi	a4, a0, 1365
	lui	a0, 209715
	addi	a1, a0, 819
	lui	a0, 61681
	addi	a5, a0, -241
	lui	a0, 4112
	addi	t0, a0, 257
.Ltmp729:
	.loc	5 131 13 prologue_end
	srli	a6, t5, 1
	bnez	t6, .LBB25_3
.Ltmp730:
	.loc	5 0 13 is_stmt 0
	or	a0, t5, a6
	srli	a2, a0, 2
	or	a0, a0, a2
	srli	a2, a0, 4
	or	a0, a0, a2
	srli	a2, a0, 8
	or	a0, a0, a2
	srli	a2, a0, 16
	or	a0, a0, a2
	not	a0, a0
	srli	a2, a0, 1
	and	a2, a2, a4
	sub	a0, a0, a2
	and	a2, a0, a1
	srli	a0, a0, 2
	and	a0, a0, a1
	add	a0, a0, a2
	srli	a2, a0, 4
	add	a0, a0, a2
	and	a0, a0, a5
	mul	a0, a0, t0
	srli	a0, a0, 24
	addi	t1, a0, 32
	.loc	5 131 13
	srli	a7, t2, 1
	beqz	t4, .LBB25_4
.LBB25_2:
	.loc	5 0 13
	srli	a0, t4, 1
	or	a0, t4, a0
	srli	a2, a0, 2
	or	a0, a0, a2
	srli	a2, a0, 4
	or	a0, a0, a2
	srli	a2, a0, 8
	or	a0, a0, a2
	srli	a2, a0, 16
	or	a0, a0, a2
	not	a0, a0
	srli	a2, a0, 1
	and	a2, a2, a4
	sub	a0, a0, a2
	and	a2, a0, a1
	srli	a0, a0, 2
	and	a0, a0, a1
	add	a0, a0, a2
	srli	a1, a0, 4
	add	a0, a0, a1
	and	a0, a0, a5
	mul	a0, a0, t0
	srli	a0, a0, 24
	.loc	5 131 13
	or	a1, t5, t6
	beqz	a1, .LBB25_5
	j	.LBB25_6
.LBB25_3:
	.loc	5 0 13
	srli	a0, t6, 1
	or	a0, t6, a0
	srli	a2, a0, 2
	or	a0, a0, a2
	srli	a2, a0, 4
	or	a0, a0, a2
	srli	a2, a0, 8
	or	a0, a0, a2
	srli	a2, a0, 16
	or	a0, a0, a2
	not	a0, a0
	srli	a2, a0, 1
	and	a2, a2, a4
	sub	a0, a0, a2
	and	a2, a0, a1
	srli	a0, a0, 2
	and	a0, a0, a1
	add	a0, a0, a2
	srli	a2, a0, 4
	add	a0, a0, a2
	and	a0, a0, a5
	mul	a0, a0, t0
	srli	t1, a0, 24
	.loc	5 131 13
	srli	a7, t2, 1
	bnez	t4, .LBB25_2
.LBB25_4:
	.loc	5 0 13
	or	a0, t2, a7
	srli	a2, a0, 2
	or	a0, a0, a2
	srli	a2, a0, 4
	or	a0, a0, a2
	srli	a2, a0, 8
	or	a0, a0, a2
	srli	a2, a0, 16
	or	a0, a0, a2
	not	a0, a0
	srli	a2, a0, 1
	and	a2, a2, a4
	sub	a0, a0, a2
	and	a2, a0, a1
	srli	a0, a0, 2
	and	a0, a0, a1
	add	a0, a0, a2
	srli	a1, a0, 4
	add	a0, a0, a1
	and	a0, a0, a5
	mul	a0, a0, t0
	srli	a0, a0, 24
	addi	a0, a0, 32
	.loc	5 131 13
	or	a1, t5, t6
	bnez	a1, .LBB25_6
.Ltmp731:
.LBB25_5:
	.loc	5 0 13
	addi	t1, a0, 64
.LBB25_6:
.Ltmp732:
	.loc	5 915 22 is_stmt 1
	andi	a5, t1, 127
	neg	a0, a5
	li	t0, 64
	li	a1, 32
	sub	a2, a1, a5
	srl	t3, t4, a0
	bltz	a2, .LBB25_8
.Ltmp733:
	.loc	5 0 22 is_stmt 0
	mv	a3, t3
	.loc	5 915 22
	addi	a1, a5, -32
	bltz	a1, .LBB25_9
	j	.LBB25_10
.Ltmp734:
.LBB25_8:
	.loc	5 0 22
	srl	a0, t2, a0
	sub	a1, t0, a5
	xori	a1, a1, 31
	slli	a3, t4, 1
	sll	a1, a3, a1
	or	a3, a0, a1
	.loc	5 915 22
	addi	a1, a5, -32
	bgez	a1, .LBB25_10
.Ltmp735:
.LBB25_9:
	.loc	5 0 22
	sll	a0, t5, t1
	or	a3, a3, a0
.Ltmp736:
.LBB25_10:
	.loc	5 915 22
	addi	s0, a5, -96
	addi	a0, a5, -64
	bltz	s0, .LBB25_12
.Ltmp737:
	.loc	5 0 22
	li	a4, 0
	.loc	5 915 22
	bgeu	a5, t0, .LBB25_13
	j	.LBB25_14
.Ltmp738:
.LBB25_12:
	.loc	5 0 22
	sll	a4, t2, a0
	.loc	5 915 22
	bltu	a5, t0, .LBB25_14
.Ltmp739:
.LBB25_13:
	.loc	5 0 22
	mv	a3, a4
.Ltmp740:
.LBB25_14:
	mv	a4, t5
	.loc	5 915 22
	bnez	a5, .LBB25_17
.Ltmp741:
	xori	s2, a5, 31
	bltz	a1, .LBB25_18
.Ltmp742:
.LBB25_16:
	.loc	5 0 22
	sll	a3, t5, a1
	.loc	5 915 22
	bltz	a2, .LBB25_19
	j	.LBB25_20
.Ltmp743:
.LBB25_17:
	.loc	5 0 22
	mv	a4, a3
	.loc	5 915 22
	xori	s2, a5, 31
	bgez	a1, .LBB25_16
.Ltmp744:
.LBB25_18:
	.loc	5 0 22
	sll	a3, t6, t1
	srl	s1, a6, s2
	or	a3, a3, s1
	.loc	5 915 22
	bgez	a2, .LBB25_20
.Ltmp745:
.LBB25_19:
	.loc	5 0 22
	or	a3, a3, t3
.Ltmp746:
.LBB25_20:
	.loc	5 915 22
	bltz	s0, .LBB25_22
.Ltmp747:
	.loc	5 0 22
	sll	a0, t2, s0
	.loc	5 915 22
	bgeu	a5, t0, .LBB25_23
	j	.LBB25_24
.Ltmp748:
.LBB25_22:
	.loc	5 0 22
	sll	a2, t4, a0
	xori	a0, a0, 31
	srl	a0, a7, a0
	or	a0, a0, a2
	.loc	5 915 22
	bltu	a5, t0, .LBB25_24
.Ltmp749:
.LBB25_23:
	.loc	5 0 22
	mv	a3, a0
.Ltmp750:
.LBB25_24:
	mv	a0, t6
	.loc	5 915 22
	bnez	a5, .LBB25_27
.Ltmp751:
	bltz	a1, .LBB25_28
.Ltmp752:
.LBB25_26:
	.loc	5 0 22
	sll	a6, t2, a1
	mv	a1, a4
	j	.LBB25_29
.Ltmp753:
.LBB25_27:
	mv	a0, a3
	.loc	5 915 22
	bgez	a1, .LBB25_26
.Ltmp754:
.LBB25_28:
	.loc	5 0 22
	sll	a1, t4, t1
	srl	a2, a7, s2
	or	a6, a1, a2
	sll	a1, t2, t1
	or	a1, a1, a4
.Ltmp755:
.LBB25_29:
	or	a3, t4, t6
	or	s1, t2, t5
.Ltmp756:
	slli	s0, a0, 24
	srli	a2, a4, 8
.Ltmp757:
	.loc	11 56 36 is_stmt 1
	bltu	a5, t0, .LBB25_31
.Ltmp758:
	.loc	11 0 36 is_stmt 0
	mv	a1, a4
.Ltmp759:
.LBB25_31:
	or	a3, a3, s1
.Ltmp760:
	or	a4, a2, s0
	srli	a0, a0, 8
.Ltmp761:
	.loc	11 56 36
	bgeu	a5, t0, .LBB25_33
.Ltmp762:
	.loc	11 0 36
	or	a1, a1, a6
.Ltmp763:
.LBB25_33:
	.loc	11 56 36
	snez	a1, a1
.Ltmp764:
	.loc	11 56 17
	or	a1, a1, a4
.Ltmp765:
	.loc	11 57 28 is_stmt 1
	srli	a2, a4, 31
	.loc	11 57 38 is_stmt 0
	not	a4, a0
	.loc	11 57 27
	and	a2, a2, a4
	.loc	11 57 22
	sub	a1, a1, a2
	.loc	11 57 21
	srli	a1, a1, 31
	.loc	11 57 17
	beqz	a3, .LBB25_35
.Ltmp766:
	.loc	11 0 17
	slli	a2, t1, 23
	sub	a0, a0, a2
.Ltmp767:
	lui	a2, 518144
	add	a0, a0, a2
.Ltmp768:
.LBB25_35:
	.loc	11 59 9 is_stmt 1
	add	a0, a0, a1
.Ltmp769:
	.loc	1 396 14
	lw	s0, 12(sp)
	lw	s1, 8(sp)
	lw	s2, 4(sp)
	addi	sp, sp, 16
	ret
.Ltmp770:
.Lfunc_end25:
	.size	__floatuntisf, .Lfunc_end25-__floatuntisf
	.cfi_endproc

	.section	.text._ZN17compiler_builtins5float4conv13__floatuntidf17h259d41ee19e8bd0bE,"ax",@progbits
	.hidden	_ZN17compiler_builtins5float4conv13__floatuntidf17h259d41ee19e8bd0bE
	.globl	_ZN17compiler_builtins5float4conv13__floatuntidf17h259d41ee19e8bd0bE
	.p2align	1
	.type	_ZN17compiler_builtins5float4conv13__floatuntidf17h259d41ee19e8bd0bE,@function
_ZN17compiler_builtins5float4conv13__floatuntidf17h259d41ee19e8bd0bE:
.Lfunc_begin26:
	.loc	1 386 0
	.cfi_startproc
	addi	sp, sp, -16
	.cfi_def_cfa_offset 16
	sw	s0, 12(sp)
	sw	s1, 8(sp)
	sw	s2, 4(sp)
	.cfi_offset s0, -4
	.cfi_offset s1, -8
	.cfi_offset s2, -12
	lw	t2, 0(a0)
	lw	t3, 4(a0)
	lw	t4, 8(a0)
	lw	t5, 12(a0)
.Ltmp771:
	lui	a0, 349525
	addi	a4, a0, 1365
	lui	a0, 209715
	addi	a1, a0, 819
	lui	a0, 61681
	addi	t0, a0, -241
	lui	a0, 4112
	addi	a5, a0, 257
.Ltmp772:
	.loc	5 131 13 prologue_end
	srli	a7, t4, 1
	bnez	t5, .LBB26_3
.Ltmp773:
	.loc	5 0 13 is_stmt 0
	or	a0, t4, a7
	srli	a2, a0, 2
	or	a0, a0, a2
	srli	a2, a0, 4
	or	a0, a0, a2
	srli	a2, a0, 8
	or	a0, a0, a2
	srli	a2, a0, 16
	or	a0, a0, a2
	not	a0, a0
	srli	a2, a0, 1
	and	a2, a2, a4
	sub	a0, a0, a2
	and	a2, a0, a1
	srli	a0, a0, 2
	and	a0, a0, a1
	add	a0, a0, a2
	srli	a2, a0, 4
	add	a0, a0, a2
	and	a0, a0, t0
	mul	a0, a0, a5
	srli	a0, a0, 24
	addi	t1, a0, 32
	.loc	5 131 13
	srli	a6, t2, 1
	beqz	t3, .LBB26_4
.LBB26_2:
	.loc	5 0 13
	srli	a0, t3, 1
	or	a0, t3, a0
	srli	a2, a0, 2
	or	a0, a0, a2
	srli	a2, a0, 4
	or	a0, a0, a2
	srli	a2, a0, 8
	or	a0, a0, a2
	srli	a2, a0, 16
	or	a0, a0, a2
	not	a0, a0
	srli	a2, a0, 1
	and	a2, a2, a4
	sub	a0, a0, a2
	and	a2, a0, a1
	srli	a0, a0, 2
	and	a0, a0, a1
	add	a0, a0, a2
	srli	a1, a0, 4
	add	a0, a0, a1
	and	a0, a0, t0
	mul	a0, a0, a5
	srli	a0, a0, 24
	.loc	5 131 13
	or	a1, t4, t5
	beqz	a1, .LBB26_5
	j	.LBB26_6
.LBB26_3:
	.loc	5 0 13
	srli	a0, t5, 1
	or	a0, t5, a0
	srli	a2, a0, 2
	or	a0, a0, a2
	srli	a2, a0, 4
	or	a0, a0, a2
	srli	a2, a0, 8
	or	a0, a0, a2
	srli	a2, a0, 16
	or	a0, a0, a2
	not	a0, a0
	srli	a2, a0, 1
	and	a2, a2, a4
	sub	a0, a0, a2
	and	a2, a0, a1
	srli	a0, a0, 2
	and	a0, a0, a1
	add	a0, a0, a2
	srli	a2, a0, 4
	add	a0, a0, a2
	and	a0, a0, t0
	mul	a0, a0, a5
	srli	t1, a0, 24
	.loc	5 131 13
	srli	a6, t2, 1
	bnez	t3, .LBB26_2
.LBB26_4:
	.loc	5 0 13
	or	a0, t2, a6
	srli	a2, a0, 2
	or	a0, a0, a2
	srli	a2, a0, 4
	or	a0, a0, a2
	srli	a2, a0, 8
	or	a0, a0, a2
	srli	a2, a0, 16
	or	a0, a0, a2
	not	a0, a0
	srli	a2, a0, 1
	and	a2, a2, a4
	sub	a0, a0, a2
	and	a2, a0, a1
	srli	a0, a0, 2
	and	a0, a0, a1
	add	a0, a0, a2
	srli	a1, a0, 4
	add	a0, a0, a1
	and	a0, a0, t0
	mul	a0, a0, a5
	srli	a0, a0, 24
	addi	a0, a0, 32
	.loc	5 131 13
	or	a1, t4, t5
	bnez	a1, .LBB26_6
.Ltmp774:
.LBB26_5:
	.loc	5 0 13
	addi	t1, a0, 64
.LBB26_6:
.Ltmp775:
	.loc	5 915 22 is_stmt 1
	andi	a5, t1, 127
	addi	a4, a5, -32
	xori	t0, a5, 31
	bltz	a4, .LBB26_8
.Ltmp776:
	.loc	5 0 22 is_stmt 0
	sll	a0, t4, a4
	j	.LBB26_9
.Ltmp777:
.LBB26_8:
	sll	a0, t5, t1
	srl	a1, a7, t0
	or	a0, a0, a1
.Ltmp778:
.LBB26_9:
	.loc	5 915 22
	neg	s0, a5
	li	a1, 32
	sub	s1, a1, a5
	srl	a1, t3, s0
	bgez	s1, .LBB26_11
.Ltmp779:
	.loc	5 0 22
	or	a0, a0, a1
.Ltmp780:
.LBB26_11:
	.loc	5 915 22
	addi	a2, a5, -96
	addi	s2, a5, -64
	bltz	a2, .LBB26_13
.Ltmp781:
	.loc	5 0 22
	sll	a3, t2, a2
	li	a7, 64
	.loc	5 915 22
	bgeu	a5, a7, .LBB26_14
	j	.LBB26_15
.Ltmp782:
.LBB26_13:
	.loc	5 0 22
	sll	a7, t3, s2
	xori	a3, s2, 31
	srl	a3, a6, a3
	or	a3, a7, a3
	li	a7, 64
	.loc	5 915 22
	bltu	a5, a7, .LBB26_15
.Ltmp783:
.LBB26_14:
	.loc	5 0 22
	mv	a0, a3
.Ltmp784:
.LBB26_15:
	mv	t6, t5
	.loc	5 915 22
	bnez	a5, .LBB26_20
.Ltmp785:
	bltz	s1, .LBB26_21
.Ltmp786:
.LBB26_17:
	bltz	a4, .LBB26_22
.Ltmp787:
.LBB26_18:
	bltz	a2, .LBB26_23
.Ltmp788:
.LBB26_19:
	.loc	5 0 22
	li	a0, 0
	.loc	5 915 22
	bgeu	a5, a7, .LBB26_24
	j	.LBB26_25
.Ltmp789:
.LBB26_20:
	.loc	5 0 22
	mv	t6, a0
	.loc	5 915 22
	bgez	s1, .LBB26_17
.Ltmp790:
.LBB26_21:
	.loc	5 0 22
	srl	a0, t2, s0
	sub	a1, a7, a5
	xori	a1, a1, 31
	slli	a3, t3, 1
	sll	a1, a3, a1
	or	a1, a1, a0
	.loc	5 915 22
	bgez	a4, .LBB26_18
.Ltmp791:
.LBB26_22:
	.loc	5 0 22
	sll	a0, t4, t1
	or	a1, a1, a0
	.loc	5 915 22
	bgez	a2, .LBB26_19
.Ltmp792:
.LBB26_23:
	.loc	5 0 22
	sll	a0, t2, s2
	.loc	5 915 22
	bltu	a5, a7, .LBB26_25
.Ltmp793:
.LBB26_24:
	.loc	5 0 22
	mv	a1, a0
.Ltmp794:
.LBB26_25:
	mv	a2, t4
	.loc	5 915 22
	bnez	a5, .LBB26_28
.Ltmp795:
	bltz	a4, .LBB26_29
.Ltmp796:
.LBB26_27:
	.loc	5 0 22
	li	a0, 0
	.loc	5 915 22
	bgeu	a5, a7, .LBB26_30
	j	.LBB26_31
.Ltmp797:
.LBB26_28:
	.loc	5 0 22
	mv	a2, a1
	.loc	5 915 22
	bgez	a4, .LBB26_27
.Ltmp798:
.LBB26_29:
	.loc	5 0 22
	sll	a0, t2, t1
	.loc	5 915 22
	bltu	a5, a7, .LBB26_31
.Ltmp799:
.LBB26_30:
	.loc	5 0 22
	li	a0, 0
.Ltmp800:
.LBB26_31:
	or	a1, t3, t5
	or	a3, t2, t4
	.loc	5 915 22
	bltz	a4, .LBB26_33
.Ltmp801:
	.loc	5 0 22
	sll	s1, t2, a4
	or	a4, a3, a1
	.loc	5 915 22
	bgeu	a5, a7, .LBB26_34
	j	.LBB26_35
.Ltmp802:
.LBB26_33:
	.loc	5 0 22
	sll	a4, t3, t1
	srl	s1, a6, t0
	or	s1, s1, a4
	or	a4, a3, a1
	.loc	5 915 22
	bltu	a5, a7, .LBB26_35
.Ltmp803:
.LBB26_34:
	.loc	5 0 22
	li	s1, 0
.Ltmp804:
.LBB26_35:
	srli	a1, t6, 11
.Ltmp805:
	.loc	11 65 17 is_stmt 1
	slli	a3, t6, 21
	srli	a5, a2, 11
	or	a3, a3, a5
.Ltmp806:
	.loc	11 66 18
	slli	a2, a2, 21
	srli	a5, s1, 11
	or	a2, a2, a5
	srli	a5, a0, 11
	slli	s1, s1, 21
.Ltmp807:
	or	a5, a5, s1
	.loc	11 66 17 is_stmt 0
	or	a0, a0, a5
.Ltmp808:
	.loc	11 67 28 is_stmt 1
	srli	a5, a2, 31
	.loc	11 67 38 is_stmt 0
	not	s1, a3
	.loc	11 67 27
	and	a5, a5, s1
	.loc	11 67 22
	sltu	a0, a0, a5
.Ltmp809:
	sub	a0, a2, a0
	.loc	11 67 21
	srli	a0, a0, 31
	.loc	11 67 17
	beqz	a4, .LBB26_37
.Ltmp810:
	.loc	11 0 17
	slli	a2, t1, 20
.Ltmp811:
	sub	a1, a1, a2
.Ltmp812:
	lui	a2, 294144
	add	a1, a1, a2
.Ltmp813:
.LBB26_37:
	.loc	11 69 9 is_stmt 1
	add	a0, a0, a3
.Ltmp814:
	sltu	a2, a0, a3
	add	a1, a1, a2
.Ltmp815:
	.loc	1 389 10
	lw	s0, 12(sp)
	lw	s1, 8(sp)
	lw	s2, 4(sp)
	addi	sp, sp, 16
	ret
.Ltmp816:
.Lfunc_end26:
	.size	_ZN17compiler_builtins5float4conv13__floatuntidf17h259d41ee19e8bd0bE, .Lfunc_end26-_ZN17compiler_builtins5float4conv13__floatuntidf17h259d41ee19e8bd0bE
	.cfi_endproc

	.section	.text.__floatuntidf,"ax",@progbits
	.hidden	__floatuntidf
	.globl	__floatuntidf
	.p2align	1
	.type	__floatuntidf,@function
__floatuntidf:
.Lfunc_begin27:
	.loc	1 394 0
	.cfi_startproc
	addi	sp, sp, -16
	.cfi_def_cfa_offset 16
	sw	s0, 12(sp)
	sw	s1, 8(sp)
	sw	s2, 4(sp)
	.cfi_offset s0, -4
	.cfi_offset s1, -8
	.cfi_offset s2, -12
	lw	t2, 0(a0)
	lw	t3, 4(a0)
	lw	t4, 8(a0)
	lw	t5, 12(a0)
.Ltmp817:
	lui	a0, 349525
	addi	a4, a0, 1365
	lui	a0, 209715
	addi	a1, a0, 819
	lui	a0, 61681
	addi	t0, a0, -241
	lui	a0, 4112
	addi	a5, a0, 257
.Ltmp818:
	.loc	5 131 13 prologue_end
	srli	a7, t4, 1
	bnez	t5, .LBB27_3
.Ltmp819:
	.loc	5 0 13 is_stmt 0
	or	a0, t4, a7
	srli	a2, a0, 2
	or	a0, a0, a2
	srli	a2, a0, 4
	or	a0, a0, a2
	srli	a2, a0, 8
	or	a0, a0, a2
	srli	a2, a0, 16
	or	a0, a0, a2
	not	a0, a0
	srli	a2, a0, 1
	and	a2, a2, a4
	sub	a0, a0, a2
	and	a2, a0, a1
	srli	a0, a0, 2
	and	a0, a0, a1
	add	a0, a0, a2
	srli	a2, a0, 4
	add	a0, a0, a2
	and	a0, a0, t0
	mul	a0, a0, a5
	srli	a0, a0, 24
	addi	t1, a0, 32
	.loc	5 131 13
	srli	a6, t2, 1
	beqz	t3, .LBB27_4
.LBB27_2:
	.loc	5 0 13
	srli	a0, t3, 1
	or	a0, t3, a0
	srli	a2, a0, 2
	or	a0, a0, a2
	srli	a2, a0, 4
	or	a0, a0, a2
	srli	a2, a0, 8
	or	a0, a0, a2
	srli	a2, a0, 16
	or	a0, a0, a2
	not	a0, a0
	srli	a2, a0, 1
	and	a2, a2, a4
	sub	a0, a0, a2
	and	a2, a0, a1
	srli	a0, a0, 2
	and	a0, a0, a1
	add	a0, a0, a2
	srli	a1, a0, 4
	add	a0, a0, a1
	and	a0, a0, t0
	mul	a0, a0, a5
	srli	a0, a0, 24
	.loc	5 131 13
	or	a1, t4, t5
	beqz	a1, .LBB27_5
	j	.LBB27_6
.LBB27_3:
	.loc	5 0 13
	srli	a0, t5, 1
	or	a0, t5, a0
	srli	a2, a0, 2
	or	a0, a0, a2
	srli	a2, a0, 4
	or	a0, a0, a2
	srli	a2, a0, 8
	or	a0, a0, a2
	srli	a2, a0, 16
	or	a0, a0, a2
	not	a0, a0
	srli	a2, a0, 1
	and	a2, a2, a4
	sub	a0, a0, a2
	and	a2, a0, a1
	srli	a0, a0, 2
	and	a0, a0, a1
	add	a0, a0, a2
	srli	a2, a0, 4
	add	a0, a0, a2
	and	a0, a0, t0
	mul	a0, a0, a5
	srli	t1, a0, 24
	.loc	5 131 13
	srli	a6, t2, 1
	bnez	t3, .LBB27_2
.LBB27_4:
	.loc	5 0 13
	or	a0, t2, a6
	srli	a2, a0, 2
	or	a0, a0, a2
	srli	a2, a0, 4
	or	a0, a0, a2
	srli	a2, a0, 8
	or	a0, a0, a2
	srli	a2, a0, 16
	or	a0, a0, a2
	not	a0, a0
	srli	a2, a0, 1
	and	a2, a2, a4
	sub	a0, a0, a2
	and	a2, a0, a1
	srli	a0, a0, 2
	and	a0, a0, a1
	add	a0, a0, a2
	srli	a1, a0, 4
	add	a0, a0, a1
	and	a0, a0, t0
	mul	a0, a0, a5
	srli	a0, a0, 24
	addi	a0, a0, 32
	.loc	5 131 13
	or	a1, t4, t5
	bnez	a1, .LBB27_6
.Ltmp820:
.LBB27_5:
	.loc	5 0 13
	addi	t1, a0, 64
.LBB27_6:
.Ltmp821:
	.loc	5 915 22 is_stmt 1
	andi	a5, t1, 127
	addi	a4, a5, -32
	xori	t0, a5, 31
	bltz	a4, .LBB27_8
.Ltmp822:
	.loc	5 0 22 is_stmt 0
	sll	a0, t4, a4
	j	.LBB27_9
.Ltmp823:
.LBB27_8:
	sll	a0, t5, t1
	srl	a1, a7, t0
	or	a0, a0, a1
.Ltmp824:
.LBB27_9:
	.loc	5 915 22
	neg	s0, a5
	li	a1, 32
	sub	s1, a1, a5
	srl	a1, t3, s0
	bgez	s1, .LBB27_11
.Ltmp825:
	.loc	5 0 22
	or	a0, a0, a1
.Ltmp826:
.LBB27_11:
	.loc	5 915 22
	addi	a2, a5, -96
	addi	s2, a5, -64
	bltz	a2, .LBB27_13
.Ltmp827:
	.loc	5 0 22
	sll	a3, t2, a2
	li	a7, 64
	.loc	5 915 22
	bgeu	a5, a7, .LBB27_14
	j	.LBB27_15
.Ltmp828:
.LBB27_13:
	.loc	5 0 22
	sll	a7, t3, s2
	xori	a3, s2, 31
	srl	a3, a6, a3
	or	a3, a7, a3
	li	a7, 64
	.loc	5 915 22
	bltu	a5, a7, .LBB27_15
.Ltmp829:
.LBB27_14:
	.loc	5 0 22
	mv	a0, a3
.Ltmp830:
.LBB27_15:
	mv	t6, t5
	.loc	5 915 22
	bnez	a5, .LBB27_20
.Ltmp831:
	bltz	s1, .LBB27_21
.Ltmp832:
.LBB27_17:
	bltz	a4, .LBB27_22
.Ltmp833:
.LBB27_18:
	bltz	a2, .LBB27_23
.Ltmp834:
.LBB27_19:
	.loc	5 0 22
	li	a0, 0
	.loc	5 915 22
	bgeu	a5, a7, .LBB27_24
	j	.LBB27_25
.Ltmp835:
.LBB27_20:
	.loc	5 0 22
	mv	t6, a0
	.loc	5 915 22
	bgez	s1, .LBB27_17
.Ltmp836:
.LBB27_21:
	.loc	5 0 22
	srl	a0, t2, s0
	sub	a1, a7, a5
	xori	a1, a1, 31
	slli	a3, t3, 1
	sll	a1, a3, a1
	or	a1, a1, a0
	.loc	5 915 22
	bgez	a4, .LBB27_18
.Ltmp837:
.LBB27_22:
	.loc	5 0 22
	sll	a0, t4, t1
	or	a1, a1, a0
	.loc	5 915 22
	bgez	a2, .LBB27_19
.Ltmp838:
.LBB27_23:
	.loc	5 0 22
	sll	a0, t2, s2
	.loc	5 915 22
	bltu	a5, a7, .LBB27_25
.Ltmp839:
.LBB27_24:
	.loc	5 0 22
	mv	a1, a0
.Ltmp840:
.LBB27_25:
	mv	a2, t4
	.loc	5 915 22
	bnez	a5, .LBB27_28
.Ltmp841:
	bltz	a4, .LBB27_29
.Ltmp842:
.LBB27_27:
	.loc	5 0 22
	li	a0, 0
	.loc	5 915 22
	bgeu	a5, a7, .LBB27_30
	j	.LBB27_31
.Ltmp843:
.LBB27_28:
	.loc	5 0 22
	mv	a2, a1
	.loc	5 915 22
	bgez	a4, .LBB27_27
.Ltmp844:
.LBB27_29:
	.loc	5 0 22
	sll	a0, t2, t1
	.loc	5 915 22
	bltu	a5, a7, .LBB27_31
.Ltmp845:
.LBB27_30:
	.loc	5 0 22
	li	a0, 0
.Ltmp846:
.LBB27_31:
	or	a1, t3, t5
	or	a3, t2, t4
	.loc	5 915 22
	bltz	a4, .LBB27_33
.Ltmp847:
	.loc	5 0 22
	sll	s1, t2, a4
	or	a4, a3, a1
	.loc	5 915 22
	bgeu	a5, a7, .LBB27_34
	j	.LBB27_35
.Ltmp848:
.LBB27_33:
	.loc	5 0 22
	sll	a4, t3, t1
	srl	s1, a6, t0
	or	s1, s1, a4
	or	a4, a3, a1
	.loc	5 915 22
	bltu	a5, a7, .LBB27_35
.Ltmp849:
.LBB27_34:
	.loc	5 0 22
	li	s1, 0
.Ltmp850:
.LBB27_35:
	srli	a1, t6, 11
.Ltmp851:
	.loc	11 65 17 is_stmt 1
	slli	a3, t6, 21
	srli	a5, a2, 11
	or	a3, a3, a5
.Ltmp852:
	.loc	11 66 18
	slli	a2, a2, 21
	srli	a5, s1, 11
	or	a2, a2, a5
	srli	a5, a0, 11
	slli	s1, s1, 21
.Ltmp853:
	or	a5, a5, s1
	.loc	11 66 17 is_stmt 0
	or	a0, a0, a5
.Ltmp854:
	.loc	11 67 28 is_stmt 1
	srli	a5, a2, 31
	.loc	11 67 38 is_stmt 0
	not	s1, a3
	.loc	11 67 27
	and	a5, a5, s1
	.loc	11 67 22
	sltu	a0, a0, a5
.Ltmp855:
	sub	a0, a2, a0
	.loc	11 67 21
	srli	a0, a0, 31
	.loc	11 67 17
	beqz	a4, .LBB27_37
.Ltmp856:
	.loc	11 0 17
	slli	a2, t1, 20
.Ltmp857:
	sub	a1, a1, a2
.Ltmp858:
	lui	a2, 294144
	add	a1, a1, a2
.Ltmp859:
.LBB27_37:
	.loc	11 69 9 is_stmt 1
	add	a0, a0, a3
.Ltmp860:
	sltu	a2, a0, a3
	add	a1, a1, a2
.Ltmp861:
	.loc	1 396 14
	lw	s0, 12(sp)
	lw	s1, 8(sp)
	lw	s2, 4(sp)
	addi	sp, sp, 16
	ret
.Ltmp862:
.Lfunc_end27:
	.size	__floatuntidf, .Lfunc_end27-__floatuntidf
	.cfi_endproc

	.section	.text._ZN17compiler_builtins5float4conv11__floatsisf17h5173b5921450b51aE,"ax",@progbits
	.hidden	_ZN17compiler_builtins5float4conv11__floatsisf17h5173b5921450b51aE
	.globl	_ZN17compiler_builtins5float4conv11__floatsisf17h5173b5921450b51aE
	.p2align	1
	.type	_ZN17compiler_builtins5float4conv11__floatsisf17h5173b5921450b51aE,@function
_ZN17compiler_builtins5float4conv11__floatsisf17h5173b5921450b51aE:
.Lfunc_begin28:
	.loc	1 386 0
	.cfi_startproc
	.loc	11 9 12 prologue_end
	beqz	a0, .LBB28_2
.Ltmp863:
	.loc	6 1426 17
	srai	a1, a0, 31
	xor	a2, a0, a1
	sub	a1, a2, a1
.Ltmp864:
	.loc	5 131 13
	srli	a2, a1, 1
	or	a2, a2, a1
	srli	a3, a2, 2
	or	a2, a2, a3
	srli	a3, a2, 4
	or	a2, a2, a3
	srli	a3, a2, 8
	or	a2, a2, a3
	srli	a3, a2, 16
	or	a2, a2, a3
	not	a2, a2
	srli	a3, a2, 1
	lui	a4, 349525
	addi	a4, a4, 1365
	and	a3, a3, a4
	sub	a2, a2, a3
	lui	a3, 209715
	addi	a3, a3, 819
	and	a4, a2, a3
	srli	a2, a2, 2
	and	a2, a2, a3
	add	a2, a2, a4
	srli	a3, a2, 4
	add	a2, a2, a3
	lui	a3, 61681
	addi	a3, a3, -241
	and	a2, a2, a3
	lui	a3, 4112
	addi	a3, a3, 257
	mul	a2, a2, a3
	srli	a2, a2, 24
.Ltmp865:
	.loc	11 13 17
	sll	a1, a1, a2
.Ltmp866:
	srli	a3, a1, 8
.Ltmp867:
	.loc	11 14 17
	slli	a1, a1, 24
.Ltmp868:
	.loc	11 15 28
	srli	a4, a1, 31
	.loc	11 15 38 is_stmt 0
	not	a5, a3
	.loc	11 15 27
	and	a4, a4, a5
	.loc	11 15 22
	sub	a1, a1, a4
.Ltmp869:
	.loc	11 15 21
	srli	a1, a1, 31
.Ltmp870:
	.loc	11 15 17
	slli	a2, a2, 23
.Ltmp871:
	.loc	11 17 9 is_stmt 1
	sub	a2, a3, a2
	add	a1, a1, a2
	lui	a2, 321536
	add	a1, a1, a2
	lui	a2, 524288
.Ltmp872:
	.loc	11 110 24
	and	a0, a0, a2
.Ltmp873:
	.loc	11 111 24
	or	a0, a0, a1
.Ltmp874:
	.loc	1 389 10
	ret
.Ltmp875:
.LBB28_2:
	.loc	1 0 10 is_stmt 0
	li	a1, 0
	lui	a2, 524288
	.loc	11 110 24 is_stmt 1
	and	a0, a0, a2
.Ltmp876:
	.loc	11 111 24
	or	a0, a0, a1
.Ltmp877:
	.loc	1 389 10
	ret
.Ltmp878:
.Lfunc_end28:
	.size	_ZN17compiler_builtins5float4conv11__floatsisf17h5173b5921450b51aE, .Lfunc_end28-_ZN17compiler_builtins5float4conv11__floatsisf17h5173b5921450b51aE
	.cfi_endproc

	.section	.text.__floatsisf,"ax",@progbits
	.hidden	__floatsisf
	.globl	__floatsisf
	.p2align	1
	.type	__floatsisf,@function
__floatsisf:
.Lfunc_begin29:
	.loc	1 394 0
	.cfi_startproc
	.loc	11 9 12 prologue_end
	beqz	a0, .LBB29_2
.Ltmp879:
	.loc	6 1426 17
	srai	a1, a0, 31
	xor	a2, a0, a1
	sub	a1, a2, a1
.Ltmp880:
	.loc	5 131 13
	srli	a2, a1, 1
	or	a2, a2, a1
	srli	a3, a2, 2
	or	a2, a2, a3
	srli	a3, a2, 4
	or	a2, a2, a3
	srli	a3, a2, 8
	or	a2, a2, a3
	srli	a3, a2, 16
	or	a2, a2, a3
	not	a2, a2
	srli	a3, a2, 1
	lui	a4, 349525
	addi	a4, a4, 1365
	and	a3, a3, a4
	sub	a2, a2, a3
	lui	a3, 209715
	addi	a3, a3, 819
	and	a4, a2, a3
	srli	a2, a2, 2
	and	a2, a2, a3
	add	a2, a2, a4
	srli	a3, a2, 4
	add	a2, a2, a3
	lui	a3, 61681
	addi	a3, a3, -241
	and	a2, a2, a3
	lui	a3, 4112
	addi	a3, a3, 257
	mul	a2, a2, a3
	srli	a2, a2, 24
.Ltmp881:
	.loc	11 13 17
	sll	a1, a1, a2
.Ltmp882:
	srli	a3, a1, 8
.Ltmp883:
	.loc	11 14 17
	slli	a1, a1, 24
.Ltmp884:
	.loc	11 15 28
	srli	a4, a1, 31
	.loc	11 15 38 is_stmt 0
	not	a5, a3
	.loc	11 15 27
	and	a4, a4, a5
	.loc	11 15 22
	sub	a1, a1, a4
.Ltmp885:
	.loc	11 15 21
	srli	a1, a1, 31
.Ltmp886:
	.loc	11 15 17
	slli	a2, a2, 23
.Ltmp887:
	.loc	11 17 9 is_stmt 1
	sub	a2, a3, a2
	add	a1, a1, a2
	lui	a2, 321536
	add	a1, a1, a2
	lui	a2, 524288
.Ltmp888:
	.loc	11 110 24
	and	a0, a0, a2
.Ltmp889:
	.loc	11 111 24
	or	a0, a0, a1
.Ltmp890:
	.loc	1 396 14
	ret
.Ltmp891:
.LBB29_2:
	.loc	1 0 14 is_stmt 0
	li	a1, 0
	lui	a2, 524288
.Ltmp892:
	.loc	11 110 24 is_stmt 1
	and	a0, a0, a2
.Ltmp893:
	.loc	11 111 24
	or	a0, a0, a1
.Ltmp894:
	.loc	1 396 14
	ret
.Ltmp895:
.Lfunc_end29:
	.size	__floatsisf, .Lfunc_end29-__floatsisf
	.cfi_endproc

	.section	.text._ZN17compiler_builtins5float4conv11__floatsidf17h52740bc55788e871E,"ax",@progbits
	.hidden	_ZN17compiler_builtins5float4conv11__floatsidf17h52740bc55788e871E
	.globl	_ZN17compiler_builtins5float4conv11__floatsidf17h52740bc55788e871E
	.p2align	1
	.type	_ZN17compiler_builtins5float4conv11__floatsidf17h52740bc55788e871E,@function
_ZN17compiler_builtins5float4conv11__floatsidf17h52740bc55788e871E:
.Lfunc_begin30:
	.loc	1 386 0
	.cfi_startproc
	.loc	11 21 12 prologue_end
	beqz	a0, .LBB30_3
.Ltmp896:
	.loc	6 1426 17
	srai	a1, a0, 31
	xor	a2, a0, a1
	sub	a1, a2, a1
.Ltmp897:
	.loc	5 131 13
	srli	a2, a1, 1
.Ltmp898:
	or	a3, a1, a2
	srli	a4, a3, 2
	or	a3, a3, a4
	srli	a4, a3, 4
	or	a3, a3, a4
	srli	a4, a3, 8
	or	a3, a3, a4
	srli	a4, a3, 16
	or	a3, a3, a4
	not	a3, a3
	srli	a4, a3, 1
	lui	a5, 349525
	addi	a5, a5, 1365
	and	a4, a4, a5
	sub	a3, a3, a4
	lui	a4, 209715
	addi	a4, a4, 819
	and	a5, a3, a4
	srli	a3, a3, 2
	and	a3, a3, a4
	add	a3, a3, a5
	srli	a4, a3, 4
	add	a3, a3, a4
	lui	a4, 61681
	addi	a4, a4, -241
	and	a3, a3, a4
	lui	a4, 4112
	addi	a4, a4, 257
	mul	a3, a3, a4
	srli	a3, a3, 24
.Ltmp899:
	.loc	11 25 17
	addi	a4, a3, -11
	bltz	a4, .LBB30_4
.Ltmp900:
	.loc	11 0 17 is_stmt 0
	li	a2, 0
	sll	a4, a1, a4
	j	.LBB30_5
.Ltmp901:
.LBB30_3:
	li	a2, 0
	li	a1, 0
	j	.LBB30_6
.Ltmp902:
.LBB30_4:
	addi	a5, a3, 21
	xori	a4, a5, 31
	srl	a4, a2, a4
	sll	a2, a1, a5
.Ltmp903:
.LBB30_5:
	li	a1, 1053
.Ltmp904:
	.loc	11 26 17 is_stmt 1
	sub	a1, a1, a3
.Ltmp905:
	.loc	11 27 9
	slli	a1, a1, 20
.Ltmp906:
	add	a1, a1, a4
.Ltmp907:
.LBB30_6:
	.loc	11 0 9 is_stmt 0
	lui	a3, 524288
	.loc	11 116 24 is_stmt 1
	and	a0, a0, a3
.Ltmp908:
	.loc	11 117 24
	or	a1, a1, a0
.Ltmp909:
	.loc	1 389 10
	mv	a0, a2
.Ltmp910:
	ret
.Ltmp911:
.Lfunc_end30:
	.size	_ZN17compiler_builtins5float4conv11__floatsidf17h52740bc55788e871E, .Lfunc_end30-_ZN17compiler_builtins5float4conv11__floatsidf17h52740bc55788e871E
	.cfi_endproc

	.section	.text.__floatsidf,"ax",@progbits
	.hidden	__floatsidf
	.globl	__floatsidf
	.p2align	1
	.type	__floatsidf,@function
__floatsidf:
.Lfunc_begin31:
	.loc	1 394 0
	.cfi_startproc
	.loc	11 21 12 prologue_end
	beqz	a0, .LBB31_3
.Ltmp912:
	.loc	6 1426 17
	srai	a1, a0, 31
	xor	a2, a0, a1
	sub	a1, a2, a1
.Ltmp913:
	.loc	5 131 13
	srli	a2, a1, 1
.Ltmp914:
	or	a3, a1, a2
	srli	a4, a3, 2
	or	a3, a3, a4
	srli	a4, a3, 4
	or	a3, a3, a4
	srli	a4, a3, 8
	or	a3, a3, a4
	srli	a4, a3, 16
	or	a3, a3, a4
	not	a3, a3
	srli	a4, a3, 1
	lui	a5, 349525
	addi	a5, a5, 1365
	and	a4, a4, a5
	sub	a3, a3, a4
	lui	a4, 209715
	addi	a4, a4, 819
	and	a5, a3, a4
	srli	a3, a3, 2
	and	a3, a3, a4
	add	a3, a3, a5
	srli	a4, a3, 4
	add	a3, a3, a4
	lui	a4, 61681
	addi	a4, a4, -241
	and	a3, a3, a4
	lui	a4, 4112
	addi	a4, a4, 257
	mul	a3, a3, a4
	srli	a3, a3, 24
.Ltmp915:
	.loc	11 25 17
	addi	a4, a3, -11
	bltz	a4, .LBB31_4
.Ltmp916:
	.loc	11 0 17 is_stmt 0
	li	a2, 0
	sll	a4, a1, a4
	j	.LBB31_5
.Ltmp917:
.LBB31_3:
	li	a2, 0
	li	a1, 0
	j	.LBB31_6
.Ltmp918:
.LBB31_4:
	addi	a5, a3, 21
	xori	a4, a5, 31
	srl	a4, a2, a4
	sll	a2, a1, a5
.Ltmp919:
.LBB31_5:
	li	a1, 1053
.Ltmp920:
	.loc	11 26 17 is_stmt 1
	sub	a1, a1, a3
.Ltmp921:
	.loc	11 27 9
	slli	a1, a1, 20
.Ltmp922:
	add	a1, a1, a4
.Ltmp923:
.LBB31_6:
	.loc	11 0 9 is_stmt 0
	lui	a3, 524288
	.loc	11 116 24 is_stmt 1
	and	a0, a0, a3
.Ltmp924:
	.loc	11 117 24
	or	a1, a1, a0
.Ltmp925:
	.loc	1 396 14
	mv	a0, a2
.Ltmp926:
	ret
.Ltmp927:
.Lfunc_end31:
	.size	__floatsidf, .Lfunc_end31-__floatsidf
	.cfi_endproc

	.section	.text._ZN17compiler_builtins5float4conv11__floatdisf17h897656be47059aedE,"ax",@progbits
	.hidden	_ZN17compiler_builtins5float4conv11__floatdisf17h897656be47059aedE
	.globl	_ZN17compiler_builtins5float4conv11__floatdisf17h897656be47059aedE
	.p2align	1
	.type	_ZN17compiler_builtins5float4conv11__floatdisf17h897656be47059aedE,@function
_ZN17compiler_builtins5float4conv11__floatdisf17h897656be47059aedE:
.Lfunc_begin32:
	.loc	1 386 0
	.cfi_startproc
	.loc	6 1426 17 prologue_end
	bltz	a1, .LBB32_2
.Ltmp928:
	.loc	6 0 17 is_stmt 0
	mv	t2, a1
	mv	t1, a0
	j	.LBB32_3
.Ltmp929:
.LBB32_2:
	snez	a2, a0
	add	a2, a2, a1
	neg	t2, a2
	neg	t1, a0
.Ltmp930:
.LBB32_3:
	.loc	5 131 13 is_stmt 1
	srli	a6, t1, 1
	lui	a2, 349525
	addi	a5, a2, 1365
	lui	a2, 209715
	addi	a4, a2, 819
	lui	a2, 61681
	addi	t0, a2, -241
	lui	a2, 4112
	addi	a7, a2, 257
	bnez	t2, .LBB32_5
.Ltmp931:
	.loc	5 0 13 is_stmt 0
	or	a2, t1, a6
	srli	a3, a2, 2
	or	a2, a2, a3
	srli	a3, a2, 4
	or	a2, a2, a3
	srli	a3, a2, 8
	or	a2, a2, a3
	srli	a3, a2, 16
	or	a2, a2, a3
	not	a2, a2
	srli	a3, a2, 1
	and	a3, a3, a5
	sub	a2, a2, a3
	and	a3, a2, a4
	srli	a2, a2, 2
	and	a2, a2, a4
	add	a2, a2, a3
	srli	a3, a2, 4
	add	a2, a2, a3
	and	a2, a2, t0
	mul	a2, a2, a7
	srli	a2, a2, 24
	addi	a4, a2, 32
	j	.LBB32_6
.Ltmp932:
.LBB32_5:
	srli	a2, t2, 1
	or	a2, t2, a2
	srli	a3, a2, 2
	or	a2, a2, a3
	srli	a3, a2, 4
	or	a2, a2, a3
	srli	a3, a2, 8
	or	a2, a2, a3
	srli	a3, a2, 16
	or	a2, a2, a3
	not	a2, a2
	srli	a3, a2, 1
	and	a3, a3, a5
	sub	a2, a2, a3
	and	a3, a2, a4
	srli	a2, a2, 2
	and	a2, a2, a4
	add	a2, a2, a3
	srli	a3, a2, 4
	add	a2, a2, a3
	and	a2, a2, t0
	mul	a2, a2, a7
	srli	a4, a2, 24
.Ltmp933:
.LBB32_6:
	lui	a7, 524288
.Ltmp934:
	.loc	5 915 22 is_stmt 1
	andi	a2, a4, 63
	addi	a5, a2, -32
.Ltmp935:
	.loc	11 36 20
	or	t0, a0, a1
.Ltmp936:
	.loc	5 915 22
	bltz	a5, .LBB32_8
.Ltmp937:
	.loc	5 0 22 is_stmt 0
	li	a3, 0
	sll	a5, t1, a5
	j	.LBB32_9
.Ltmp938:
.LBB32_8:
	sll	a3, t2, a4
	xori	a2, a2, 31
	srl	a2, a6, a2
	or	a5, a3, a2
	sll	a3, t1, a4
.Ltmp939:
.LBB32_9:
	and	a1, a1, a7
.Ltmp940:
	.loc	11 34 18 is_stmt 1
	srli	a2, a3, 8
	slli	a0, a5, 24
.Ltmp941:
	or	a0, a0, a2
.Ltmp942:
	.loc	11 33 17
	srli	a2, a5, 8
.Ltmp943:
	.loc	11 34 27
	slli	a3, a3, 16
.Ltmp944:
	srli	a3, a3, 16
	.loc	11 34 17 is_stmt 0
	or	a0, a0, a3
.Ltmp945:
	.loc	11 35 28 is_stmt 1
	srli	a3, a0, 31
	.loc	11 35 38 is_stmt 0
	not	a5, a2
.Ltmp946:
	.loc	11 35 27
	and	a3, a3, a5
	.loc	11 35 22
	sub	a0, a0, a3
.Ltmp947:
	.loc	11 35 21
	srli	a3, a0, 31
	.loc	11 35 17
	beqz	t0, .LBB32_11
.Ltmp948:
	.loc	11 0 17
	slli	a0, a4, 23
	sub	a0, a2, a0
	lui	a2, 387072
.Ltmp949:
	add	a2, a2, a0
.Ltmp950:
.LBB32_11:
	.loc	11 37 9 is_stmt 1
	add	a0, a2, a3
.Ltmp951:
	.loc	11 123 24
	or	a0, a0, a1
.Ltmp952:
	.loc	1 389 10
	ret
.Ltmp953:
.Lfunc_end32:
	.size	_ZN17compiler_builtins5float4conv11__floatdisf17h897656be47059aedE, .Lfunc_end32-_ZN17compiler_builtins5float4conv11__floatdisf17h897656be47059aedE
	.cfi_endproc

	.section	.text.__floatdisf,"ax",@progbits
	.hidden	__floatdisf
	.globl	__floatdisf
	.p2align	1
	.type	__floatdisf,@function
__floatdisf:
.Lfunc_begin33:
	.loc	1 394 0
	.cfi_startproc
	.loc	6 1426 17 prologue_end
	bltz	a1, .LBB33_2
.Ltmp954:
	.loc	6 0 17 is_stmt 0
	mv	t2, a1
	mv	t1, a0
	j	.LBB33_3
.Ltmp955:
.LBB33_2:
	snez	a2, a0
	add	a2, a2, a1
	neg	t2, a2
	neg	t1, a0
.Ltmp956:
.LBB33_3:
	.loc	5 131 13 is_stmt 1
	srli	a6, t1, 1
	lui	a2, 349525
	addi	a5, a2, 1365
	lui	a2, 209715
	addi	a4, a2, 819
	lui	a2, 61681
	addi	t0, a2, -241
	lui	a2, 4112
	addi	a7, a2, 257
	bnez	t2, .LBB33_5
.Ltmp957:
	.loc	5 0 13 is_stmt 0
	or	a2, t1, a6
	srli	a3, a2, 2
	or	a2, a2, a3
	srli	a3, a2, 4
	or	a2, a2, a3
	srli	a3, a2, 8
	or	a2, a2, a3
	srli	a3, a2, 16
	or	a2, a2, a3
	not	a2, a2
	srli	a3, a2, 1
	and	a3, a3, a5
	sub	a2, a2, a3
	and	a3, a2, a4
	srli	a2, a2, 2
	and	a2, a2, a4
	add	a2, a2, a3
	srli	a3, a2, 4
	add	a2, a2, a3
	and	a2, a2, t0
	mul	a2, a2, a7
	srli	a2, a2, 24
	addi	a4, a2, 32
	j	.LBB33_6
.Ltmp958:
.LBB33_5:
	srli	a2, t2, 1
	or	a2, t2, a2
	srli	a3, a2, 2
	or	a2, a2, a3
	srli	a3, a2, 4
	or	a2, a2, a3
	srli	a3, a2, 8
	or	a2, a2, a3
	srli	a3, a2, 16
	or	a2, a2, a3
	not	a2, a2
	srli	a3, a2, 1
	and	a3, a3, a5
	sub	a2, a2, a3
	and	a3, a2, a4
	srli	a2, a2, 2
	and	a2, a2, a4
	add	a2, a2, a3
	srli	a3, a2, 4
	add	a2, a2, a3
	and	a2, a2, t0
	mul	a2, a2, a7
	srli	a4, a2, 24
.Ltmp959:
.LBB33_6:
	lui	a7, 524288
.Ltmp960:
	.loc	5 915 22 is_stmt 1
	andi	a2, a4, 63
	addi	a5, a2, -32
.Ltmp961:
	.loc	11 36 20
	or	t0, a0, a1
.Ltmp962:
	.loc	5 915 22
	bltz	a5, .LBB33_8
.Ltmp963:
	.loc	5 0 22 is_stmt 0
	li	a3, 0
	sll	a5, t1, a5
	j	.LBB33_9
.Ltmp964:
.LBB33_8:
	sll	a3, t2, a4
	xori	a2, a2, 31
	srl	a2, a6, a2
	or	a5, a3, a2
	sll	a3, t1, a4
.Ltmp965:
.LBB33_9:
	and	a1, a1, a7
.Ltmp966:
	.loc	11 34 18 is_stmt 1
	srli	a2, a3, 8
	slli	a0, a5, 24
.Ltmp967:
	or	a0, a0, a2
.Ltmp968:
	.loc	11 33 17
	srli	a2, a5, 8
.Ltmp969:
	.loc	11 34 27
	slli	a3, a3, 16
.Ltmp970:
	srli	a3, a3, 16
	.loc	11 34 17 is_stmt 0
	or	a0, a0, a3
.Ltmp971:
	.loc	11 35 28 is_stmt 1
	srli	a3, a0, 31
	.loc	11 35 38 is_stmt 0
	not	a5, a2
.Ltmp972:
	.loc	11 35 27
	and	a3, a3, a5
	.loc	11 35 22
	sub	a0, a0, a3
.Ltmp973:
	.loc	11 35 21
	srli	a3, a0, 31
	.loc	11 35 17
	beqz	t0, .LBB33_11
.Ltmp974:
	.loc	11 0 17
	slli	a0, a4, 23
	sub	a0, a2, a0
	lui	a2, 387072
.Ltmp975:
	add	a2, a2, a0
.Ltmp976:
.LBB33_11:
	.loc	11 37 9 is_stmt 1
	add	a0, a2, a3
.Ltmp977:
	.loc	11 123 24
	or	a0, a0, a1
.Ltmp978:
	.loc	1 396 14
	ret
.Ltmp979:
.Lfunc_end33:
	.size	__floatdisf, .Lfunc_end33-__floatdisf
	.cfi_endproc

	.section	.text._ZN17compiler_builtins5float4conv11__floatdidf17h540fcc14ba661a6aE,"ax",@progbits
	.hidden	_ZN17compiler_builtins5float4conv11__floatdidf17h540fcc14ba661a6aE
	.globl	_ZN17compiler_builtins5float4conv11__floatdidf17h540fcc14ba661a6aE
	.p2align	1
	.type	_ZN17compiler_builtins5float4conv11__floatdidf17h540fcc14ba661a6aE,@function
_ZN17compiler_builtins5float4conv11__floatdidf17h540fcc14ba661a6aE:
.Lfunc_begin34:
	.loc	1 386 0
	.cfi_startproc
	.loc	11 41 12 prologue_end
	or	a2, a0, a1
	beqz	a2, .LBB34_3
.Ltmp980:
	.loc	6 1426 17
	bltz	a1, .LBB34_4
.Ltmp981:
	.loc	6 0 17 is_stmt 0
	mv	a2, a1
	j	.LBB34_5
.Ltmp982:
.LBB34_3:
	li	a0, 0
.Ltmp983:
	lui	a3, 524288
	.loc	11 128 24 is_stmt 1
	and	a1, a1, a3
.Ltmp984:
	.loc	11 129 24
	or	a1, a1, a2
.Ltmp985:
	.loc	1 389 10
	ret
.Ltmp986:
.LBB34_4:
	.loc	1 0 10 is_stmt 0
	snez	a2, a0
	add	a2, a2, a1
	neg	a2, a2
	neg	a0, a0
.Ltmp987:
.LBB34_5:
	.loc	5 131 13 is_stmt 1
	srli	a6, a0, 1
	lui	a3, 349525
	addi	t1, a3, 1365
	lui	a3, 209715
	addi	a3, a3, 819
	lui	a5, 61681
	addi	a7, a5, -241
	lui	a5, 4112
	addi	t0, a5, 257
	bnez	a2, .LBB34_8
.Ltmp988:
	.loc	5 0 13 is_stmt 0
	or	a4, a0, a6
	srli	a5, a4, 2
	or	a4, a4, a5
	srli	a5, a4, 4
	or	a4, a4, a5
	srli	a5, a4, 8
	or	a4, a4, a5
	srli	a5, a4, 16
	or	a4, a4, a5
	not	a4, a4
	srli	a5, a4, 1
	and	a5, a5, t1
	sub	a4, a4, a5
	and	a5, a4, a3
	srli	a4, a4, 2
	and	a3, a3, a4
	add	a3, a3, a5
	srli	a4, a3, 4
	add	a3, a3, a4
	and	a3, a3, a7
	mul	a3, a3, t0
	srli	a3, a3, 24
	addi	a3, a3, 32
.Ltmp989:
	.loc	11 45 17 is_stmt 1
	addi	a4, a3, -32
	bgez	a4, .LBB34_9
.Ltmp990:
.LBB34_7:
	.loc	11 0 17 is_stmt 0
	sll	a2, a2, a3
.Ltmp991:
	xori	a4, a3, 31
	srl	a4, a6, a4
	or	a4, a4, a2
	sll	a2, a0, a3
	j	.LBB34_10
.Ltmp992:
.LBB34_8:
	srli	a5, a2, 1
	or	a5, a5, a2
	srli	a4, a5, 2
	or	a4, a4, a5
	srli	a5, a4, 4
	or	a4, a4, a5
	srli	a5, a4, 8
	or	a4, a4, a5
	srli	a5, a4, 16
	or	a4, a4, a5
	not	a4, a4
	srli	a5, a4, 1
	and	a5, a5, t1
	sub	a4, a4, a5
	and	a5, a4, a3
	srli	a4, a4, 2
	and	a3, a3, a4
	add	a3, a3, a5
	srli	a4, a3, 4
	add	a3, a3, a4
	and	a3, a3, a7
	mul	a3, a3, t0
	srli	a3, a3, 24
.Ltmp993:
	.loc	11 45 17
	addi	a4, a3, -32
	bltz	a4, .LBB34_7
.Ltmp994:
.LBB34_9:
	.loc	11 0 17
	li	a2, 0
.Ltmp995:
	sll	a4, a0, a4
.Ltmp996:
.LBB34_10:
	.loc	11 45 17
	srli	a0, a2, 11
.Ltmp997:
	slli	a5, a4, 21
	or	a5, a5, a0
	srli	a6, a4, 11
.Ltmp998:
	.loc	11 46 17 is_stmt 1
	slli	a2, a2, 21
.Ltmp999:
	.loc	11 47 28
	srli	a4, a2, 31
	.loc	11 47 38 is_stmt 0
	not	a0, a5
	.loc	11 47 27
	and	a0, a0, a4
	.loc	11 47 22
	sub	a0, a2, a0
	.loc	11 47 21
	srli	a0, a0, 31
.Ltmp1000:
	.loc	11 49 9 is_stmt 1
	slli	a2, a3, 20
.Ltmp1001:
	.loc	11 47 17
	sub	a2, a6, a2
.Ltmp1002:
	.loc	11 49 9
	add	a0, a0, a5
	sltu	a3, a0, a5
.Ltmp1003:
	add	a2, a2, a3
	lui	a3, 277760
	add	a2, a2, a3
	lui	a3, 524288
.Ltmp1004:
	.loc	11 128 24
	and	a1, a1, a3
.Ltmp1005:
	.loc	11 129 24
	or	a1, a1, a2
.Ltmp1006:
	.loc	1 389 10
	ret
.Ltmp1007:
.Lfunc_end34:
	.size	_ZN17compiler_builtins5float4conv11__floatdidf17h540fcc14ba661a6aE, .Lfunc_end34-_ZN17compiler_builtins5float4conv11__floatdidf17h540fcc14ba661a6aE
	.cfi_endproc

	.section	.text.__floatdidf,"ax",@progbits
	.hidden	__floatdidf
	.globl	__floatdidf
	.p2align	1
	.type	__floatdidf,@function
__floatdidf:
.Lfunc_begin35:
	.loc	1 394 0
	.cfi_startproc
	.loc	11 41 12 prologue_end
	or	a2, a0, a1
	beqz	a2, .LBB35_3
.Ltmp1008:
	.loc	6 1426 17
	bltz	a1, .LBB35_4
.Ltmp1009:
	.loc	6 0 17 is_stmt 0
	mv	a2, a1
	j	.LBB35_5
.Ltmp1010:
.LBB35_3:
	li	a0, 0
.Ltmp1011:
	lui	a3, 524288
	.loc	11 128 24 is_stmt 1
	and	a1, a1, a3
.Ltmp1012:
	.loc	11 129 24
	or	a1, a1, a2
.Ltmp1013:
	.loc	1 396 14
	ret
.Ltmp1014:
.LBB35_4:
	.loc	1 0 14 is_stmt 0
	snez	a2, a0
	add	a2, a2, a1
	neg	a2, a2
	neg	a0, a0
.Ltmp1015:
.LBB35_5:
	.loc	5 131 13 is_stmt 1
	srli	a6, a0, 1
	lui	a3, 349525
	addi	t1, a3, 1365
	lui	a3, 209715
	addi	a3, a3, 819
	lui	a5, 61681
	addi	a7, a5, -241
	lui	a5, 4112
	addi	t0, a5, 257
	bnez	a2, .LBB35_8
.Ltmp1016:
	.loc	5 0 13 is_stmt 0
	or	a4, a0, a6
	srli	a5, a4, 2
	or	a4, a4, a5
	srli	a5, a4, 4
	or	a4, a4, a5
	srli	a5, a4, 8
	or	a4, a4, a5
	srli	a5, a4, 16
	or	a4, a4, a5
	not	a4, a4
	srli	a5, a4, 1
	and	a5, a5, t1
	sub	a4, a4, a5
	and	a5, a4, a3
	srli	a4, a4, 2
	and	a3, a3, a4
	add	a3, a3, a5
	srli	a4, a3, 4
	add	a3, a3, a4
	and	a3, a3, a7
	mul	a3, a3, t0
	srli	a3, a3, 24
	addi	a3, a3, 32
.Ltmp1017:
	.loc	11 45 17 is_stmt 1
	addi	a4, a3, -32
	bgez	a4, .LBB35_9
.Ltmp1018:
.LBB35_7:
	.loc	11 0 17 is_stmt 0
	sll	a2, a2, a3
.Ltmp1019:
	xori	a4, a3, 31
	srl	a4, a6, a4
	or	a4, a4, a2
	sll	a2, a0, a3
	j	.LBB35_10
.Ltmp1020:
.LBB35_8:
	srli	a5, a2, 1
	or	a5, a5, a2
	srli	a4, a5, 2
	or	a4, a4, a5
	srli	a5, a4, 4
	or	a4, a4, a5
	srli	a5, a4, 8
	or	a4, a4, a5
	srli	a5, a4, 16
	or	a4, a4, a5
	not	a4, a4
	srli	a5, a4, 1
	and	a5, a5, t1
	sub	a4, a4, a5
	and	a5, a4, a3
	srli	a4, a4, 2
	and	a3, a3, a4
	add	a3, a3, a5
	srli	a4, a3, 4
	add	a3, a3, a4
	and	a3, a3, a7
	mul	a3, a3, t0
	srli	a3, a3, 24
.Ltmp1021:
	.loc	11 45 17
	addi	a4, a3, -32
	bltz	a4, .LBB35_7
.Ltmp1022:
.LBB35_9:
	.loc	11 0 17
	li	a2, 0
.Ltmp1023:
	sll	a4, a0, a4
.Ltmp1024:
.LBB35_10:
	.loc	11 45 17
	srli	a0, a2, 11
.Ltmp1025:
	slli	a5, a4, 21
	or	a5, a5, a0
	srli	a6, a4, 11
.Ltmp1026:
	.loc	11 46 17 is_stmt 1
	slli	a2, a2, 21
.Ltmp1027:
	.loc	11 47 28
	srli	a4, a2, 31
	.loc	11 47 38 is_stmt 0
	not	a0, a5
	.loc	11 47 27
	and	a0, a0, a4
	.loc	11 47 22
	sub	a0, a2, a0
	.loc	11 47 21
	srli	a0, a0, 31
.Ltmp1028:
	.loc	11 49 9 is_stmt 1
	slli	a2, a3, 20
.Ltmp1029:
	.loc	11 47 17
	sub	a2, a6, a2
.Ltmp1030:
	.loc	11 49 9
	add	a0, a0, a5
	sltu	a3, a0, a5
.Ltmp1031:
	add	a2, a2, a3
	lui	a3, 277760
	add	a2, a2, a3
	lui	a3, 524288
.Ltmp1032:
	.loc	11 128 24
	and	a1, a1, a3
.Ltmp1033:
	.loc	11 129 24
	or	a1, a1, a2
.Ltmp1034:
	.loc	1 396 14
	ret
.Ltmp1035:
.Lfunc_end35:
	.size	__floatdidf, .Lfunc_end35-__floatdidf
	.cfi_endproc

	.section	.text._ZN17compiler_builtins5float4conv11__floattisf17h3eff7478c3edec05E,"ax",@progbits
	.hidden	_ZN17compiler_builtins5float4conv11__floattisf17h3eff7478c3edec05E
	.globl	_ZN17compiler_builtins5float4conv11__floattisf17h3eff7478c3edec05E
	.p2align	1
	.type	_ZN17compiler_builtins5float4conv11__floattisf17h3eff7478c3edec05E,@function
_ZN17compiler_builtins5float4conv11__floattisf17h3eff7478c3edec05E:
.Lfunc_begin36:
	.loc	1 386 0
	.cfi_startproc
	addi	sp, sp, -32
	.cfi_def_cfa_offset 32
	sw	s0, 28(sp)
	sw	s1, 24(sp)
	sw	s2, 20(sp)
	sw	s3, 16(sp)
	sw	s4, 12(sp)
	sw	s5, 8(sp)
	.cfi_offset s0, -4
	.cfi_offset s1, -8
	.cfi_offset s2, -12
	.cfi_offset s3, -16
	.cfi_offset s4, -20
	.cfi_offset s5, -24
	lw	a7, 0(a0)
	lw	t0, 4(a0)
	lw	t3, 12(a0)
.Ltmp1036:
	.loc	6 1426 17 prologue_end
	snez	a1, a7
	mv	a2, a1
	beqz	t0, .LBB36_2
.Ltmp1037:
	.loc	6 0 17 is_stmt 0
	snez	a2, t0
.LBB36_2:
	lw	a6, 8(a0)
.Ltmp1038:
	.loc	6 1426 17
	bltz	t3, .LBB36_4
.Ltmp1039:
	.loc	6 0 17
	mv	s4, t3
	mv	a4, a6
	mv	s2, t0
	mv	t5, a7
	j	.LBB36_5
.LBB36_4:
	neg	a0, a6
	sltu	a3, a0, a2
	snez	a4, a6
	add	a4, a4, t3
	add	a3, a3, a4
	neg	s4, a3
	sub	a4, a0, a2
	add	a0, t0, a1
	neg	s2, a0
	neg	t5, a7
.LBB36_5:
.Ltmp1040:
	.loc	5 131 13 is_stmt 1
	srli	t1, a4, 1
	lui	a0, 349525
	addi	a3, a0, 1365
	lui	a0, 209715
	addi	a2, a0, 819
	lui	a0, 61681
	addi	a1, a0, -241
	lui	a0, 4112
	addi	a5, a0, 257
	bnez	s4, .LBB36_8
.Ltmp1041:
	.loc	5 0 13 is_stmt 0
	or	a0, a4, t1
	srli	s1, a0, 2
	or	a0, a0, s1
	srli	s1, a0, 4
	or	a0, a0, s1
	srli	s1, a0, 8
	or	a0, a0, s1
	srli	s1, a0, 16
	or	a0, a0, s1
	not	a0, a0
	srli	s1, a0, 1
	and	s1, s1, a3
	sub	a0, a0, s1
	and	s1, a0, a2
	srli	a0, a0, 2
	and	a0, a0, a2
	add	a0, a0, s1
	srli	s1, a0, 4
	add	a0, a0, s1
	and	a0, a0, a1
	mul	a0, a0, a5
	srli	a0, a0, 24
	addi	t6, a0, 32
.Ltmp1042:
	.loc	5 131 13
	srli	t2, t5, 1
	beqz	s2, .LBB36_9
.Ltmp1043:
.LBB36_7:
	.loc	5 0 13
	srli	a0, s2, 1
	or	a0, s2, a0
	srli	s1, a0, 2
	or	a0, a0, s1
	srli	s1, a0, 4
	or	a0, a0, s1
	srli	s1, a0, 8
	or	a0, a0, s1
	srli	s1, a0, 16
	or	a0, a0, s1
	not	a0, a0
	srli	s1, a0, 1
	and	a3, a3, s1
	sub	a0, a0, a3
	and	a3, a0, a2
	srli	a0, a0, 2
	and	a0, a0, a2
	add	a0, a0, a3
	srli	a2, a0, 4
	add	a0, a0, a2
	and	a0, a0, a1
	mul	a0, a0, a5
	srli	a0, a0, 24
.Ltmp1044:
	.loc	5 131 13
	or	a1, a4, s4
	beqz	a1, .LBB36_10
	j	.LBB36_11
.Ltmp1045:
.LBB36_8:
	.loc	5 0 13
	srli	a0, s4, 1
	or	a0, s4, a0
	srli	s1, a0, 2
	or	a0, a0, s1
	srli	s1, a0, 4
	or	a0, a0, s1
	srli	s1, a0, 8
	or	a0, a0, s1
	srli	s1, a0, 16
	or	a0, a0, s1
	not	a0, a0
	srli	s1, a0, 1
	and	s1, s1, a3
	sub	a0, a0, s1
	and	s1, a0, a2
	srli	a0, a0, 2
	and	a0, a0, a2
	add	a0, a0, s1
	srli	s1, a0, 4
	add	a0, a0, s1
	and	a0, a0, a1
	mul	a0, a0, a5
	srli	t6, a0, 24
.Ltmp1046:
	.loc	5 131 13
	srli	t2, t5, 1
	bnez	s2, .LBB36_7
.Ltmp1047:
.LBB36_9:
	.loc	5 0 13
	or	a0, t5, t2
	srli	s1, a0, 2
	or	a0, a0, s1
	srli	s1, a0, 4
	or	a0, a0, s1
	srli	s1, a0, 8
	or	a0, a0, s1
	srli	s1, a0, 16
	or	a0, a0, s1
	not	a0, a0
	srli	s1, a0, 1
	and	a3, a3, s1
	sub	a0, a0, a3
	and	a3, a0, a2
	srli	a0, a0, 2
	and	a0, a0, a2
	add	a0, a0, a3
	srli	a2, a0, 4
	add	a0, a0, a2
	and	a0, a0, a1
	mul	a0, a0, a5
	srli	a0, a0, 24
	addi	a0, a0, 32
.Ltmp1048:
	.loc	5 131 13
	or	a1, a4, s4
	bnez	a1, .LBB36_11
.Ltmp1049:
.LBB36_10:
	.loc	5 0 13
	addi	t6, a0, 64
.Ltmp1050:
.LBB36_11:
	.loc	5 915 22 is_stmt 1
	andi	a1, t6, 127
	neg	a0, a1
	li	t4, 64
	li	a2, 32
	sub	s1, a2, a1
	srl	s3, s2, a0
	bltz	s1, .LBB36_13
.Ltmp1051:
	.loc	5 0 22 is_stmt 0
	mv	s0, s3
.Ltmp1052:
	.loc	5 915 22
	addi	a2, a1, -32
	bltz	a2, .LBB36_14
	j	.LBB36_15
.Ltmp1053:
.LBB36_13:
	.loc	5 0 22
	srl	a0, t5, a0
	sub	a2, t4, a1
	xori	a2, a2, 31
	slli	a3, s2, 1
	sll	a2, a3, a2
	or	s0, a0, a2
.Ltmp1054:
	.loc	5 915 22
	addi	a2, a1, -32
	bgez	a2, .LBB36_15
.Ltmp1055:
.LBB36_14:
	.loc	5 0 22
	sll	a0, a4, t6
	or	s0, s0, a0
.Ltmp1056:
.LBB36_15:
	.loc	5 915 22
	addi	a0, a1, -96
	addi	a5, a1, -64
	bltz	a0, .LBB36_17
.Ltmp1057:
	.loc	5 0 22
	li	a3, 0
.Ltmp1058:
	.loc	5 915 22
	bgeu	a1, t4, .LBB36_18
	j	.LBB36_19
.Ltmp1059:
.LBB36_17:
	.loc	5 0 22
	sll	a3, t5, a5
.Ltmp1060:
	.loc	5 915 22
	bltu	a1, t4, .LBB36_19
.Ltmp1061:
.LBB36_18:
	.loc	5 0 22
	mv	s0, a3
.Ltmp1062:
.LBB36_19:
	mv	a3, a4
	.loc	5 915 22
	bnez	a1, .LBB36_22
.Ltmp1063:
	xori	s5, a1, 31
	bltz	a2, .LBB36_23
.Ltmp1064:
.LBB36_21:
	.loc	5 0 22
	sll	a4, a4, a2
.Ltmp1065:
	.loc	5 915 22
	bltz	s1, .LBB36_24
	j	.LBB36_25
.Ltmp1066:
.LBB36_22:
	.loc	5 0 22
	mv	a3, s0
.Ltmp1067:
	.loc	5 915 22
	xori	s5, a1, 31
	bgez	a2, .LBB36_21
.Ltmp1068:
.LBB36_23:
	.loc	5 0 22
	sll	a4, s4, t6
.Ltmp1069:
	srl	s0, t1, s5
	or	a4, a4, s0
.Ltmp1070:
	.loc	5 915 22
	bgez	s1, .LBB36_25
.Ltmp1071:
.LBB36_24:
	.loc	5 0 22
	or	a4, a4, s3
.Ltmp1072:
.LBB36_25:
	.loc	5 915 22
	bltz	a0, .LBB36_27
.Ltmp1073:
	.loc	5 0 22
	sll	a0, t5, a0
.Ltmp1074:
	.loc	5 915 22
	bgeu	a1, t4, .LBB36_28
	j	.LBB36_29
.Ltmp1075:
.LBB36_27:
	.loc	5 0 22
	sll	a0, s2, a5
	xori	a5, a5, 31
	srl	a5, t2, a5
	or	a0, a0, a5
.Ltmp1076:
	.loc	5 915 22
	bltu	a1, t4, .LBB36_29
.Ltmp1077:
.LBB36_28:
	.loc	5 0 22
	mv	a4, a0
.Ltmp1078:
.LBB36_29:
	.loc	5 915 22
	bnez	a1, .LBB36_32
.Ltmp1079:
	bltz	a2, .LBB36_33
.Ltmp1080:
.LBB36_31:
	.loc	5 0 22
	sll	a4, t5, a2
	mv	a0, a3
	j	.LBB36_34
.Ltmp1081:
.LBB36_32:
	mv	s4, a4
.Ltmp1082:
	.loc	5 915 22
	bgez	a2, .LBB36_31
.Ltmp1083:
.LBB36_33:
	.loc	5 0 22
	sll	a0, s2, t6
	srl	a2, t2, s5
	or	a4, a0, a2
	sll	a0, t5, t6
	or	a0, a0, a3
.LBB36_34:
.Ltmp1084:
	or	a2, t0, t3
	or	a5, a7, a6
	slli	s0, s4, 24
	srli	s1, a3, 8
.Ltmp1085:
	.loc	11 56 36 is_stmt 1
	bltu	a1, t4, .LBB36_36
.Ltmp1086:
	.loc	11 0 36 is_stmt 0
	mv	a0, a3
.Ltmp1087:
.LBB36_36:
	lui	a6, 524288
.Ltmp1088:
	or	a3, a5, a2
.Ltmp1089:
	or	a5, s1, s0
	srli	a2, s4, 8
.Ltmp1090:
	.loc	11 56 36
	bgeu	a1, t4, .LBB36_38
.Ltmp1091:
	.loc	11 0 36
	or	a0, a0, a4
.LBB36_38:
.Ltmp1092:
	and	a1, t3, a6
.Ltmp1093:
	.loc	11 56 36
	snez	a0, a0
.Ltmp1094:
	.loc	11 56 17
	or	a0, a0, a5
.Ltmp1095:
	.loc	11 57 28 is_stmt 1
	srli	a4, a5, 31
	.loc	11 57 38 is_stmt 0
	not	a5, a2
	.loc	11 57 27
	and	a4, a4, a5
	.loc	11 57 22
	sub	a0, a0, a4
	.loc	11 57 21
	srli	a0, a0, 31
	.loc	11 57 17
	beqz	a3, .LBB36_40
.Ltmp1096:
	.loc	11 0 17
	slli	a3, t6, 23
	sub	a2, a2, a3
.Ltmp1097:
	lui	a3, 518144
	add	a2, a2, a3
.Ltmp1098:
.LBB36_40:
	.loc	11 59 9 is_stmt 1
	add	a0, a0, a2
.Ltmp1099:
	.loc	11 135 24
	or	a0, a0, a1
.Ltmp1100:
	.loc	1 389 10
	lw	s0, 28(sp)
	lw	s1, 24(sp)
	lw	s2, 20(sp)
.Ltmp1101:
	lw	s3, 16(sp)
	lw	s4, 12(sp)
.Ltmp1102:
	lw	s5, 8(sp)
	addi	sp, sp, 32
	ret
.Ltmp1103:
.Lfunc_end36:
	.size	_ZN17compiler_builtins5float4conv11__floattisf17h3eff7478c3edec05E, .Lfunc_end36-_ZN17compiler_builtins5float4conv11__floattisf17h3eff7478c3edec05E
	.cfi_endproc

	.section	.text.__floattisf,"ax",@progbits
	.hidden	__floattisf
	.globl	__floattisf
	.p2align	1
	.type	__floattisf,@function
__floattisf:
.Lfunc_begin37:
	.loc	1 394 0
	.cfi_startproc
	addi	sp, sp, -32
	.cfi_def_cfa_offset 32
	sw	s0, 28(sp)
	sw	s1, 24(sp)
	sw	s2, 20(sp)
	sw	s3, 16(sp)
	sw	s4, 12(sp)
	sw	s5, 8(sp)
	.cfi_offset s0, -4
	.cfi_offset s1, -8
	.cfi_offset s2, -12
	.cfi_offset s3, -16
	.cfi_offset s4, -20
	.cfi_offset s5, -24
	lw	a7, 0(a0)
	lw	t0, 4(a0)
	lw	t3, 12(a0)
.Ltmp1104:
	.loc	6 1426 17 prologue_end
	snez	a1, a7
	mv	a2, a1
	beqz	t0, .LBB37_2
.Ltmp1105:
	.loc	6 0 17 is_stmt 0
	snez	a2, t0
.LBB37_2:
	lw	a6, 8(a0)
.Ltmp1106:
	.loc	6 1426 17
	bltz	t3, .LBB37_4
.Ltmp1107:
	.loc	6 0 17
	mv	s4, t3
	mv	a4, a6
	mv	s2, t0
	mv	t5, a7
	j	.LBB37_5
.LBB37_4:
	neg	a0, a6
	sltu	a3, a0, a2
	snez	a4, a6
	add	a4, a4, t3
	add	a3, a3, a4
	neg	s4, a3
	sub	a4, a0, a2
	add	a0, t0, a1
	neg	s2, a0
	neg	t5, a7
.LBB37_5:
.Ltmp1108:
	.loc	5 131 13 is_stmt 1
	srli	t1, a4, 1
	lui	a0, 349525
	addi	a3, a0, 1365
	lui	a0, 209715
	addi	a2, a0, 819
	lui	a0, 61681
	addi	a1, a0, -241
	lui	a0, 4112
	addi	a5, a0, 257
	bnez	s4, .LBB37_8
.Ltmp1109:
	.loc	5 0 13 is_stmt 0
	or	a0, a4, t1
	srli	s1, a0, 2
	or	a0, a0, s1
	srli	s1, a0, 4
	or	a0, a0, s1
	srli	s1, a0, 8
	or	a0, a0, s1
	srli	s1, a0, 16
	or	a0, a0, s1
	not	a0, a0
	srli	s1, a0, 1
	and	s1, s1, a3
	sub	a0, a0, s1
	and	s1, a0, a2
	srli	a0, a0, 2
	and	a0, a0, a2
	add	a0, a0, s1
	srli	s1, a0, 4
	add	a0, a0, s1
	and	a0, a0, a1
	mul	a0, a0, a5
	srli	a0, a0, 24
	addi	t6, a0, 32
.Ltmp1110:
	.loc	5 131 13
	srli	t2, t5, 1
	beqz	s2, .LBB37_9
.Ltmp1111:
.LBB37_7:
	.loc	5 0 13
	srli	a0, s2, 1
	or	a0, s2, a0
	srli	s1, a0, 2
	or	a0, a0, s1
	srli	s1, a0, 4
	or	a0, a0, s1
	srli	s1, a0, 8
	or	a0, a0, s1
	srli	s1, a0, 16
	or	a0, a0, s1
	not	a0, a0
	srli	s1, a0, 1
	and	a3, a3, s1
	sub	a0, a0, a3
	and	a3, a0, a2
	srli	a0, a0, 2
	and	a0, a0, a2
	add	a0, a0, a3
	srli	a2, a0, 4
	add	a0, a0, a2
	and	a0, a0, a1
	mul	a0, a0, a5
	srli	a0, a0, 24
.Ltmp1112:
	.loc	5 131 13
	or	a1, a4, s4
	beqz	a1, .LBB37_10
	j	.LBB37_11
.Ltmp1113:
.LBB37_8:
	.loc	5 0 13
	srli	a0, s4, 1
	or	a0, s4, a0
	srli	s1, a0, 2
	or	a0, a0, s1
	srli	s1, a0, 4
	or	a0, a0, s1
	srli	s1, a0, 8
	or	a0, a0, s1
	srli	s1, a0, 16
	or	a0, a0, s1
	not	a0, a0
	srli	s1, a0, 1
	and	s1, s1, a3
	sub	a0, a0, s1
	and	s1, a0, a2
	srli	a0, a0, 2
	and	a0, a0, a2
	add	a0, a0, s1
	srli	s1, a0, 4
	add	a0, a0, s1
	and	a0, a0, a1
	mul	a0, a0, a5
	srli	t6, a0, 24
.Ltmp1114:
	.loc	5 131 13
	srli	t2, t5, 1
	bnez	s2, .LBB37_7
.Ltmp1115:
.LBB37_9:
	.loc	5 0 13
	or	a0, t5, t2
	srli	s1, a0, 2
	or	a0, a0, s1
	srli	s1, a0, 4
	or	a0, a0, s1
	srli	s1, a0, 8
	or	a0, a0, s1
	srli	s1, a0, 16
	or	a0, a0, s1
	not	a0, a0
	srli	s1, a0, 1
	and	a3, a3, s1
	sub	a0, a0, a3
	and	a3, a0, a2
	srli	a0, a0, 2
	and	a0, a0, a2
	add	a0, a0, a3
	srli	a2, a0, 4
	add	a0, a0, a2
	and	a0, a0, a1
	mul	a0, a0, a5
	srli	a0, a0, 24
	addi	a0, a0, 32
.Ltmp1116:
	.loc	5 131 13
	or	a1, a4, s4
	bnez	a1, .LBB37_11
.Ltmp1117:
.LBB37_10:
	.loc	5 0 13
	addi	t6, a0, 64
.Ltmp1118:
.LBB37_11:
	.loc	5 915 22 is_stmt 1
	andi	a1, t6, 127
	neg	a0, a1
	li	t4, 64
	li	a2, 32
	sub	s1, a2, a1
	srl	s3, s2, a0
	bltz	s1, .LBB37_13
.Ltmp1119:
	.loc	5 0 22 is_stmt 0
	mv	s0, s3
.Ltmp1120:
	.loc	5 915 22
	addi	a2, a1, -32
	bltz	a2, .LBB37_14
	j	.LBB37_15
.Ltmp1121:
.LBB37_13:
	.loc	5 0 22
	srl	a0, t5, a0
	sub	a2, t4, a1
	xori	a2, a2, 31
	slli	a3, s2, 1
	sll	a2, a3, a2
	or	s0, a0, a2
.Ltmp1122:
	.loc	5 915 22
	addi	a2, a1, -32
	bgez	a2, .LBB37_15
.Ltmp1123:
.LBB37_14:
	.loc	5 0 22
	sll	a0, a4, t6
	or	s0, s0, a0
.Ltmp1124:
.LBB37_15:
	.loc	5 915 22
	addi	a0, a1, -96
	addi	a5, a1, -64
	bltz	a0, .LBB37_17
.Ltmp1125:
	.loc	5 0 22
	li	a3, 0
.Ltmp1126:
	.loc	5 915 22
	bgeu	a1, t4, .LBB37_18
	j	.LBB37_19
.Ltmp1127:
.LBB37_17:
	.loc	5 0 22
	sll	a3, t5, a5
.Ltmp1128:
	.loc	5 915 22
	bltu	a1, t4, .LBB37_19
.Ltmp1129:
.LBB37_18:
	.loc	5 0 22
	mv	s0, a3
.Ltmp1130:
.LBB37_19:
	mv	a3, a4
	.loc	5 915 22
	bnez	a1, .LBB37_22
.Ltmp1131:
	xori	s5, a1, 31
	bltz	a2, .LBB37_23
.Ltmp1132:
.LBB37_21:
	.loc	5 0 22
	sll	a4, a4, a2
.Ltmp1133:
	.loc	5 915 22
	bltz	s1, .LBB37_24
	j	.LBB37_25
.Ltmp1134:
.LBB37_22:
	.loc	5 0 22
	mv	a3, s0
.Ltmp1135:
	.loc	5 915 22
	xori	s5, a1, 31
	bgez	a2, .LBB37_21
.Ltmp1136:
.LBB37_23:
	.loc	5 0 22
	sll	a4, s4, t6
.Ltmp1137:
	srl	s0, t1, s5
	or	a4, a4, s0
.Ltmp1138:
	.loc	5 915 22
	bgez	s1, .LBB37_25
.Ltmp1139:
.LBB37_24:
	.loc	5 0 22
	or	a4, a4, s3
.Ltmp1140:
.LBB37_25:
	.loc	5 915 22
	bltz	a0, .LBB37_27
.Ltmp1141:
	.loc	5 0 22
	sll	a0, t5, a0
.Ltmp1142:
	.loc	5 915 22
	bgeu	a1, t4, .LBB37_28
	j	.LBB37_29
.Ltmp1143:
.LBB37_27:
	.loc	5 0 22
	sll	a0, s2, a5
	xori	a5, a5, 31
	srl	a5, t2, a5
	or	a0, a0, a5
.Ltmp1144:
	.loc	5 915 22
	bltu	a1, t4, .LBB37_29
.Ltmp1145:
.LBB37_28:
	.loc	5 0 22
	mv	a4, a0
.Ltmp1146:
.LBB37_29:
	.loc	5 915 22
	bnez	a1, .LBB37_32
.Ltmp1147:
	bltz	a2, .LBB37_33
.Ltmp1148:
.LBB37_31:
	.loc	5 0 22
	sll	a4, t5, a2
	mv	a0, a3
	j	.LBB37_34
.Ltmp1149:
.LBB37_32:
	mv	s4, a4
.Ltmp1150:
	.loc	5 915 22
	bgez	a2, .LBB37_31
.Ltmp1151:
.LBB37_33:
	.loc	5 0 22
	sll	a0, s2, t6
	srl	a2, t2, s5
	or	a4, a0, a2
	sll	a0, t5, t6
	or	a0, a0, a3
.LBB37_34:
.Ltmp1152:
	or	a2, t0, t3
	or	a5, a7, a6
	slli	s0, s4, 24
	srli	s1, a3, 8
.Ltmp1153:
	.loc	11 56 36 is_stmt 1
	bltu	a1, t4, .LBB37_36
.Ltmp1154:
	.loc	11 0 36 is_stmt 0
	mv	a0, a3
.Ltmp1155:
.LBB37_36:
	lui	a6, 524288
.Ltmp1156:
	or	a3, a5, a2
.Ltmp1157:
	or	a5, s1, s0
	srli	a2, s4, 8
.Ltmp1158:
	.loc	11 56 36
	bgeu	a1, t4, .LBB37_38
.Ltmp1159:
	.loc	11 0 36
	or	a0, a0, a4
.LBB37_38:
.Ltmp1160:
	and	a1, t3, a6
.Ltmp1161:
	.loc	11 56 36
	snez	a0, a0
.Ltmp1162:
	.loc	11 56 17
	or	a0, a0, a5
.Ltmp1163:
	.loc	11 57 28 is_stmt 1
	srli	a4, a5, 31
	.loc	11 57 38 is_stmt 0
	not	a5, a2
	.loc	11 57 27
	and	a4, a4, a5
	.loc	11 57 22
	sub	a0, a0, a4
	.loc	11 57 21
	srli	a0, a0, 31
	.loc	11 57 17
	beqz	a3, .LBB37_40
.Ltmp1164:
	.loc	11 0 17
	slli	a3, t6, 23
	sub	a2, a2, a3
.Ltmp1165:
	lui	a3, 518144
	add	a2, a2, a3
.Ltmp1166:
.LBB37_40:
	.loc	11 59 9 is_stmt 1
	add	a0, a0, a2
.Ltmp1167:
	.loc	11 135 24
	or	a0, a0, a1
.Ltmp1168:
	.loc	1 396 14
	lw	s0, 28(sp)
	lw	s1, 24(sp)
	lw	s2, 20(sp)
.Ltmp1169:
	lw	s3, 16(sp)
	lw	s4, 12(sp)
.Ltmp1170:
	lw	s5, 8(sp)
	addi	sp, sp, 32
	ret
.Ltmp1171:
.Lfunc_end37:
	.size	__floattisf, .Lfunc_end37-__floattisf
	.cfi_endproc

	.section	.text._ZN17compiler_builtins5float4conv11__floattidf17h7f3ab5436ddd8d27E,"ax",@progbits
	.hidden	_ZN17compiler_builtins5float4conv11__floattidf17h7f3ab5436ddd8d27E
	.globl	_ZN17compiler_builtins5float4conv11__floattidf17h7f3ab5436ddd8d27E
	.p2align	1
	.type	_ZN17compiler_builtins5float4conv11__floattidf17h7f3ab5436ddd8d27E,@function
_ZN17compiler_builtins5float4conv11__floattidf17h7f3ab5436ddd8d27E:
.Lfunc_begin38:
	.loc	1 386 0
	.cfi_startproc
	addi	sp, sp, -32
	.cfi_def_cfa_offset 32
	sw	s0, 28(sp)
	sw	s1, 24(sp)
	sw	s2, 20(sp)
	sw	s3, 16(sp)
	sw	s4, 12(sp)
	sw	s5, 8(sp)
	.cfi_offset s0, -4
	.cfi_offset s1, -8
	.cfi_offset s2, -12
	.cfi_offset s3, -16
	.cfi_offset s4, -20
	.cfi_offset s5, -24
	lw	a7, 0(a0)
	lw	t0, 4(a0)
	lw	t2, 12(a0)
.Ltmp1172:
	.loc	6 1426 17 prologue_end
	snez	a1, a7
.Ltmp1173:
	.loc	6 0 17 is_stmt 0
	mv	a2, a1
	.loc	6 1426 17
	beqz	t0, .LBB38_2
.Ltmp1174:
	.loc	6 0 17
	snez	a2, t0
.Ltmp1175:
.LBB38_2:
	lw	a6, 8(a0)
.Ltmp1176:
	.loc	6 1426 17
	bltz	t2, .LBB38_4
.Ltmp1177:
	.loc	6 0 17
	mv	s4, t2
	mv	s3, a6
	mv	t6, t0
	mv	t5, a7
	j	.LBB38_5
.Ltmp1178:
.LBB38_4:
	neg	a0, a6
	sltu	a3, a0, a2
	snez	a4, a6
	add	a4, a4, t2
	add	a3, a3, a4
	neg	s4, a3
	sub	s3, a0, a2
	add	a0, t0, a1
	neg	t6, a0
	neg	t5, a7
.Ltmp1179:
.LBB38_5:
	.loc	5 131 13 is_stmt 1
	srli	t3, s3, 1
	lui	a0, 349525
	addi	a5, a0, 1365
	lui	a0, 209715
	addi	a4, a0, 819
	lui	a0, 61681
	addi	a1, a0, -241
	lui	a0, 4112
	addi	a3, a0, 257
	bnez	s4, .LBB38_8
.Ltmp1180:
	.loc	5 0 13 is_stmt 0
	or	a0, s3, t3
	srli	a2, a0, 2
	or	a0, a0, a2
	srli	a2, a0, 4
	or	a0, a0, a2
	srli	a2, a0, 8
	or	a0, a0, a2
	srli	a2, a0, 16
	or	a0, a0, a2
	not	a0, a0
	srli	a2, a0, 1
	and	a2, a2, a5
	sub	a0, a0, a2
	and	a2, a0, a4
	srli	a0, a0, 2
	and	a0, a0, a4
	add	a0, a0, a2
	srli	a2, a0, 4
	add	a0, a0, a2
	and	a0, a0, a1
	mul	a0, a0, a3
	srli	a0, a0, 24
	addi	s2, a0, 32
.Ltmp1181:
	.loc	5 131 13
	srli	t1, t5, 1
	beqz	t6, .LBB38_9
.Ltmp1182:
.LBB38_7:
	.loc	5 0 13
	srli	a0, t6, 1
	or	a0, t6, a0
	srli	a2, a0, 2
	or	a0, a0, a2
	srli	a2, a0, 4
	or	a0, a0, a2
	srli	a2, a0, 8
	or	a0, a0, a2
	srli	a2, a0, 16
	or	a0, a0, a2
	not	a0, a0
	srli	a2, a0, 1
	and	a2, a2, a5
	sub	a0, a0, a2
	and	a2, a0, a4
	srli	a0, a0, 2
	and	a0, a0, a4
	add	a0, a0, a2
	srli	a2, a0, 4
	add	a0, a0, a2
	and	a0, a0, a1
	mul	a0, a0, a3
	srli	a0, a0, 24
.Ltmp1183:
	.loc	5 131 13
	or	a1, s3, s4
	beqz	a1, .LBB38_10
	j	.LBB38_11
.Ltmp1184:
.LBB38_8:
	.loc	5 0 13
	srli	a0, s4, 1
	or	a0, s4, a0
	srli	a2, a0, 2
	or	a0, a0, a2
	srli	a2, a0, 4
	or	a0, a0, a2
	srli	a2, a0, 8
	or	a0, a0, a2
	srli	a2, a0, 16
	or	a0, a0, a2
	not	a0, a0
	srli	a2, a0, 1
	and	a2, a2, a5
	sub	a0, a0, a2
	and	a2, a0, a4
	srli	a0, a0, 2
	and	a0, a0, a4
	add	a0, a0, a2
	srli	a2, a0, 4
	add	a0, a0, a2
	and	a0, a0, a1
	mul	a0, a0, a3
	srli	s2, a0, 24
.Ltmp1185:
	.loc	5 131 13
	srli	t1, t5, 1
	bnez	t6, .LBB38_7
.Ltmp1186:
.LBB38_9:
	.loc	5 0 13
	or	a0, t5, t1
	srli	a2, a0, 2
	or	a0, a0, a2
	srli	a2, a0, 4
	or	a0, a0, a2
	srli	a2, a0, 8
	or	a0, a0, a2
	srli	a2, a0, 16
	or	a0, a0, a2
	not	a0, a0
	srli	a2, a0, 1
	and	a2, a2, a5
	sub	a0, a0, a2
	and	a2, a0, a4
	srli	a0, a0, 2
	and	a0, a0, a4
	add	a0, a0, a2
	srli	a2, a0, 4
	add	a0, a0, a2
	and	a0, a0, a1
	mul	a0, a0, a3
	srli	a0, a0, 24
	addi	a0, a0, 32
.Ltmp1187:
	.loc	5 131 13
	or	a1, s3, s4
	bnez	a1, .LBB38_11
.Ltmp1188:
.LBB38_10:
	.loc	5 0 13
	addi	s2, a0, 64
.Ltmp1189:
.LBB38_11:
	.loc	5 915 22 is_stmt 1
	andi	a1, s2, 127
	addi	a3, a1, -32
	xori	t4, a1, 31
	bltz	a3, .LBB38_13
.Ltmp1190:
	.loc	5 0 22 is_stmt 0
	sll	a2, s3, a3
	j	.LBB38_14
.Ltmp1191:
.LBB38_13:
	sll	a0, s4, s2
	srl	a2, t3, t4
	or	a2, a2, a0
.Ltmp1192:
.LBB38_14:
	.loc	5 915 22
	neg	a0, a1
	li	a4, 32
	sub	a4, a4, a1
	srl	a5, t6, a0
	bgez	a4, .LBB38_16
.Ltmp1193:
	.loc	5 0 22
	or	a2, a2, a5
.Ltmp1194:
.LBB38_16:
	.loc	5 915 22
	addi	s1, a1, -96
	addi	s5, a1, -64
	bltz	s1, .LBB38_18
.Ltmp1195:
	.loc	5 0 22
	sll	s0, t5, s1
.Ltmp1196:
	li	t3, 64
	.loc	5 915 22
	bgeu	a1, t3, .LBB38_19
	j	.LBB38_20
.Ltmp1197:
.LBB38_18:
	.loc	5 0 22
	sll	t3, t6, s5
	xori	s0, s5, 31
	srl	s0, t1, s0
	or	s0, t3, s0
.Ltmp1198:
	li	t3, 64
	.loc	5 915 22
	bltu	a1, t3, .LBB38_20
.Ltmp1199:
.LBB38_19:
	.loc	5 0 22
	mv	a2, s0
.Ltmp1200:
.LBB38_20:
	.loc	5 915 22
	bnez	a1, .LBB38_25
.Ltmp1201:
	bltz	a4, .LBB38_26
.Ltmp1202:
.LBB38_22:
	bltz	a3, .LBB38_27
.Ltmp1203:
.LBB38_23:
	bltz	s1, .LBB38_28
.Ltmp1204:
.LBB38_24:
	.loc	5 0 22
	li	a0, 0
.Ltmp1205:
	.loc	5 915 22
	bgeu	a1, t3, .LBB38_29
	j	.LBB38_30
.Ltmp1206:
.LBB38_25:
	.loc	5 0 22
	mv	s4, a2
.Ltmp1207:
	.loc	5 915 22
	bgez	a4, .LBB38_22
.Ltmp1208:
.LBB38_26:
	.loc	5 0 22
	srl	a0, t5, a0
	sub	a2, t3, a1
	xori	a2, a2, 31
	slli	a4, t6, 1
	sll	a2, a4, a2
	or	a5, a0, a2
.Ltmp1209:
	.loc	5 915 22
	bgez	a3, .LBB38_23
.Ltmp1210:
.LBB38_27:
	.loc	5 0 22
	sll	a0, s3, s2
	or	a5, a5, a0
.Ltmp1211:
	.loc	5 915 22
	bgez	s1, .LBB38_24
.Ltmp1212:
.LBB38_28:
	.loc	5 0 22
	sll	a0, t5, s5
.Ltmp1213:
	.loc	5 915 22
	bltu	a1, t3, .LBB38_30
.Ltmp1214:
.LBB38_29:
	.loc	5 0 22
	mv	a5, a0
.Ltmp1215:
.LBB38_30:
	.loc	5 915 22
	bnez	a1, .LBB38_33
.Ltmp1216:
	bltz	a3, .LBB38_34
.Ltmp1217:
.LBB38_32:
	.loc	5 0 22
	li	a2, 0
.Ltmp1218:
	.loc	5 915 22
	bgeu	a1, t3, .LBB38_35
	j	.LBB38_36
.Ltmp1219:
.LBB38_33:
	.loc	5 0 22
	mv	s3, a5
.Ltmp1220:
	.loc	5 915 22
	bgez	a3, .LBB38_32
.Ltmp1221:
.LBB38_34:
	.loc	5 0 22
	sll	a2, t5, s2
.Ltmp1222:
	.loc	5 915 22
	bltu	a1, t3, .LBB38_36
.Ltmp1223:
.LBB38_35:
	.loc	5 0 22
	li	a2, 0
.Ltmp1224:
.LBB38_36:
	or	a0, t0, t2
	or	a4, a7, a6
.Ltmp1225:
	.loc	5 915 22
	bltz	a3, .LBB38_38
.Ltmp1226:
	.loc	5 0 22
	sll	a5, t5, a3
	lui	s1, 524288
.Ltmp1227:
	or	a0, a0, a4
	.loc	5 915 22
	bgeu	a1, t3, .LBB38_39
	j	.LBB38_40
.Ltmp1228:
.LBB38_38:
	.loc	5 0 22
	sll	a3, t6, s2
	srl	a5, t1, t4
	or	a5, a5, a3
	lui	s1, 524288
.Ltmp1229:
	or	a0, a0, a4
	.loc	5 915 22
	bltu	a1, t3, .LBB38_40
.Ltmp1230:
.LBB38_39:
	.loc	5 0 22
	li	a5, 0
.Ltmp1231:
.LBB38_40:
	srli	a3, s4, 11
	and	a1, t2, s1
.Ltmp1232:
	.loc	11 65 17 is_stmt 1
	slli	a4, s4, 21
	srli	s1, s3, 11
	or	a4, a4, s1
.Ltmp1233:
	.loc	11 66 18
	slli	s1, s3, 21
	srli	s0, a5, 11
	or	s1, s1, s0
	srli	s0, a2, 11
	slli	a5, a5, 21
.Ltmp1234:
	or	a5, a5, s0
	.loc	11 66 17 is_stmt 0
	or	a2, a2, a5
.Ltmp1235:
	.loc	11 67 28 is_stmt 1
	srli	a5, s1, 31
	.loc	11 67 38 is_stmt 0
	not	s0, a4
	.loc	11 67 27
	and	a5, a5, s0
	.loc	11 67 22
	sltu	a2, a2, a5
.Ltmp1236:
	sub	a2, s1, a2
	.loc	11 67 21
	srli	a2, a2, 31
	.loc	11 67 17
	beqz	a0, .LBB38_42
.Ltmp1237:
	.loc	11 0 17
	slli	a0, s2, 20
	sub	a0, a3, a0
	lui	a3, 294144
.Ltmp1238:
	add	a3, a3, a0
.Ltmp1239:
.LBB38_42:
	.loc	11 69 9 is_stmt 1
	add	a0, a4, a2
	sltu	a2, a0, a4
	add	a2, a2, a3
.Ltmp1240:
	.loc	11 141 24
	or	a1, a1, a2
.Ltmp1241:
	.loc	1 389 10
	lw	s0, 28(sp)
	lw	s1, 24(sp)
.Ltmp1242:
	lw	s2, 20(sp)
.Ltmp1243:
	lw	s3, 16(sp)
	lw	s4, 12(sp)
	lw	s5, 8(sp)
	addi	sp, sp, 32
	ret
.Ltmp1244:
.Lfunc_end38:
	.size	_ZN17compiler_builtins5float4conv11__floattidf17h7f3ab5436ddd8d27E, .Lfunc_end38-_ZN17compiler_builtins5float4conv11__floattidf17h7f3ab5436ddd8d27E
	.cfi_endproc

	.section	.text.__floattidf,"ax",@progbits
	.hidden	__floattidf
	.globl	__floattidf
	.p2align	1
	.type	__floattidf,@function
__floattidf:
.Lfunc_begin39:
	.loc	1 394 0
	.cfi_startproc
	addi	sp, sp, -32
	.cfi_def_cfa_offset 32
	sw	s0, 28(sp)
	sw	s1, 24(sp)
	sw	s2, 20(sp)
	sw	s3, 16(sp)
	sw	s4, 12(sp)
	sw	s5, 8(sp)
	.cfi_offset s0, -4
	.cfi_offset s1, -8
	.cfi_offset s2, -12
	.cfi_offset s3, -16
	.cfi_offset s4, -20
	.cfi_offset s5, -24
	lw	a7, 0(a0)
	lw	t0, 4(a0)
	lw	t2, 12(a0)
.Ltmp1245:
	.loc	6 1426 17 prologue_end
	snez	a1, a7
.Ltmp1246:
	.loc	6 0 17 is_stmt 0
	mv	a2, a1
	.loc	6 1426 17
	beqz	t0, .LBB39_2
.Ltmp1247:
	.loc	6 0 17
	snez	a2, t0
.Ltmp1248:
.LBB39_2:
	lw	a6, 8(a0)
.Ltmp1249:
	.loc	6 1426 17
	bltz	t2, .LBB39_4
.Ltmp1250:
	.loc	6 0 17
	mv	s4, t2
	mv	s3, a6
	mv	t6, t0
	mv	t5, a7
	j	.LBB39_5
.Ltmp1251:
.LBB39_4:
	neg	a0, a6
	sltu	a3, a0, a2
	snez	a4, a6
	add	a4, a4, t2
	add	a3, a3, a4
	neg	s4, a3
	sub	s3, a0, a2
	add	a0, t0, a1
	neg	t6, a0
	neg	t5, a7
.Ltmp1252:
.LBB39_5:
	.loc	5 131 13 is_stmt 1
	srli	t3, s3, 1
	lui	a0, 349525
	addi	a5, a0, 1365
	lui	a0, 209715
	addi	a4, a0, 819
	lui	a0, 61681
	addi	a1, a0, -241
	lui	a0, 4112
	addi	a3, a0, 257
	bnez	s4, .LBB39_8
.Ltmp1253:
	.loc	5 0 13 is_stmt 0
	or	a0, s3, t3
	srli	a2, a0, 2
	or	a0, a0, a2
	srli	a2, a0, 4
	or	a0, a0, a2
	srli	a2, a0, 8
	or	a0, a0, a2
	srli	a2, a0, 16
	or	a0, a0, a2
	not	a0, a0
	srli	a2, a0, 1
	and	a2, a2, a5
	sub	a0, a0, a2
	and	a2, a0, a4
	srli	a0, a0, 2
	and	a0, a0, a4
	add	a0, a0, a2
	srli	a2, a0, 4
	add	a0, a0, a2
	and	a0, a0, a1
	mul	a0, a0, a3
	srli	a0, a0, 24
	addi	s2, a0, 32
.Ltmp1254:
	.loc	5 131 13
	srli	t1, t5, 1
	beqz	t6, .LBB39_9
.Ltmp1255:
.LBB39_7:
	.loc	5 0 13
	srli	a0, t6, 1
	or	a0, t6, a0
	srli	a2, a0, 2
	or	a0, a0, a2
	srli	a2, a0, 4
	or	a0, a0, a2
	srli	a2, a0, 8
	or	a0, a0, a2
	srli	a2, a0, 16
	or	a0, a0, a2
	not	a0, a0
	srli	a2, a0, 1
	and	a2, a2, a5
	sub	a0, a0, a2
	and	a2, a0, a4
	srli	a0, a0, 2
	and	a0, a0, a4
	add	a0, a0, a2
	srli	a2, a0, 4
	add	a0, a0, a2
	and	a0, a0, a1
	mul	a0, a0, a3
	srli	a0, a0, 24
.Ltmp1256:
	.loc	5 131 13
	or	a1, s3, s4
	beqz	a1, .LBB39_10
	j	.LBB39_11
.Ltmp1257:
.LBB39_8:
	.loc	5 0 13
	srli	a0, s4, 1
	or	a0, s4, a0
	srli	a2, a0, 2
	or	a0, a0, a2
	srli	a2, a0, 4
	or	a0, a0, a2
	srli	a2, a0, 8
	or	a0, a0, a2
	srli	a2, a0, 16
	or	a0, a0, a2
	not	a0, a0
	srli	a2, a0, 1
	and	a2, a2, a5
	sub	a0, a0, a2
	and	a2, a0, a4
	srli	a0, a0, 2
	and	a0, a0, a4
	add	a0, a0, a2
	srli	a2, a0, 4
	add	a0, a0, a2
	and	a0, a0, a1
	mul	a0, a0, a3
	srli	s2, a0, 24
.Ltmp1258:
	.loc	5 131 13
	srli	t1, t5, 1
	bnez	t6, .LBB39_7
.Ltmp1259:
.LBB39_9:
	.loc	5 0 13
	or	a0, t5, t1
	srli	a2, a0, 2
	or	a0, a0, a2
	srli	a2, a0, 4
	or	a0, a0, a2
	srli	a2, a0, 8
	or	a0, a0, a2
	srli	a2, a0, 16
	or	a0, a0, a2
	not	a0, a0
	srli	a2, a0, 1
	and	a2, a2, a5
	sub	a0, a0, a2
	and	a2, a0, a4
	srli	a0, a0, 2
	and	a0, a0, a4
	add	a0, a0, a2
	srli	a2, a0, 4
	add	a0, a0, a2
	and	a0, a0, a1
	mul	a0, a0, a3
	srli	a0, a0, 24
	addi	a0, a0, 32
.Ltmp1260:
	.loc	5 131 13
	or	a1, s3, s4
	bnez	a1, .LBB39_11
.Ltmp1261:
.LBB39_10:
	.loc	5 0 13
	addi	s2, a0, 64
.Ltmp1262:
.LBB39_11:
	.loc	5 915 22 is_stmt 1
	andi	a1, s2, 127
	addi	a3, a1, -32
	xori	t4, a1, 31
	bltz	a3, .LBB39_13
.Ltmp1263:
	.loc	5 0 22 is_stmt 0
	sll	a2, s3, a3
	j	.LBB39_14
.Ltmp1264:
.LBB39_13:
	sll	a0, s4, s2
	srl	a2, t3, t4
	or	a2, a2, a0
.Ltmp1265:
.LBB39_14:
	.loc	5 915 22
	neg	a0, a1
	li	a4, 32
	sub	a4, a4, a1
	srl	a5, t6, a0
	bgez	a4, .LBB39_16
.Ltmp1266:
	.loc	5 0 22
	or	a2, a2, a5
.Ltmp1267:
.LBB39_16:
	.loc	5 915 22
	addi	s1, a1, -96
	addi	s5, a1, -64
	bltz	s1, .LBB39_18
.Ltmp1268:
	.loc	5 0 22
	sll	s0, t5, s1
.Ltmp1269:
	li	t3, 64
	.loc	5 915 22
	bgeu	a1, t3, .LBB39_19
	j	.LBB39_20
.Ltmp1270:
.LBB39_18:
	.loc	5 0 22
	sll	t3, t6, s5
	xori	s0, s5, 31
	srl	s0, t1, s0
	or	s0, t3, s0
.Ltmp1271:
	li	t3, 64
	.loc	5 915 22
	bltu	a1, t3, .LBB39_20
.Ltmp1272:
.LBB39_19:
	.loc	5 0 22
	mv	a2, s0
.Ltmp1273:
.LBB39_20:
	.loc	5 915 22
	bnez	a1, .LBB39_25
.Ltmp1274:
	bltz	a4, .LBB39_26
.Ltmp1275:
.LBB39_22:
	bltz	a3, .LBB39_27
.Ltmp1276:
.LBB39_23:
	bltz	s1, .LBB39_28
.Ltmp1277:
.LBB39_24:
	.loc	5 0 22
	li	a0, 0
.Ltmp1278:
	.loc	5 915 22
	bgeu	a1, t3, .LBB39_29
	j	.LBB39_30
.Ltmp1279:
.LBB39_25:
	.loc	5 0 22
	mv	s4, a2
.Ltmp1280:
	.loc	5 915 22
	bgez	a4, .LBB39_22
.Ltmp1281:
.LBB39_26:
	.loc	5 0 22
	srl	a0, t5, a0
	sub	a2, t3, a1
	xori	a2, a2, 31
	slli	a4, t6, 1
	sll	a2, a4, a2
	or	a5, a0, a2
.Ltmp1282:
	.loc	5 915 22
	bgez	a3, .LBB39_23
.Ltmp1283:
.LBB39_27:
	.loc	5 0 22
	sll	a0, s3, s2
	or	a5, a5, a0
.Ltmp1284:
	.loc	5 915 22
	bgez	s1, .LBB39_24
.Ltmp1285:
.LBB39_28:
	.loc	5 0 22
	sll	a0, t5, s5
.Ltmp1286:
	.loc	5 915 22
	bltu	a1, t3, .LBB39_30
.Ltmp1287:
.LBB39_29:
	.loc	5 0 22
	mv	a5, a0
.Ltmp1288:
.LBB39_30:
	.loc	5 915 22
	bnez	a1, .LBB39_33
.Ltmp1289:
	bltz	a3, .LBB39_34
.Ltmp1290:
.LBB39_32:
	.loc	5 0 22
	li	a2, 0
.Ltmp1291:
	.loc	5 915 22
	bgeu	a1, t3, .LBB39_35
	j	.LBB39_36
.Ltmp1292:
.LBB39_33:
	.loc	5 0 22
	mv	s3, a5
.Ltmp1293:
	.loc	5 915 22
	bgez	a3, .LBB39_32
.Ltmp1294:
.LBB39_34:
	.loc	5 0 22
	sll	a2, t5, s2
.Ltmp1295:
	.loc	5 915 22
	bltu	a1, t3, .LBB39_36
.Ltmp1296:
.LBB39_35:
	.loc	5 0 22
	li	a2, 0
.Ltmp1297:
.LBB39_36:
	or	a0, t0, t2
	or	a4, a7, a6
.Ltmp1298:
	.loc	5 915 22
	bltz	a3, .LBB39_38
.Ltmp1299:
	.loc	5 0 22
	sll	a5, t5, a3
	lui	s1, 524288
.Ltmp1300:
	or	a0, a0, a4
	.loc	5 915 22
	bgeu	a1, t3, .LBB39_39
	j	.LBB39_40
.Ltmp1301:
.LBB39_38:
	.loc	5 0 22
	sll	a3, t6, s2
	srl	a5, t1, t4
	or	a5, a5, a3
	lui	s1, 524288
.Ltmp1302:
	or	a0, a0, a4
	.loc	5 915 22
	bltu	a1, t3, .LBB39_40
.Ltmp1303:
.LBB39_39:
	.loc	5 0 22
	li	a5, 0
.Ltmp1304:
.LBB39_40:
	srli	a3, s4, 11
	and	a1, t2, s1
.Ltmp1305:
	.loc	11 65 17 is_stmt 1
	slli	a4, s4, 21
	srli	s1, s3, 11
	or	a4, a4, s1
.Ltmp1306:
	.loc	11 66 18
	slli	s1, s3, 21
	srli	s0, a5, 11
	or	s1, s1, s0
	srli	s0, a2, 11
	slli	a5, a5, 21
.Ltmp1307:
	or	a5, a5, s0
	.loc	11 66 17 is_stmt 0
	or	a2, a2, a5
.Ltmp1308:
	.loc	11 67 28 is_stmt 1
	srli	a5, s1, 31
	.loc	11 67 38 is_stmt 0
	not	s0, a4
	.loc	11 67 27
	and	a5, a5, s0
	.loc	11 67 22
	sltu	a2, a2, a5
.Ltmp1309:
	sub	a2, s1, a2
	.loc	11 67 21
	srli	a2, a2, 31
	.loc	11 67 17
	beqz	a0, .LBB39_42
.Ltmp1310:
	.loc	11 0 17
	slli	a0, s2, 20
	sub	a0, a3, a0
	lui	a3, 294144
.Ltmp1311:
	add	a3, a3, a0
.Ltmp1312:
.LBB39_42:
	.loc	11 69 9 is_stmt 1
	add	a0, a4, a2
	sltu	a2, a0, a4
	add	a2, a2, a3
.Ltmp1313:
	.loc	11 141 24
	or	a1, a1, a2
.Ltmp1314:
	.loc	1 396 14
	lw	s0, 28(sp)
	lw	s1, 24(sp)
.Ltmp1315:
	lw	s2, 20(sp)
.Ltmp1316:
	lw	s3, 16(sp)
	lw	s4, 12(sp)
	lw	s5, 8(sp)
	addi	sp, sp, 32
	ret
.Ltmp1317:
.Lfunc_end39:
	.size	__floattidf, .Lfunc_end39-__floattidf
	.cfi_endproc

	.section	.text._ZN17compiler_builtins5float4conv12__fixunssfsi17h355b26ac92241689E,"ax",@progbits
	.hidden	_ZN17compiler_builtins5float4conv12__fixunssfsi17h355b26ac92241689E
	.globl	_ZN17compiler_builtins5float4conv12__fixunssfsi17h355b26ac92241689E
	.p2align	1
	.type	_ZN17compiler_builtins5float4conv12__fixunssfsi17h355b26ac92241689E,@function
_ZN17compiler_builtins5float4conv12__fixunssfsi17h355b26ac92241689E:
.Lfunc_begin40:
	.loc	1 386 0
	.cfi_startproc
	.loc	11 150 12 prologue_end
	srli	a1, a0, 23
	li	a2, 127
	bgeu	a1, a2, .LBB40_2
.Ltmp1318:
	.loc	11 0 12 is_stmt 0
	li	a0, 0
.Ltmp1319:
	.loc	1 389 10 is_stmt 1
	ret
.LBB40_2:
.Ltmp1320:
	.loc	1 0 10 is_stmt 0
	li	a2, 159
.Ltmp1321:
	.loc	11 152 19 is_stmt 1
	bgeu	a1, a2, .LBB40_4
.Ltmp1322:
	.loc	11 153 31
	slli	a0, a0, 8
.Ltmp1323:
	.loc	11 0 31 is_stmt 0
	lui	a2, 524288
	.loc	11 153 21
	or	a0, a0, a2
.Ltmp1324:
	.loc	11 0 21
	li	a2, 30
.Ltmp1325:
	.loc	11 154 21 is_stmt 1
	sub	a1, a2, a1
.Ltmp1326:
	.loc	11 155 13
	srl	a0, a0, a1
.Ltmp1327:
	.loc	1 389 10
	ret
.Ltmp1328:
.LBB40_4:
	.loc	1 0 10 is_stmt 0
	lui	a1, 522240
	addi	a1, a1, 1
.Ltmp1329:
	.loc	11 156 19 is_stmt 1
	sltu	a0, a0, a1
.Ltmp1330:
	.loc	11 156 16 is_stmt 0
	neg	a0, a0
.Ltmp1331:
	.loc	1 389 10 is_stmt 1
	ret
.Ltmp1332:
.Lfunc_end40:
	.size	_ZN17compiler_builtins5float4conv12__fixunssfsi17h355b26ac92241689E, .Lfunc_end40-_ZN17compiler_builtins5float4conv12__fixunssfsi17h355b26ac92241689E
	.cfi_endproc

	.section	.text.__fixunssfsi,"ax",@progbits
	.hidden	__fixunssfsi
	.globl	__fixunssfsi
	.p2align	1
	.type	__fixunssfsi,@function
__fixunssfsi:
.Lfunc_begin41:
	.loc	1 394 0
	.cfi_startproc
	.loc	11 150 12 prologue_end
	srli	a1, a0, 23
	li	a2, 127
	bgeu	a1, a2, .LBB41_2
.Ltmp1333:
	.loc	11 0 12 is_stmt 0
	li	a0, 0
.Ltmp1334:
	.loc	1 396 14 is_stmt 1
	ret
.LBB41_2:
.Ltmp1335:
	.loc	1 0 14 is_stmt 0
	li	a2, 159
.Ltmp1336:
	.loc	11 152 19 is_stmt 1
	bgeu	a1, a2, .LBB41_4
.Ltmp1337:
	.loc	11 153 31
	slli	a0, a0, 8
.Ltmp1338:
	.loc	11 0 31 is_stmt 0
	lui	a2, 524288
	.loc	11 153 21
	or	a0, a0, a2
	li	a2, 30
.Ltmp1339:
	.loc	11 154 21 is_stmt 1
	sub	a1, a2, a1
.Ltmp1340:
	.loc	11 155 13
	srl	a0, a0, a1
.Ltmp1341:
	.loc	1 396 14
	ret
.Ltmp1342:
.LBB41_4:
	.loc	1 0 14 is_stmt 0
	lui	a1, 522240
	addi	a1, a1, 1
.Ltmp1343:
	.loc	11 156 19 is_stmt 1
	sltu	a0, a0, a1
.Ltmp1344:
	.loc	11 156 16 is_stmt 0
	neg	a0, a0
.Ltmp1345:
	.loc	1 396 14 is_stmt 1
	ret
.Ltmp1346:
.Lfunc_end41:
	.size	__fixunssfsi, .Lfunc_end41-__fixunssfsi
	.cfi_endproc

	.section	.text._ZN17compiler_builtins5float4conv12__fixunssfdi17h0d0e48bf3d6e12e0E,"ax",@progbits
	.hidden	_ZN17compiler_builtins5float4conv12__fixunssfdi17h0d0e48bf3d6e12e0E
	.globl	_ZN17compiler_builtins5float4conv12__fixunssfdi17h0d0e48bf3d6e12e0E
	.p2align	1
	.type	_ZN17compiler_builtins5float4conv12__fixunssfdi17h0d0e48bf3d6e12e0E,@function
_ZN17compiler_builtins5float4conv12__fixunssfdi17h0d0e48bf3d6e12e0E:
.Lfunc_begin42:
	.loc	1 386 0
	.cfi_startproc
	.loc	11 166 12 prologue_end
	srli	a1, a0, 23
	li	a2, 127
	bgeu	a1, a2, .LBB42_2
.Ltmp1347:
	.loc	11 0 12 is_stmt 0
	li	a0, 0
.Ltmp1348:
	li	a1, 0
	.loc	1 389 10 is_stmt 1
	ret
.LBB42_2:
.Ltmp1349:
	.loc	1 0 10 is_stmt 0
	li	a2, 191
.Ltmp1350:
	.loc	11 168 19 is_stmt 1
	bgeu	a1, a2, .LBB42_5
.Ltmp1351:
	.loc	11 169 31
	slli	a2, a0, 8
	lui	a5, 524288
	li	a3, 62
.Ltmp1352:
	.loc	11 170 21
	sub	a1, a3, a1
.Ltmp1353:
	.loc	11 171 13
	andi	a4, a1, 63
	addi	a3, a4, -32
.Ltmp1354:
	.loc	11 169 21
	or	a2, a2, a5
.Ltmp1355:
	.loc	11 171 13
	bltz	a3, .LBB42_6
.Ltmp1356:
	.loc	11 0 13 is_stmt 0
	li	a1, 0
	srl	a0, a2, a3
.Ltmp1357:
	.loc	1 389 10 is_stmt 1
	ret
.LBB42_5:
.Ltmp1358:
	.loc	1 0 10 is_stmt 0
	lui	a1, 522240
	addi	a1, a1, 1
.Ltmp1359:
	.loc	11 172 19 is_stmt 1
	sltu	a0, a0, a1
.Ltmp1360:
	.loc	11 172 16 is_stmt 0
	neg	a0, a0
	mv	a1, a0
.Ltmp1361:
	.loc	1 389 10 is_stmt 1
	ret
.LBB42_6:
.Ltmp1362:
	.loc	1 0 10 is_stmt 0
	xori	a3, a4, 31
	slli	a0, a0, 9
.Ltmp1363:
	sll	a0, a0, a3
	srl	a1, a2, a1
	.loc	1 389 10
	ret
.Ltmp1364:
.Lfunc_end42:
	.size	_ZN17compiler_builtins5float4conv12__fixunssfdi17h0d0e48bf3d6e12e0E, .Lfunc_end42-_ZN17compiler_builtins5float4conv12__fixunssfdi17h0d0e48bf3d6e12e0E
	.cfi_endproc

	.section	.text.__fixunssfdi,"ax",@progbits
	.hidden	__fixunssfdi
	.globl	__fixunssfdi
	.p2align	1
	.type	__fixunssfdi,@function
__fixunssfdi:
.Lfunc_begin43:
	.loc	1 394 0 is_stmt 1
	.cfi_startproc
	.loc	11 166 12 prologue_end
	srli	a1, a0, 23
	li	a2, 127
	bgeu	a1, a2, .LBB43_2
.Ltmp1365:
	.loc	11 0 12 is_stmt 0
	li	a0, 0
.Ltmp1366:
	li	a1, 0
	.loc	1 396 14 is_stmt 1
	ret
.LBB43_2:
.Ltmp1367:
	.loc	1 0 14 is_stmt 0
	li	a2, 191
.Ltmp1368:
	.loc	11 168 19 is_stmt 1
	bgeu	a1, a2, .LBB43_5
.Ltmp1369:
	.loc	11 169 31
	slli	a2, a0, 8
	lui	a5, 524288
	li	a3, 62
.Ltmp1370:
	.loc	11 170 21
	sub	a1, a3, a1
.Ltmp1371:
	.loc	11 171 13
	andi	a4, a1, 63
	addi	a3, a4, -32
.Ltmp1372:
	.loc	11 169 21
	or	a2, a2, a5
.Ltmp1373:
	.loc	11 171 13
	bltz	a3, .LBB43_6
.Ltmp1374:
	.loc	11 0 13 is_stmt 0
	li	a1, 0
	srl	a0, a2, a3
.Ltmp1375:
	.loc	1 396 14 is_stmt 1
	ret
.LBB43_5:
.Ltmp1376:
	.loc	1 0 14 is_stmt 0
	lui	a1, 522240
	addi	a1, a1, 1
.Ltmp1377:
	.loc	11 172 19 is_stmt 1
	sltu	a0, a0, a1
.Ltmp1378:
	.loc	11 172 16 is_stmt 0
	neg	a0, a0
	mv	a1, a0
.Ltmp1379:
	.loc	1 396 14 is_stmt 1
	ret
.LBB43_6:
.Ltmp1380:
	.loc	1 0 14 is_stmt 0
	xori	a3, a4, 31
	slli	a0, a0, 9
.Ltmp1381:
	sll	a0, a0, a3
	srl	a1, a2, a1
	.loc	1 396 14
	ret
.Ltmp1382:
.Lfunc_end43:
	.size	__fixunssfdi, .Lfunc_end43-__fixunssfdi
	.cfi_endproc

	.section	.text._ZN17compiler_builtins5float4conv12__fixunssfti17h2c4823a0bf1a999bE,"ax",@progbits
	.hidden	_ZN17compiler_builtins5float4conv12__fixunssfti17h2c4823a0bf1a999bE
	.globl	_ZN17compiler_builtins5float4conv12__fixunssfti17h2c4823a0bf1a999bE
	.p2align	1
	.type	_ZN17compiler_builtins5float4conv12__fixunssfti17h2c4823a0bf1a999bE,@function
_ZN17compiler_builtins5float4conv12__fixunssfti17h2c4823a0bf1a999bE:
.Lfunc_begin44:
	.loc	1 386 0 is_stmt 1
	.cfi_startproc
	.loc	11 183 12 prologue_end
	srli	a3, a1, 23
	li	a2, 127
.Ltmp1383:
	bgeu	a3, a2, .LBB44_2
.Ltmp1384:
	.loc	11 0 12 is_stmt 0
	li	a2, 0
	li	t4, 0
	li	a1, 0
.Ltmp1385:
	li	a5, 0
	j	.LBB44_26
.LBB44_2:
.Ltmp1386:
	li	a2, 255
	.loc	11 185 19 is_stmt 1
	bgeu	a3, a2, .LBB44_6
.Ltmp1387:
	.loc	11 0 19 is_stmt 0
	li	a2, 0
.Ltmp1388:
	.loc	11 186 32 is_stmt 1
	slli	a4, a1, 8
	lui	a5, 524288
	.loc	11 186 21 is_stmt 0
	or	a6, a4, a5
.Ltmp1389:
	.loc	11 0 21
	li	a4, 126
.Ltmp1390:
	.loc	11 187 21 is_stmt 1
	sub	t2, a4, a3
.Ltmp1391:
	.loc	11 188 13
	andi	a3, t2, 127
	addi	a7, a3, -96
	addi	t0, a3, -64
	bltz	a7, .LBB44_7
.Ltmp1392:
	.loc	11 0 13 is_stmt 0
	mv	a4, a2
	li	a5, 32
	.loc	11 188 13
	sub	a5, a5, a3
	bge	a5, a2, .LBB44_8
.Ltmp1393:
.LBB44_5:
	.loc	11 0 13
	neg	a5, a3
	sll	a5, a6, a5
	li	t1, 64
	.loc	11 188 13
	bgeu	a3, t1, .LBB44_9
	j	.LBB44_10
.Ltmp1394:
.LBB44_6:
	.loc	11 0 13
	lui	a2, 522240
	.loc	11 189 19 is_stmt 1
	xor	a1, a1, a2
.Ltmp1395:
	seqz	a1, a1
	.loc	11 189 16 is_stmt 0
	neg	a2, a1
	mv	t4, a2
	mv	a1, a2
	mv	a5, a2
	j	.LBB44_26
.LBB44_7:
.Ltmp1396:
	.loc	11 0 16
	srl	a4, a6, t0
	li	a5, 32
.Ltmp1397:
	.loc	11 188 13 is_stmt 1
	sub	a5, a5, a3
	blt	a5, a2, .LBB44_5
.Ltmp1398:
.LBB44_8:
	.loc	11 0 13 is_stmt 0
	mv	a5, a2
	li	t1, 64
	.loc	11 188 13
	bltu	a3, t1, .LBB44_10
.Ltmp1399:
.LBB44_9:
	.loc	11 0 13
	mv	a5, a4
.Ltmp1400:
.LBB44_10:
	mv	t4, a2
	.loc	11 188 13
	bne	a3, a2, .LBB44_13
.Ltmp1401:
	addi	t3, a3, -32
	blt	t3, a2, .LBB44_14
.Ltmp1402:
.LBB44_12:
	.loc	11 0 13
	mv	a5, a2
	.loc	11 188 13
	bgeu	a3, t1, .LBB44_15
	j	.LBB44_16
.Ltmp1403:
.LBB44_13:
	.loc	11 0 13
	mv	t4, a5
	.loc	11 188 13
	addi	t3, a3, -32
	bge	t3, a2, .LBB44_12
.Ltmp1404:
.LBB44_14:
	.loc	11 0 13
	srl	a5, a6, t2
	.loc	11 188 13
	bltu	a3, t1, .LBB44_16
.Ltmp1405:
.LBB44_15:
	.loc	11 0 13
	mv	a5, a2
.Ltmp1406:
.LBB44_16:
	.loc	11 188 13
	slli	t2, a1, 9
	blt	t3, a2, .LBB44_18
.Ltmp1407:
	.loc	11 0 13
	srl	a1, a6, t3
.Ltmp1408:
	.loc	11 188 13
	bgeu	a3, t1, .LBB44_19
	j	.LBB44_20
.Ltmp1409:
.LBB44_18:
	.loc	11 0 13
	xori	a1, a3, 31
.Ltmp1410:
	sll	a1, t2, a1
	.loc	11 188 13
	bltu	a3, t1, .LBB44_20
.Ltmp1411:
.LBB44_19:
	.loc	11 0 13
	mv	a1, a2
.Ltmp1412:
.LBB44_20:
	.loc	11 188 13
	blt	a7, a2, .LBB44_22
.Ltmp1413:
	.loc	11 0 13
	srl	a6, a6, a7
.Ltmp1414:
	mv	a7, a2
	.loc	11 188 13
	bgeu	a3, t1, .LBB44_23
	j	.LBB44_24
.Ltmp1415:
.LBB44_22:
	.loc	11 0 13
	xori	a4, t0, 31
	sll	a6, t2, a4
.Ltmp1416:
	mv	a7, a2
	.loc	11 188 13
	bltu	a3, t1, .LBB44_24
.Ltmp1417:
.LBB44_23:
	.loc	11 0 13
	mv	a7, a6
.Ltmp1418:
.LBB44_24:
	.loc	11 188 13
	beq	a3, a2, .LBB44_26
.Ltmp1419:
	.loc	11 0 13
	mv	a2, a7
.LBB44_26:
	.loc	1 389 10 is_stmt 1
	sw	a2, 0(a0)
	sw	t4, 4(a0)
	sw	a1, 8(a0)
	sw	a5, 12(a0)
	ret
.Ltmp1420:
.Lfunc_end44:
	.size	_ZN17compiler_builtins5float4conv12__fixunssfti17h2c4823a0bf1a999bE, .Lfunc_end44-_ZN17compiler_builtins5float4conv12__fixunssfti17h2c4823a0bf1a999bE
	.cfi_endproc

	.section	.text.__fixunssfti,"ax",@progbits
	.hidden	__fixunssfti
	.globl	__fixunssfti
	.p2align	1
	.type	__fixunssfti,@function
__fixunssfti:
.Lfunc_begin45:
	.loc	1 394 0
	.cfi_startproc
	.loc	11 183 12 prologue_end
	srli	a3, a1, 23
	li	a2, 127
.Ltmp1421:
	bgeu	a3, a2, .LBB45_2
.Ltmp1422:
	.loc	11 0 12 is_stmt 0
	li	a2, 0
	li	t4, 0
	li	a1, 0
.Ltmp1423:
	li	a5, 0
	j	.LBB45_26
.LBB45_2:
.Ltmp1424:
	li	a2, 255
	.loc	11 185 19 is_stmt 1
	bgeu	a3, a2, .LBB45_6
.Ltmp1425:
	.loc	11 0 19 is_stmt 0
	li	a2, 0
	.loc	11 186 32 is_stmt 1
	slli	a4, a1, 8
	lui	a5, 524288
	.loc	11 186 21 is_stmt 0
	or	t0, a4, a5
.Ltmp1426:
	.loc	11 0 21
	li	a4, 126
.Ltmp1427:
	.loc	11 187 21 is_stmt 1
	sub	t2, a4, a3
.Ltmp1428:
	.loc	11 188 13
	andi	a3, t2, 127
	addi	a6, a3, -96
	addi	a7, a3, -64
	bltz	a6, .LBB45_7
.Ltmp1429:
	.loc	11 0 13 is_stmt 0
	mv	a4, a2
	li	a5, 32
	.loc	11 188 13
	sub	a5, a5, a3
	bge	a5, a2, .LBB45_8
.Ltmp1430:
.LBB45_5:
	.loc	11 0 13
	neg	a5, a3
	sll	a5, t0, a5
	li	t1, 64
	.loc	11 188 13
	bgeu	a3, t1, .LBB45_9
	j	.LBB45_10
.Ltmp1431:
.LBB45_6:
	.loc	11 0 13
	lui	a2, 522240
	.loc	11 189 19 is_stmt 1
	xor	a1, a1, a2
.Ltmp1432:
	seqz	a1, a1
	.loc	11 189 16 is_stmt 0
	neg	a2, a1
	mv	t4, a2
	mv	a1, a2
	mv	a5, a2
	j	.LBB45_26
.LBB45_7:
.Ltmp1433:
	.loc	11 0 16
	srl	a4, t0, a7
	li	a5, 32
.Ltmp1434:
	.loc	11 188 13 is_stmt 1
	sub	a5, a5, a3
	blt	a5, a2, .LBB45_5
.Ltmp1435:
.LBB45_8:
	.loc	11 0 13 is_stmt 0
	mv	a5, a2
	li	t1, 64
	.loc	11 188 13
	bltu	a3, t1, .LBB45_10
.Ltmp1436:
.LBB45_9:
	.loc	11 0 13
	mv	a5, a4
.Ltmp1437:
.LBB45_10:
	mv	t4, a2
	.loc	11 188 13
	bne	a3, a2, .LBB45_13
.Ltmp1438:
	addi	t3, a3, -32
	blt	t3, a2, .LBB45_14
.Ltmp1439:
.LBB45_12:
	.loc	11 0 13
	mv	a5, a2
	.loc	11 188 13
	bgeu	a3, t1, .LBB45_15
	j	.LBB45_16
.Ltmp1440:
.LBB45_13:
	.loc	11 0 13
	mv	t4, a5
	.loc	11 188 13
	addi	t3, a3, -32
	bge	t3, a2, .LBB45_12
.Ltmp1441:
.LBB45_14:
	.loc	11 0 13
	srl	a5, t0, t2
	.loc	11 188 13
	bltu	a3, t1, .LBB45_16
.Ltmp1442:
.LBB45_15:
	.loc	11 0 13
	mv	a5, a2
.Ltmp1443:
.LBB45_16:
	.loc	11 188 13
	slli	t2, a1, 9
	blt	t3, a2, .LBB45_18
.Ltmp1444:
	.loc	11 0 13
	srl	a1, t0, t3
.Ltmp1445:
	.loc	11 188 13
	bgeu	a3, t1, .LBB45_19
	j	.LBB45_20
.Ltmp1446:
.LBB45_18:
	.loc	11 0 13
	xori	a1, a3, 31
.Ltmp1447:
	sll	a1, t2, a1
	.loc	11 188 13
	bltu	a3, t1, .LBB45_20
.Ltmp1448:
.LBB45_19:
	.loc	11 0 13
	mv	a1, a2
.Ltmp1449:
.LBB45_20:
	.loc	11 188 13
	blt	a6, a2, .LBB45_22
.Ltmp1450:
	.loc	11 0 13
	srl	a6, t0, a6
	mv	a7, a2
	.loc	11 188 13
	bgeu	a3, t1, .LBB45_23
	j	.LBB45_24
.Ltmp1451:
.LBB45_22:
	.loc	11 0 13
	xori	a4, a7, 31
	sll	a6, t2, a4
	mv	a7, a2
	.loc	11 188 13
	bltu	a3, t1, .LBB45_24
.Ltmp1452:
.LBB45_23:
	.loc	11 0 13
	mv	a7, a6
.Ltmp1453:
.LBB45_24:
	.loc	11 188 13
	beq	a3, a2, .LBB45_26
.Ltmp1454:
	.loc	11 0 13
	mv	a2, a7
.LBB45_26:
	.loc	1 396 14 is_stmt 1
	sw	a2, 0(a0)
	sw	t4, 4(a0)
	sw	a1, 8(a0)
	sw	a5, 12(a0)
	ret
.Ltmp1455:
.Lfunc_end45:
	.size	__fixunssfti, .Lfunc_end45-__fixunssfti
	.cfi_endproc

	.section	.text._ZN17compiler_builtins5float4conv12__fixunsdfsi17h2e9d34c1ef0a5d55E,"ax",@progbits
	.hidden	_ZN17compiler_builtins5float4conv12__fixunsdfsi17h2e9d34c1ef0a5d55E
	.globl	_ZN17compiler_builtins5float4conv12__fixunsdfsi17h2e9d34c1ef0a5d55E
	.p2align	1
	.type	_ZN17compiler_builtins5float4conv12__fixunsdfsi17h2e9d34c1ef0a5d55E,@function
_ZN17compiler_builtins5float4conv12__fixunsdfsi17h2e9d34c1ef0a5d55E:
.Lfunc_begin46:
	.loc	1 386 0
	.cfi_startproc
	.loc	11 199 12 prologue_end
	srli	a2, a1, 20
	li	a3, 1023
.Ltmp1456:
	bgeu	a2, a3, .LBB46_2
.Ltmp1457:
	.loc	11 0 12 is_stmt 0
	li	a0, 0
.Ltmp1458:
	.loc	1 389 10 is_stmt 1
	ret
.Ltmp1459:
.LBB46_2:
	.loc	1 0 10 is_stmt 0
	li	a3, 1055
.Ltmp1460:
	.loc	11 201 19 is_stmt 1
	bgeu	a2, a3, .LBB46_4
.Ltmp1461:
	.loc	11 202 31
	srli	a0, a0, 21
.Ltmp1462:
	slli	a1, a1, 11
.Ltmp1463:
	or	a0, a0, a1
	lui	a1, 524288
	.loc	11 202 21 is_stmt 0
	or	a0, a0, a1
.Ltmp1464:
	.loc	11 0 21
	li	a1, 30
.Ltmp1465:
	.loc	11 204 13 is_stmt 1
	sub	a1, a1, a2
	srl	a0, a0, a1
.Ltmp1466:
	.loc	1 389 10
	ret
.Ltmp1467:
.LBB46_4:
	.loc	1 0 10 is_stmt 0
	lui	a3, 524032
.Ltmp1468:
	.loc	11 205 19 is_stmt 1
	beq	a1, a3, .LBB46_6
.Ltmp1469:
	.loc	11 0 19 is_stmt 0
	sltiu	a0, a2, 2047
.Ltmp1470:
	.loc	11 205 16
	neg	a0, a0
.Ltmp1471:
	.loc	1 389 10 is_stmt 1
	ret
.Ltmp1472:
.LBB46_6:
	.loc	1 0 10 is_stmt 0
	seqz	a0, a0
.Ltmp1473:
	.loc	11 205 16 is_stmt 1
	neg	a0, a0
.Ltmp1474:
	.loc	1 389 10
	ret
.Ltmp1475:
.Lfunc_end46:
	.size	_ZN17compiler_builtins5float4conv12__fixunsdfsi17h2e9d34c1ef0a5d55E, .Lfunc_end46-_ZN17compiler_builtins5float4conv12__fixunsdfsi17h2e9d34c1ef0a5d55E
	.cfi_endproc

	.section	.text.__fixunsdfsi,"ax",@progbits
	.hidden	__fixunsdfsi
	.globl	__fixunsdfsi
	.p2align	1
	.type	__fixunsdfsi,@function
__fixunsdfsi:
.Lfunc_begin47:
	.loc	1 394 0
	.cfi_startproc
	.loc	11 199 12 prologue_end
	srli	a2, a1, 20
	li	a3, 1023
.Ltmp1476:
	bgeu	a2, a3, .LBB47_2
.Ltmp1477:
	.loc	11 0 12 is_stmt 0
	li	a0, 0
.Ltmp1478:
	.loc	1 396 14 is_stmt 1
	ret
.Ltmp1479:
.LBB47_2:
	.loc	1 0 14 is_stmt 0
	li	a3, 1055
.Ltmp1480:
	.loc	11 201 19 is_stmt 1
	bgeu	a2, a3, .LBB47_4
.Ltmp1481:
	.loc	11 202 31
	srli	a0, a0, 21
.Ltmp1482:
	slli	a1, a1, 11
.Ltmp1483:
	or	a0, a0, a1
	lui	a1, 524288
	.loc	11 202 21 is_stmt 0
	or	a0, a0, a1
	li	a1, 30
.Ltmp1484:
	.loc	11 204 13 is_stmt 1
	sub	a1, a1, a2
	srl	a0, a0, a1
.Ltmp1485:
	.loc	1 396 14
	ret
.Ltmp1486:
.LBB47_4:
	.loc	1 0 14 is_stmt 0
	lui	a3, 524032
.Ltmp1487:
	.loc	11 205 19 is_stmt 1
	beq	a1, a3, .LBB47_6
.Ltmp1488:
	.loc	11 0 19 is_stmt 0
	sltiu	a0, a2, 2047
.Ltmp1489:
	.loc	11 205 16
	neg	a0, a0
.Ltmp1490:
	.loc	1 396 14 is_stmt 1
	ret
.Ltmp1491:
.LBB47_6:
	.loc	1 0 14 is_stmt 0
	seqz	a0, a0
.Ltmp1492:
	.loc	11 205 16 is_stmt 1
	neg	a0, a0
.Ltmp1493:
	.loc	1 396 14
	ret
.Ltmp1494:
.Lfunc_end47:
	.size	__fixunsdfsi, .Lfunc_end47-__fixunsdfsi
	.cfi_endproc

	.section	.text._ZN17compiler_builtins5float4conv12__fixunsdfdi17hd3a0ddeb73b545ebE,"ax",@progbits
	.hidden	_ZN17compiler_builtins5float4conv12__fixunsdfdi17hd3a0ddeb73b545ebE
	.globl	_ZN17compiler_builtins5float4conv12__fixunsdfdi17hd3a0ddeb73b545ebE
	.p2align	1
	.type	_ZN17compiler_builtins5float4conv12__fixunsdfdi17hd3a0ddeb73b545ebE,@function
_ZN17compiler_builtins5float4conv12__fixunsdfdi17hd3a0ddeb73b545ebE:
.Lfunc_begin48:
	.loc	1 386 0
	.cfi_startproc
	.loc	11 215 12 prologue_end
	srli	a2, a1, 20
	li	a3, 1023
.Ltmp1495:
	bgeu	a2, a3, .LBB48_2
.Ltmp1496:
	.loc	11 0 12 is_stmt 0
	li	a0, 0
.Ltmp1497:
	li	a1, 0
.Ltmp1498:
	.loc	1 389 10 is_stmt 1
	ret
.LBB48_2:
.Ltmp1499:
	.loc	1 0 10 is_stmt 0
	li	a3, 1087
.Ltmp1500:
	.loc	11 217 19 is_stmt 1
	bgeu	a2, a3, .LBB48_5
.Ltmp1501:
	.loc	11 218 31
	srli	a3, a0, 21
	slli	a1, a1, 11
.Ltmp1502:
	or	a3, a3, a1
.Ltmp1503:
	.loc	11 0 31 is_stmt 0
	lui	a6, 524288
	li	a1, 62
.Ltmp1504:
	.loc	11 220 13 is_stmt 1
	sub	a1, a1, a2
	andi	a4, a1, 63
	addi	a5, a4, -32
.Ltmp1505:
	.loc	11 218 21
	or	a2, a3, a6
.Ltmp1506:
	.loc	11 220 13
	bltz	a5, .LBB48_7
.Ltmp1507:
	.loc	11 0 13 is_stmt 0
	li	a1, 0
	srl	a0, a2, a5
.Ltmp1508:
	.loc	1 389 10 is_stmt 1
	ret
.LBB48_5:
.Ltmp1509:
	.loc	1 0 10 is_stmt 0
	lui	a3, 524032
.Ltmp1510:
	.loc	11 221 19 is_stmt 1
	beq	a1, a3, .LBB48_8
.Ltmp1511:
	.loc	11 0 19 is_stmt 0
	sltiu	a0, a2, 2047
.Ltmp1512:
	.loc	11 221 16
	neg	a0, a0
	mv	a1, a0
.Ltmp1513:
	.loc	1 389 10 is_stmt 1
	ret
.LBB48_7:
.Ltmp1514:
	.loc	1 0 10 is_stmt 0
	slli	a0, a0, 11
.Ltmp1515:
	slli	a3, a3, 1
	xori	a4, a4, 31
	sll	a3, a3, a4
	srl	a0, a0, a1
	or	a0, a0, a3
	srl	a1, a2, a1
	.loc	1 389 10
	ret
.LBB48_8:
.Ltmp1516:
	.loc	1 0 10
	seqz	a0, a0
.Ltmp1517:
	.loc	11 221 16 is_stmt 1
	neg	a0, a0
	mv	a1, a0
.Ltmp1518:
	.loc	1 389 10
	ret
.Ltmp1519:
.Lfunc_end48:
	.size	_ZN17compiler_builtins5float4conv12__fixunsdfdi17hd3a0ddeb73b545ebE, .Lfunc_end48-_ZN17compiler_builtins5float4conv12__fixunsdfdi17hd3a0ddeb73b545ebE
	.cfi_endproc

	.section	.text.__fixunsdfdi,"ax",@progbits
	.hidden	__fixunsdfdi
	.globl	__fixunsdfdi
	.p2align	1
	.type	__fixunsdfdi,@function
__fixunsdfdi:
.Lfunc_begin49:
	.loc	1 394 0
	.cfi_startproc
	.loc	11 215 12 prologue_end
	srli	a2, a1, 20
	li	a3, 1023
.Ltmp1520:
	bgeu	a2, a3, .LBB49_2
.Ltmp1521:
	.loc	11 0 12 is_stmt 0
	li	a0, 0
.Ltmp1522:
	li	a1, 0
.Ltmp1523:
	.loc	1 396 14 is_stmt 1
	ret
.LBB49_2:
.Ltmp1524:
	.loc	1 0 14 is_stmt 0
	li	a3, 1087
.Ltmp1525:
	.loc	11 217 19 is_stmt 1
	bgeu	a2, a3, .LBB49_5
.Ltmp1526:
	.loc	11 218 31
	srli	a3, a0, 21
	slli	a1, a1, 11
.Ltmp1527:
	or	a3, a3, a1
.Ltmp1528:
	.loc	11 0 31 is_stmt 0
	lui	a6, 524288
	li	a1, 62
.Ltmp1529:
	.loc	11 220 13 is_stmt 1
	sub	a1, a1, a2
	andi	a4, a1, 63
	addi	a5, a4, -32
.Ltmp1530:
	.loc	11 218 21
	or	a2, a3, a6
.Ltmp1531:
	.loc	11 220 13
	bltz	a5, .LBB49_7
.Ltmp1532:
	.loc	11 0 13 is_stmt 0
	li	a1, 0
	srl	a0, a2, a5
.Ltmp1533:
	.loc	1 396 14 is_stmt 1
	ret
.LBB49_5:
.Ltmp1534:
	.loc	1 0 14 is_stmt 0
	lui	a3, 524032
.Ltmp1535:
	.loc	11 221 19 is_stmt 1
	beq	a1, a3, .LBB49_8
.Ltmp1536:
	.loc	11 0 19 is_stmt 0
	sltiu	a0, a2, 2047
.Ltmp1537:
	.loc	11 221 16
	neg	a0, a0
	mv	a1, a0
.Ltmp1538:
	.loc	1 396 14 is_stmt 1
	ret
.LBB49_7:
.Ltmp1539:
	.loc	1 0 14 is_stmt 0
	slli	a0, a0, 11
.Ltmp1540:
	slli	a3, a3, 1
	xori	a4, a4, 31
	sll	a3, a3, a4
	srl	a0, a0, a1
	or	a0, a0, a3
	srl	a1, a2, a1
	.loc	1 396 14
	ret
.LBB49_8:
.Ltmp1541:
	.loc	1 0 14
	seqz	a0, a0
.Ltmp1542:
	.loc	11 221 16 is_stmt 1
	neg	a0, a0
	mv	a1, a0
.Ltmp1543:
	.loc	1 396 14
	ret
.Ltmp1544:
.Lfunc_end49:
	.size	__fixunsdfdi, .Lfunc_end49-__fixunsdfdi
	.cfi_endproc

	.section	.text._ZN17compiler_builtins5float4conv12__fixunsdfti17h09e1190203a5d656E,"ax",@progbits
	.hidden	_ZN17compiler_builtins5float4conv12__fixunsdfti17h09e1190203a5d656E
	.globl	_ZN17compiler_builtins5float4conv12__fixunsdfti17h09e1190203a5d656E
	.p2align	1
	.type	_ZN17compiler_builtins5float4conv12__fixunsdfti17h09e1190203a5d656E,@function
_ZN17compiler_builtins5float4conv12__fixunsdfti17h09e1190203a5d656E:
.Lfunc_begin50:
	.loc	1 386 0
	.cfi_startproc
	.loc	11 232 12 prologue_end
	srli	a3, a2, 20
	li	a4, 1023
.Ltmp1545:
	bgeu	a3, a4, .LBB50_3
.Ltmp1546:
	.loc	11 0 12 is_stmt 0
	li	a4, 0
	li	a3, 0
	li	a1, 0
.Ltmp1547:
.LBB50_2:
	li	a5, 0
	j	.LBB50_31
.LBB50_3:
.Ltmp1548:
	li	a4, 1151
	.loc	11 234 19 is_stmt 1
	bgeu	a3, a4, .LBB50_6
.Ltmp1549:
	.loc	11 235 32
	srli	a4, a1, 21
	slli	a2, a2, 11
.Ltmp1550:
	or	a4, a4, a2
	slli	t4, a1, 11
.Ltmp1551:
	.loc	11 0 32 is_stmt 0
	lui	a1, 524288
.Ltmp1552:
	.loc	11 235 21
	or	t0, a4, a1
.Ltmp1553:
	.loc	11 0 21
	li	a1, 126
.Ltmp1554:
	.loc	11 237 13 is_stmt 1
	sub	a7, a1, a3
	andi	a2, a7, 127
	addi	t2, a2, -32
	slli	t1, a4, 1
	bltz	t2, .LBB50_8
.Ltmp1555:
	.loc	11 0 13 is_stmt 0
	srl	a1, t0, t2
	li	a6, 64
	.loc	11 237 13
	bgeu	a2, a6, .LBB50_9
	j	.LBB50_10
.Ltmp1556:
.LBB50_6:
	.loc	11 0 13
	lui	a4, 524032
	.loc	11 238 19 is_stmt 1
	beq	a2, a4, .LBB50_13
.Ltmp1557:
	.loc	11 0 19 is_stmt 0
	sltiu	a1, a3, 2047
.Ltmp1558:
	j	.LBB50_14
.Ltmp1559:
.LBB50_8:
	xori	a1, a2, 31
	sll	a1, t1, a1
	srl	a3, t4, a7
	or	a1, a1, a3
	li	a6, 64
.Ltmp1560:
	.loc	11 237 13 is_stmt 1
	bltu	a2, a6, .LBB50_10
.Ltmp1561:
.LBB50_9:
	.loc	11 0 13 is_stmt 0
	li	a1, 0
.Ltmp1562:
.LBB50_10:
	.loc	11 237 13
	neg	a3, a2
	li	a4, 32
	sub	t5, a4, a2
	sll	t3, t4, a3
	bltz	t5, .LBB50_15
.Ltmp1563:
	.loc	11 0 13
	mv	t6, t3
	.loc	11 237 13
	addi	a5, a2, -96
	addi	a4, a2, -64
	bgez	a5, .LBB50_16
.Ltmp1564:
.LBB50_12:
	.loc	11 0 13
	srl	a3, t0, a4
	.loc	11 237 13
	bgeu	a2, a6, .LBB50_17
	j	.LBB50_18
.Ltmp1565:
.LBB50_13:
	.loc	11 0 13
	seqz	a1, a1
.Ltmp1566:
.LBB50_14:
	.loc	11 238 16 is_stmt 1
	neg	a4, a1
	mv	a3, a4
	mv	a1, a4
	mv	a5, a4
	j	.LBB50_31
.Ltmp1567:
.LBB50_15:
	.loc	11 0 16 is_stmt 0
	sll	a3, t0, a3
	sub	a4, a6, a2
	xori	a4, a4, 31
	srli	a5, t4, 1
	srl	a4, a5, a4
	or	t6, a3, a4
.Ltmp1568:
	.loc	11 237 13 is_stmt 1
	addi	a5, a2, -96
	addi	a4, a2, -64
	bltz	a5, .LBB50_12
.Ltmp1569:
.LBB50_16:
	.loc	11 0 13 is_stmt 0
	li	a3, 0
	.loc	11 237 13
	bltu	a2, a6, .LBB50_18
.Ltmp1570:
.LBB50_17:
	.loc	11 0 13
	mv	t6, a3
.Ltmp1571:
.LBB50_18:
	li	a3, 0
	.loc	11 237 13
	bnez	a2, .LBB50_21
.Ltmp1572:
	bltz	a5, .LBB50_22
.Ltmp1573:
.LBB50_20:
	.loc	11 0 13
	srl	a4, t0, a5
	.loc	11 237 13
	bgez	t5, .LBB50_23
	j	.LBB50_24
.Ltmp1574:
.LBB50_21:
	.loc	11 0 13
	mv	a3, t6
	.loc	11 237 13
	bgez	a5, .LBB50_20
.Ltmp1575:
.LBB50_22:
	.loc	11 0 13
	xori	a5, a4, 31
	sll	a5, t1, a5
	srl	a4, t4, a4
	or	a4, a4, a5
	.loc	11 237 13
	bltz	t5, .LBB50_24
.Ltmp1576:
.LBB50_23:
	.loc	11 0 13
	li	t3, 0
.Ltmp1577:
.LBB50_24:
	.loc	11 237 13
	bgeu	a2, a6, .LBB50_28
.Ltmp1578:
	.loc	11 0 13
	li	a4, 0
	.loc	11 237 13
	bnez	a2, .LBB50_29
.Ltmp1579:
.LBB50_26:
	bltz	t2, .LBB50_30
.Ltmp1580:
.LBB50_27:
	.loc	11 0 13
	li	a5, 0
	.loc	11 237 13
	bgeu	a2, a6, .LBB50_2
	j	.LBB50_31
.Ltmp1581:
.LBB50_28:
	.loc	11 0 13
	mv	t3, a4
	li	a4, 0
	.loc	11 237 13
	beqz	a2, .LBB50_26
.Ltmp1582:
.LBB50_29:
	.loc	11 0 13
	mv	a4, t3
	.loc	11 237 13
	bgez	t2, .LBB50_27
.Ltmp1583:
.LBB50_30:
	.loc	11 0 13
	srl	a5, t0, a7
	.loc	11 237 13
	bgeu	a2, a6, .LBB50_2
.Ltmp1584:
.LBB50_31:
	.loc	1 389 10 is_stmt 1
	sw	a4, 0(a0)
	sw	a3, 4(a0)
	sw	a1, 8(a0)
	sw	a5, 12(a0)
	ret
.Ltmp1585:
.Lfunc_end50:
	.size	_ZN17compiler_builtins5float4conv12__fixunsdfti17h09e1190203a5d656E, .Lfunc_end50-_ZN17compiler_builtins5float4conv12__fixunsdfti17h09e1190203a5d656E
	.cfi_endproc

	.section	.text.__fixunsdfti,"ax",@progbits
	.hidden	__fixunsdfti
	.globl	__fixunsdfti
	.p2align	1
	.type	__fixunsdfti,@function
__fixunsdfti:
.Lfunc_begin51:
	.loc	1 394 0
	.cfi_startproc
	.loc	11 232 12 prologue_end
	srli	a3, a2, 20
	li	a4, 1023
.Ltmp1586:
	bgeu	a3, a4, .LBB51_2
.Ltmp1587:
	.loc	11 0 12 is_stmt 0
	li	a4, 0
	li	a3, 0
	li	a1, 0
.Ltmp1588:
	j	.LBB51_30
.Ltmp1589:
.LBB51_2:
	li	a4, 1151
	.loc	11 234 19 is_stmt 1
	bgeu	a3, a4, .LBB51_5
.Ltmp1590:
	.loc	11 235 32
	srli	a4, a1, 21
	slli	a2, a2, 11
.Ltmp1591:
	or	a4, a4, a2
	slli	t4, a1, 11
	lui	a1, 524288
.Ltmp1592:
	.loc	11 235 21 is_stmt 0
	or	t0, a4, a1
.Ltmp1593:
	.loc	11 0 21
	li	a1, 126
.Ltmp1594:
	.loc	11 237 13 is_stmt 1
	sub	a7, a1, a3
	andi	a2, a7, 127
	addi	t2, a2, -32
	slli	t1, a4, 1
	bltz	t2, .LBB51_7
.Ltmp1595:
	.loc	11 0 13 is_stmt 0
	srl	a1, t0, t2
	li	a6, 64
	.loc	11 237 13
	bgeu	a2, a6, .LBB51_8
	j	.LBB51_9
.Ltmp1596:
.LBB51_5:
	.loc	11 0 13
	lui	a4, 524032
	.loc	11 238 19 is_stmt 1
	beq	a2, a4, .LBB51_12
.Ltmp1597:
	.loc	11 0 19 is_stmt 0
	sltiu	a1, a3, 2047
.Ltmp1598:
	j	.LBB51_13
.Ltmp1599:
.LBB51_7:
	xori	a1, a2, 31
	sll	a1, t1, a1
	srl	a3, t4, a7
	or	a1, a1, a3
	li	a6, 64
.Ltmp1600:
	.loc	11 237 13 is_stmt 1
	bltu	a2, a6, .LBB51_9
.Ltmp1601:
.LBB51_8:
	.loc	11 0 13 is_stmt 0
	li	a1, 0
.Ltmp1602:
.LBB51_9:
	.loc	11 237 13
	neg	a3, a2
	li	a4, 32
	sub	t5, a4, a2
	sll	t3, t4, a3
	bltz	t5, .LBB51_14
.Ltmp1603:
	.loc	11 0 13
	mv	t6, t3
	.loc	11 237 13
	addi	a5, a2, -96
	addi	a4, a2, -64
	bgez	a5, .LBB51_15
.Ltmp1604:
.LBB51_11:
	.loc	11 0 13
	srl	a3, t0, a4
	.loc	11 237 13
	bgeu	a2, a6, .LBB51_16
	j	.LBB51_17
.Ltmp1605:
.LBB51_12:
	.loc	11 0 13
	seqz	a1, a1
.Ltmp1606:
.LBB51_13:
	.loc	11 238 16 is_stmt 1
	neg	a4, a1
	mv	a3, a4
	mv	a1, a4
	mv	a5, a4
	j	.LBB51_31
.Ltmp1607:
.LBB51_14:
	.loc	11 0 16 is_stmt 0
	sll	a3, t0, a3
	sub	a4, a6, a2
	xori	a4, a4, 31
	srli	a5, t4, 1
	srl	a4, a5, a4
	or	t6, a3, a4
.Ltmp1608:
	.loc	11 237 13 is_stmt 1
	addi	a5, a2, -96
	addi	a4, a2, -64
	bltz	a5, .LBB51_11
.Ltmp1609:
.LBB51_15:
	.loc	11 0 13 is_stmt 0
	li	a3, 0
	.loc	11 237 13
	bltu	a2, a6, .LBB51_17
.Ltmp1610:
.LBB51_16:
	.loc	11 0 13
	mv	t6, a3
.Ltmp1611:
.LBB51_17:
	li	a3, 0
	.loc	11 237 13
	bnez	a2, .LBB51_20
.Ltmp1612:
	bltz	a5, .LBB51_21
.Ltmp1613:
.LBB51_19:
	.loc	11 0 13
	srl	a4, t0, a5
	.loc	11 237 13
	bgez	t5, .LBB51_22
	j	.LBB51_23
.Ltmp1614:
.LBB51_20:
	.loc	11 0 13
	mv	a3, t6
	.loc	11 237 13
	bgez	a5, .LBB51_19
.Ltmp1615:
.LBB51_21:
	.loc	11 0 13
	xori	a5, a4, 31
	sll	a5, t1, a5
	srl	a4, t4, a4
	or	a4, a4, a5
	.loc	11 237 13
	bltz	t5, .LBB51_23
.Ltmp1616:
.LBB51_22:
	.loc	11 0 13
	li	t3, 0
.Ltmp1617:
.LBB51_23:
	.loc	11 237 13
	bgeu	a2, a6, .LBB51_27
.Ltmp1618:
	.loc	11 0 13
	li	a4, 0
	.loc	11 237 13
	bnez	a2, .LBB51_28
.Ltmp1619:
.LBB51_25:
	bltz	t2, .LBB51_29
.Ltmp1620:
.LBB51_26:
	.loc	11 0 13
	li	a5, 0
	.loc	11 237 13
	bgeu	a2, a6, .LBB51_30
	j	.LBB51_31
.Ltmp1621:
.LBB51_27:
	.loc	11 0 13
	mv	t3, a4
	li	a4, 0
	.loc	11 237 13
	beqz	a2, .LBB51_25
.Ltmp1622:
.LBB51_28:
	.loc	11 0 13
	mv	a4, t3
	.loc	11 237 13
	bgez	t2, .LBB51_26
.Ltmp1623:
.LBB51_29:
	.loc	11 0 13
	srl	a5, t0, a7
	.loc	11 237 13
	bltu	a2, a6, .LBB51_31
.Ltmp1624:
.LBB51_30:
	.loc	11 0 13
	li	a5, 0
.LBB51_31:
	.loc	1 396 14 is_stmt 1
	sw	a4, 0(a0)
	sw	a3, 4(a0)
	sw	a1, 8(a0)
	sw	a5, 12(a0)
	ret
.Ltmp1625:
.Lfunc_end51:
	.size	__fixunsdfti, .Lfunc_end51-__fixunsdfti
	.cfi_endproc

	.section	.text._ZN17compiler_builtins5float4conv9__fixsfsi17h706f923d35e1c2fcE,"ax",@progbits
	.hidden	_ZN17compiler_builtins5float4conv9__fixsfsi17h706f923d35e1c2fcE
	.globl	_ZN17compiler_builtins5float4conv9__fixsfsi17h706f923d35e1c2fcE
	.p2align	1
	.type	_ZN17compiler_builtins5float4conv9__fixsfsi17h706f923d35e1c2fcE,@function
_ZN17compiler_builtins5float4conv9__fixsfsi17h706f923d35e1c2fcE:
.Lfunc_begin52:
	.loc	1 386 0
	.cfi_startproc
	.loc	11 250 21 prologue_end
	slli	a1, a0, 1
	srli	a1, a1, 1
.Ltmp1626:
	.loc	11 251 12
	srli	a2, a1, 23
	li	a3, 127
	bltu	a2, a3, .LBB52_6
.Ltmp1627:
	.loc	11 253 19
	srli	a2, a1, 24
	li	a3, 79
	bgeu	a2, a3, .LBB52_4
.Ltmp1628:
	.loc	11 254 31
	slli	a1, a0, 8
	lui	a2, 524288
	.loc	11 254 21 is_stmt 0
	or	a1, a1, a2
.Ltmp1629:
	.loc	11 255 27 is_stmt 1
	srli	a2, a0, 23
	li	a3, 30
	.loc	11 255 21 is_stmt 0
	sub	a2, a3, a2
.Ltmp1630:
	.loc	11 256 21 is_stmt 1
	srl	a1, a1, a2
.Ltmp1631:
	.loc	11 257 16
	bgez	a0, .LBB52_7
.Ltmp1632:
	.loc	11 0 16 is_stmt 0
	neg	a0, a1
.Ltmp1633:
	.loc	1 389 10 is_stmt 1
	ret
.LBB52_4:
.Ltmp1634:
	.loc	1 0 10 is_stmt 0
	lui	a2, 522240
	addi	a2, a2, 1
.Ltmp1635:
	.loc	11 258 19 is_stmt 1
	bgeu	a1, a2, .LBB52_6
.Ltmp1636:
	.loc	11 259 13
	srli	a0, a0, 31
.Ltmp1637:
	.loc	11 0 13 is_stmt 0
	lui	a1, 524288
	addi	a1, a1, -1
	.loc	11 259 13
	add	a0, a0, a1
.Ltmp1638:
	.loc	1 389 10 is_stmt 1
	ret
.LBB52_6:
.Ltmp1639:
	.loc	1 0 10 is_stmt 0
	li	a1, 0
.Ltmp1640:
.LBB52_7:
	.loc	1 389 10
	mv	a0, a1
.Ltmp1641:
	ret
.Ltmp1642:
.Lfunc_end52:
	.size	_ZN17compiler_builtins5float4conv9__fixsfsi17h706f923d35e1c2fcE, .Lfunc_end52-_ZN17compiler_builtins5float4conv9__fixsfsi17h706f923d35e1c2fcE
	.cfi_endproc

	.section	.text.__fixsfsi,"ax",@progbits
	.hidden	__fixsfsi
	.globl	__fixsfsi
	.p2align	1
	.type	__fixsfsi,@function
__fixsfsi:
.Lfunc_begin53:
	.loc	1 394 0 is_stmt 1
	.cfi_startproc
	.loc	11 250 21 prologue_end
	slli	a1, a0, 1
	srli	a1, a1, 1
.Ltmp1643:
	.loc	11 251 12
	srli	a2, a1, 23
	li	a3, 127
	bltu	a2, a3, .LBB53_7
.Ltmp1644:
	.loc	11 253 19
	srli	a2, a1, 24
	li	a3, 79
	bgeu	a2, a3, .LBB53_4
.Ltmp1645:
	.loc	11 254 31
	slli	a1, a0, 8
	lui	a2, 524288
	.loc	11 254 21 is_stmt 0
	or	a1, a1, a2
.Ltmp1646:
	.loc	11 255 27 is_stmt 1
	srli	a2, a0, 23
	li	a3, 30
	.loc	11 255 21 is_stmt 0
	sub	a2, a3, a2
.Ltmp1647:
	.loc	11 256 21 is_stmt 1
	srl	a1, a1, a2
.Ltmp1648:
	.loc	11 257 16
	bgez	a0, .LBB53_6
.Ltmp1649:
	.loc	11 0 16 is_stmt 0
	neg	a0, a1
.Ltmp1650:
	.loc	1 396 14 is_stmt 1
	ret
.LBB53_4:
.Ltmp1651:
	.loc	1 0 14 is_stmt 0
	lui	a2, 522240
	addi	a2, a2, 1
.Ltmp1652:
	.loc	11 258 19 is_stmt 1
	bgeu	a1, a2, .LBB53_7
.Ltmp1653:
	.loc	11 259 13
	srli	a0, a0, 31
.Ltmp1654:
	.loc	11 0 13 is_stmt 0
	lui	a1, 524288
	addi	a1, a1, -1
	.loc	11 259 13
	add	a1, a1, a0
.Ltmp1655:
.LBB53_6:
	.loc	1 396 14 is_stmt 1
	mv	a0, a1
	ret
.LBB53_7:
.Ltmp1656:
	li	a0, 0
.Ltmp1657:
	ret
.Ltmp1658:
.Lfunc_end53:
	.size	__fixsfsi, .Lfunc_end53-__fixsfsi
	.cfi_endproc

	.section	.text._ZN17compiler_builtins5float4conv9__fixsfdi17hfe012a4bbb7d1716E,"ax",@progbits
	.hidden	_ZN17compiler_builtins5float4conv9__fixsfdi17hfe012a4bbb7d1716E
	.globl	_ZN17compiler_builtins5float4conv9__fixsfdi17hfe012a4bbb7d1716E
	.p2align	1
	.type	_ZN17compiler_builtins5float4conv9__fixsfdi17hfe012a4bbb7d1716E,@function
_ZN17compiler_builtins5float4conv9__fixsfdi17hfe012a4bbb7d1716E:
.Lfunc_begin54:
	.loc	1 386 0
	.cfi_startproc
	.loc	11 267 21 prologue_end
	slli	a1, a0, 1
	srli	a1, a1, 1
.Ltmp1659:
	.loc	11 268 12
	srli	a2, a1, 23
	li	a3, 127
	bltu	a2, a3, .LBB54_7
.Ltmp1660:
	.loc	11 270 19
	srli	a2, a1, 24
	li	a3, 95
	bgeu	a2, a3, .LBB54_5
.Ltmp1661:
	.loc	11 271 31
	slli	a2, a0, 8
	lui	a5, 524288
.Ltmp1662:
	.loc	11 272 27
	srli	a1, a0, 23
	li	a3, 62
	.loc	11 272 21 is_stmt 0
	sub	a1, a3, a1
.Ltmp1663:
	.loc	11 273 21 is_stmt 1
	andi	a3, a1, 63
	addi	a4, a3, -32
.Ltmp1664:
	.loc	11 271 21
	or	a2, a2, a5
.Ltmp1665:
	.loc	11 273 21
	bltz	a4, .LBB54_8
.Ltmp1666:
	.loc	11 0 21 is_stmt 0
	li	a1, 0
	srl	a2, a2, a4
.Ltmp1667:
	.loc	11 274 16 is_stmt 1
	bltz	a0, .LBB54_9
.Ltmp1668:
.LBB54_4:
	.loc	1 389 10
	mv	a0, a2
.Ltmp1669:
	ret
.LBB54_5:
.Ltmp1670:
	.loc	1 0 10 is_stmt 0
	lui	a2, 522240
	addi	a2, a2, 1
.Ltmp1671:
	.loc	11 275 19 is_stmt 1
	bgeu	a1, a2, .LBB54_7
.Ltmp1672:
	.loc	11 276 16
	slti	a0, a0, 0
.Ltmp1673:
	xori	a0, a0, 1
	lui	a1, 524288
	.loc	11 276 13 is_stmt 0
	sub	a1, a1, a0
	neg	a0, a0
.Ltmp1674:
	.loc	1 389 10 is_stmt 1
	ret
.LBB54_7:
.Ltmp1675:
	.loc	1 0 10 is_stmt 0
	li	a2, 0
	li	a1, 0
	.loc	1 389 10
	mv	a0, a2
.Ltmp1676:
	ret
.LBB54_8:
.Ltmp1677:
	.loc	1 0 10
	srl	a1, a2, a1
	xori	a2, a3, 31
	slli	a3, a0, 9
	sll	a2, a3, a2
.Ltmp1678:
	.loc	11 274 16 is_stmt 1
	bgez	a0, .LBB54_4
.Ltmp1679:
.LBB54_9:
	.loc	11 0 16 is_stmt 0
	snez	a0, a2
.Ltmp1680:
	add	a0, a0, a1
	neg	a1, a0
	neg	a0, a2
	.loc	1 389 10 is_stmt 1
	ret
.Ltmp1681:
.Lfunc_end54:
	.size	_ZN17compiler_builtins5float4conv9__fixsfdi17hfe012a4bbb7d1716E, .Lfunc_end54-_ZN17compiler_builtins5float4conv9__fixsfdi17hfe012a4bbb7d1716E
	.cfi_endproc

	.section	.text.__fixsfdi,"ax",@progbits
	.hidden	__fixsfdi
	.globl	__fixsfdi
	.p2align	1
	.type	__fixsfdi,@function
__fixsfdi:
.Lfunc_begin55:
	.loc	1 394 0
	.cfi_startproc
	.loc	11 267 21 prologue_end
	slli	a1, a0, 1
	srli	a1, a1, 1
.Ltmp1682:
	.loc	11 268 12
	srli	a2, a1, 23
	li	a3, 127
	bltu	a2, a3, .LBB55_6
.Ltmp1683:
	.loc	11 270 19
	srli	a2, a1, 24
	li	a3, 95
	bgeu	a2, a3, .LBB55_4
.Ltmp1684:
	.loc	11 271 31
	slli	a2, a0, 8
	lui	a5, 524288
.Ltmp1685:
	.loc	11 272 27
	srli	a1, a0, 23
	li	a3, 62
	.loc	11 272 21 is_stmt 0
	sub	a1, a3, a1
.Ltmp1686:
	.loc	11 273 21 is_stmt 1
	andi	a3, a1, 63
	addi	a4, a3, -32
.Ltmp1687:
	.loc	11 271 21
	or	a2, a2, a5
.Ltmp1688:
	.loc	11 273 21
	bltz	a4, .LBB55_7
.Ltmp1689:
	.loc	11 0 21 is_stmt 0
	li	a1, 0
	srl	a2, a2, a4
.Ltmp1690:
	.loc	11 274 16 is_stmt 1
	bltz	a0, .LBB55_8
	j	.LBB55_9
.Ltmp1691:
.LBB55_4:
	.loc	11 0 16 is_stmt 0
	lui	a2, 522240
	addi	a2, a2, 1
	.loc	11 275 19 is_stmt 1
	bgeu	a1, a2, .LBB55_6
.Ltmp1692:
	.loc	11 276 16
	slti	a0, a0, 0
.Ltmp1693:
	xori	a0, a0, 1
	lui	a1, 524288
	.loc	11 276 13 is_stmt 0
	sub	a1, a1, a0
	neg	a0, a0
.Ltmp1694:
	.loc	1 396 14 is_stmt 1
	ret
.LBB55_6:
.Ltmp1695:
	.loc	1 0 14 is_stmt 0
	li	a1, 0
	.loc	1 396 14
	li	a0, 0
.Ltmp1696:
	ret
.LBB55_7:
.Ltmp1697:
	.loc	1 0 14
	srl	a1, a2, a1
	xori	a2, a3, 31
	slli	a3, a0, 9
	sll	a2, a3, a2
.Ltmp1698:
	.loc	11 274 16 is_stmt 1
	bgez	a0, .LBB55_9
.Ltmp1699:
.LBB55_8:
	.loc	11 0 16 is_stmt 0
	snez	a0, a2
.Ltmp1700:
	add	a0, a0, a1
	neg	a1, a0
	neg	a2, a2
.LBB55_9:
	.loc	1 396 14 is_stmt 1
	mv	a0, a2
	ret
.Ltmp1701:
.Lfunc_end55:
	.size	__fixsfdi, .Lfunc_end55-__fixsfdi
	.cfi_endproc

	.section	.text._ZN17compiler_builtins5float4conv9__fixsfti17hc130bd84fd46bf1dE,"ax",@progbits
	.hidden	_ZN17compiler_builtins5float4conv9__fixsfti17hc130bd84fd46bf1dE
	.globl	_ZN17compiler_builtins5float4conv9__fixsfti17hc130bd84fd46bf1dE
	.p2align	1
	.type	_ZN17compiler_builtins5float4conv9__fixsfti17hc130bd84fd46bf1dE,@function
_ZN17compiler_builtins5float4conv9__fixsfti17hc130bd84fd46bf1dE:
.Lfunc_begin56:
	.loc	1 386 0
	.cfi_startproc
	.loc	11 285 21 prologue_end
	slli	a2, a1, 1
	srli	a2, a2, 1
.Ltmp1702:
	.loc	11 286 12
	srli	a4, a2, 23
	li	a3, 127
.Ltmp1703:
	bltu	a4, a3, .LBB56_7
.Ltmp1704:
	.loc	11 288 19
	srli	a4, a2, 24
	bgeu	a4, a3, .LBB56_5
.Ltmp1705:
	.loc	11 289 32
	slli	a2, a1, 8
	lui	a3, 524288
	.loc	11 289 21 is_stmt 0
	or	a6, a2, a3
.Ltmp1706:
	.loc	11 290 27 is_stmt 1
	srli	a2, a1, 23
	li	a3, 126
	.loc	11 290 21 is_stmt 0
	sub	a2, a3, a2
.Ltmp1707:
	.loc	11 291 21 is_stmt 1
	andi	a4, a2, 127
	addi	a7, a4, -96
.Ltmp1708:
	addi	t0, a4, -64
	bltz	a7, .LBB56_9
.Ltmp1709:
	.loc	11 0 21 is_stmt 0
	li	a3, 0
	li	a5, 32
	.loc	11 291 21
	sub	a5, a5, a4
	bgez	a5, .LBB56_10
.Ltmp1710:
.LBB56_4:
	.loc	11 0 21
	neg	a5, a4
	sll	a5, a6, a5
	li	t2, 64
	.loc	11 291 21
	bgeu	a4, t2, .LBB56_11
	j	.LBB56_12
.Ltmp1711:
.LBB56_5:
	.loc	11 0 21
	lui	a3, 522240
	addi	a3, a3, 1
	.loc	11 293 19 is_stmt 1
	bgeu	a2, a3, .LBB56_7
.Ltmp1712:
	.loc	11 294 16
	slti	a1, a1, 0
.Ltmp1713:
	xori	a1, a1, 1
	lui	a3, 524288
	.loc	11 294 13 is_stmt 0
	neg	a2, a1
	sub	t1, a3, a1
	mv	a3, a2
	mv	a5, a2
	j	.LBB56_8
.Ltmp1714:
.LBB56_7:
	.loc	11 0 13
	li	a2, 0
	li	a3, 0
	li	a5, 0
	li	t1, 0
.Ltmp1715:
.LBB56_8:
	.loc	1 389 10 is_stmt 1
	sw	a2, 0(a0)
	sw	a3, 4(a0)
	sw	a5, 8(a0)
	sw	t1, 12(a0)
	ret
.LBB56_9:
.Ltmp1716:
	.loc	1 0 10 is_stmt 0
	srl	a3, a6, t0
	li	a5, 32
.Ltmp1717:
	.loc	11 291 21 is_stmt 1
	sub	a5, a5, a4
	bltz	a5, .LBB56_4
.Ltmp1718:
.LBB56_10:
	.loc	11 0 21 is_stmt 0
	li	a5, 0
	li	t2, 64
	.loc	11 291 21
	bltu	a4, t2, .LBB56_12
.Ltmp1719:
.LBB56_11:
	.loc	11 0 21
	mv	a5, a3
.Ltmp1720:
.LBB56_12:
	li	a3, 0
	.loc	11 291 21
	bnez	a4, .LBB56_15
.Ltmp1721:
	addi	a5, a4, -32
	bltz	a5, .LBB56_16
.Ltmp1722:
.LBB56_14:
	.loc	11 0 21
	li	t1, 0
	.loc	11 291 21
	bgeu	a4, t2, .LBB56_17
	j	.LBB56_18
.Ltmp1723:
.LBB56_15:
	.loc	11 0 21
	mv	a3, a5
	.loc	11 291 21
	addi	a5, a4, -32
	bgez	a5, .LBB56_14
.Ltmp1724:
.LBB56_16:
	.loc	11 0 21
	srl	t1, a6, a2
	.loc	11 291 21
	bltu	a4, t2, .LBB56_18
.Ltmp1725:
.LBB56_17:
	.loc	11 0 21
	li	t1, 0
.Ltmp1726:
.LBB56_18:
	.loc	11 291 21
	slli	t3, a1, 9
	bltz	a5, .LBB56_20
.Ltmp1727:
	.loc	11 0 21
	srl	a5, a6, a5
	.loc	11 291 21
	bgeu	a4, t2, .LBB56_21
	j	.LBB56_22
.Ltmp1728:
.LBB56_20:
	.loc	11 0 21
	xori	a5, a4, 31
	sll	a5, t3, a5
	.loc	11 291 21
	bltu	a4, t2, .LBB56_22
.Ltmp1729:
.LBB56_21:
	.loc	11 0 21
	li	a5, 0
.Ltmp1730:
.LBB56_22:
	.loc	11 291 21
	bltz	a7, .LBB56_24
.Ltmp1731:
	.loc	11 0 21
	srl	a2, a6, a7
	li	a6, 0
.Ltmp1732:
	.loc	11 291 21
	bgeu	a4, t2, .LBB56_25
	j	.LBB56_26
.Ltmp1733:
.LBB56_24:
	.loc	11 0 21
	xori	a2, t0, 31
	sll	a2, t3, a2
	li	a6, 0
.Ltmp1734:
	.loc	11 291 21
	bltu	a4, t2, .LBB56_26
.Ltmp1735:
.LBB56_25:
	.loc	11 0 21
	mv	a6, a2
.Ltmp1736:
.LBB56_26:
	li	a2, 0
	.loc	11 291 21
	bnez	a4, .LBB56_29
.Ltmp1737:
	.loc	11 0 21
	snez	a6, a2
	mv	a4, a6
	bnez	a3, .LBB56_30
.Ltmp1738:
.LBB56_28:
	.loc	11 292 16 is_stmt 1
	bgez	a1, .LBB56_8
	j	.LBB56_31
.Ltmp1739:
.LBB56_29:
	.loc	11 0 16 is_stmt 0
	mv	a2, a6
.Ltmp1740:
	snez	a6, a2
	mv	a4, a6
	beqz	a3, .LBB56_28
.Ltmp1741:
.LBB56_30:
	snez	a4, a3
	.loc	11 292 16
	bgez	a1, .LBB56_8
.Ltmp1742:
.LBB56_31:
	.loc	11 0 16
	neg	a1, a5
.Ltmp1743:
	sltu	a7, a1, a4
	snez	a5, a5
	add	a5, a5, t1
	add	a5, a5, a7
	neg	t1, a5
	sub	a5, a1, a4
	add	a1, a3, a6
	neg	a3, a1
	neg	a2, a2
	j	.LBB56_8
.Lfunc_end56:
	.size	_ZN17compiler_builtins5float4conv9__fixsfti17hc130bd84fd46bf1dE, .Lfunc_end56-_ZN17compiler_builtins5float4conv9__fixsfti17hc130bd84fd46bf1dE
	.cfi_endproc

	.section	.text.__fixsfti,"ax",@progbits
	.hidden	__fixsfti
	.globl	__fixsfti
	.p2align	1
	.type	__fixsfti,@function
__fixsfti:
.Lfunc_begin57:
	.loc	1 394 0 is_stmt 1
	.cfi_startproc
	.loc	11 285 21 prologue_end
	slli	a2, a1, 1
	srli	a2, a2, 1
.Ltmp1744:
	.loc	11 286 12
	srli	a4, a2, 23
	li	a3, 127
.Ltmp1745:
	bltu	a4, a3, .LBB57_7
.Ltmp1746:
	.loc	11 288 19
	srli	a4, a2, 24
	bgeu	a4, a3, .LBB57_5
.Ltmp1747:
	.loc	11 289 32
	slli	a2, a1, 8
	lui	a3, 524288
	.loc	11 289 21 is_stmt 0
	or	a6, a2, a3
.Ltmp1748:
	.loc	11 290 27 is_stmt 1
	srli	a2, a1, 23
	li	a3, 126
	.loc	11 290 21 is_stmt 0
	sub	a2, a3, a2
.Ltmp1749:
	.loc	11 291 21 is_stmt 1
	andi	a4, a2, 127
	addi	a7, a4, -96
.Ltmp1750:
	addi	t0, a4, -64
	bltz	a7, .LBB57_9
.Ltmp1751:
	.loc	11 0 21 is_stmt 0
	li	a3, 0
	li	a5, 32
	.loc	11 291 21
	sub	a5, a5, a4
	bgez	a5, .LBB57_10
.Ltmp1752:
.LBB57_4:
	.loc	11 0 21
	neg	a5, a4
	sll	a5, a6, a5
	li	t2, 64
	.loc	11 291 21
	bgeu	a4, t2, .LBB57_11
	j	.LBB57_12
.Ltmp1753:
.LBB57_5:
	.loc	11 0 21
	lui	a3, 522240
	addi	a3, a3, 1
	.loc	11 293 19 is_stmt 1
	bgeu	a2, a3, .LBB57_7
.Ltmp1754:
	.loc	11 294 16
	slti	a1, a1, 0
.Ltmp1755:
	xori	a1, a1, 1
	lui	a3, 524288
	.loc	11 294 13 is_stmt 0
	neg	a2, a1
	sub	t1, a3, a1
	mv	a3, a2
	mv	a5, a2
	j	.LBB57_8
.Ltmp1756:
.LBB57_7:
	.loc	11 0 13
	li	a2, 0
	li	a3, 0
	li	a5, 0
	li	t1, 0
.Ltmp1757:
.LBB57_8:
	.loc	1 396 14 is_stmt 1
	sw	a2, 0(a0)
	sw	a3, 4(a0)
	sw	a5, 8(a0)
	sw	t1, 12(a0)
	ret
.LBB57_9:
.Ltmp1758:
	.loc	1 0 14 is_stmt 0
	srl	a3, a6, t0
	li	a5, 32
.Ltmp1759:
	.loc	11 291 21 is_stmt 1
	sub	a5, a5, a4
	bltz	a5, .LBB57_4
.Ltmp1760:
.LBB57_10:
	.loc	11 0 21 is_stmt 0
	li	a5, 0
	li	t2, 64
	.loc	11 291 21
	bltu	a4, t2, .LBB57_12
.Ltmp1761:
.LBB57_11:
	.loc	11 0 21
	mv	a5, a3
.Ltmp1762:
.LBB57_12:
	li	a3, 0
	.loc	11 291 21
	bnez	a4, .LBB57_15
.Ltmp1763:
	addi	a5, a4, -32
	bltz	a5, .LBB57_16
.Ltmp1764:
.LBB57_14:
	.loc	11 0 21
	li	t1, 0
	.loc	11 291 21
	bgeu	a4, t2, .LBB57_17
	j	.LBB57_18
.Ltmp1765:
.LBB57_15:
	.loc	11 0 21
	mv	a3, a5
	.loc	11 291 21
	addi	a5, a4, -32
	bgez	a5, .LBB57_14
.Ltmp1766:
.LBB57_16:
	.loc	11 0 21
	srl	t1, a6, a2
	.loc	11 291 21
	bltu	a4, t2, .LBB57_18
.Ltmp1767:
.LBB57_17:
	.loc	11 0 21
	li	t1, 0
.Ltmp1768:
.LBB57_18:
	.loc	11 291 21
	slli	t3, a1, 9
	bltz	a5, .LBB57_20
.Ltmp1769:
	.loc	11 0 21
	srl	a5, a6, a5
	.loc	11 291 21
	bgeu	a4, t2, .LBB57_21
	j	.LBB57_22
.Ltmp1770:
.LBB57_20:
	.loc	11 0 21
	xori	a5, a4, 31
	sll	a5, t3, a5
	.loc	11 291 21
	bltu	a4, t2, .LBB57_22
.Ltmp1771:
.LBB57_21:
	.loc	11 0 21
	li	a5, 0
.Ltmp1772:
.LBB57_22:
	.loc	11 291 21
	bltz	a7, .LBB57_24
.Ltmp1773:
	.loc	11 0 21
	srl	a2, a6, a7
	li	a6, 0
.Ltmp1774:
	.loc	11 291 21
	bgeu	a4, t2, .LBB57_25
	j	.LBB57_26
.Ltmp1775:
.LBB57_24:
	.loc	11 0 21
	xori	a2, t0, 31
	sll	a2, t3, a2
	li	a6, 0
.Ltmp1776:
	.loc	11 291 21
	bltu	a4, t2, .LBB57_26
.Ltmp1777:
.LBB57_25:
	.loc	11 0 21
	mv	a6, a2
.Ltmp1778:
.LBB57_26:
	li	a2, 0
	.loc	11 291 21
	bnez	a4, .LBB57_29
.Ltmp1779:
	.loc	11 0 21
	snez	a6, a2
	mv	a4, a6
	bnez	a3, .LBB57_30
.Ltmp1780:
.LBB57_28:
	.loc	11 292 16 is_stmt 1
	bgez	a1, .LBB57_8
	j	.LBB57_31
.Ltmp1781:
.LBB57_29:
	.loc	11 0 16 is_stmt 0
	mv	a2, a6
.Ltmp1782:
	snez	a6, a2
	mv	a4, a6
	beqz	a3, .LBB57_28
.Ltmp1783:
.LBB57_30:
	snez	a4, a3
	.loc	11 292 16
	bgez	a1, .LBB57_8
.Ltmp1784:
.LBB57_31:
	.loc	11 0 16
	neg	a1, a5
.Ltmp1785:
	sltu	a7, a1, a4
	snez	a5, a5
	add	a5, a5, t1
	add	a5, a5, a7
	neg	t1, a5
	sub	a5, a1, a4
	add	a1, a3, a6
	neg	a3, a1
	neg	a2, a2
	j	.LBB57_8
.Lfunc_end57:
	.size	__fixsfti, .Lfunc_end57-__fixsfti
	.cfi_endproc

	.section	.text._ZN17compiler_builtins5float4conv9__fixdfsi17he32a0470fcdd5f8fE,"ax",@progbits
	.hidden	_ZN17compiler_builtins5float4conv9__fixdfsi17he32a0470fcdd5f8fE
	.globl	_ZN17compiler_builtins5float4conv9__fixdfsi17he32a0470fcdd5f8fE
	.p2align	1
	.type	_ZN17compiler_builtins5float4conv9__fixdfsi17he32a0470fcdd5f8fE,@function
_ZN17compiler_builtins5float4conv9__fixdfsi17he32a0470fcdd5f8fE:
.Lfunc_begin58:
	.loc	1 386 0 is_stmt 1
	.cfi_startproc
	.loc	11 302 21 prologue_end
	slli	a2, a1, 1
	srli	a3, a2, 1
.Ltmp1786:
	.loc	11 303 12
	srli	a2, a3, 20
	li	a4, 1023
.Ltmp1787:
	bgeu	a2, a4, .LBB58_2
.Ltmp1788:
	.loc	11 0 12 is_stmt 0
	li	a0, 0
.Ltmp1789:
	j	.LBB58_7
.Ltmp1790:
.LBB58_2:
	.loc	11 305 19 is_stmt 1
	srli	a4, a3, 21
	li	a5, 527
	bgeu	a4, a5, .LBB58_5
.Ltmp1791:
	.loc	11 306 31
	srli	a0, a0, 21
.Ltmp1792:
	slli	a2, a1, 11
	or	a0, a0, a2
	lui	a2, 524288
	.loc	11 306 21 is_stmt 0
	or	a0, a0, a2
.Ltmp1793:
	.loc	11 307 28 is_stmt 1
	srli	a2, a1, 20
	li	a3, 30
.Ltmp1794:
	.loc	11 308 21
	sub	a2, a3, a2
	srl	a0, a0, a2
.Ltmp1795:
	.loc	11 309 16
	bgez	a1, .LBB58_7
.Ltmp1796:
	.loc	11 0 16 is_stmt 0
	neg	a0, a0
	.loc	1 389 10 is_stmt 1
	ret
.Ltmp1797:
.LBB58_5:
	.loc	1 0 10 is_stmt 0
	lui	a4, 524032
.Ltmp1798:
	.loc	11 310 19 is_stmt 1
	beq	a3, a4, .LBB58_8
.Ltmp1799:
	.loc	11 0 19 is_stmt 0
	sltiu	a2, a2, 2047
	li	a0, 0
.Ltmp1800:
	.loc	11 310 19
	bnez	a2, .LBB58_9
.Ltmp1801:
.LBB58_7:
	.loc	1 389 10 is_stmt 1
	ret
.Ltmp1802:
.LBB58_8:
	.loc	1 0 10 is_stmt 0
	seqz	a2, a0
	li	a0, 0
.Ltmp1803:
	.loc	11 310 19 is_stmt 1
	beqz	a2, .LBB58_7
.Ltmp1804:
.LBB58_9:
	.loc	11 311 16
	slti	a0, a1, 0
	xori	a0, a0, 1
	lui	a1, 524288
.Ltmp1805:
	.loc	11 311 13 is_stmt 0
	sub	a0, a1, a0
.Ltmp1806:
	.loc	1 389 10 is_stmt 1
	ret
.Ltmp1807:
.Lfunc_end58:
	.size	_ZN17compiler_builtins5float4conv9__fixdfsi17he32a0470fcdd5f8fE, .Lfunc_end58-_ZN17compiler_builtins5float4conv9__fixdfsi17he32a0470fcdd5f8fE
	.cfi_endproc

	.section	.text.__fixdfsi,"ax",@progbits
	.hidden	__fixdfsi
	.globl	__fixdfsi
	.p2align	1
	.type	__fixdfsi,@function
__fixdfsi:
.Lfunc_begin59:
	.loc	1 394 0
	.cfi_startproc
	.loc	11 302 21 prologue_end
	slli	a2, a1, 1
	srli	a3, a2, 1
.Ltmp1808:
	.loc	11 303 12
	srli	a2, a3, 20
	li	a4, 1023
.Ltmp1809:
	bgeu	a2, a4, .LBB59_2
.Ltmp1810:
	.loc	11 0 12 is_stmt 0
	li	a0, 0
.Ltmp1811:
	.loc	1 396 14 is_stmt 1
	ret
.Ltmp1812:
.LBB59_2:
	.loc	11 305 19
	srli	a4, a3, 21
	li	a5, 527
	bgeu	a4, a5, .LBB59_5
.Ltmp1813:
	.loc	11 306 31
	srli	a0, a0, 21
.Ltmp1814:
	slli	a2, a1, 11
	or	a0, a0, a2
	lui	a2, 524288
	.loc	11 306 21 is_stmt 0
	or	a0, a0, a2
.Ltmp1815:
	.loc	11 307 28 is_stmt 1
	srli	a2, a1, 20
	li	a3, 30
.Ltmp1816:
	.loc	11 308 21
	sub	a2, a3, a2
	srl	a0, a0, a2
.Ltmp1817:
	.loc	11 309 16
	bgez	a1, .LBB59_7
.Ltmp1818:
	.loc	11 0 16 is_stmt 0
	neg	a0, a0
	j	.LBB59_7
.Ltmp1819:
.LBB59_5:
	lui	a4, 524032
	.loc	11 310 19 is_stmt 1
	beq	a3, a4, .LBB59_8
.Ltmp1820:
	.loc	11 0 19 is_stmt 0
	sltiu	a2, a2, 2047
	li	a0, 0
.Ltmp1821:
	.loc	11 310 19
	bnez	a2, .LBB59_9
.Ltmp1822:
.LBB59_7:
	.loc	1 396 14 is_stmt 1
	ret
.Ltmp1823:
.LBB59_8:
	.loc	1 0 14 is_stmt 0
	seqz	a2, a0
	li	a0, 0
.Ltmp1824:
	.loc	11 310 19 is_stmt 1
	beqz	a2, .LBB59_7
.Ltmp1825:
.LBB59_9:
	.loc	11 311 16
	slti	a0, a1, 0
	xori	a0, a0, 1
	lui	a1, 524288
.Ltmp1826:
	.loc	11 311 13 is_stmt 0
	sub	a0, a1, a0
.Ltmp1827:
	.loc	1 396 14 is_stmt 1
	ret
.Ltmp1828:
.Lfunc_end59:
	.size	__fixdfsi, .Lfunc_end59-__fixdfsi
	.cfi_endproc

	.section	.text._ZN17compiler_builtins5float4conv9__fixdfdi17h86e93f0bcdbd6c6aE,"ax",@progbits
	.hidden	_ZN17compiler_builtins5float4conv9__fixdfdi17h86e93f0bcdbd6c6aE
	.globl	_ZN17compiler_builtins5float4conv9__fixdfdi17h86e93f0bcdbd6c6aE
	.p2align	1
	.type	_ZN17compiler_builtins5float4conv9__fixdfdi17h86e93f0bcdbd6c6aE,@function
_ZN17compiler_builtins5float4conv9__fixdfdi17h86e93f0bcdbd6c6aE:
.Lfunc_begin60:
	.loc	1 386 0
	.cfi_startproc
	.loc	11 319 21 prologue_end
	slli	a2, a1, 1
	srli	a3, a2, 1
.Ltmp1829:
	.loc	11 320 12
	srli	a2, a3, 20
	li	a4, 1023
.Ltmp1830:
	bgeu	a2, a4, .LBB60_2
.Ltmp1831:
	.loc	11 0 12 is_stmt 0
	li	a0, 0
.Ltmp1832:
	j	.LBB60_8
.Ltmp1833:
.LBB60_2:
	.loc	11 322 19 is_stmt 1
	srli	a4, a3, 21
	li	a5, 543
	bgeu	a4, a5, .LBB60_6
.Ltmp1834:
	.loc	11 0 19 is_stmt 0
	li	a3, -1
	lui	a2, 524288
	addi	a4, a2, -1
	.loc	11 323 31 is_stmt 1
	srli	a2, a0, 21
	slli	a5, a1, 11
	or	a6, a5, a2
	.loc	11 323 21 is_stmt 0
	addi	a2, a3, 1
	sltu	a3, a2, a3
	add	a7, a4, a3
.Ltmp1835:
	.loc	11 324 28 is_stmt 1
	srli	a3, a1, 20
	li	a4, 62
.Ltmp1836:
	.loc	11 325 21
	sub	a4, a4, a3
	andi	a5, a4, 63
	addi	a3, a5, -32
.Ltmp1837:
	.loc	11 323 21
	or	a6, a6, a7
.Ltmp1838:
	.loc	11 325 21
	bltz	a3, .LBB60_9
.Ltmp1839:
	.loc	11 0 21 is_stmt 0
	li	a2, 0
	srl	a0, a6, a3
.Ltmp1840:
	.loc	11 326 16 is_stmt 1
	bltz	a1, .LBB60_10
.Ltmp1841:
.LBB60_5:
	.loc	1 389 10
	mv	a1, a2
.Ltmp1842:
	ret
.LBB60_6:
.Ltmp1843:
	.loc	1 0 10 is_stmt 0
	lui	a4, 524032
.Ltmp1844:
	.loc	11 327 19 is_stmt 1
	beq	a3, a4, .LBB60_11
.Ltmp1845:
	.loc	11 0 19 is_stmt 0
	sltiu	a0, a2, 2047
.Ltmp1846:
	.loc	11 327 19
	bnez	a0, .LBB60_12
.Ltmp1847:
.LBB60_8:
	.loc	11 0 19
	li	a2, 0
	.loc	1 389 10 is_stmt 1
	mv	a1, a2
.Ltmp1848:
	ret
.LBB60_9:
.Ltmp1849:
	.loc	1 0 10 is_stmt 0
	slli	a0, a0, 11
.Ltmp1850:
	or	a0, a0, a2
	srl	a0, a0, a4
	slli	a2, a6, 1
	xori	a3, a5, 31
	sll	a2, a2, a3
	or	a0, a0, a2
	srl	a2, a6, a4
.Ltmp1851:
	.loc	11 326 16 is_stmt 1
	bgez	a1, .LBB60_5
.Ltmp1852:
.LBB60_10:
	.loc	11 0 16 is_stmt 0
	snez	a1, a0
.Ltmp1853:
	add	a1, a1, a2
	neg	a1, a1
	neg	a0, a0
	.loc	1 389 10 is_stmt 1
	ret
.LBB60_11:
.Ltmp1854:
	.loc	1 0 10 is_stmt 0
	seqz	a0, a0
.Ltmp1855:
	.loc	11 327 19 is_stmt 1
	beqz	a0, .LBB60_8
.Ltmp1856:
.LBB60_12:
	.loc	11 328 13
	srli	a1, a1, 31
.Ltmp1857:
	addi	a0, a1, -1
	sltu	a1, a0, a1
	lui	a2, 524288
	addi	a2, a2, -1
	add	a1, a1, a2
.Ltmp1858:
	.loc	1 389 10
	ret
.Ltmp1859:
.Lfunc_end60:
	.size	_ZN17compiler_builtins5float4conv9__fixdfdi17h86e93f0bcdbd6c6aE, .Lfunc_end60-_ZN17compiler_builtins5float4conv9__fixdfdi17h86e93f0bcdbd6c6aE
	.cfi_endproc

	.section	.text.__fixdfdi,"ax",@progbits
	.hidden	__fixdfdi
	.globl	__fixdfdi
	.p2align	1
	.type	__fixdfdi,@function
__fixdfdi:
.Lfunc_begin61:
	.loc	1 394 0
	.cfi_startproc
	.loc	11 319 21 prologue_end
	slli	a2, a1, 1
	srli	a3, a2, 1
.Ltmp1860:
	.loc	11 320 12
	srli	a2, a3, 20
	li	a4, 1023
.Ltmp1861:
	bgeu	a2, a4, .LBB61_2
.Ltmp1862:
	.loc	11 0 12 is_stmt 0
	li	a0, 0
.Ltmp1863:
	.loc	1 396 14 is_stmt 1
	li	a1, 0
.Ltmp1864:
	ret
.LBB61_2:
.Ltmp1865:
	.loc	11 322 19
	srli	a4, a3, 21
	li	a5, 543
	bgeu	a4, a5, .LBB61_6
.Ltmp1866:
	.loc	11 0 19 is_stmt 0
	li	a3, -1
	lui	a2, 524288
	addi	a4, a2, -1
	.loc	11 323 31 is_stmt 1
	srli	a2, a0, 21
	slli	a5, a1, 11
	or	a6, a5, a2
	.loc	11 323 21 is_stmt 0
	addi	a2, a3, 1
	sltu	a3, a2, a3
	add	a7, a4, a3
.Ltmp1867:
	.loc	11 324 28 is_stmt 1
	srli	a3, a1, 20
	li	a4, 62
.Ltmp1868:
	.loc	11 325 21
	sub	a4, a4, a3
	andi	a5, a4, 63
	addi	a3, a5, -32
.Ltmp1869:
	.loc	11 323 21
	or	a6, a6, a7
.Ltmp1870:
	.loc	11 325 21
	bltz	a3, .LBB61_9
.Ltmp1871:
	.loc	11 0 21 is_stmt 0
	li	a2, 0
	srl	a0, a6, a3
.Ltmp1872:
	.loc	11 326 16 is_stmt 1
	bltz	a1, .LBB61_10
.Ltmp1873:
.LBB61_5:
	.loc	1 396 14
	mv	a1, a2
.Ltmp1874:
	ret
.LBB61_6:
.Ltmp1875:
	.loc	1 0 14 is_stmt 0
	lui	a4, 524032
.Ltmp1876:
	.loc	11 327 19 is_stmt 1
	beq	a3, a4, .LBB61_11
.Ltmp1877:
	.loc	11 0 19 is_stmt 0
	sltiu	a0, a2, 2047
.Ltmp1878:
	.loc	11 327 19
	bnez	a0, .LBB61_12
.Ltmp1879:
.LBB61_8:
	.loc	1 396 14 is_stmt 1
	li	a1, 0
.Ltmp1880:
	ret
.LBB61_9:
.Ltmp1881:
	.loc	1 0 14 is_stmt 0
	slli	a0, a0, 11
.Ltmp1882:
	or	a0, a0, a2
	srl	a0, a0, a4
	slli	a2, a6, 1
	xori	a3, a5, 31
	sll	a2, a2, a3
	or	a0, a0, a2
	srl	a2, a6, a4
.Ltmp1883:
	.loc	11 326 16 is_stmt 1
	bgez	a1, .LBB61_5
.Ltmp1884:
.LBB61_10:
	.loc	11 0 16 is_stmt 0
	snez	a1, a0
.Ltmp1885:
	add	a1, a1, a2
	neg	a1, a1
	neg	a0, a0
	.loc	1 396 14 is_stmt 1
	ret
.LBB61_11:
.Ltmp1886:
	.loc	1 0 14 is_stmt 0
	seqz	a0, a0
.Ltmp1887:
	.loc	11 327 19 is_stmt 1
	beqz	a0, .LBB61_8
.Ltmp1888:
.LBB61_12:
	.loc	11 328 13
	srli	a1, a1, 31
.Ltmp1889:
	addi	a0, a1, -1
	sltu	a1, a0, a1
	lui	a2, 524288
	addi	a2, a2, -1
	add	a2, a2, a1
.Ltmp1890:
	.loc	1 396 14
	mv	a1, a2
	ret
.Ltmp1891:
.Lfunc_end61:
	.size	__fixdfdi, .Lfunc_end61-__fixdfdi
	.cfi_endproc

	.section	.text._ZN17compiler_builtins5float4conv9__fixdfti17hc23c22e748968fdeE,"ax",@progbits
	.hidden	_ZN17compiler_builtins5float4conv9__fixdfti17hc23c22e748968fdeE
	.globl	_ZN17compiler_builtins5float4conv9__fixdfti17hc23c22e748968fdeE
	.p2align	1
	.type	_ZN17compiler_builtins5float4conv9__fixdfti17hc23c22e748968fdeE,@function
_ZN17compiler_builtins5float4conv9__fixdfti17hc23c22e748968fdeE:
.Lfunc_begin62:
	.loc	1 386 0
	.cfi_startproc
	addi	sp, sp, -16
	.cfi_def_cfa_offset 16
.Ltmp1892:
	.file	12 "/Users/georg/.rustup/toolchains/nightly-2023-01-03-aarch64-apple-darwin/lib/rustlib/src/rust/library/core/src/num" "f64.rs"
	.loc	12 0 0 is_stmt 0
	sw	s0, 12(sp)
.Ltmp1893:
	.cfi_offset s0, -4
	.loc	11 337 21 prologue_end is_stmt 1
	slli	a3, a2, 1
	srli	a4, a3, 1
.Ltmp1894:
	.loc	11 338 12
	srli	a3, a4, 20
	li	a5, 1023
.Ltmp1895:
	bgeu	a3, a5, .LBB62_2
.Ltmp1896:
	.loc	11 0 12 is_stmt 0
	li	a1, 0
.Ltmp1897:
	j	.LBB62_7
.Ltmp1898:
.LBB62_2:
	.loc	11 340 19 is_stmt 1
	srli	a5, a4, 21
	li	s0, 575
	bgeu	a5, s0, .LBB62_5
.Ltmp1899:
	.loc	11 341 32
	srli	a3, a1, 21
	slli	a4, a2, 11
	or	a3, a3, a4
	slli	t4, a1, 11
.Ltmp1900:
	.loc	11 0 32 is_stmt 0
	lui	a1, 524288
.Ltmp1901:
	.loc	11 341 21
	or	a7, a3, a1
.Ltmp1902:
	.loc	11 342 28 is_stmt 1
	srli	a1, a2, 20
	li	a4, 126
.Ltmp1903:
	.loc	11 343 21
	sub	a6, a4, a1
	andi	a4, a6, 127
	addi	t1, a4, -32
	slli	a1, a3, 1
	bltz	t1, .LBB62_9
.Ltmp1904:
	.loc	11 0 21 is_stmt 0
	srl	t2, a7, t1
	li	t0, 64
	.loc	11 343 21
	bgeu	a4, t0, .LBB62_10
	j	.LBB62_11
.Ltmp1905:
.LBB62_5:
	.loc	11 0 21
	lui	a5, 524032
	.loc	11 345 19 is_stmt 1
	beq	a4, a5, .LBB62_13
.Ltmp1906:
	.loc	11 0 19 is_stmt 0
	sltiu	a1, a3, 2047
.Ltmp1907:
	.loc	11 345 19
	bnez	a1, .LBB62_14
.Ltmp1908:
.LBB62_7:
	.loc	11 0 19
	li	a3, 0
	li	t2, 0
	li	a5, 0
.Ltmp1909:
.LBB62_8:
	.loc	1 389 10 is_stmt 1
	sw	a1, 0(a0)
	sw	a3, 4(a0)
	sw	t2, 8(a0)
	sw	a5, 12(a0)
	lw	s0, 12(sp)
	addi	sp, sp, 16
	ret
.LBB62_9:
.Ltmp1910:
	.loc	1 0 10 is_stmt 0
	xori	a3, a4, 31
	sll	a3, a1, a3
	srl	a5, t4, a6
	or	t2, a5, a3
	li	t0, 64
.Ltmp1911:
	.loc	11 343 21 is_stmt 1
	bltu	a4, t0, .LBB62_11
.Ltmp1912:
.LBB62_10:
	.loc	11 0 21 is_stmt 0
	li	t2, 0
.Ltmp1913:
.LBB62_11:
	.loc	11 343 21
	addi	t5, a4, -96
	addi	t3, a4, -64
	bltz	t5, .LBB62_15
.Ltmp1914:
	.loc	11 0 21
	srl	a1, a7, t5
	j	.LBB62_16
.Ltmp1915:
.LBB62_13:
	seqz	a1, a1
.Ltmp1916:
	.loc	11 345 19 is_stmt 1
	beqz	a1, .LBB62_7
.Ltmp1917:
.LBB62_14:
	.loc	11 346 16
	slti	a1, a2, 0
	xori	a2, a1, 1
.Ltmp1918:
	.loc	11 0 16 is_stmt 0
	lui	a3, 524288
	.loc	11 346 13
	neg	a1, a2
	sub	a5, a3, a2
	mv	a3, a1
	mv	t2, a1
	j	.LBB62_8
.LBB62_15:
.Ltmp1919:
	.loc	11 0 13
	xori	a3, t3, 31
	sll	a1, a1, a3
	srl	a3, t4, t3
	or	a1, a1, a3
.Ltmp1920:
.LBB62_16:
	li	a3, 32
.Ltmp1921:
	.loc	11 343 21 is_stmt 1
	sub	a5, a3, a4
	neg	a3, a4
	sll	t6, t4, a3
	mv	s0, t6
	bgez	a5, .LBB62_22
.Ltmp1922:
	bgeu	a4, t0, .LBB62_23
.Ltmp1923:
.LBB62_18:
	.loc	11 0 21 is_stmt 0
	li	a1, 0
	.loc	11 343 21
	bnez	a4, .LBB62_24
.Ltmp1924:
.LBB62_19:
	bltz	a5, .LBB62_25
.Ltmp1925:
.LBB62_20:
	bltz	t5, .LBB62_26
.Ltmp1926:
.LBB62_21:
	.loc	11 0 21
	li	a3, 0
	.loc	11 343 21
	bgeu	a4, t0, .LBB62_27
	j	.LBB62_28
.Ltmp1927:
.LBB62_22:
	.loc	11 0 21
	li	s0, 0
	.loc	11 343 21
	bltu	a4, t0, .LBB62_18
.Ltmp1928:
.LBB62_23:
	.loc	11 0 21
	mv	s0, a1
	li	a1, 0
	.loc	11 343 21
	beqz	a4, .LBB62_19
.Ltmp1929:
.LBB62_24:
	.loc	11 0 21
	mv	a1, s0
	.loc	11 343 21
	bgez	a5, .LBB62_20
.Ltmp1930:
.LBB62_25:
	.loc	11 0 21
	sll	a3, a7, a3
	sub	a5, t0, a4
	xori	a5, a5, 31
	srli	s0, t4, 1
	srl	a5, s0, a5
	or	t6, a3, a5
	.loc	11 343 21
	bgez	t5, .LBB62_21
.Ltmp1931:
.LBB62_26:
	.loc	11 0 21
	srl	a3, a7, t3
	.loc	11 343 21
	bltu	a4, t0, .LBB62_28
.Ltmp1932:
.LBB62_27:
	.loc	11 0 21
	mv	t6, a3
.Ltmp1933:
.LBB62_28:
	li	a3, 0
	.loc	11 343 21
	bnez	a4, .LBB62_31
.Ltmp1934:
	bltz	t1, .LBB62_32
.Ltmp1935:
.LBB62_30:
	.loc	11 0 21
	li	a5, 0
	.loc	11 343 21
	bgeu	a4, t0, .LBB62_33
	j	.LBB62_34
.Ltmp1936:
.LBB62_31:
	.loc	11 0 21
	mv	a3, t6
	.loc	11 343 21
	bgez	t1, .LBB62_30
.Ltmp1937:
.LBB62_32:
	.loc	11 0 21
	srl	a5, a7, a6
	.loc	11 343 21
	bltu	a4, t0, .LBB62_34
.Ltmp1938:
.LBB62_33:
	.loc	11 0 21
	li	a5, 0
.Ltmp1939:
.LBB62_34:
	snez	a6, a1
	mv	a4, a6
	bnez	a3, .LBB62_36
.Ltmp1940:
	.loc	11 344 16 is_stmt 1
	bgez	a2, .LBB62_8
	j	.LBB62_37
.Ltmp1941:
.LBB62_36:
	.loc	11 0 16 is_stmt 0
	snez	a4, a3
	.loc	11 344 16
	bgez	a2, .LBB62_8
.Ltmp1942:
.LBB62_37:
	.loc	11 0 16
	neg	a2, t2
.Ltmp1943:
	sltu	a7, a2, a4
	snez	s0, t2
	add	a5, a5, s0
	add	a5, a5, a7
	neg	a5, a5
	sub	t2, a2, a4
	add	a2, a3, a6
	neg	a3, a2
	neg	a1, a1
	j	.LBB62_8
.Lfunc_end62:
	.size	_ZN17compiler_builtins5float4conv9__fixdfti17hc23c22e748968fdeE, .Lfunc_end62-_ZN17compiler_builtins5float4conv9__fixdfti17hc23c22e748968fdeE
	.cfi_endproc

	.section	.text.__fixdfti,"ax",@progbits
	.hidden	__fixdfti
	.globl	__fixdfti
	.p2align	1
	.type	__fixdfti,@function
__fixdfti:
.Lfunc_begin63:
	.loc	1 394 0 is_stmt 1
	.cfi_startproc
	addi	sp, sp, -16
	.cfi_def_cfa_offset 16
.Ltmp1944:
	.loc	12 0 0 is_stmt 0
	sw	s0, 12(sp)
.Ltmp1945:
	.cfi_offset s0, -4
	.loc	11 337 21 prologue_end is_stmt 1
	slli	a3, a2, 1
	srli	a4, a3, 1
.Ltmp1946:
	.loc	11 338 12
	srli	a3, a4, 20
	li	a5, 1023
.Ltmp1947:
	bgeu	a3, a5, .LBB63_2
.Ltmp1948:
	.loc	11 0 12 is_stmt 0
	li	a1, 0
.Ltmp1949:
	j	.LBB63_7
.Ltmp1950:
.LBB63_2:
	.loc	11 340 19 is_stmt 1
	srli	a5, a4, 21
	li	s0, 575
	bgeu	a5, s0, .LBB63_5
.Ltmp1951:
	.loc	11 341 32
	srli	a3, a1, 21
	slli	a4, a2, 11
	or	a3, a3, a4
	slli	t4, a1, 11
	lui	a1, 524288
.Ltmp1952:
	.loc	11 341 21 is_stmt 0
	or	a7, a3, a1
.Ltmp1953:
	.loc	11 342 28 is_stmt 1
	srli	a1, a2, 20
	li	a4, 126
.Ltmp1954:
	.loc	11 343 21
	sub	a6, a4, a1
	andi	a4, a6, 127
	addi	t1, a4, -32
	slli	a1, a3, 1
	bltz	t1, .LBB63_9
.Ltmp1955:
	.loc	11 0 21 is_stmt 0
	srl	t2, a7, t1
	li	t0, 64
	.loc	11 343 21
	bgeu	a4, t0, .LBB63_10
	j	.LBB63_11
.Ltmp1956:
.LBB63_5:
	.loc	11 0 21
	lui	a5, 524032
	.loc	11 345 19 is_stmt 1
	beq	a4, a5, .LBB63_13
.Ltmp1957:
	.loc	11 0 19 is_stmt 0
	sltiu	a1, a3, 2047
.Ltmp1958:
	.loc	11 345 19
	bnez	a1, .LBB63_14
.Ltmp1959:
.LBB63_7:
	.loc	11 0 19
	li	a3, 0
	li	t2, 0
	li	a5, 0
.Ltmp1960:
.LBB63_8:
	.loc	1 396 14 is_stmt 1
	sw	a1, 0(a0)
	sw	a3, 4(a0)
	sw	t2, 8(a0)
	sw	a5, 12(a0)
	lw	s0, 12(sp)
	addi	sp, sp, 16
	ret
.LBB63_9:
.Ltmp1961:
	.loc	1 0 14 is_stmt 0
	xori	a3, a4, 31
	sll	a3, a1, a3
	srl	a5, t4, a6
	or	t2, a5, a3
	li	t0, 64
.Ltmp1962:
	.loc	11 343 21 is_stmt 1
	bltu	a4, t0, .LBB63_11
.Ltmp1963:
.LBB63_10:
	.loc	11 0 21 is_stmt 0
	li	t2, 0
.Ltmp1964:
.LBB63_11:
	.loc	11 343 21
	addi	t5, a4, -96
	addi	t3, a4, -64
	bltz	t5, .LBB63_15
.Ltmp1965:
	.loc	11 0 21
	srl	a1, a7, t5
	j	.LBB63_16
.Ltmp1966:
.LBB63_13:
	seqz	a1, a1
.Ltmp1967:
	.loc	11 345 19 is_stmt 1
	beqz	a1, .LBB63_7
.Ltmp1968:
.LBB63_14:
	.loc	11 346 16
	slti	a1, a2, 0
	xori	a2, a1, 1
.Ltmp1969:
	.loc	11 0 16 is_stmt 0
	lui	a3, 524288
	.loc	11 346 13
	neg	a1, a2
	sub	a5, a3, a2
	mv	a3, a1
	mv	t2, a1
	j	.LBB63_8
.LBB63_15:
.Ltmp1970:
	.loc	11 0 13
	xori	a3, t3, 31
	sll	a1, a1, a3
	srl	a3, t4, t3
	or	a1, a1, a3
.Ltmp1971:
.LBB63_16:
	li	a3, 32
.Ltmp1972:
	.loc	11 343 21 is_stmt 1
	sub	a5, a3, a4
	neg	a3, a4
	sll	t6, t4, a3
	mv	s0, t6
	bgez	a5, .LBB63_22
.Ltmp1973:
	bgeu	a4, t0, .LBB63_23
.Ltmp1974:
.LBB63_18:
	.loc	11 0 21 is_stmt 0
	li	a1, 0
	.loc	11 343 21
	bnez	a4, .LBB63_24
.Ltmp1975:
.LBB63_19:
	bltz	a5, .LBB63_25
.Ltmp1976:
.LBB63_20:
	bltz	t5, .LBB63_26
.Ltmp1977:
.LBB63_21:
	.loc	11 0 21
	li	a3, 0
	.loc	11 343 21
	bgeu	a4, t0, .LBB63_27
	j	.LBB63_28
.Ltmp1978:
.LBB63_22:
	.loc	11 0 21
	li	s0, 0
	.loc	11 343 21
	bltu	a4, t0, .LBB63_18
.Ltmp1979:
.LBB63_23:
	.loc	11 0 21
	mv	s0, a1
	li	a1, 0
	.loc	11 343 21
	beqz	a4, .LBB63_19
.Ltmp1980:
.LBB63_24:
	.loc	11 0 21
	mv	a1, s0
	.loc	11 343 21
	bgez	a5, .LBB63_20
.Ltmp1981:
.LBB63_25:
	.loc	11 0 21
	sll	a3, a7, a3
	sub	a5, t0, a4
	xori	a5, a5, 31
	srli	s0, t4, 1
	srl	a5, s0, a5
	or	t6, a3, a5
	.loc	11 343 21
	bgez	t5, .LBB63_21
.Ltmp1982:
.LBB63_26:
	.loc	11 0 21
	srl	a3, a7, t3
	.loc	11 343 21
	bltu	a4, t0, .LBB63_28
.Ltmp1983:
.LBB63_27:
	.loc	11 0 21
	mv	t6, a3
.Ltmp1984:
.LBB63_28:
	li	a3, 0
	.loc	11 343 21
	bnez	a4, .LBB63_31
.Ltmp1985:
	bltz	t1, .LBB63_32
.Ltmp1986:
.LBB63_30:
	.loc	11 0 21
	li	a5, 0
	.loc	11 343 21
	bgeu	a4, t0, .LBB63_33
	j	.LBB63_34
.Ltmp1987:
.LBB63_31:
	.loc	11 0 21
	mv	a3, t6
	.loc	11 343 21
	bgez	t1, .LBB63_30
.Ltmp1988:
.LBB63_32:
	.loc	11 0 21
	srl	a5, a7, a6
	.loc	11 343 21
	bltu	a4, t0, .LBB63_34
.Ltmp1989:
.LBB63_33:
	.loc	11 0 21
	li	a5, 0
.Ltmp1990:
.LBB63_34:
	snez	a6, a1
	mv	a4, a6
	bnez	a3, .LBB63_36
.Ltmp1991:
	.loc	11 344 16 is_stmt 1
	bgez	a2, .LBB63_8
	j	.LBB63_37
.Ltmp1992:
.LBB63_36:
	.loc	11 0 16 is_stmt 0
	snez	a4, a3
	.loc	11 344 16
	bgez	a2, .LBB63_8
.Ltmp1993:
.LBB63_37:
	.loc	11 0 16
	neg	a2, t2
.Ltmp1994:
	sltu	a7, a2, a4
	snez	s0, t2
	add	a5, a5, s0
	add	a5, a5, a7
	neg	a5, a5
	sub	t2, a2, a4
	add	a2, a3, a6
	neg	a3, a2
	neg	a1, a1
	j	.LBB63_8
.Lfunc_end63:
	.size	__fixdfti, .Lfunc_end63-__fixdfti
	.cfi_endproc

	.section	.text._ZN17compiler_builtins5float3div8__divsf317h6c81e868be75d568E,"ax",@progbits
	.hidden	_ZN17compiler_builtins5float3div8__divsf317h6c81e868be75d568E
	.globl	_ZN17compiler_builtins5float3div8__divsf317h6c81e868be75d568E
	.p2align	1
	.type	_ZN17compiler_builtins5float3div8__divsf317h6c81e868be75d568E,@function
_ZN17compiler_builtins5float3div8__divsf317h6c81e868be75d568E:
.Lfunc_begin64:
	.loc	1 386 0 is_stmt 1
	.cfi_startproc
	lui	a7, 2048
	addi	t4, a7, -1
.Ltmp1995:
	.loc	2 176 46 prologue_end
	slli	a2, a0, 1
	srli	t5, a2, 24
.Ltmp1996:
	.loc	2 176 46 is_stmt 0
	slli	a2, a1, 1
	srli	a5, a2, 24
.Ltmp1997:
	.loc	2 380 48 is_stmt 1
	xor	a2, a1, a0
	lui	a4, 524288
.Ltmp1998:
	.loc	2 176 46
	and	a6, a2, a4
.Ltmp1999:
	.loc	2 176 46 is_stmt 0
	and	t1, a0, t4
.Ltmp2000:
	.loc	3 1439 52 is_stmt 1
	addi	a2, t5, -255
.Ltmp2001:
	sltiu	a2, a2, -254
	addi	a3, a5, -255
	sltiu	a3, a3, -254
.Ltmp2002:
	.file	13 "/Users/georg/.cargo/registry/src/github.com-1ecc6299db9ec823/compiler_builtins-0.1.85" "src/float/div.rs"
	.loc	13 51 8
	or	a2, a2, a3
.Ltmp2003:
	.loc	2 176 46
	and	t0, a1, t4
.Ltmp2004:
	.loc	13 51 8
	beqz	a2, .LBB64_3
.Ltmp2005:
	.loc	13 0 8 is_stmt 0
	addi	a2, a4, -1
.Ltmp2006:
	.loc	2 176 46 is_stmt 1
	and	a4, a0, a2
.Ltmp2007:
	.loc	2 0 46 is_stmt 0
	lui	a3, 522240
.Ltmp2008:
	.loc	13 58 12 is_stmt 1
	bgeu	a3, a4, .LBB64_10
.Ltmp2009:
	.loc	13 0 12 is_stmt 0
	lui	a1, 1024
.Ltmp2010:
	.loc	2 278 45 is_stmt 1
	or	a0, a0, a1
.Ltmp2011:
	.loc	1 389 10
	ret
.Ltmp2012:
.LBB64_3:
	.loc	1 0 10 is_stmt 0
	li	t3, 0
.Ltmp2013:
.LBB64_4:
	.loc	2 807 53 is_stmt 1
	or	a0, t0, a7
.Ltmp2014:
	.loc	6 1164 13
	sub	a2, t5, a5
.Ltmp2015:
	.loc	2 481 17
	slli	a1, a0, 8
	lui	a3, 479311
	addi	a3, a3, 819
.Ltmp2016:
	.loc	5 1203 13
	sub	a3, a3, a1
.Ltmp2017:
	.loc	13 137 20
	mulhu	a4, a3, a1
.Ltmp2018:
	.loc	6 1164 13
	neg	a4, a4
.Ltmp2019:
	.loc	5 1226 13
	mul	a5, a4, a3
.Ltmp2020:
	mulhu	a3, a4, a3
.Ltmp2021:
	.loc	13 138 18
	slli	a3, a3, 1
	srli	a4, a5, 31
.Ltmp2022:
	or	a3, a3, a4
.Ltmp2023:
	.loc	5 1226 13
	mulhu	a4, a3, a1
.Ltmp2024:
	.loc	6 1164 13
	neg	a4, a4
.Ltmp2025:
	.loc	5 1226 13
	mul	a5, a3, a4
	mulhu	a3, a3, a4
.Ltmp2026:
	.loc	13 140 18
	slli	a3, a3, 1
	srli	a4, a5, 31
.Ltmp2027:
	or	a3, a3, a4
.Ltmp2028:
	.loc	5 1226 13
	mulhu	a1, a3, a1
.Ltmp2029:
	.loc	6 1164 13
	neg	a1, a1
.Ltmp2030:
	.loc	5 1226 13
	mul	a4, a3, a1
	mulhu	a1, a3, a1
.Ltmp2031:
	.loc	13 142 18
	slli	a1, a1, 1
	srli	a3, a4, 31
.Ltmp2032:
	or	a1, a1, a3
.Ltmp2033:
	.loc	5 1203 13
	addi	a1, a1, -2
.Ltmp2034:
	.loc	2 481 17
	slli	a3, t1, 1
	lui	a4, 4096
	or	a3, a3, a4
.Ltmp2035:
	.loc	5 1226 13
	mulhu	a1, a1, a3
.Ltmp2036:
	.loc	3 1435 52
	srli	a4, a1, 24
.Ltmp2037:
	.loc	6 1124 13
	add	a3, t3, a2
.Ltmp2038:
	.loc	13 179 23
	bnez	a4, .LBB64_6
.Ltmp2039:
	.loc	6 1164 13
	addi	a3, a3, -1
.Ltmp2040:
	.loc	2 481 17
	slli	a2, t1, 24
.Ltmp2041:
	.loc	5 1226 13
	mul	a4, a0, a1
.Ltmp2042:
	.loc	13 0 0 is_stmt 0
	sub	a4, a2, a4
.Ltmp2043:
	li	a2, 127
.Ltmp2044:
	.loc	13 189 8 is_stmt 1
	blt	a2, a3, .LBB64_7
	j	.LBB64_8
.Ltmp2045:
.LBB64_6:
	.loc	2 1029 17
	srli	a1, a1, 1
.Ltmp2046:
	.loc	2 481 17
	slli	a2, t1, 23
.Ltmp2047:
	.loc	5 1226 13
	mul	a4, a1, a0
.Ltmp2048:
	.loc	13 0 0 is_stmt 0
	sub	a4, a2, a4
.Ltmp2049:
	li	a2, 127
.Ltmp2050:
	.loc	13 189 8 is_stmt 1
	bge	a2, a3, .LBB64_8
.Ltmp2051:
.LBB64_7:
	.loc	13 0 8 is_stmt 0
	lui	a0, 522240
.Ltmp2052:
	or	a0, a6, a0
.Ltmp2053:
	.loc	1 389 10 is_stmt 1
	ret
.Ltmp2054:
.LBB64_8:
	.loc	1 0 10 is_stmt 0
	li	a2, -126
.Ltmp2055:
	.loc	13 192 15 is_stmt 1
	bge	a3, a2, .LBB64_12
.Ltmp2056:
.LBB64_9:
	.loc	1 389 10
	mv	a0, a6
	ret
.Ltmp2057:
.LBB64_10:
	.loc	13 0 0 is_stmt 0
	and	t2, a1, a2
.Ltmp2058:
	.loc	13 62 12 is_stmt 1
	bgeu	a3, t2, .LBB64_14
.Ltmp2059:
	.loc	13 0 12 is_stmt 0
	lui	a0, 1024
.Ltmp2060:
	.loc	2 278 45 is_stmt 1
	or	a0, a0, a1
.Ltmp2061:
	.loc	1 389 10
	ret
.Ltmp2062:
.LBB64_12:
	.loc	2 481 17
	slli	a2, a4, 1
.Ltmp2063:
	.loc	3 1441 52
	sltu	a0, a0, a2
.Ltmp2064:
	.loc	2 176 46
	and	a1, a1, t4
.Ltmp2065:
	.loc	2 481 17
	slli	a2, a3, 23
.Ltmp2066:
	.loc	2 807 53
	or	a1, a1, a2
	add	a0, a0, a1
.Ltmp2067:
	.loc	2 0 53 is_stmt 0
	lui	a1, 260096
.Ltmp2068:
	.loc	5 1162 13 is_stmt 1
	add	a0, a0, a1
.Ltmp2069:
	.loc	2 278 45
	or	a2, a0, a6
.Ltmp2070:
.LBB64_13:
	.loc	1 389 10
	mv	a0, a2
	ret
.LBB64_14:
.Ltmp2071:
	.loc	1 0 10 is_stmt 0
	lui	t3, 522240
.Ltmp2072:
	.loc	13 66 12 is_stmt 1
	bne	a4, t3, .LBB64_17
.Ltmp2073:
	.loc	13 0 12 is_stmt 0
	lui	a2, 523264
	.loc	13 67 16 is_stmt 1
	beq	t2, t3, .LBB64_13
.Ltmp2074:
	.loc	13 0 16 is_stmt 0
	lui	a2, 524288
.Ltmp2075:
	.loc	2 278 45 is_stmt 1
	and	a1, a1, a2
.Ltmp2076:
	xor	a0, a0, a1
.Ltmp2077:
	.loc	1 389 10
	ret
.Ltmp2078:
.LBB64_17:
	.loc	13 77 12
	beq	t2, t3, .LBB64_9
.Ltmp2079:
	.loc	13 81 12
	beqz	a4, .LBB64_23
.Ltmp2080:
	.loc	13 92 12
	beqz	t2, .LBB64_7
.Ltmp2081:
	.loc	3 1435 52
	srli	a0, a4, 23
.Ltmp2082:
	.loc	3 0 52 is_stmt 0
	bnez	a0, .LBB64_24
.Ltmp2083:
	.loc	5 131 13 is_stmt 1
	beqz	t1, .LBB64_25
.Ltmp2084:
	srli	a0, t1, 1
	or	a0, t1, a0
	srli	a1, a0, 2
.Ltmp2085:
	or	a0, a0, a1
	srli	a1, a0, 4
	or	a0, a0, a1
	srli	a1, a0, 8
	or	a0, a0, a1
	srli	a1, a0, 16
	or	a0, a0, a1
	not	a0, a0
	srli	a1, a0, 1
	lui	a2, 349525
	addi	a2, a2, 1365
	and	a1, a1, a2
	sub	a0, a0, a1
	lui	a1, 209715
	addi	a1, a1, 819
	and	a2, a0, a1
	srli	a0, a0, 2
	and	a0, a0, a1
	add	a0, a0, a2
	srli	a1, a0, 4
	add	a0, a0, a1
	lui	a1, 61681
	addi	a1, a1, -241
	and	a0, a0, a1
	lui	a1, 4112
	addi	a1, a1, 257
	mul	a0, a0, a1
	srli	a0, a0, 24
	j	.LBB64_26
.Ltmp2086:
.LBB64_23:
	.loc	5 0 13 is_stmt 0
	lui	a2, 523264
	.loc	13 82 16 is_stmt 1
	bnez	t2, .LBB64_9
	j	.LBB64_13
.Ltmp2087:
.LBB64_24:
	.loc	13 0 16 is_stmt 0
	li	t3, 0
	j	.LBB64_27
.Ltmp2088:
.LBB64_25:
	li	a0, 32
.Ltmp2089:
.LBB64_26:
	.loc	5 1203 13 is_stmt 1
	addi	a1, a0, 24
	li	a2, 9
.Ltmp2090:
	.loc	6 1164 13
	sub	t3, a2, a0
.Ltmp2091:
	.loc	7 164 21
	sll	t1, t1, a1
.Ltmp2092:
.LBB64_27:
	.loc	3 1435 52
	srli	a0, t2, 23
	bnez	a0, .LBB64_4
.Ltmp2093:
	.loc	3 0 52 is_stmt 0
	beqz	t0, .LBB64_30
.Ltmp2094:
	.loc	5 131 13 is_stmt 1
	srli	a0, t0, 1
	or	a0, t0, a0
	srli	a1, a0, 2
	or	a0, a0, a1
	srli	a1, a0, 4
	or	a0, a0, a1
	srli	a1, a0, 8
	or	a0, a0, a1
	srli	a1, a0, 16
	or	a0, a0, a1
	not	a0, a0
	srli	a1, a0, 1
	lui	a2, 349525
	addi	a2, a2, 1365
	and	a1, a1, a2
	sub	a0, a0, a1
	lui	a1, 209715
	addi	a1, a1, 819
	and	a2, a0, a1
	srli	a0, a0, 2
	and	a0, a0, a1
	add	a0, a0, a2
	srli	a1, a0, 4
	add	a0, a0, a1
	lui	a1, 61681
	addi	a1, a1, -241
	and	a0, a0, a1
	lui	a1, 4112
	addi	a1, a1, 257
	mul	a0, a0, a1
	srli	a0, a0, 24
	j	.LBB64_31
.Ltmp2095:
.LBB64_30:
	.loc	5 0 13 is_stmt 0
	li	a0, 32
.Ltmp2096:
.LBB64_31:
	.loc	5 1203 13 is_stmt 1
	addi	a1, a0, 24
.Ltmp2097:
	.loc	6 1164 13
	add	a0, a0, t3
.Ltmp2098:
	.loc	7 164 21
	sll	t0, t0, a1
.Ltmp2099:
	.loc	13 107 13
	addi	t3, a0, -9
.Ltmp2100:
	.loc	13 0 13 is_stmt 0
	j	.LBB64_4
.Ltmp2101:
.Lfunc_end64:
	.size	_ZN17compiler_builtins5float3div8__divsf317h6c81e868be75d568E, .Lfunc_end64-_ZN17compiler_builtins5float3div8__divsf317h6c81e868be75d568E
	.cfi_endproc

	.section	.text.__divsf3,"ax",@progbits
	.hidden	__divsf3
	.globl	__divsf3
	.p2align	1
	.type	__divsf3,@function
__divsf3:
.Lfunc_begin65:
	.loc	1 394 0 is_stmt 1
	.cfi_startproc
	.loc	1 395 17 prologue_end
	tail	_ZN17compiler_builtins5float3div8__divsf317h6c81e868be75d568E
.Ltmp2102:
.Lfunc_end65:
	.size	__divsf3, .Lfunc_end65-__divsf3
	.cfi_endproc

	.section	.text._ZN17compiler_builtins5float3div8__divdf317h2c70ab8632198f29E,"ax",@progbits
	.hidden	_ZN17compiler_builtins5float3div8__divdf317h2c70ab8632198f29E
	.globl	_ZN17compiler_builtins5float3div8__divdf317h2c70ab8632198f29E
	.p2align	1
	.type	_ZN17compiler_builtins5float3div8__divdf317h2c70ab8632198f29E,@function
_ZN17compiler_builtins5float3div8__divdf317h2c70ab8632198f29E:
.Lfunc_begin66:
	.loc	1 386 0
	.cfi_startproc
	addi	sp, sp, -16
	.cfi_def_cfa_offset 16
	sw	s0, 12(sp)
	sw	s1, 8(sp)
	sw	s2, 4(sp)
	.cfi_offset s0, -4
	.cfi_offset s1, -8
	.cfi_offset s2, -12
	lui	a4, 524288
	addi	s2, a4, -1
	lui	s0, 256
.Ltmp2103:
	.loc	2 176 46 prologue_end
	slli	a4, a1, 1
	srli	t5, a4, 21
.Ltmp2104:
	.loc	2 176 46 is_stmt 0
	slli	a4, a3, 1
	srli	t6, a4, 21
.Ltmp2105:
	.loc	3 1439 52 is_stmt 1
	addi	a5, t5, -2047
	li	s1, 1
.Ltmp2106:
	bgeu	a5, t5, .LBB66_2
.Ltmp2107:
	.loc	3 0 52 is_stmt 0
	sltu	a5, a5, t5
	j	.LBB66_3
.Ltmp2108:
.LBB66_2:
	sltiu	a5, a5, -2046
.Ltmp2109:
.LBB66_3:
	addi	t1, s0, -1
	xor	s0, a3, a1
.Ltmp2110:
	addi	a4, t6, -2047
	add	s1, s1, s2
.Ltmp2111:
	bgeu	a4, t6, .LBB66_5
.Ltmp2112:
	sltu	a4, a4, t6
	j	.LBB66_6
.Ltmp2113:
.LBB66_5:
	sltiu	a4, a4, -2046
.Ltmp2114:
.LBB66_6:
	li	a6, -1
	and	a7, s0, s1
.Ltmp2115:
	and	t0, a1, t1
.Ltmp2116:
	.loc	13 262 8 is_stmt 1
	or	a4, a4, a5
.Ltmp2117:
	.loc	13 0 8 is_stmt 0
	and	t2, a3, t1
.Ltmp2118:
	.loc	13 262 8
	beqz	a4, .LBB66_14
.Ltmp2119:
	.loc	2 176 46 is_stmt 1
	and	a5, a1, s2
.Ltmp2120:
	.loc	2 0 46 is_stmt 0
	lui	a4, 524032
.Ltmp2121:
	.loc	2 176 46
	and	t4, a0, a6
.Ltmp2122:
	.loc	3 1441 52 is_stmt 1
	beq	a5, a4, .LBB66_22
.Ltmp2123:
	.loc	3 0 52 is_stmt 0
	sltu	a4, a4, a5
.Ltmp2124:
	.loc	13 269 12 is_stmt 1
	bnez	a4, .LBB66_23
.Ltmp2125:
.LBB66_9:
	.loc	13 0 12 is_stmt 0
	and	t3, a3, s2
.Ltmp2126:
	lui	a4, 524032
	and	s0, a2, a6
.Ltmp2127:
	.loc	3 1441 52 is_stmt 1
	beq	t3, a4, .LBB66_26
.Ltmp2128:
	.loc	3 0 52 is_stmt 0
	sltu	a4, a4, t3
.Ltmp2129:
	.loc	13 273 12 is_stmt 1
	bnez	a4, .LBB66_27
.Ltmp2130:
.LBB66_11:
	.loc	13 0 12 is_stmt 0
	lui	a4, 524032
.Ltmp2131:
	.loc	3 1346 52 is_stmt 1
	xor	s1, a5, a4
	or	s1, t4, s1
.Ltmp2132:
	.loc	13 277 12
	bnez	s1, .LBB66_31
.Ltmp2133:
	.loc	13 0 0 is_stmt 0
	xor	a4, t3, a4
	or	a4, a4, s0
	.loc	13 278 16 is_stmt 1
	bnez	a4, .LBB66_37
.Ltmp2134:
	.loc	13 0 16 is_stmt 0
	li	a0, 0
.Ltmp2135:
	lui	a1, 524160
.Ltmp2136:
	j	.LBB66_30
.Ltmp2137:
.LBB66_14:
	li	t4, 0
.Ltmp2138:
.LBB66_15:
	.loc	2 807 53 is_stmt 1
	addi	a3, a6, 1
	sltu	a1, a3, a6
	add	a1, a1, t1
	or	t3, t2, a1
	or	a3, a3, a2
.Ltmp2139:
	.loc	6 1164 13
	sub	t2, t5, t6
.Ltmp2140:
	.loc	2 601 17
	srli	a5, a3, 21
	slli	s1, t3, 11
	or	a5, a5, s1
.Ltmp2141:
	.loc	2 0 17 is_stmt 0
	lui	s1, 479311
	addi	s1, s1, 819
.Ltmp2142:
	.loc	5 1203 13 is_stmt 1
	sub	s1, s1, a5
.Ltmp2143:
	.loc	5 1226 13
	mulhu	s0, a5, s1
.Ltmp2144:
	.loc	6 1164 13
	neg	s0, s0
.Ltmp2145:
	.loc	5 1226 13
	mul	a4, s0, s1
	mulhu	s1, s0, s1
.Ltmp2146:
	.loc	13 349 15
	slli	s1, s1, 1
	srli	a4, a4, 31
	or	a4, a4, s1
.Ltmp2147:
	.loc	5 1226 13
	mulhu	s1, a4, a5
.Ltmp2148:
	.loc	6 1164 13
	neg	s1, s1
.Ltmp2149:
	.loc	5 1226 13
	mul	s0, a4, s1
.Ltmp2150:
	mulhu	a4, a4, s1
.Ltmp2151:
	.loc	13 351 15
	slli	a4, a4, 1
	srli	s1, s0, 31
.Ltmp2152:
	or	a4, a4, s1
.Ltmp2153:
	.loc	5 1226 13
	mulhu	s1, a4, a5
.Ltmp2154:
	.loc	6 1164 13
	neg	s1, s1
.Ltmp2155:
	.loc	5 1226 13
	mul	s0, a4, s1
	mulhu	a4, a4, s1
.Ltmp2156:
	.loc	13 353 15
	slli	a4, a4, 1
	srli	s1, s0, 31
.Ltmp2157:
	or	a4, a4, s1
.Ltmp2158:
	.loc	5 1203 13
	addi	a4, a4, -1
.Ltmp2159:
	.loc	9 368 57
	slli	a2, a2, 11
.Ltmp2160:
	.loc	5 1226 13
	mulhu	s1, a5, a4
	mul	a5, a5, a4
.Ltmp2161:
	.loc	13 368 27
	mulhu	a2, a4, a2
.Ltmp2162:
	.loc	5 1162 13
	add	a2, a2, a5
.Ltmp2163:
	sltu	a5, a2, a5
.Ltmp2164:
	add	a5, a5, s1
.Ltmp2165:
	.loc	6 1164 13
	snez	s1, a2
.Ltmp2166:
	add	a5, a5, s1
.Ltmp2167:
	neg	a5, a5
	neg	a2, a2
.Ltmp2168:
	.loc	5 1226 13
	mulhu	s1, a5, a4
	mul	a5, a5, a4
.Ltmp2169:
	.loc	5 1226 13 is_stmt 0
	mulhu	a2, a2, a4
.Ltmp2170:
	.loc	5 1162 13 is_stmt 1
	add	a2, a2, a5
.Ltmp2171:
	sltu	a4, a2, a5
.Ltmp2172:
	add	a4, a4, s1
.Ltmp2173:
	.loc	5 1203 13
	addi	a5, a2, -2
.Ltmp2174:
	sltu	a2, a5, a2
	add	a2, a2, a4
	addi	a2, a2, -1
.Ltmp2175:
	.loc	2 481 17
	srli	a4, a0, 30
	slli	s1, t0, 2
.Ltmp2176:
	or	a4, a4, s1
	slli	s1, a0, 2
.Ltmp2177:
	.loc	2 0 17 is_stmt 0
	lui	s0, 1024
	.loc	2 481 17
	or	a4, a4, s0
.Ltmp2178:
	.loc	5 1226 13 is_stmt 1
	mul	s0, a2, s1
	mulhu	a1, a5, s1
	add	a1, a1, s0
	sltu	s0, a1, s0
	mulhu	s1, a2, s1
.Ltmp2179:
	add	s1, s1, s0
	mul	s0, a5, a4
	add	a1, a1, s0
.Ltmp2180:
	sltu	a1, a1, s0
.Ltmp2181:
	mulhu	a5, a5, a4
.Ltmp2182:
	add	a1, a1, a5
	add	a1, a1, s1
	sltu	a5, a1, s1
	mulhu	s1, a2, a4
	add	s1, s1, a5
	mul	a2, a2, a4
.Ltmp2183:
	add	a5, a2, a1
.Ltmp2184:
	sltu	a1, a5, a2
	add	a2, s1, a1
.Ltmp2185:
	.loc	3 1435 52
	srli	a1, a2, 21
.Ltmp2186:
	.loc	6 1124 13
	add	a4, t4, t2
.Ltmp2187:
	.loc	13 417 23
	bnez	a1, .LBB66_17
.Ltmp2188:
	.loc	6 1164 13
	addi	a4, a4, -1
.Ltmp2189:
	.loc	2 481 17
	slli	a0, a0, 21
.Ltmp2190:
	.loc	5 1226 13
	mulhu	a1, a3, a5
	mul	s1, a3, a2
	add	a1, a1, s1
	mul	s1, t3, a5
	add	a1, a1, s1
	mul	s1, a3, a5
.Ltmp2191:
	.loc	5 0 13 is_stmt 0
	j	.LBB66_18
.Ltmp2192:
.LBB66_17:
	.loc	2 1029 17 is_stmt 1
	srli	a1, a5, 1
	slli	a5, a2, 31
.Ltmp2193:
	or	a5, a5, a1
.Ltmp2194:
	srli	a2, a2, 1
.Ltmp2195:
	.loc	2 481 17
	slli	a0, a0, 20
.Ltmp2196:
	.loc	5 1226 13
	mul	a1, a5, t3
	mulhu	s1, a5, a3
	add	a1, a1, s1
	mul	s1, a2, a3
	add	a1, a1, s1
	mul	s1, a5, a3
.Ltmp2197:
.LBB66_18:
	.loc	13 0 0 is_stmt 0
	sub	a0, a0, a1
	snez	a1, s1
	sub	s0, a0, a1
.Ltmp2198:
	neg	a0, s1
.Ltmp2199:
	li	a1, 1023
.Ltmp2200:
	.loc	13 427 8 is_stmt 1
	bge	a1, a4, .LBB66_20
.Ltmp2201:
.LBB66_19:
	.loc	13 0 8 is_stmt 0
	li	a0, 0
	lui	a1, 524032
.Ltmp2202:
	or	a1, a7, a1
.Ltmp2203:
	j	.LBB66_30
.Ltmp2204:
.LBB66_20:
	li	a1, -1022
.Ltmp2205:
	.loc	13 430 15 is_stmt 1
	bge	a4, a1, .LBB66_24
.Ltmp2206:
.LBB66_21:
	.loc	13 0 15 is_stmt 0
	li	a0, 0
	mv	a1, a7
.Ltmp2207:
	j	.LBB66_30
.Ltmp2208:
.LBB66_22:
	snez	a4, t4
.Ltmp2209:
	.loc	13 269 12 is_stmt 1
	beqz	a4, .LBB66_9
.Ltmp2210:
.LBB66_23:
	.loc	13 0 12 is_stmt 0
	lui	a2, 128
.Ltmp2211:
	.loc	2 278 45 is_stmt 1
	or	a1, a1, a2
.Ltmp2212:
	.loc	2 0 45 is_stmt 0
	j	.LBB66_30
.Ltmp2213:
.LBB66_24:
	.loc	2 481 17 is_stmt 1
	srli	a1, a0, 31
	slli	s1, s0, 1
	or	s1, s1, a1
.Ltmp2214:
	.loc	2 0 17 is_stmt 0
	addi	a4, a4, 1023
.Ltmp2215:
	.loc	3 1441 52 is_stmt 1
	beq	s1, t3, .LBB66_28
.Ltmp2216:
	.loc	3 0 52 is_stmt 0
	sltu	a0, t3, s1
	j	.LBB66_29
.Ltmp2217:
.LBB66_26:
	snez	a4, s0
.Ltmp2218:
	.loc	13 273 12 is_stmt 1
	beqz	a4, .LBB66_11
.Ltmp2219:
.LBB66_27:
	.loc	13 0 12 is_stmt 0
	lui	a0, 128
.Ltmp2220:
	.loc	2 278 45 is_stmt 1
	or	a1, a3, a0
.Ltmp2221:
	.loc	2 0 45 is_stmt 0
	mv	a0, a2
.Ltmp2222:
	j	.LBB66_30
.Ltmp2223:
.LBB66_28:
	slli	a0, a0, 1
	sltu	a0, a3, a0
.Ltmp2224:
.LBB66_29:
	.loc	2 176 46 is_stmt 1
	and	a1, a5, a6
	and	a2, a2, t1
.Ltmp2225:
	.loc	2 481 17
	slli	a3, a4, 20
.Ltmp2226:
	.loc	2 807 53
	or	a2, a2, a7
.Ltmp2227:
	.loc	5 1162 13
	add	a0, a0, a1
.Ltmp2228:
	sltu	a1, a0, a1
	add	a1, a1, a2
.Ltmp2229:
	.loc	2 278 45
	add	a1, a1, a3
.Ltmp2230:
.LBB66_30:
	.loc	1 389 10
	lw	s0, 12(sp)
	lw	s1, 8(sp)
	lw	s2, 4(sp)
	addi	sp, sp, 16
	ret
.LBB66_31:
.Ltmp2231:
	.loc	13 0 0 is_stmt 0
	xor	a1, t3, a4
.Ltmp2232:
	or	a1, a1, s0
	.loc	13 288 12 is_stmt 1
	beqz	a1, .LBB66_21
.Ltmp2233:
	.loc	3 1346 52
	or	a1, t4, a5
.Ltmp2234:
	.loc	13 292 12
	beqz	a1, .LBB66_38
.Ltmp2235:
	.loc	13 0 0 is_stmt 0
	or	a1, s0, t3
	.loc	13 303 12 is_stmt 1
	beqz	a1, .LBB66_19
.Ltmp2236:
	.loc	3 1435 52
	srli	a1, a5, 20
	bnez	a1, .LBB66_41
.Ltmp2237:
	.loc	5 131 13
	srli	t4, a0, 1
.Ltmp2238:
	.loc	5 0 13 is_stmt 0
	lui	a3, 349525
.Ltmp2239:
	addi	s0, a3, 1365
.Ltmp2240:
	lui	a3, 209715
	addi	a5, a3, 819
.Ltmp2241:
	lui	a3, 61681
	addi	a3, a3, -241
	lui	a4, 4112
	addi	a4, a4, 257
	.loc	5 131 13
	bnez	t0, .LBB66_42
.Ltmp2242:
	.loc	5 0 13
	or	a1, a0, t4
	srli	s1, a1, 2
	or	a1, a1, s1
	srli	s1, a1, 4
	or	a1, a1, s1
	srli	s1, a1, 8
	or	a1, a1, s1
	srli	s1, a1, 16
	or	a1, a1, s1
	not	a1, a1
	srli	s1, a1, 1
	and	s0, s0, s1
	sub	a1, a1, s0
	and	s0, a1, a5
	srli	a1, a1, 2
	and	a1, a1, a5
	add	a1, a1, s0
	srli	a5, a1, 4
	add	a1, a1, a5
	and	a1, a1, a3
	mul	a1, a1, a4
	srli	a1, a1, 24
	addi	a3, a1, 32
	j	.LBB66_43
.Ltmp2243:
.LBB66_37:
	.loc	2 278 45 is_stmt 1
	addi	a4, a6, 1
	sltu	a5, a4, a6
	add	a5, a5, s2
	and	a3, a3, a5
.Ltmp2244:
	and	a2, a2, a4
.Ltmp2245:
	xor	a0, a0, a2
.Ltmp2246:
	xor	a1, a1, a3
.Ltmp2247:
	.loc	2 0 45 is_stmt 0
	j	.LBB66_30
.Ltmp2248:
.LBB66_38:
	or	a0, s0, t3
.Ltmp2249:
	lui	a1, 524160
	.loc	13 293 16 is_stmt 1
	beqz	a0, .LBB66_40
.Ltmp2250:
	.loc	13 0 16 is_stmt 0
	mv	a1, a7
.Ltmp2251:
.LBB66_40:
	li	a0, 0
	j	.LBB66_30
.Ltmp2252:
.LBB66_41:
	li	t4, 0
.Ltmp2253:
	j	.LBB66_47
.Ltmp2254:
.LBB66_42:
	srli	s1, t0, 1
	or	s1, t0, s1
	srli	a1, s1, 2
	or	a1, a1, s1
	srli	s1, a1, 4
	or	a1, a1, s1
	srli	s1, a1, 8
	or	a1, a1, s1
	srli	s1, a1, 16
	or	a1, a1, s1
	not	a1, a1
	srli	s1, a1, 1
	and	s0, s0, s1
	sub	a1, a1, s0
	and	s0, a1, a5
	srli	a1, a1, 2
	and	a1, a1, a5
	add	a1, a1, s0
	srli	a5, a1, 4
	add	a1, a1, a5
	and	a1, a1, a3
	mul	a1, a1, a4
	srli	a3, a1, 24
.Ltmp2255:
.LBB66_43:
	.loc	5 1203 13 is_stmt 1
	addi	a5, a3, 53
.Ltmp2256:
	.loc	7 164 21
	andi	s1, a5, 63
	addi	s0, s1, -32
	li	a4, 12
	bltz	s0, .LBB66_45
.Ltmp2257:
	.loc	7 0 21 is_stmt 0
	sll	t0, a0, s0
.Ltmp2258:
	li	a0, 0
.Ltmp2259:
	j	.LBB66_46
.Ltmp2260:
.LBB66_45:
	sll	a1, t0, a5
	xori	s1, s1, 31
	srl	s1, t4, s1
	or	t0, a1, s1
.Ltmp2261:
	sll	a0, a0, a5
.Ltmp2262:
.LBB66_46:
	sub	t4, a4, a3
.Ltmp2263:
.LBB66_47:
	.loc	3 1435 52 is_stmt 1
	srli	a1, t3, 20
	bnez	a1, .LBB66_15
.Ltmp2264:
	.loc	5 131 13
	srli	t3, a2, 1
.Ltmp2265:
	.loc	5 0 13 is_stmt 0
	lui	a3, 349525
	addi	s0, a3, 1365
	lui	a3, 209715
	addi	a5, a3, 819
	lui	a3, 61681
	addi	a3, a3, -241
	lui	a4, 4112
	addi	a4, a4, 257
	bnez	t2, .LBB66_50
.Ltmp2266:
	or	a1, a2, t3
	srli	s1, a1, 2
	or	a1, a1, s1
	srli	s1, a1, 4
	or	a1, a1, s1
	srli	s1, a1, 8
	or	a1, a1, s1
	srli	s1, a1, 16
	or	a1, a1, s1
	not	a1, a1
	srli	s1, a1, 1
	and	s0, s0, s1
	sub	a1, a1, s0
	and	s0, a1, a5
	srli	a1, a1, 2
	and	a1, a1, a5
	add	a1, a1, s0
	srli	a5, a1, 4
	add	a1, a1, a5
	and	a1, a1, a3
	mul	a1, a1, a4
	srli	a1, a1, 24
	addi	a3, a1, 32
	j	.LBB66_51
.Ltmp2267:
.LBB66_50:
	srli	s1, t2, 1
	or	s1, t2, s1
	srli	a1, s1, 2
	or	a1, a1, s1
	srli	s1, a1, 4
	or	a1, a1, s1
	srli	s1, a1, 8
	or	a1, a1, s1
	srli	s1, a1, 16
	or	a1, a1, s1
	not	a1, a1
	srli	s1, a1, 1
	and	s0, s0, s1
	sub	a1, a1, s0
	and	s0, a1, a5
	srli	a1, a1, 2
	and	a1, a1, a5
	add	a1, a1, s0
	srli	a5, a1, 4
	add	a1, a1, a5
	and	a1, a1, a3
	mul	a1, a1, a4
	srli	a3, a1, 24
.Ltmp2268:
.LBB66_51:
	.loc	5 1203 13 is_stmt 1
	addi	a4, a3, 53
.Ltmp2269:
	.loc	7 164 21
	andi	a5, a4, 63
	addi	s1, a5, -32
.Ltmp2270:
	.loc	6 1164 13
	add	a3, a3, t4
.Ltmp2271:
	.loc	7 164 21
	bltz	s1, .LBB66_53
.Ltmp2272:
	.loc	7 0 21 is_stmt 0
	sll	t2, a2, s1
.Ltmp2273:
	li	a2, 0
.Ltmp2274:
	.loc	13 318 13 is_stmt 1
	addi	t4, a3, -12
.Ltmp2275:
	.loc	13 0 13 is_stmt 0
	j	.LBB66_15
.Ltmp2276:
.LBB66_53:
	sll	a1, t2, a4
	xori	a5, a5, 31
	srl	a5, t3, a5
	or	t2, a1, a5
.Ltmp2277:
	sll	a2, a2, a4
.Ltmp2278:
	.loc	13 318 13
	addi	t4, a3, -12
.Ltmp2279:
	.loc	13 0 13
	j	.LBB66_15
.Ltmp2280:
.Lfunc_end66:
	.size	_ZN17compiler_builtins5float3div8__divdf317h2c70ab8632198f29E, .Lfunc_end66-_ZN17compiler_builtins5float3div8__divdf317h2c70ab8632198f29E
	.cfi_endproc

	.section	.text.__divdf3,"ax",@progbits
	.hidden	__divdf3
	.globl	__divdf3
	.p2align	1
	.type	__divdf3,@function
__divdf3:
.Lfunc_begin67:
	.loc	1 394 0 is_stmt 1
	.cfi_startproc
	.loc	1 395 17 prologue_end
	tail	_ZN17compiler_builtins5float3div8__divdf317h2c70ab8632198f29E
.Ltmp2281:
.Lfunc_end67:
	.size	__divdf3, .Lfunc_end67-__divdf3
	.cfi_endproc

	.section	.text._ZN17compiler_builtins5float6extend13__extendsfdf217h52a32d793eb4f0e5E,"ax",@progbits
	.hidden	_ZN17compiler_builtins5float6extend13__extendsfdf217h52a32d793eb4f0e5E
	.globl	_ZN17compiler_builtins5float6extend13__extendsfdf217h52a32d793eb4f0e5E
	.p2align	1
	.type	_ZN17compiler_builtins5float6extend13__extendsfdf217h52a32d793eb4f0e5E,@function
_ZN17compiler_builtins5float6extend13__extendsfdf217h52a32d793eb4f0e5E:
.Lfunc_begin68:
	.loc	1 386 0
	.cfi_startproc
	.loc	2 176 46 prologue_end
	slli	a1, a0, 1
	srli	a1, a1, 1
	lui	a2, 1046528
.Ltmp2282:
	.loc	5 1203 13
	add	a2, a2, a1
.Ltmp2283:
	.loc	3 1435 52
	srli	a2, a2, 24
	li	a3, 127
.Ltmp2284:
	.file	14 "/Users/georg/.cargo/registry/src/github.com-1ecc6299db9ec823/compiler_builtins-0.1.85" "src/float/extend.rs"
	.loc	14 38 8
	bgeu	a2, a3, .LBB68_2
.Ltmp2285:
	.loc	5 915 22
	slli	a2, a1, 29
.Ltmp2286:
	srli	a1, a1, 3
.Ltmp2287:
	.loc	5 0 22 is_stmt 0
	lui	a3, 229376
.Ltmp2288:
	.loc	8 763 51 is_stmt 1
	add	a1, a1, a3
.Ltmp2289:
	.loc	8 0 51 is_stmt 0
	j	.LBB68_11
.Ltmp2290:
.LBB68_2:
	.loc	3 1439 52 is_stmt 1
	srli	a2, a1, 23
	li	a3, 254
.Ltmp2291:
	.loc	14 46 15
	bgeu	a3, a2, .LBB68_4
.Ltmp2292:
	.loc	2 807 53
	slli	a2, a0, 29
	srli	a1, a0, 3
	lui	a3, 524032
	j	.LBB68_10
.Ltmp2293:
.LBB68_4:
	.loc	14 57 15
	beqz	a1, .LBB68_7
.Ltmp2294:
	.loc	5 131 13
	srli	a2, a1, 1
	or	a3, a1, a2
	srli	a4, a3, 2
	or	a3, a3, a4
	srli	a4, a3, 4
	or	a3, a3, a4
	srli	a4, a3, 8
	or	a3, a3, a4
	srli	a4, a3, 16
	or	a3, a3, a4
	not	a3, a3
	srli	a4, a3, 1
	lui	a5, 349525
	addi	a5, a5, 1365
	and	a4, a4, a5
	sub	a3, a3, a4
	lui	a4, 209715
	addi	a4, a4, 819
	and	a5, a3, a4
	srli	a3, a3, 2
	and	a3, a3, a4
	add	a3, a3, a5
	srli	a4, a3, 4
	add	a3, a3, a4
	lui	a4, 61681
	addi	a4, a4, -241
	and	a3, a3, a4
	lui	a4, 4112
	addi	a4, a4, 257
	mul	a3, a3, a4
	srli	a4, a3, 24
	li	a3, 905
.Ltmp2295:
	.loc	5 915 22
	addi	a5, a4, -11
.Ltmp2296:
	.loc	14 63 32
	sub	a3, a3, a4
.Ltmp2297:
	.loc	5 915 22
	bltz	a5, .LBB68_8
.Ltmp2298:
	.loc	5 0 22 is_stmt 0
	li	a2, 0
	sll	a4, a1, a5
.Ltmp2299:
	j	.LBB68_9
.Ltmp2300:
.LBB68_7:
	li	a2, 0
	j	.LBB68_11
.Ltmp2301:
.LBB68_8:
	addi	a5, a4, 21
.Ltmp2302:
	xori	a4, a5, 31
.Ltmp2303:
	srl	a4, a2, a4
	sll	a2, a1, a5
.Ltmp2304:
.LBB68_9:
	lui	a1, 256
.Ltmp2305:
	.loc	2 380 48 is_stmt 1
	xor	a1, a1, a4
.Ltmp2306:
	.loc	5 915 22
	slli	a3, a3, 20
.Ltmp2307:
.LBB68_10:
	.loc	14 0 0 is_stmt 0
	or	a1, a1, a3
.Ltmp2308:
.LBB68_11:
	lui	a3, 524288
.Ltmp2309:
	.loc	2 176 46 is_stmt 1
	and	a0, a0, a3
.Ltmp2310:
	.loc	2 278 45
	or	a1, a1, a0
.Ltmp2311:
	.loc	1 389 10
	mv	a0, a2
.Ltmp2312:
	ret
.Ltmp2313:
.Lfunc_end68:
	.size	_ZN17compiler_builtins5float6extend13__extendsfdf217h52a32d793eb4f0e5E, .Lfunc_end68-_ZN17compiler_builtins5float6extend13__extendsfdf217h52a32d793eb4f0e5E
	.cfi_endproc

	.section	.text.__extendsfdf2,"ax",@progbits
	.hidden	__extendsfdf2
	.globl	__extendsfdf2
	.p2align	1
	.type	__extendsfdf2,@function
__extendsfdf2:
.Lfunc_begin69:
	.loc	1 394 0
	.cfi_startproc
	.loc	2 176 46 prologue_end
	slli	a1, a0, 1
	srli	a1, a1, 1
	lui	a2, 1046528
.Ltmp2314:
	.loc	5 1203 13
	add	a2, a2, a1
.Ltmp2315:
	.loc	3 1435 52
	srli	a2, a2, 24
	li	a3, 127
.Ltmp2316:
	.loc	14 38 8
	bgeu	a2, a3, .LBB69_2
.Ltmp2317:
	.loc	5 915 22
	slli	a2, a1, 29
.Ltmp2318:
	srli	a1, a1, 3
.Ltmp2319:
	.loc	5 0 22 is_stmt 0
	lui	a3, 229376
.Ltmp2320:
	.loc	8 763 51 is_stmt 1
	add	a1, a1, a3
.Ltmp2321:
	.loc	8 0 51 is_stmt 0
	j	.LBB69_11
.Ltmp2322:
.LBB69_2:
	.loc	3 1439 52 is_stmt 1
	srli	a2, a1, 23
	li	a3, 254
.Ltmp2323:
	.loc	14 46 15
	bgeu	a3, a2, .LBB69_4
.Ltmp2324:
	.loc	2 807 53
	slli	a2, a0, 29
	srli	a1, a0, 3
	lui	a3, 524032
	j	.LBB69_10
.Ltmp2325:
.LBB69_4:
	.loc	14 57 15
	beqz	a1, .LBB69_7
.Ltmp2326:
	.loc	5 131 13
	srli	a2, a1, 1
	or	a3, a1, a2
	srli	a4, a3, 2
	or	a3, a3, a4
	srli	a4, a3, 4
	or	a3, a3, a4
	srli	a4, a3, 8
	or	a3, a3, a4
	srli	a4, a3, 16
	or	a3, a3, a4
	not	a3, a3
	srli	a4, a3, 1
	lui	a5, 349525
	addi	a5, a5, 1365
	and	a4, a4, a5
	sub	a3, a3, a4
	lui	a4, 209715
	addi	a4, a4, 819
	and	a5, a3, a4
	srli	a3, a3, 2
	and	a3, a3, a4
	add	a3, a3, a5
	srli	a4, a3, 4
	add	a3, a3, a4
	lui	a4, 61681
	addi	a4, a4, -241
	and	a3, a3, a4
	lui	a4, 4112
	addi	a4, a4, 257
	mul	a3, a3, a4
	srli	a4, a3, 24
	li	a3, 905
.Ltmp2327:
	.loc	5 915 22
	addi	a5, a4, -11
.Ltmp2328:
	.loc	14 63 32
	sub	a3, a3, a4
.Ltmp2329:
	.loc	5 915 22
	bltz	a5, .LBB69_8
.Ltmp2330:
	.loc	5 0 22 is_stmt 0
	li	a2, 0
	sll	a4, a1, a5
.Ltmp2331:
	j	.LBB69_9
.Ltmp2332:
.LBB69_7:
	li	a2, 0
	j	.LBB69_11
.Ltmp2333:
.LBB69_8:
	addi	a5, a4, 21
.Ltmp2334:
	xori	a4, a5, 31
.Ltmp2335:
	srl	a4, a2, a4
	sll	a2, a1, a5
.Ltmp2336:
.LBB69_9:
	lui	a1, 256
.Ltmp2337:
	.loc	2 380 48 is_stmt 1
	xor	a1, a1, a4
.Ltmp2338:
	.loc	5 915 22
	slli	a3, a3, 20
.Ltmp2339:
.LBB69_10:
	.loc	14 0 0 is_stmt 0
	or	a1, a1, a3
.Ltmp2340:
.LBB69_11:
	lui	a3, 524288
.Ltmp2341:
	.loc	2 176 46 is_stmt 1
	and	a0, a0, a3
.Ltmp2342:
	.loc	2 278 45
	or	a1, a1, a0
.Ltmp2343:
	.loc	1 396 14
	mv	a0, a2
.Ltmp2344:
	ret
.Ltmp2345:
.Lfunc_end69:
	.size	__extendsfdf2, .Lfunc_end69-__extendsfdf2
	.cfi_endproc

	.section	.text._ZN17compiler_builtins5float3mul8__mulsf317hea6a0fd1b7c1db7eE,"ax",@progbits
	.hidden	_ZN17compiler_builtins5float3mul8__mulsf317hea6a0fd1b7c1db7eE
	.globl	_ZN17compiler_builtins5float3mul8__mulsf317hea6a0fd1b7c1db7eE
	.p2align	1
	.type	_ZN17compiler_builtins5float3mul8__mulsf317hea6a0fd1b7c1db7eE,@function
_ZN17compiler_builtins5float3mul8__mulsf317hea6a0fd1b7c1db7eE:
.Lfunc_begin70:
	.loc	1 386 0
	.cfi_startproc
	mv	a2, a0
.Ltmp2346:
	lui	a6, 2048
	addi	t6, a6, -1
.Ltmp2347:
	.loc	2 176 46 prologue_end
	slli	a0, a0, 1
	srli	t4, a0, 24
.Ltmp2348:
	.loc	2 176 46 is_stmt 0
	slli	a0, a1, 1
	srli	t5, a0, 24
.Ltmp2349:
	.loc	2 380 48 is_stmt 1
	xor	a0, a1, a2
	lui	a7, 524288
.Ltmp2350:
	.loc	2 176 46
	and	a0, a0, a7
.Ltmp2351:
	.loc	2 176 46 is_stmt 0
	and	t0, a2, t6
.Ltmp2352:
	.loc	3 1439 52 is_stmt 1
	addi	a3, t4, -255
	sltiu	a3, a3, -254
	addi	a4, t5, -255
	sltiu	a4, a4, -254
.Ltmp2353:
	.file	15 "/Users/georg/.cargo/registry/src/github.com-1ecc6299db9ec823/compiler_builtins-0.1.85" "src/float/mul.rs"
	.loc	15 43 8
	or	a3, a3, a4
.Ltmp2354:
	.loc	2 176 46
	and	t1, a1, t6
.Ltmp2355:
	.loc	15 43 8
	beqz	a3, .LBB70_4
.Ltmp2356:
	.loc	15 0 8 is_stmt 0
	addi	a5, a7, -1
.Ltmp2357:
	.loc	2 176 46 is_stmt 1
	and	a4, a2, a5
.Ltmp2358:
	.loc	2 0 46 is_stmt 0
	lui	a3, 522240
.Ltmp2359:
	.loc	15 50 12 is_stmt 1
	bgeu	a3, a4, .LBB70_12
.Ltmp2360:
	.loc	15 0 12 is_stmt 0
	lui	a0, 1024
.Ltmp2361:
	.loc	2 278 45 is_stmt 1
	or	a0, a0, a2
.Ltmp2362:
.LBB70_3:
	.loc	1 389 10
	ret
.LBB70_4:
.Ltmp2363:
	.loc	1 0 10 is_stmt 0
	li	t2, 0
.Ltmp2364:
.LBB70_5:
	.loc	2 807 53 is_stmt 1
	or	a2, t0, a6
.Ltmp2365:
	.loc	2 481 17
	slli	a1, t1, 8
	or	a3, a1, a7
.Ltmp2366:
	.loc	5 1226 13
	mul	a1, a3, a2
.Ltmp2367:
	mulhu	a2, a3, a2
.Ltmp2368:
	.loc	6 1124 13
	add	a3, t5, t4
.Ltmp2369:
	.loc	15 127 8
	slli	a5, a2, 8
.Ltmp2370:
	.loc	6 1124 13
	add	a4, a3, t2
.Ltmp2371:
	.loc	15 127 8
	bltz	a5, .LBB70_10
.Ltmp2372:
	.loc	6 1164 13
	addi	a4, a4, -127
.Ltmp2373:
	.loc	2 278 45
	srli	a3, a1, 31
	slli	a2, a2, 1
.Ltmp2374:
	or	a2, a2, a3
.Ltmp2375:
	.loc	2 945 17
	slli	a1, a1, 1
.Ltmp2376:
	.loc	2 0 17 is_stmt 0
	li	a3, 254
.Ltmp2377:
	.loc	15 135 8 is_stmt 1
	blt	a3, a4, .LBB70_11
.Ltmp2378:
.LBB70_7:
	.loc	15 139 8
	blez	a4, .LBB70_17
.Ltmp2379:
	.loc	2 734 54
	and	a2, a2, t6
.Ltmp2380:
	.loc	2 481 17
	slli	a3, a4, 23
.Ltmp2381:
	.loc	2 807 53
	or	a2, a2, a3
.Ltmp2382:
	.loc	2 0 53 is_stmt 0
	lui	a3, 524288
.Ltmp2383:
	.loc	2 807 53
	or	a0, a0, a2
.Ltmp2384:
	.loc	15 176 8 is_stmt 1
	bgeu	a3, a1, .LBB70_19
.Ltmp2385:
.LBB70_9:
	.loc	8 763 51
	addi	a0, a0, 1
.Ltmp2386:
	.loc	1 389 10
	ret
.Ltmp2387:
.LBB70_10:
	.loc	6 1124 13
	addi	a4, a4, -126
.Ltmp2388:
	.loc	6 0 13 is_stmt 0
	li	a3, 254
.Ltmp2389:
	.loc	15 135 8 is_stmt 1
	bge	a3, a4, .LBB70_7
.Ltmp2390:
.LBB70_11:
	.loc	15 0 8 is_stmt 0
	lui	a1, 522240
.Ltmp2391:
	.loc	2 278 45 is_stmt 1
	or	a0, a0, a1
.Ltmp2392:
	.loc	1 389 10
	ret
.Ltmp2393:
.LBB70_12:
	.loc	15 0 0 is_stmt 0
	and	t3, a1, a5
.Ltmp2394:
	.loc	15 54 12 is_stmt 1
	bgeu	a3, t3, .LBB70_14
.Ltmp2395:
	.loc	15 0 12 is_stmt 0
	lui	a0, 1024
.Ltmp2396:
	.loc	2 278 45 is_stmt 1
	or	a0, a0, a1
.Ltmp2397:
	.loc	1 389 10
	ret
.Ltmp2398:
.LBB70_14:
	.loc	1 0 10 is_stmt 0
	lui	a3, 522240
.Ltmp2399:
	.loc	15 58 12 is_stmt 1
	bne	a4, a3, .LBB70_21
.Ltmp2400:
	.loc	15 59 16
	beqz	t3, .LBB70_24
.Ltmp2401:
	.loc	15 0 16 is_stmt 0
	lui	a0, 524288
.Ltmp2402:
	.loc	2 278 45 is_stmt 1
	and	a0, a0, a1
	xor	a0, a0, a2
.Ltmp2403:
	.loc	1 389 10
	ret
.Ltmp2404:
.LBB70_17:
	.loc	1 0 10 is_stmt 0
	li	a3, 1
.Ltmp2405:
	.loc	5 1203 13 is_stmt 1
	sub	a3, a3, a4
	li	a5, 32
.Ltmp2406:
	.loc	15 147 12
	bgeu	a3, a5, .LBB70_3
.Ltmp2407:
	.loc	15 154 41
	addi	a4, a4, 31
.Ltmp2408:
	.loc	2 601 17
	srl	a5, a1, a3
.Ltmp2409:
	.loc	2 278 45
	or	a1, a1, a2
.Ltmp2410:
	sll	a1, a1, a4
	or	a1, a1, a5
.Ltmp2411:
	.loc	2 1029 17
	srl	a2, a2, a3
.Ltmp2412:
	.loc	2 0 17 is_stmt 0
	lui	a3, 524288
.Ltmp2413:
	.loc	2 807 53 is_stmt 1
	or	a0, a0, a2
.Ltmp2414:
	.loc	15 176 8
	bltu	a3, a1, .LBB70_9
.Ltmp2415:
.LBB70_19:
	.loc	15 180 8
	bne	a1, a3, .LBB70_3
.Ltmp2416:
	.loc	2 176 46
	andi	a1, a2, 1
.Ltmp2417:
	.loc	8 763 51
	add	a0, a0, a1
.Ltmp2418:
	.loc	1 389 10
	ret
.Ltmp2419:
.LBB70_21:
	.loc	15 68 12
	bne	t3, a3, .LBB70_25
.Ltmp2420:
	.loc	15 69 16
	beqz	a4, .LBB70_24
.Ltmp2421:
	.loc	15 0 16 is_stmt 0
	lui	a0, 524288
.Ltmp2422:
	.loc	2 278 45 is_stmt 1
	and	a0, a0, a2
	xor	a0, a0, a1
.Ltmp2423:
	.loc	1 389 10
	ret
.Ltmp2424:
.LBB70_24:
	.loc	1 0 10 is_stmt 0
	lui	a0, 523264
	.loc	1 389 10
	ret
.Ltmp2425:
.LBB70_25:
	.loc	15 79 12 is_stmt 1
	beqz	a4, .LBB70_3
.Ltmp2426:
	.loc	15 84 12
	beqz	t3, .LBB70_3
.Ltmp2427:
	.loc	3 1435 52
	srli	a1, a4, 23
.Ltmp2428:
	.loc	3 0 52 is_stmt 0
	bnez	a1, .LBB70_30
.Ltmp2429:
	.loc	5 131 13 is_stmt 1
	beqz	t0, .LBB70_31
.Ltmp2430:
	srli	a1, t0, 1
	or	a1, t0, a1
	srli	a2, a1, 2
.Ltmp2431:
	or	a1, a1, a2
	srli	a2, a1, 4
	or	a1, a1, a2
	srli	a2, a1, 8
	or	a1, a1, a2
	srli	a2, a1, 16
	or	a1, a1, a2
	not	a1, a1
	srli	a2, a1, 1
	lui	a3, 349525
	addi	a3, a3, 1365
	and	a2, a2, a3
	sub	a1, a1, a2
	lui	a2, 209715
	addi	a2, a2, 819
	and	a3, a1, a2
	srli	a1, a1, 2
	and	a1, a1, a2
	add	a1, a1, a3
	srli	a2, a1, 4
	add	a1, a1, a2
	lui	a2, 61681
	addi	a2, a2, -241
	and	a1, a1, a2
	lui	a2, 4112
	addi	a2, a2, 257
	mul	a1, a1, a2
	srli	a1, a1, 24
	j	.LBB70_32
.Ltmp2432:
.LBB70_30:
	.loc	5 0 13 is_stmt 0
	li	t2, 0
	j	.LBB70_33
.Ltmp2433:
.LBB70_31:
	li	a1, 32
.Ltmp2434:
.LBB70_32:
	.loc	5 1203 13 is_stmt 1
	addi	a2, a1, 24
	li	a3, 9
.Ltmp2435:
	.loc	6 1164 13
	sub	t2, a3, a1
.Ltmp2436:
	.loc	7 164 21
	sll	t0, t0, a2
.Ltmp2437:
.LBB70_33:
	.loc	3 1435 52
	srli	a1, t3, 23
	bnez	a1, .LBB70_5
.Ltmp2438:
	.loc	3 0 52 is_stmt 0
	beqz	t1, .LBB70_36
.Ltmp2439:
	.loc	5 131 13 is_stmt 1
	srli	a1, t1, 1
	or	a1, t1, a1
	srli	a2, a1, 2
	or	a1, a1, a2
	srli	a2, a1, 4
	or	a1, a1, a2
	srli	a2, a1, 8
	or	a1, a1, a2
	srli	a2, a1, 16
	or	a1, a1, a2
	not	a1, a1
	srli	a2, a1, 1
	lui	a3, 349525
	addi	a3, a3, 1365
	and	a2, a2, a3
	sub	a1, a1, a2
	lui	a2, 209715
	addi	a2, a2, 819
	and	a3, a1, a2
	srli	a1, a1, 2
	and	a1, a1, a2
	add	a1, a1, a3
	srli	a2, a1, 4
	add	a1, a1, a2
	lui	a2, 61681
	addi	a2, a2, -241
	and	a1, a1, a2
	lui	a2, 4112
	addi	a2, a2, 257
	mul	a1, a1, a2
	srli	a1, a1, 24
	j	.LBB70_37
.Ltmp2440:
.LBB70_36:
	.loc	5 0 13 is_stmt 0
	li	a1, 32
.Ltmp2441:
.LBB70_37:
	.loc	5 1203 13 is_stmt 1
	addi	a2, a1, 24
.Ltmp2442:
	.loc	7 164 21
	sll	t1, t1, a2
.Ltmp2443:
	.loc	15 99 13
	sub	a1, t2, a1
.Ltmp2444:
	addi	t2, a1, 9
.Ltmp2445:
	.loc	15 0 13 is_stmt 0
	j	.LBB70_5
.Ltmp2446:
.Lfunc_end70:
	.size	_ZN17compiler_builtins5float3mul8__mulsf317hea6a0fd1b7c1db7eE, .Lfunc_end70-_ZN17compiler_builtins5float3mul8__mulsf317hea6a0fd1b7c1db7eE
	.cfi_endproc

	.section	.text.__mulsf3,"ax",@progbits
	.hidden	__mulsf3
	.globl	__mulsf3
	.p2align	1
	.type	__mulsf3,@function
__mulsf3:
.Lfunc_begin71:
	.loc	1 394 0 is_stmt 1
	.cfi_startproc
	.loc	1 395 17 prologue_end
	tail	_ZN17compiler_builtins5float3mul8__mulsf317hea6a0fd1b7c1db7eE
.Ltmp2447:
.Lfunc_end71:
	.size	__mulsf3, .Lfunc_end71-__mulsf3
	.cfi_endproc

	.section	.text._ZN17compiler_builtins5float3mul8__muldf317hbd6514e444bf4d5bE,"ax",@progbits
	.hidden	_ZN17compiler_builtins5float3mul8__muldf317hbd6514e444bf4d5bE
	.globl	_ZN17compiler_builtins5float3mul8__muldf317hbd6514e444bf4d5bE
	.p2align	1
	.type	_ZN17compiler_builtins5float3mul8__muldf317hbd6514e444bf4d5bE,@function
_ZN17compiler_builtins5float3mul8__muldf317hbd6514e444bf4d5bE:
.Lfunc_begin72:
	.loc	1 386 0
	.cfi_startproc
	mv	t6, a1
.Ltmp2448:
	lui	a1, 256
.Ltmp2449:
	.loc	2 176 46 prologue_end
	slli	a4, t6, 1
	srli	a7, a4, 21
.Ltmp2450:
	.loc	2 176 46 is_stmt 0
	slli	a5, a3, 1
.Ltmp2451:
	.loc	3 1439 52 is_stmt 1
	addi	a4, a7, -2047
.Ltmp2452:
	.loc	2 176 46
	srli	t5, a5, 21
.Ltmp2453:
	.loc	3 1439 52
	bgeu	a4, a7, .LBB72_2
.Ltmp2454:
	.loc	3 0 52 is_stmt 0
	sltu	a5, a4, a7
	j	.LBB72_3
.Ltmp2455:
.LBB72_2:
	sltiu	a5, a4, -2046
.Ltmp2456:
.LBB72_3:
	lui	t0, 524288
	addi	a6, a1, -1
	addi	a4, t5, -2047
	xor	a1, a3, t6
.Ltmp2457:
	bgeu	a4, t5, .LBB72_5
.Ltmp2458:
	sltu	a4, a4, t5
	j	.LBB72_6
.Ltmp2459:
.LBB72_5:
	sltiu	a4, a4, -2046
.Ltmp2460:
.LBB72_6:
	addi	sp, sp, -16
	.cfi_def_cfa_offset 16
	sw	s0, 12(sp)
	sw	s1, 8(sp)
	sw	s2, 4(sp)
	sw	s3, 0(sp)
	.cfi_offset s0, -4
	.cfi_offset s1, -8
	.cfi_offset s2, -12
	.cfi_offset s3, -16
	and	a1, a1, t0
.Ltmp2461:
	and	t1, t6, a6
.Ltmp2462:
	.loc	15 43 8 is_stmt 1
	or	a4, a4, a5
.Ltmp2463:
	.loc	15 0 8 is_stmt 0
	and	t2, a3, a6
.Ltmp2464:
	.loc	15 43 8
	beqz	a4, .LBB72_14
.Ltmp2465:
	.loc	2 176 46 is_stmt 1
	addi	a5, t0, -1
	and	t4, t6, a5
.Ltmp2466:
	.loc	2 0 46 is_stmt 0
	lui	a4, 524032
.Ltmp2467:
	.loc	3 1441 52 is_stmt 1
	beq	t4, a4, .LBB72_18
.Ltmp2468:
	.loc	3 0 52 is_stmt 0
	sltu	a4, a4, t4
.Ltmp2469:
	.loc	15 50 12 is_stmt 1
	bnez	a4, .LBB72_19
.Ltmp2470:
.LBB72_9:
	.loc	15 0 12 is_stmt 0
	and	t3, a3, a5
.Ltmp2471:
	lui	a4, 524032
.Ltmp2472:
	.loc	3 1441 52 is_stmt 1
	beq	t3, a4, .LBB72_27
.Ltmp2473:
	.loc	3 0 52 is_stmt 0
	sltu	a4, a4, t3
	.loc	15 54 12 is_stmt 1
	bnez	a4, .LBB72_28
.Ltmp2474:
.LBB72_11:
	.loc	15 0 12 is_stmt 0
	lui	a4, 524032
.Ltmp2475:
	.loc	3 1346 52 is_stmt 1
	xor	a5, t4, a4
	or	a5, a5, a0
.Ltmp2476:
	.loc	15 58 12
	bnez	a5, .LBB72_34
.Ltmp2477:
	.loc	3 1348 52
	or	a1, a2, t3
.Ltmp2478:
	.loc	15 59 16
	beqz	a1, .LBB72_53
.Ltmp2479:
	.loc	2 278 45
	and	a1, a3, t0
.Ltmp2480:
	xor	a1, a1, t6
.Ltmp2481:
	.loc	2 0 45 is_stmt 0
	j	.LBB72_55
.Ltmp2482:
.LBB72_14:
	li	t4, 0
.Ltmp2483:
.LBB72_15:
	li	t3, -1
.Ltmp2484:
	.loc	2 807 53 is_stmt 1
	addi	s2, t3, 1
	sltu	a3, s2, t3
	add	t6, a6, a3
	or	a3, t1, t6
.Ltmp2485:
	or	a4, a0, s2
.Ltmp2486:
	.loc	2 481 17
	srli	a0, a2, 21
	slli	s0, t2, 11
	or	a0, a0, s0
	slli	s0, a2, 11
.Ltmp2487:
	or	a0, a0, t0
.Ltmp2488:
	.loc	5 1226 13
	mul	a2, a0, a4
.Ltmp2489:
	mulhu	a5, s0, a4
	add	a5, a5, a2
	sltu	a2, a5, a2
	mulhu	s1, a0, a4
	add	s1, s1, a2
	mul	a2, s0, a3
	add	s3, a2, a5
.Ltmp2490:
	sltu	a2, s3, a2
	mulhu	a5, s0, a3
	add	a2, a2, a5
	add	a2, a2, s1
	sltu	a5, a2, s1
	mulhu	s1, a0, a3
	add	a5, a5, s1
	mul	a3, a0, a3
.Ltmp2491:
	add	a0, a3, a2
.Ltmp2492:
	sltu	a2, a0, a3
	add	a3, a5, a2
.Ltmp2493:
	mul	a4, s0, a4
.Ltmp2494:
	.loc	6 1124 13
	add	a2, t5, a7
.Ltmp2495:
	.loc	2 176 46
	and	a5, a3, t6
	and	s1, a0, s2
.Ltmp2496:
	.loc	3 1348 52
	or	s1, s1, a5
.Ltmp2497:
	.loc	6 1124 13
	add	a5, a2, t4
.Ltmp2498:
	.loc	15 127 8
	beqz	s1, .LBB72_20
.Ltmp2499:
	.loc	6 1124 13
	addi	a5, a5, -1022
.Ltmp2500:
	.loc	6 0 13 is_stmt 0
	li	a2, 2046
.Ltmp2501:
	.loc	15 135 8 is_stmt 1
	bge	a2, a5, .LBB72_21
.Ltmp2502:
.LBB72_17:
	.loc	15 0 8 is_stmt 0
	li	a0, 0
.Ltmp2503:
	lui	a2, 524032
.Ltmp2504:
	.loc	2 278 45 is_stmt 1
	or	a1, a1, a2
.Ltmp2505:
	.loc	2 0 45 is_stmt 0
	j	.LBB72_55
.Ltmp2506:
.LBB72_18:
	snez	a4, a0
.Ltmp2507:
	.loc	15 50 12 is_stmt 1
	beqz	a4, .LBB72_9
.Ltmp2508:
.LBB72_19:
	.loc	15 0 12 is_stmt 0
	lui	a1, 128
.Ltmp2509:
	.loc	2 278 45 is_stmt 1
	or	a1, t6, a1
.Ltmp2510:
	.loc	2 0 45 is_stmt 0
	j	.LBB72_55
.Ltmp2511:
.LBB72_20:
	.loc	6 1164 13 is_stmt 1
	addi	a5, a5, -1023
.Ltmp2512:
	.loc	2 278 45
	srli	a2, a0, 31
	slli	a3, a3, 1
.Ltmp2513:
	or	a3, a3, a2
.Ltmp2514:
	slli	a0, a0, 1
.Ltmp2515:
	srli	a2, s3, 31
	or	a0, a0, a2
.Ltmp2516:
	.loc	2 945 17
	srli	a2, a4, 31
	slli	s1, s3, 1
	or	s3, s1, a2
.Ltmp2517:
	slli	a4, a4, 1
.Ltmp2518:
	.loc	2 0 17 is_stmt 0
	li	a2, 2046
.Ltmp2519:
	.loc	15 135 8 is_stmt 1
	blt	a2, a5, .LBB72_17
.Ltmp2520:
.LBB72_21:
	.loc	15 139 8
	blez	a5, .LBB72_32
.Ltmp2521:
	.loc	2 734 54
	and	a0, a0, t3
.Ltmp2522:
	and	a2, a3, a6
.Ltmp2523:
	.loc	2 481 17
	slli	a3, a5, 20
.Ltmp2524:
	.loc	2 807 53
	or	a5, a3, a2
.Ltmp2525:
.LBB72_23:
	.loc	2 0 53 is_stmt 0
	lui	a3, 524288
.Ltmp2526:
	.loc	3 1441 52 is_stmt 1
	beq	s3, a3, .LBB72_29
.Ltmp2527:
	.loc	3 0 52 is_stmt 0
	sltu	a3, a3, s3
	or	a1, a1, a5
.Ltmp2528:
	.loc	15 176 8 is_stmt 1
	bnez	a3, .LBB72_30
.Ltmp2529:
.LBB72_25:
	.loc	15 0 8 is_stmt 0
	lui	a2, 524288
.Ltmp2530:
	.loc	3 1346 52 is_stmt 1
	xor	a2, s3, a2
	or	a2, a2, a4
.Ltmp2531:
	.loc	15 180 8
	bnez	a2, .LBB72_55
.Ltmp2532:
	.loc	2 176 46
	andi	a2, a0, 1
.Ltmp2533:
	.loc	8 763 51
	add	a2, a2, a0
.Ltmp2534:
	.loc	8 0 51 is_stmt 0
	j	.LBB72_31
.Ltmp2535:
.LBB72_27:
	snez	a4, a2
.Ltmp2536:
	.loc	15 54 12 is_stmt 1
	beqz	a4, .LBB72_11
.Ltmp2537:
.LBB72_28:
	.loc	15 0 12 is_stmt 0
	lui	a0, 128
.Ltmp2538:
	.loc	2 278 45 is_stmt 1
	or	a1, a3, a0
.Ltmp2539:
	.loc	2 0 45 is_stmt 0
	mv	a0, a2
.Ltmp2540:
	j	.LBB72_55
.Ltmp2541:
.LBB72_29:
	snez	a3, a4
	or	a1, a1, a5
.Ltmp2542:
	.loc	15 176 8 is_stmt 1
	beqz	a3, .LBB72_25
.Ltmp2543:
.LBB72_30:
	.loc	8 763 51
	addi	a2, a0, 1
.Ltmp2544:
.LBB72_31:
	.loc	15 0 0 is_stmt 0
	sltu	a0, a2, a0
	add	a1, a1, a0
	mv	a0, a2
	j	.LBB72_55
.Ltmp2545:
.LBB72_32:
	li	a2, 1
.Ltmp2546:
	.loc	5 1203 13 is_stmt 1
	sub	a6, a2, a5
	li	a2, 64
.Ltmp2547:
	.loc	15 147 12
	bltu	a6, a2, .LBB72_37
.Ltmp2548:
.LBB72_33:
	.loc	15 0 12 is_stmt 0
	li	a0, 0
	j	.LBB72_55
.Ltmp2549:
.LBB72_34:
	.loc	3 1346 52 is_stmt 1
	xor	a4, t3, a4
	or	a4, a4, a2
.Ltmp2550:
	.loc	15 68 12
	bnez	a4, .LBB72_43
.Ltmp2551:
	.loc	15 0 0 is_stmt 0
	or	a0, a0, t4
.Ltmp2552:
	.loc	15 69 16 is_stmt 1
	beqz	a0, .LBB72_54
.Ltmp2553:
	.loc	2 278 45
	and	a0, t6, t0
.Ltmp2554:
	xor	a1, a0, a3
.Ltmp2555:
	.loc	2 0 45 is_stmt 0
	mv	a0, a2
.Ltmp2556:
	j	.LBB72_55
.Ltmp2557:
.LBB72_37:
	.loc	2 601 17 is_stmt 1
	addi	a7, a6, -32
.Ltmp2558:
	xori	t0, a6, 31
	bltz	a7, .LBB72_48
.Ltmp2559:
	.loc	2 0 17 is_stmt 0
	srl	t1, s3, a7
	addi	t2, a5, 63
.Ltmp2560:
	.loc	2 278 45 is_stmt 1
	addi	a5, a5, 31
.Ltmp2561:
	or	t3, a0, a4
	bgez	a5, .LBB72_49
.Ltmp2562:
.LBB72_39:
	.loc	2 0 45 is_stmt 0
	srli	a2, t3, 1
	xori	a4, t2, 31
	srl	a2, a2, a4
	or	a4, a3, s3
	sll	a4, a4, t2
	or	a4, a4, a2
	bgez	a7, .LBB72_50
.Ltmp2563:
.LBB72_40:
	srl	a2, s3, a6
	or	s3, a4, a2
	bgez	a5, .LBB72_51
.Ltmp2564:
.LBB72_41:
	sll	a2, t3, t2
	or	a4, t1, a2
	bgez	a7, .LBB72_52
.Ltmp2565:
.LBB72_42:
	srl	a0, a0, a6
	slli	a2, a3, 1
	sll	a2, a2, t0
	or	a0, a0, a2
	srl	a5, a3, a6
	j	.LBB72_23
.Ltmp2566:
.LBB72_43:
	or	a3, a0, t4
.Ltmp2567:
	.loc	15 79 12 is_stmt 1
	beqz	a3, .LBB72_33
.Ltmp2568:
	.loc	3 1346 52
	or	a3, a2, t3
.Ltmp2569:
	.loc	15 84 12
	beqz	a3, .LBB72_33
.Ltmp2570:
	.loc	3 1435 52
	srli	a3, t4, 20
	bnez	a3, .LBB72_56
.Ltmp2571:
	.loc	5 131 13
	srli	t4, a0, 1
.Ltmp2572:
	.loc	5 0 13 is_stmt 0
	lui	a3, 349525
	addi	a4, a3, 1365
	lui	a3, 209715
	addi	a3, a3, 819
	lui	a5, 61681
	addi	t6, a5, -241
.Ltmp2573:
	lui	a5, 4112
	addi	a5, a5, 257
	.loc	5 131 13
	bnez	t1, .LBB72_57
.Ltmp2574:
	.loc	5 0 13
	or	s0, a0, t4
	srli	s1, s0, 2
	or	s0, s0, s1
	srli	s1, s0, 4
	or	s0, s0, s1
	srli	s1, s0, 8
	or	s0, s0, s1
	srli	s1, s0, 16
	or	s0, s0, s1
	not	s0, s0
	srli	s1, s0, 1
	and	a4, a4, s1
	sub	a4, s0, a4
	and	s0, a4, a3
	srli	a4, a4, 2
	and	a3, a3, a4
	add	a3, a3, s0
	srli	a4, a3, 4
	add	a3, a3, a4
	and	a3, a3, t6
	mul	a3, a3, a5
	srli	a3, a3, 24
	addi	a3, a3, 32
	j	.LBB72_58
.Ltmp2575:
.LBB72_48:
	srl	a2, a4, a6
	slli	s1, s3, 1
	sll	s1, s1, t0
	or	t1, a2, s1
.Ltmp2576:
	addi	t2, a5, 63
.Ltmp2577:
	.loc	2 278 45 is_stmt 1
	addi	a5, a5, 31
.Ltmp2578:
	or	t3, a0, a4
	bltz	a5, .LBB72_39
.Ltmp2579:
.LBB72_49:
	.loc	2 0 45 is_stmt 0
	sll	a4, t3, a5
.Ltmp2580:
	.loc	2 278 45
	bltz	a7, .LBB72_40
.Ltmp2581:
.LBB72_50:
	.loc	2 0 45
	mv	s3, a4
.Ltmp2582:
	.loc	2 278 45
	bltz	a5, .LBB72_41
.Ltmp2583:
.LBB72_51:
	.loc	2 0 45
	mv	a4, t1
.Ltmp2584:
	.loc	2 1029 17 is_stmt 1
	bltz	a7, .LBB72_42
.Ltmp2585:
.LBB72_52:
	.loc	2 0 17 is_stmt 0
	li	a5, 0
	srl	a0, a3, a7
	j	.LBB72_23
.LBB72_53:
.Ltmp2586:
	li	a0, 0
.Ltmp2587:
.LBB72_54:
	lui	a1, 524160
.Ltmp2588:
.LBB72_55:
	.loc	1 389 10 is_stmt 1
	lw	s0, 12(sp)
	lw	s1, 8(sp)
	lw	s2, 4(sp)
	lw	s3, 0(sp)
	addi	sp, sp, 16
	ret
.LBB72_56:
.Ltmp2589:
	.loc	1 0 10 is_stmt 0
	li	t4, 0
	j	.LBB72_62
.Ltmp2590:
.LBB72_57:
	srli	s0, t1, 1
	or	s0, t1, s0
	srli	s1, s0, 2
	or	s0, s0, s1
	srli	s1, s0, 4
	or	s0, s0, s1
	srli	s1, s0, 8
	or	s0, s0, s1
	srli	s1, s0, 16
	or	s0, s0, s1
	not	s0, s0
	srli	s1, s0, 1
	and	a4, a4, s1
	sub	a4, s0, a4
	and	s0, a4, a3
	srli	a4, a4, 2
	and	a3, a3, a4
	add	a3, a3, s0
	srli	a4, a3, 4
	add	a3, a3, a4
	and	a3, a3, t6
	mul	a3, a3, a5
	srli	a3, a3, 24
.Ltmp2591:
.LBB72_58:
	.loc	5 1203 13 is_stmt 1
	addi	a5, a3, 53
.Ltmp2592:
	.loc	7 164 21
	andi	a4, a5, 63
	addi	s0, a4, -32
	li	t6, 12
	bltz	s0, .LBB72_60
.Ltmp2593:
	.loc	7 0 21 is_stmt 0
	sll	t1, a0, s0
.Ltmp2594:
	li	a0, 0
.Ltmp2595:
	j	.LBB72_61
.Ltmp2596:
.LBB72_60:
	sll	s1, t1, a5
	xori	a4, a4, 31
	srl	a4, t4, a4
	or	t1, s1, a4
.Ltmp2597:
	sll	a0, a0, a5
.Ltmp2598:
.LBB72_61:
	sub	t4, t6, a3
.Ltmp2599:
.LBB72_62:
	.loc	3 1435 52 is_stmt 1
	srli	a3, t3, 20
	bnez	a3, .LBB72_15
.Ltmp2600:
	.loc	5 131 13
	srli	t3, a2, 1
.Ltmp2601:
	.loc	5 0 13 is_stmt 0
	lui	a3, 349525
	addi	a4, a3, 1365
	lui	a3, 209715
	addi	a3, a3, 819
	lui	a5, 61681
	addi	t6, a5, -241
	lui	a5, 4112
	addi	a5, a5, 257
	bnez	t2, .LBB72_65
.Ltmp2602:
	or	s0, a2, t3
	srli	s1, s0, 2
	or	s0, s0, s1
	srli	s1, s0, 4
	or	s0, s0, s1
	srli	s1, s0, 8
	or	s0, s0, s1
	srli	s1, s0, 16
	or	s0, s0, s1
	not	s0, s0
	srli	s1, s0, 1
	and	a4, a4, s1
	sub	a4, s0, a4
	and	s0, a4, a3
	srli	a4, a4, 2
	and	a3, a3, a4
	add	a3, a3, s0
	srli	a4, a3, 4
	add	a3, a3, a4
	and	a3, a3, t6
	mul	a3, a3, a5
	srli	a3, a3, 24
	addi	a3, a3, 32
	j	.LBB72_66
.Ltmp2603:
.LBB72_65:
	srli	s0, t2, 1
	or	s0, t2, s0
	srli	s1, s0, 2
	or	s0, s0, s1
	srli	s1, s0, 4
	or	s0, s0, s1
	srli	s1, s0, 8
	or	s0, s0, s1
	srli	s1, s0, 16
	or	s0, s0, s1
	not	s0, s0
	srli	s1, s0, 1
	and	a4, a4, s1
	sub	a4, s0, a4
	and	s0, a4, a3
	srli	a4, a4, 2
	and	a3, a3, a4
	add	a3, a3, s0
	srli	a4, a3, 4
	add	a3, a3, a4
	and	a3, a3, t6
	mul	a3, a3, a5
	srli	a3, a3, 24
.Ltmp2604:
.LBB72_66:
	.loc	5 1203 13 is_stmt 1
	addi	a4, a3, 53
.Ltmp2605:
	.loc	7 164 21
	andi	a5, a4, 63
	addi	s0, a5, -32
	bltz	s0, .LBB72_68
.Ltmp2606:
	.loc	7 0 21 is_stmt 0
	sll	t2, a2, s0
.Ltmp2607:
	li	a2, 0
.Ltmp2608:
	j	.LBB72_69
.Ltmp2609:
.LBB72_68:
	sll	s1, t2, a4
	xori	a5, a5, 31
	srl	a5, t3, a5
	or	t2, s1, a5
.Ltmp2610:
	sll	a2, a2, a4
.Ltmp2611:
.LBB72_69:
	.loc	15 99 13 is_stmt 1
	sub	a3, t4, a3
	addi	t4, a3, 12
.Ltmp2612:
	.loc	15 0 13 is_stmt 0
	j	.LBB72_15
.Ltmp2613:
.Lfunc_end72:
	.size	_ZN17compiler_builtins5float3mul8__muldf317hbd6514e444bf4d5bE, .Lfunc_end72-_ZN17compiler_builtins5float3mul8__muldf317hbd6514e444bf4d5bE
	.cfi_endproc

	.section	.text.__muldf3,"ax",@progbits
	.hidden	__muldf3
	.globl	__muldf3
	.p2align	1
	.type	__muldf3,@function
__muldf3:
.Lfunc_begin73:
	.loc	1 394 0 is_stmt 1
	.cfi_startproc
	.loc	1 395 17 prologue_end
	tail	_ZN17compiler_builtins5float3mul8__muldf317hbd6514e444bf4d5bE
.Ltmp2614:
.Lfunc_end73:
	.size	__muldf3, .Lfunc_end73-__muldf3
	.cfi_endproc

	.section	.text._ZN17compiler_builtins5float3pow9__powisf217h931eb93ce2f763d9E,"ax",@progbits
	.hidden	_ZN17compiler_builtins5float3pow9__powisf217h931eb93ce2f763d9E
	.globl	_ZN17compiler_builtins5float3pow9__powisf217h931eb93ce2f763d9E
	.p2align	1
	.type	_ZN17compiler_builtins5float3pow9__powisf217h931eb93ce2f763d9E,@function
_ZN17compiler_builtins5float3pow9__powisf217h931eb93ce2f763d9E:
.Lfunc_begin74:
	.loc	1 386 0
	.cfi_startproc
	addi	sp, sp, -32
	.cfi_def_cfa_offset 32
.Ltmp2615:
	.file	16 "/Users/georg/.cargo/registry/src/github.com-1ecc6299db9ec823/compiler_builtins-0.1.85" "src/float/pow.rs"
	.loc	16 0 0 is_stmt 0
	sw	ra, 28(sp)
	sw	s0, 24(sp)
	sw	s1, 20(sp)
	sw	s2, 16(sp)
	sw	s3, 12(sp)
	sw	s4, 8(sp)
	sw	s5, 4(sp)
	.cfi_offset ra, -4
	.cfi_offset s0, -8
	.cfi_offset s1, -12
	.cfi_offset s2, -16
	.cfi_offset s3, -20
	.cfi_offset s4, -24
	.cfi_offset s5, -28
.Ltmp2616:
	mv	s2, a1
.Ltmp2617:
	mv	s4, a0
.Ltmp2618:
	.loc	6 1426 17 prologue_end is_stmt 1
	srai	a0, a1, 31
	xor	a1, a1, a0
	sub	s1, a1, a0
.Ltmp2619:
	.loc	16 11 12
	andi	a0, s1, 1
	lui	s5, 260096
	beqz	a0, .LBB74_2
.Ltmp2620:
	.loc	16 0 12 is_stmt 0
	mv	s5, s4
.Ltmp2621:
.LBB74_2:
	li	a0, 2
	.loc	16 15 12 is_stmt 1
	bgeu	s1, a0, .LBB74_6
.Ltmp2622:
.LBB74_3:
	.loc	16 21 8
	lui	a0, 260096
	mv	a1, s5
	call	__divsf3@plt
	bltz	s2, .LBB74_5
.Ltmp2623:
	.loc	16 0 8 is_stmt 0
	mv	a0, s5
.Ltmp2624:
.LBB74_5:
	.loc	1 389 10 is_stmt 1
	lw	ra, 28(sp)
	lw	s0, 24(sp)
	lw	s1, 20(sp)
	lw	s2, 16(sp)
.Ltmp2625:
	lw	s3, 12(sp)
	lw	s4, 8(sp)
	lw	s5, 4(sp)
	addi	sp, sp, 32
	ret
.LBB74_6:
.Ltmp2626:
	.loc	1 0 10 is_stmt 0
	li	s3, 3
	j	.LBB74_8
.Ltmp2627:
.LBB74_7:
	srli	s1, s0, 1
.Ltmp2628:
	.loc	16 11 12 is_stmt 1
	mv	a0, s5
	call	__mulsf3@plt
	mv	s5, a0
.Ltmp2629:
	.loc	16 15 12
	bgeu	s3, s0, .LBB74_3
.Ltmp2630:
.LBB74_8:
	.loc	16 0 12 is_stmt 0
	mv	s0, s1
.Ltmp2631:
	.loc	8 890 51 is_stmt 1
	mv	a0, s4
	mv	a1, s4
	call	__mulsf3@plt
	mv	s4, a0
.Ltmp2632:
	.loc	16 11 12
	andi	a0, s1, 2
	lui	a1, 260096
	beqz	a0, .LBB74_7
.Ltmp2633:
	.loc	16 0 12 is_stmt 0
	mv	a1, s4
	j	.LBB74_7
.Lfunc_end74:
	.size	_ZN17compiler_builtins5float3pow9__powisf217h931eb93ce2f763d9E, .Lfunc_end74-_ZN17compiler_builtins5float3pow9__powisf217h931eb93ce2f763d9E
	.cfi_endproc

	.section	.text.__powisf2,"ax",@progbits
	.hidden	__powisf2
	.globl	__powisf2
	.p2align	1
	.type	__powisf2,@function
__powisf2:
.Lfunc_begin75:
	.loc	1 394 0 is_stmt 1
	.cfi_startproc
	addi	sp, sp, -32
	.cfi_def_cfa_offset 32
.Ltmp2634:
	.loc	16 0 0 is_stmt 0
	sw	ra, 28(sp)
	sw	s0, 24(sp)
	sw	s1, 20(sp)
	sw	s2, 16(sp)
	sw	s3, 12(sp)
	sw	s4, 8(sp)
	sw	s5, 4(sp)
	.cfi_offset ra, -4
	.cfi_offset s0, -8
	.cfi_offset s1, -12
	.cfi_offset s2, -16
	.cfi_offset s3, -20
	.cfi_offset s4, -24
	.cfi_offset s5, -28
.Ltmp2635:
	mv	s2, a1
.Ltmp2636:
	mv	s4, a0
.Ltmp2637:
	.loc	6 1426 17 prologue_end is_stmt 1
	srai	a0, a1, 31
	xor	a1, a1, a0
	sub	s1, a1, a0
.Ltmp2638:
	.loc	16 11 12
	andi	a0, s1, 1
	lui	s5, 260096
	beqz	a0, .LBB75_2
.Ltmp2639:
	.loc	16 0 12 is_stmt 0
	mv	s5, s4
.Ltmp2640:
.LBB75_2:
	li	a0, 2
	.loc	16 15 12 is_stmt 1
	bgeu	s1, a0, .LBB75_6
.Ltmp2641:
.LBB75_3:
	.loc	16 21 8
	lui	a0, 260096
	mv	a1, s5
	call	__divsf3@plt
	bltz	s2, .LBB75_5
.Ltmp2642:
	.loc	16 0 8 is_stmt 0
	mv	a0, s5
.Ltmp2643:
.LBB75_5:
	.loc	1 396 14 is_stmt 1
	lw	ra, 28(sp)
	lw	s0, 24(sp)
	lw	s1, 20(sp)
	lw	s2, 16(sp)
.Ltmp2644:
	lw	s3, 12(sp)
	lw	s4, 8(sp)
	lw	s5, 4(sp)
	addi	sp, sp, 32
	ret
.LBB75_6:
.Ltmp2645:
	.loc	1 0 14 is_stmt 0
	li	s3, 3
	j	.LBB75_8
.Ltmp2646:
.LBB75_7:
	srli	s1, s0, 1
.Ltmp2647:
	.loc	16 11 12 is_stmt 1
	mv	a0, s5
	call	__mulsf3@plt
	mv	s5, a0
.Ltmp2648:
	.loc	16 15 12
	bgeu	s3, s0, .LBB75_3
.Ltmp2649:
.LBB75_8:
	.loc	16 0 12 is_stmt 0
	mv	s0, s1
.Ltmp2650:
	.loc	8 890 51 is_stmt 1
	mv	a0, s4
	mv	a1, s4
	call	__mulsf3@plt
	mv	s4, a0
.Ltmp2651:
	.loc	16 11 12
	andi	a0, s1, 2
	lui	a1, 260096
	beqz	a0, .LBB75_7
.Ltmp2652:
	.loc	16 0 12 is_stmt 0
	mv	a1, s4
	j	.LBB75_7
.Lfunc_end75:
	.size	__powisf2, .Lfunc_end75-__powisf2
	.cfi_endproc

	.section	.text._ZN17compiler_builtins5float3pow9__powidf217hb9dca15676436815E,"ax",@progbits
	.hidden	_ZN17compiler_builtins5float3pow9__powidf217hb9dca15676436815E
	.globl	_ZN17compiler_builtins5float3pow9__powidf217hb9dca15676436815E
	.p2align	1
	.type	_ZN17compiler_builtins5float3pow9__powidf217hb9dca15676436815E,@function
_ZN17compiler_builtins5float3pow9__powidf217hb9dca15676436815E:
.Lfunc_begin76:
	.loc	1 386 0 is_stmt 1
	.cfi_startproc
	addi	sp, sp, -48
	.cfi_def_cfa_offset 48
.Ltmp2653:
	.loc	6 0 0 is_stmt 0
	sw	ra, 44(sp)
	sw	s0, 40(sp)
	sw	s1, 36(sp)
	sw	s2, 32(sp)
	sw	s3, 28(sp)
	sw	s4, 24(sp)
	sw	s5, 20(sp)
	sw	s6, 16(sp)
	sw	s7, 12(sp)
	.cfi_offset ra, -4
	.cfi_offset s0, -8
	.cfi_offset s1, -12
	.cfi_offset s2, -16
	.cfi_offset s3, -20
	.cfi_offset s4, -24
	.cfi_offset s5, -28
	.cfi_offset s6, -32
	.cfi_offset s7, -36
.Ltmp2654:
	mv	s2, a2
.Ltmp2655:
	mv	s3, a1
	mv	s7, a0
.Ltmp2656:
	.loc	6 1426 17 prologue_end is_stmt 1
	srai	a0, a2, 31
	xor	a1, a2, a0
	sub	s1, a1, a0
.Ltmp2657:
	.loc	16 11 12
	andi	a1, s1, 1
	neg	a0, a1
	lui	s4, 261888
	beqz	a1, .LBB76_2
.Ltmp2658:
	.loc	16 0 12 is_stmt 0
	mv	s4, s3
.Ltmp2659:
.LBB76_2:
	li	a1, 2
	.loc	16 11 12
	and	s6, a0, s7
	.loc	16 15 12 is_stmt 1
	bgeu	s1, a1, .LBB76_6
.Ltmp2660:
.LBB76_3:
	.loc	16 21 8
	lui	a1, 261888
	li	a0, 0
	mv	a2, s6
	mv	a3, s4
	call	__divdf3@plt
	bltz	s2, .LBB76_5
.Ltmp2661:
	.loc	16 0 8 is_stmt 0
	mv	a0, s6
	mv	a1, s4
.Ltmp2662:
.LBB76_5:
	.loc	1 389 10 is_stmt 1
	lw	ra, 44(sp)
	lw	s0, 40(sp)
	lw	s1, 36(sp)
	lw	s2, 32(sp)
.Ltmp2663:
	lw	s3, 28(sp)
	lw	s4, 24(sp)
	lw	s5, 20(sp)
	lw	s6, 16(sp)
	lw	s7, 12(sp)
	addi	sp, sp, 48
	ret
.LBB76_6:
.Ltmp2664:
	.loc	1 0 10 is_stmt 0
	li	s5, 3
	j	.LBB76_8
.Ltmp2665:
.LBB76_7:
	srli	s1, s0, 1
.Ltmp2666:
	.loc	16 11 12 is_stmt 1
	slli	a0, s0, 30
	srai	a0, a0, 31
	and	a2, a0, s7
	mv	a0, s6
	mv	a1, s4
	call	__muldf3@plt
	mv	s6, a0
	mv	s4, a1
.Ltmp2667:
	.loc	16 15 12
	bgeu	s5, s0, .LBB76_3
.Ltmp2668:
.LBB76_8:
	.loc	16 0 12 is_stmt 0
	mv	s0, s1
.Ltmp2669:
	.loc	8 890 51 is_stmt 1
	mv	a0, s7
	mv	a1, s3
	mv	a2, s7
	mv	a3, s3
	call	__muldf3@plt
	mv	s7, a0
.Ltmp2670:
	mv	s3, a1
.Ltmp2671:
	.loc	16 11 12
	andi	a0, s1, 2
	lui	a3, 261888
	beqz	a0, .LBB76_7
.Ltmp2672:
	.loc	16 0 12 is_stmt 0
	mv	a3, s3
	j	.LBB76_7
.Lfunc_end76:
	.size	_ZN17compiler_builtins5float3pow9__powidf217hb9dca15676436815E, .Lfunc_end76-_ZN17compiler_builtins5float3pow9__powidf217hb9dca15676436815E
	.cfi_endproc

	.section	.text.__powidf2,"ax",@progbits
	.hidden	__powidf2
	.globl	__powidf2
	.p2align	1
	.type	__powidf2,@function
__powidf2:
.Lfunc_begin77:
	.loc	1 394 0 is_stmt 1
	.cfi_startproc
	addi	sp, sp, -48
	.cfi_def_cfa_offset 48
.Ltmp2673:
	.loc	6 0 0 is_stmt 0
	sw	ra, 44(sp)
	sw	s0, 40(sp)
	sw	s1, 36(sp)
	sw	s2, 32(sp)
	sw	s3, 28(sp)
	sw	s4, 24(sp)
	sw	s5, 20(sp)
	sw	s6, 16(sp)
	sw	s7, 12(sp)
	.cfi_offset ra, -4
	.cfi_offset s0, -8
	.cfi_offset s1, -12
	.cfi_offset s2, -16
	.cfi_offset s3, -20
	.cfi_offset s4, -24
	.cfi_offset s5, -28
	.cfi_offset s6, -32
	.cfi_offset s7, -36
.Ltmp2674:
	mv	s2, a2
.Ltmp2675:
	mv	s3, a1
	mv	s7, a0
.Ltmp2676:
	.loc	6 1426 17 prologue_end is_stmt 1
	srai	a0, a2, 31
	xor	a1, a2, a0
	sub	s1, a1, a0
.Ltmp2677:
	.loc	16 11 12
	andi	a1, s1, 1
	neg	a0, a1
	lui	s4, 261888
	beqz	a1, .LBB77_2
.Ltmp2678:
	.loc	16 0 12 is_stmt 0
	mv	s4, s3
.Ltmp2679:
.LBB77_2:
	li	a1, 2
	.loc	16 11 12
	and	s6, a0, s7
	.loc	16 15 12 is_stmt 1
	bgeu	s1, a1, .LBB77_6
.Ltmp2680:
.LBB77_3:
	.loc	16 21 8
	lui	a1, 261888
	li	a0, 0
	mv	a2, s6
	mv	a3, s4
	call	__divdf3@plt
	bltz	s2, .LBB77_5
.Ltmp2681:
	.loc	16 0 8 is_stmt 0
	mv	a0, s6
	mv	a1, s4
.Ltmp2682:
.LBB77_5:
	.loc	1 396 14 is_stmt 1
	lw	ra, 44(sp)
	lw	s0, 40(sp)
	lw	s1, 36(sp)
	lw	s2, 32(sp)
.Ltmp2683:
	lw	s3, 28(sp)
	lw	s4, 24(sp)
	lw	s5, 20(sp)
	lw	s6, 16(sp)
	lw	s7, 12(sp)
	addi	sp, sp, 48
	ret
.LBB77_6:
.Ltmp2684:
	.loc	1 0 14 is_stmt 0
	li	s5, 3
	j	.LBB77_8
.Ltmp2685:
.LBB77_7:
	srli	s1, s0, 1
.Ltmp2686:
	.loc	16 11 12 is_stmt 1
	slli	a0, s0, 30
	srai	a0, a0, 31
	and	a2, a0, s7
	mv	a0, s6
	mv	a1, s4
	call	__muldf3@plt
	mv	s6, a0
	mv	s4, a1
.Ltmp2687:
	.loc	16 15 12
	bgeu	s5, s0, .LBB77_3
.Ltmp2688:
.LBB77_8:
	.loc	16 0 12 is_stmt 0
	mv	s0, s1
.Ltmp2689:
	.loc	8 890 51 is_stmt 1
	mv	a0, s7
	mv	a1, s3
	mv	a2, s7
	mv	a3, s3
	call	__muldf3@plt
	mv	s7, a0
.Ltmp2690:
	mv	s3, a1
.Ltmp2691:
	.loc	16 11 12
	andi	a0, s1, 2
	lui	a3, 261888
	beqz	a0, .LBB77_7
.Ltmp2692:
	.loc	16 0 12 is_stmt 0
	mv	a3, s3
	j	.LBB77_7
.Lfunc_end77:
	.size	__powidf2, .Lfunc_end77-__powidf2
	.cfi_endproc

	.section	.text._ZN17compiler_builtins5float3sub8__subsf317hf7bab1985473bb6fE,"ax",@progbits
	.hidden	_ZN17compiler_builtins5float3sub8__subsf317hf7bab1985473bb6fE
	.globl	_ZN17compiler_builtins5float3sub8__subsf317hf7bab1985473bb6fE
	.p2align	1
	.type	_ZN17compiler_builtins5float3sub8__subsf317hf7bab1985473bb6fE,@function
_ZN17compiler_builtins5float3sub8__subsf317hf7bab1985473bb6fE:
.Lfunc_begin78:
	.loc	1 386 0 is_stmt 1
	.cfi_startproc
	lui	a2, 524288
.Ltmp2693:
	.file	17 "/Users/georg/.cargo/registry/src/github.com-1ecc6299db9ec823/compiler_builtins-0.1.85" "src/float/sub.rs"
	.loc	17 8 36 prologue_end
	xor	a1, a1, a2
.Ltmp2694:
	.loc	17 8 9 is_stmt 0
	tail	_ZN17compiler_builtins5float3add8__addsf317hdacba25b5e3a7288E
.Ltmp2695:
.Lfunc_end78:
	.size	_ZN17compiler_builtins5float3sub8__subsf317hf7bab1985473bb6fE, .Lfunc_end78-_ZN17compiler_builtins5float3sub8__subsf317hf7bab1985473bb6fE
	.cfi_endproc

	.section	.text.__subsf3,"ax",@progbits
	.hidden	__subsf3
	.globl	__subsf3
	.p2align	1
	.type	__subsf3,@function
__subsf3:
.Lfunc_begin79:
	.loc	1 394 0 is_stmt 1
	.cfi_startproc
	lui	a2, 524288
.Ltmp2696:
	.loc	17 8 36 prologue_end
	xor	a1, a1, a2
.Ltmp2697:
	.loc	17 8 9 is_stmt 0
	tail	_ZN17compiler_builtins5float3add8__addsf317hdacba25b5e3a7288E
.Ltmp2698:
.Lfunc_end79:
	.size	__subsf3, .Lfunc_end79-__subsf3
	.cfi_endproc

	.section	.text._ZN17compiler_builtins5float3sub8__subdf317hb4c302dcf52e4d7cE,"ax",@progbits
	.hidden	_ZN17compiler_builtins5float3sub8__subdf317hb4c302dcf52e4d7cE
	.globl	_ZN17compiler_builtins5float3sub8__subdf317hb4c302dcf52e4d7cE
	.p2align	1
	.type	_ZN17compiler_builtins5float3sub8__subdf317hb4c302dcf52e4d7cE,@function
_ZN17compiler_builtins5float3sub8__subdf317hb4c302dcf52e4d7cE:
.Lfunc_begin80:
	.loc	1 386 0 is_stmt 1
	.cfi_startproc
	lui	a4, 524288
.Ltmp2699:
	.loc	17 13 36 prologue_end
	xor	a3, a3, a4
.Ltmp2700:
	.loc	17 13 9 is_stmt 0
	tail	_ZN17compiler_builtins5float3add8__adddf317hb40dd8bc41e310b7E
.Ltmp2701:
.Lfunc_end80:
	.size	_ZN17compiler_builtins5float3sub8__subdf317hb4c302dcf52e4d7cE, .Lfunc_end80-_ZN17compiler_builtins5float3sub8__subdf317hb4c302dcf52e4d7cE
	.cfi_endproc

	.section	.text.__subdf3,"ax",@progbits
	.hidden	__subdf3
	.globl	__subdf3
	.p2align	1
	.type	__subdf3,@function
__subdf3:
.Lfunc_begin81:
	.loc	1 394 0 is_stmt 1
	.cfi_startproc
	lui	a4, 524288
.Ltmp2702:
	.loc	17 13 36 prologue_end
	xor	a3, a3, a4
.Ltmp2703:
	.loc	17 13 9 is_stmt 0
	tail	_ZN17compiler_builtins5float3add8__adddf317hb40dd8bc41e310b7E
.Ltmp2704:
.Lfunc_end81:
	.size	__subdf3, .Lfunc_end81-__subdf3
	.cfi_endproc

	.section	.text._ZN17compiler_builtins5float5trunc12__truncdfsf217hb2afab9152f847a9E,"ax",@progbits
	.hidden	_ZN17compiler_builtins5float5trunc12__truncdfsf217hb2afab9152f847a9E
	.globl	_ZN17compiler_builtins5float5trunc12__truncdfsf217hb2afab9152f847a9E
	.p2align	1
	.type	_ZN17compiler_builtins5float5trunc12__truncdfsf217hb2afab9152f847a9E,@function
_ZN17compiler_builtins5float5trunc12__truncdfsf217hb2afab9152f847a9E:
.Lfunc_begin82:
	.loc	1 386 0 is_stmt 1
	.cfi_startproc
	.loc	2 176 46 prologue_end
	slli	a2, a1, 1
	srli	a2, a2, 1
	lui	a3, 818944
.Ltmp2705:
	.loc	5 1203 13
	add	a3, a3, a2
	lui	a4, 753920
.Ltmp2706:
	.loc	5 1203 13 is_stmt 0
	add	a4, a4, a2
.Ltmp2707:
	.file	18 "/Users/georg/.cargo/registry/src/github.com-1ecc6299db9ec823/compiler_builtins-0.1.85" "src/float/trunc.rs"
	.loc	18 50 8 is_stmt 1
	bgeu	a3, a4, .LBB82_4
.Ltmp2708:
	.loc	2 601 17
	srli	a2, a0, 29
	slli	a3, a1, 3
	or	a3, a3, a2
.Ltmp2709:
	.loc	2 176 46
	slli	a0, a0, 3
.Ltmp2710:
	srli	a0, a0, 3
.Ltmp2711:
	.loc	2 0 46 is_stmt 0
	lui	a4, 65536
.Ltmp2712:
	lui	a2, 262144
.Ltmp2713:
	.loc	18 59 12 is_stmt 1
	bgeu	a4, a0, .LBB82_9
.Ltmp2714:
	.loc	18 0 12 is_stmt 0
	addi	a0, a2, 1
.Ltmp2715:
	.loc	8 763 51 is_stmt 1
	add	a2, a3, a0
.Ltmp2716:
.LBB82_3:
	.loc	8 0 51 is_stmt 0
	lui	a0, 524288
.Ltmp2717:
	.loc	9 368 57 is_stmt 1
	and	a0, a0, a1
.Ltmp2718:
	.loc	2 278 45
	or	a0, a0, a2
.Ltmp2719:
	.loc	1 389 10
	ret
.Ltmp2720:
.LBB82_4:
	.loc	1 0 10 is_stmt 0
	lui	a3, 524032
.Ltmp2721:
	.loc	3 1441 52 is_stmt 1
	beq	a2, a3, .LBB82_11
.Ltmp2722:
	.loc	3 0 52 is_stmt 0
	sltu	a3, a3, a2
	.loc	18 66 15 is_stmt 1
	bnez	a3, .LBB82_12
.Ltmp2723:
.LBB82_6:
	.loc	3 1439 52
	srli	a3, a2, 20
	li	a4, 1150
	lui	a2, 522240
.Ltmp2724:
	.loc	18 74 15
	bltu	a4, a3, .LBB82_3
.Ltmp2725:
	.loc	18 0 15 is_stmt 0
	li	a2, 897
.Ltmp2726:
	.loc	18 82 21 is_stmt 1
	sub	a2, a2, a3
.Ltmp2727:
	.loc	18 0 21 is_stmt 0
	li	a4, 52
.Ltmp2728:
	bgeu	a4, a2, .LBB82_13
.Ltmp2729:
	li	a2, 0
.Ltmp2730:
	lui	a0, 524288
.Ltmp2731:
	.loc	9 368 57 is_stmt 1
	and	a0, a0, a1
.Ltmp2732:
	.loc	2 278 45
	or	a0, a0, a2
.Ltmp2733:
	.loc	1 389 10
	ret
.Ltmp2734:
.LBB82_9:
	.loc	18 0 0 is_stmt 0
	add	a2, a2, a3
.Ltmp2735:
	.loc	18 62 19 is_stmt 1
	bne	a0, a4, .LBB82_3
.Ltmp2736:
	.loc	2 176 46
	andi	a0, a3, 1
.Ltmp2737:
	.loc	8 763 51
	add	a2, a2, a0
.Ltmp2738:
	.loc	8 0 51 is_stmt 0
	lui	a0, 524288
.Ltmp2739:
	.loc	9 368 57 is_stmt 1
	and	a0, a0, a1
.Ltmp2740:
	.loc	2 278 45
	or	a0, a0, a2
.Ltmp2741:
	.loc	1 389 10
	ret
.Ltmp2742:
.LBB82_11:
	.loc	1 0 10 is_stmt 0
	snez	a3, a0
.Ltmp2743:
	.loc	18 66 15 is_stmt 1
	beqz	a3, .LBB82_6
.Ltmp2744:
.LBB82_12:
	.loc	2 601 17
	srli	a0, a0, 29
.Ltmp2745:
	slli	a2, a1, 3
	or	a0, a0, a2
.Ltmp2746:
	.loc	9 368 57
	slli	a0, a0, 10
.Ltmp2747:
	srli	a0, a0, 10
.Ltmp2748:
	.loc	9 0 57 is_stmt 0
	lui	a2, 523264
.Ltmp2749:
	.loc	2 807 53 is_stmt 1
	or	a2, a2, a0
.Ltmp2750:
	.loc	2 0 53 is_stmt 0
	lui	a0, 524288
.Ltmp2751:
	.loc	9 368 57 is_stmt 1
	and	a0, a0, a1
.Ltmp2752:
	.loc	2 278 45
	or	a0, a0, a2
.Ltmp2753:
	.loc	1 389 10
	ret
.Ltmp2754:
.LBB82_13:
	.loc	1 0 10 is_stmt 0
	lui	a4, 256
	addi	a4, a4, -1
.Ltmp2755:
	.loc	2 176 46 is_stmt 1
	and	a6, a1, a4
.Ltmp2756:
	.loc	2 278 45
	addi	a5, a0, -1
	sltu	a0, a5, a0
.Ltmp2757:
	add	a0, a0, a6
	addi	a7, a5, 1
	sltu	a5, a7, a5
	add	a0, a0, a5
.Ltmp2758:
	.loc	18 90 45
	addi	t0, a3, -1
.Ltmp2759:
	.loc	2 481 17
	andi	a5, t0, 63
	addi	a3, a5, -32
.Ltmp2760:
	.loc	2 278 45
	add	a6, a0, a4
.Ltmp2761:
	.loc	2 481 17
	bltz	a3, .LBB82_15
.Ltmp2762:
	.loc	2 0 17 is_stmt 0
	sll	a5, a7, a3
	j	.LBB82_16
.Ltmp2763:
.LBB82_15:
	sll	a0, a6, t0
	xori	a4, a5, 31
	srli	a5, a7, 1
	srl	a4, a5, a4
	or	a5, a0, a4
.Ltmp2764:
.LBB82_16:
	.loc	3 1348 52 is_stmt 1
	bgez	a3, .LBB82_18
.Ltmp2765:
	.loc	3 0 52 is_stmt 0
	sll	a0, a7, t0
	or	a5, a5, a0
.Ltmp2766:
.LBB82_18:
	.loc	2 601 17 is_stmt 1
	addi	a3, a2, -32
.Ltmp2767:
	.loc	3 1348 52
	snez	a4, a5
.Ltmp2768:
	.loc	2 601 17
	bltz	a3, .LBB82_20
.Ltmp2769:
	.loc	2 0 17 is_stmt 0
	li	a2, 0
.Ltmp2770:
	srl	a0, a6, a3
	j	.LBB82_21
.Ltmp2771:
.LBB82_20:
	slli	a0, a6, 1
	xori	a3, a2, 31
	sll	a0, a0, a3
	srl	a3, a7, a2
	or	a0, a0, a3
	srl	a2, a6, a2
.Ltmp2772:
.LBB82_21:
	.loc	2 601 17
	srli	a5, a0, 29
	slli	a2, a2, 3
.Ltmp2773:
	.loc	2 176 46 is_stmt 1
	slli	a0, a0, 3
.Ltmp2774:
	srli	a0, a0, 3
	or	a0, a0, a4
	lui	a3, 65536
.Ltmp2775:
	.loc	2 601 17
	or	a2, a2, a5
.Ltmp2776:
	.loc	18 100 16
	bgeu	a3, a0, .LBB82_23
.Ltmp2777:
	.loc	8 763 51
	addi	a2, a2, 1
.Ltmp2778:
	.loc	8 0 51 is_stmt 0
	lui	a0, 524288
.Ltmp2779:
	.loc	9 368 57 is_stmt 1
	and	a0, a0, a1
.Ltmp2780:
	.loc	2 278 45
	or	a0, a0, a2
.Ltmp2781:
	.loc	1 389 10
	ret
.Ltmp2782:
.LBB82_23:
	.loc	18 104 21
	bne	a0, a3, .LBB82_3
.Ltmp2783:
	.loc	2 176 46
	andi	a0, a2, 1
.Ltmp2784:
	.loc	8 763 51
	add	a2, a2, a0
.Ltmp2785:
	.loc	8 0 51 is_stmt 0
	lui	a0, 524288
.Ltmp2786:
	.loc	9 368 57 is_stmt 1
	and	a0, a0, a1
.Ltmp2787:
	.loc	2 278 45
	or	a0, a0, a2
.Ltmp2788:
	.loc	1 389 10
	ret
.Ltmp2789:
.Lfunc_end82:
	.size	_ZN17compiler_builtins5float5trunc12__truncdfsf217hb2afab9152f847a9E, .Lfunc_end82-_ZN17compiler_builtins5float5trunc12__truncdfsf217hb2afab9152f847a9E
	.cfi_endproc

	.section	.text.__truncdfsf2,"ax",@progbits
	.hidden	__truncdfsf2
	.globl	__truncdfsf2
	.p2align	1
	.type	__truncdfsf2,@function
__truncdfsf2:
.Lfunc_begin83:
	.loc	1 394 0
	.cfi_startproc
	.loc	2 176 46 prologue_end
	slli	a2, a1, 1
	srli	a2, a2, 1
	lui	a3, 818944
.Ltmp2790:
	.loc	5 1203 13
	add	a3, a3, a2
	lui	a4, 753920
.Ltmp2791:
	.loc	5 1203 13 is_stmt 0
	add	a4, a4, a2
.Ltmp2792:
	.loc	18 50 8 is_stmt 1
	bgeu	a3, a4, .LBB83_4
.Ltmp2793:
	.loc	2 601 17
	srli	a2, a0, 29
	slli	a3, a1, 3
	or	a3, a3, a2
.Ltmp2794:
	.loc	2 176 46
	slli	a0, a0, 3
.Ltmp2795:
	srli	a0, a0, 3
.Ltmp2796:
	.loc	2 0 46 is_stmt 0
	lui	a4, 65536
.Ltmp2797:
	lui	a2, 262144
.Ltmp2798:
	.loc	18 59 12 is_stmt 1
	bgeu	a4, a0, .LBB83_9
.Ltmp2799:
	.loc	18 0 12 is_stmt 0
	addi	a0, a2, 1
.Ltmp2800:
	.loc	8 763 51 is_stmt 1
	add	a2, a3, a0
.Ltmp2801:
.LBB83_3:
	.loc	8 0 51 is_stmt 0
	lui	a0, 524288
.Ltmp2802:
	.loc	9 368 57 is_stmt 1
	and	a0, a0, a1
.Ltmp2803:
	.loc	2 278 45
	or	a0, a0, a2
.Ltmp2804:
	.loc	1 396 14
	ret
.Ltmp2805:
.LBB83_4:
	.loc	1 0 14 is_stmt 0
	lui	a3, 524032
.Ltmp2806:
	.loc	3 1441 52 is_stmt 1
	beq	a2, a3, .LBB83_11
.Ltmp2807:
	.loc	3 0 52 is_stmt 0
	sltu	a3, a3, a2
	.loc	18 66 15 is_stmt 1
	bnez	a3, .LBB83_12
.Ltmp2808:
.LBB83_6:
	.loc	3 1439 52
	srli	a3, a2, 20
	li	a4, 1150
	lui	a2, 522240
.Ltmp2809:
	.loc	18 74 15
	bltu	a4, a3, .LBB83_3
.Ltmp2810:
	.loc	18 0 15 is_stmt 0
	li	a2, 897
.Ltmp2811:
	.loc	18 82 21 is_stmt 1
	sub	a2, a2, a3
.Ltmp2812:
	.loc	18 0 21 is_stmt 0
	li	a4, 52
.Ltmp2813:
	bgeu	a4, a2, .LBB83_13
.Ltmp2814:
	li	a2, 0
.Ltmp2815:
	lui	a0, 524288
.Ltmp2816:
	.loc	9 368 57 is_stmt 1
	and	a0, a0, a1
.Ltmp2817:
	.loc	2 278 45
	or	a0, a0, a2
.Ltmp2818:
	.loc	1 396 14
	ret
.Ltmp2819:
.LBB83_9:
	.loc	18 0 0 is_stmt 0
	add	a2, a2, a3
.Ltmp2820:
	.loc	18 62 19 is_stmt 1
	bne	a0, a4, .LBB83_3
.Ltmp2821:
	.loc	2 176 46
	andi	a0, a3, 1
.Ltmp2822:
	.loc	8 763 51
	add	a2, a2, a0
.Ltmp2823:
	.loc	8 0 51 is_stmt 0
	lui	a0, 524288
.Ltmp2824:
	.loc	9 368 57 is_stmt 1
	and	a0, a0, a1
.Ltmp2825:
	.loc	2 278 45
	or	a0, a0, a2
.Ltmp2826:
	.loc	1 396 14
	ret
.Ltmp2827:
.LBB83_11:
	.loc	1 0 14 is_stmt 0
	snez	a3, a0
.Ltmp2828:
	.loc	18 66 15 is_stmt 1
	beqz	a3, .LBB83_6
.Ltmp2829:
.LBB83_12:
	.loc	2 601 17
	srli	a0, a0, 29
.Ltmp2830:
	slli	a2, a1, 3
	or	a0, a0, a2
.Ltmp2831:
	.loc	9 368 57
	slli	a0, a0, 10
.Ltmp2832:
	srli	a0, a0, 10
.Ltmp2833:
	.loc	9 0 57 is_stmt 0
	lui	a2, 523264
.Ltmp2834:
	.loc	2 807 53 is_stmt 1
	or	a2, a2, a0
.Ltmp2835:
	.loc	2 0 53 is_stmt 0
	lui	a0, 524288
.Ltmp2836:
	.loc	9 368 57 is_stmt 1
	and	a0, a0, a1
.Ltmp2837:
	.loc	2 278 45
	or	a0, a0, a2
.Ltmp2838:
	.loc	1 396 14
	ret
.Ltmp2839:
.LBB83_13:
	.loc	1 0 14 is_stmt 0
	lui	a4, 256
	addi	a4, a4, -1
.Ltmp2840:
	.loc	2 176 46 is_stmt 1
	and	a6, a1, a4
.Ltmp2841:
	.loc	2 278 45
	addi	a5, a0, -1
	sltu	a0, a5, a0
.Ltmp2842:
	add	a0, a0, a6
	addi	a7, a5, 1
	sltu	a5, a7, a5
	add	a0, a0, a5
.Ltmp2843:
	.loc	18 90 45
	addi	t0, a3, -1
.Ltmp2844:
	.loc	2 481 17
	andi	a5, t0, 63
	addi	a3, a5, -32
.Ltmp2845:
	.loc	2 278 45
	add	a6, a0, a4
.Ltmp2846:
	.loc	2 481 17
	bltz	a3, .LBB83_15
.Ltmp2847:
	.loc	2 0 17 is_stmt 0
	sll	a5, a7, a3
	j	.LBB83_16
.Ltmp2848:
.LBB83_15:
	sll	a0, a6, t0
	xori	a4, a5, 31
	srli	a5, a7, 1
	srl	a4, a5, a4
	or	a5, a0, a4
.Ltmp2849:
.LBB83_16:
	.loc	3 1348 52 is_stmt 1
	bgez	a3, .LBB83_18
.Ltmp2850:
	.loc	3 0 52 is_stmt 0
	sll	a0, a7, t0
	or	a5, a5, a0
.Ltmp2851:
.LBB83_18:
	.loc	2 601 17 is_stmt 1
	addi	a3, a2, -32
.Ltmp2852:
	.loc	3 1348 52
	snez	a4, a5
.Ltmp2853:
	.loc	2 601 17
	bltz	a3, .LBB83_20
.Ltmp2854:
	.loc	2 0 17 is_stmt 0
	li	a2, 0
.Ltmp2855:
	srl	a0, a6, a3
	j	.LBB83_21
.Ltmp2856:
.LBB83_20:
	slli	a0, a6, 1
	xori	a3, a2, 31
	sll	a0, a0, a3
	srl	a3, a7, a2
	or	a0, a0, a3
	srl	a2, a6, a2
.Ltmp2857:
.LBB83_21:
	.loc	2 601 17
	srli	a5, a0, 29
	slli	a2, a2, 3
.Ltmp2858:
	.loc	2 176 46 is_stmt 1
	slli	a0, a0, 3
.Ltmp2859:
	srli	a0, a0, 3
	or	a0, a0, a4
	lui	a3, 65536
.Ltmp2860:
	.loc	2 601 17
	or	a2, a2, a5
.Ltmp2861:
	.loc	18 100 16
	bgeu	a3, a0, .LBB83_23
.Ltmp2862:
	.loc	8 763 51
	addi	a2, a2, 1
.Ltmp2863:
	.loc	8 0 51 is_stmt 0
	lui	a0, 524288
.Ltmp2864:
	.loc	9 368 57 is_stmt 1
	and	a0, a0, a1
.Ltmp2865:
	.loc	2 278 45
	or	a0, a0, a2
.Ltmp2866:
	.loc	1 396 14
	ret
.Ltmp2867:
.LBB83_23:
	.loc	18 104 21
	bne	a0, a3, .LBB83_3
.Ltmp2868:
	.loc	2 176 46
	andi	a0, a2, 1
.Ltmp2869:
	.loc	8 763 51
	add	a2, a2, a0
.Ltmp2870:
	.loc	8 0 51 is_stmt 0
	lui	a0, 524288
.Ltmp2871:
	.loc	9 368 57 is_stmt 1
	and	a0, a0, a1
.Ltmp2872:
	.loc	2 278 45
	or	a0, a0, a2
.Ltmp2873:
	.loc	1 396 14
	ret
.Ltmp2874:
.Lfunc_end83:
	.size	__truncdfsf2, .Lfunc_end83-__truncdfsf2
	.cfi_endproc

	.section	".text._ZN55_$LT$f32$u20$as$u20$compiler_builtins..float..Float$GT$11signed_repr17hcca5f4bce6cd90d9E","ax",@progbits
	.hidden	_ZN55_$LT$f32$u20$as$u20$compiler_builtins..float..Float$GT$11signed_repr17hcca5f4bce6cd90d9E
	.globl	_ZN55_$LT$f32$u20$as$u20$compiler_builtins..float..Float$GT$11signed_repr17hcca5f4bce6cd90d9E
	.p2align	1
	.type	_ZN55_$LT$f32$u20$as$u20$compiler_builtins..float..Float$GT$11signed_repr17hcca5f4bce6cd90d9E,@function
_ZN55_$LT$f32$u20$as$u20$compiler_builtins..float..Float$GT$11signed_repr17hcca5f4bce6cd90d9E:
.Lfunc_begin84:
	.loc	7 126 0
	.cfi_startproc
	.loc	7 128 14 prologue_end
	ret
.Ltmp2875:
.Lfunc_end84:
	.size	_ZN55_$LT$f32$u20$as$u20$compiler_builtins..float..Float$GT$11signed_repr17hcca5f4bce6cd90d9E, .Lfunc_end84-_ZN55_$LT$f32$u20$as$u20$compiler_builtins..float..Float$GT$11signed_repr17hcca5f4bce6cd90d9E
	.cfi_endproc

	.section	".text._ZN55_$LT$f32$u20$as$u20$compiler_builtins..float..Float$GT$7eq_repr17ha31ab9f8b9938cd5E","ax",@progbits
	.hidden	_ZN55_$LT$f32$u20$as$u20$compiler_builtins..float..Float$GT$7eq_repr17ha31ab9f8b9938cd5E
	.globl	_ZN55_$LT$f32$u20$as$u20$compiler_builtins..float..Float$GT$7eq_repr17ha31ab9f8b9938cd5E
	.p2align	1
	.type	_ZN55_$LT$f32$u20$as$u20$compiler_builtins..float..Float$GT$7eq_repr17ha31ab9f8b9938cd5E,@function
_ZN55_$LT$f32$u20$as$u20$compiler_builtins..float..Float$GT$7eq_repr17ha31ab9f8b9938cd5E:
.Lfunc_begin85:
	.loc	7 129 0
	.cfi_startproc
	addi	sp, sp, -16
	.cfi_def_cfa_offset 16
.Ltmp2876:
	.file	19 "/Users/georg/.rustup/toolchains/nightly-2023-01-03-aarch64-apple-darwin/lib/rustlib/src/rust/library/core/src/num" "f32.rs"
	.loc	19 0 0 is_stmt 0
	sw	ra, 12(sp)
	sw	s0, 8(sp)
	sw	s1, 4(sp)
	sw	s2, 0(sp)
	.cfi_offset ra, -4
	.cfi_offset s0, -8
	.cfi_offset s1, -12
	.cfi_offset s2, -16
.Ltmp2877:
	mv	s0, a1
.Ltmp2878:
	mv	s1, a0
.Ltmp2879:
	.loc	19 428 9 prologue_end is_stmt 1
	mv	a1, a0
	call	__unordsf2@plt
	snez	s2, a0
.Ltmp2880:
	.loc	7 130 20
	mv	a0, s0
	mv	a1, s0
	call	__unordsf2@plt
	snez	a0, a0
	and	a1, s2, a0
	li	a0, 1
	bnez	a1, .LBB85_2
.Ltmp2881:
	.loc	7 133 21
	xor	a0, s1, s0
	seqz	a0, a0
.Ltmp2882:
.LBB85_2:
	.loc	7 135 14
	lw	ra, 12(sp)
	lw	s0, 8(sp)
.Ltmp2883:
	lw	s1, 4(sp)
.Ltmp2884:
	lw	s2, 0(sp)
	addi	sp, sp, 16
	ret
.Ltmp2885:
.Lfunc_end85:
	.size	_ZN55_$LT$f32$u20$as$u20$compiler_builtins..float..Float$GT$7eq_repr17ha31ab9f8b9938cd5E, .Lfunc_end85-_ZN55_$LT$f32$u20$as$u20$compiler_builtins..float..Float$GT$7eq_repr17ha31ab9f8b9938cd5E
	.cfi_endproc

	.section	".text._ZN55_$LT$f32$u20$as$u20$compiler_builtins..float..Float$GT$4sign17hf6c50f632d30eb7fE","ax",@progbits
	.hidden	_ZN55_$LT$f32$u20$as$u20$compiler_builtins..float..Float$GT$4sign17hf6c50f632d30eb7fE
	.globl	_ZN55_$LT$f32$u20$as$u20$compiler_builtins..float..Float$GT$4sign17hf6c50f632d30eb7fE
	.p2align	1
	.type	_ZN55_$LT$f32$u20$as$u20$compiler_builtins..float..Float$GT$4sign17hf6c50f632d30eb7fE,@function
_ZN55_$LT$f32$u20$as$u20$compiler_builtins..float..Float$GT$4sign17hf6c50f632d30eb7fE:
.Lfunc_begin86:
	.loc	7 136 0
	.cfi_startproc
	.loc	7 138 14 prologue_end
	srli	a0, a0, 31
.Ltmp2886:
	ret
.Ltmp2887:
.Lfunc_end86:
	.size	_ZN55_$LT$f32$u20$as$u20$compiler_builtins..float..Float$GT$4sign17hf6c50f632d30eb7fE, .Lfunc_end86-_ZN55_$LT$f32$u20$as$u20$compiler_builtins..float..Float$GT$4sign17hf6c50f632d30eb7fE
	.cfi_endproc

	.section	".text._ZN55_$LT$f32$u20$as$u20$compiler_builtins..float..Float$GT$3exp17h30a53834698e3766E","ax",@progbits
	.hidden	_ZN55_$LT$f32$u20$as$u20$compiler_builtins..float..Float$GT$3exp17h30a53834698e3766E
	.globl	_ZN55_$LT$f32$u20$as$u20$compiler_builtins..float..Float$GT$3exp17h30a53834698e3766E
	.p2align	1
	.type	_ZN55_$LT$f32$u20$as$u20$compiler_builtins..float..Float$GT$3exp17h30a53834698e3766E,@function
_ZN55_$LT$f32$u20$as$u20$compiler_builtins..float..Float$GT$3exp17h30a53834698e3766E:
.Lfunc_begin87:
	.loc	7 139 0
	.cfi_startproc
	.loc	7 141 14 prologue_end
	slli	a0, a0, 1
.Ltmp2888:
	srli	a0, a0, 24
	ret
.Ltmp2889:
.Lfunc_end87:
	.size	_ZN55_$LT$f32$u20$as$u20$compiler_builtins..float..Float$GT$3exp17h30a53834698e3766E, .Lfunc_end87-_ZN55_$LT$f32$u20$as$u20$compiler_builtins..float..Float$GT$3exp17h30a53834698e3766E
	.cfi_endproc

	.section	".text._ZN55_$LT$f32$u20$as$u20$compiler_builtins..float..Float$GT$4frac17hc8542a644a4597b9E","ax",@progbits
	.hidden	_ZN55_$LT$f32$u20$as$u20$compiler_builtins..float..Float$GT$4frac17hc8542a644a4597b9E
	.globl	_ZN55_$LT$f32$u20$as$u20$compiler_builtins..float..Float$GT$4frac17hc8542a644a4597b9E
	.p2align	1
