	.text
	.attribute	4, 16
	.attribute	5, "rv32i2p0_m2p0_a2p0_c2p0"
	.file	"runtime.ca32c387-cgu.0"
	.file	1 "/private/var/folders/sm/xh2t696x06zfh9q5m4xxg3y00000gn/T/40d967f993b24a8d963c1a89fc9ce196" "runtime/src/lib.rs"
	.file	2 "/private/var/folders/sm/xh2t696x06zfh9q5m4xxg3y00000gn/T/40d967f993b24a8d963c1a89fc9ce196" "runtime/src/allocator.rs"
	.section	".text._ZN44_$LT$$RF$T$u20$as$u20$core..fmt..Display$GT$3fmt17ha66a21a5de81b0beE","ax",@progbits
	.p2align	1
	.type	_ZN44_$LT$$RF$T$u20$as$u20$core..fmt..Display$GT$3fmt17ha66a21a5de81b0beE,@function
_ZN44_$LT$$RF$T$u20$as$u20$core..fmt..Display$GT$3fmt17ha66a21a5de81b0beE:
.Lfunc_begin0:
	.file	3 "/Users/georg/.rustup/toolchains/nightly-2023-01-03-aarch64-apple-darwin/lib/rustlib/src/rust/library/core/src/fmt" "mod.rs"
	.loc	3 2372 0
	.cfi_sections .debug_frame
	.cfi_startproc
	.loc	3 2372 71 prologue_end
	lw	a0, 0(a0)
.Ltmp0:
	.loc	3 2372 62 is_stmt 0
	tail	_ZN73_$LT$core..panic..panic_info..PanicInfo$u20$as$u20$core..fmt..Display$GT$3fmt17h0360d72aed724b29E
.Ltmp1:
.Lfunc_end0:
	.size	_ZN44_$LT$$RF$T$u20$as$u20$core..fmt..Display$GT$3fmt17ha66a21a5de81b0beE, .Lfunc_end0-_ZN44_$LT$$RF$T$u20$as$u20$core..fmt..Display$GT$3fmt17ha66a21a5de81b0beE
	.cfi_endproc

	.section	.text._ZN4core3fmt5Write10write_char17hcb7f8f8c82f6d9bfE,"ax",@progbits
	.p2align	1
	.type	_ZN4core3fmt5Write10write_char17hcb7f8f8c82f6d9bfE,@function
_ZN4core3fmt5Write10write_char17hcb7f8f8c82f6d9bfE:
.Lfunc_begin1:
	.loc	3 168 0 is_stmt 1
	.cfi_startproc
	addi	sp, sp, -16
	.cfi_def_cfa_offset 16
	li	a0, 128
.Ltmp2:
	.loc	3 169 43 prologue_end
	sw	zero, 12(sp)
.Ltmp3:
	.file	4 "/Users/georg/.rustup/toolchains/nightly-2023-01-03-aarch64-apple-darwin/lib/rustlib/src/rust/library/core/src/char" "methods.rs"
	.loc	4 1702 8
	bgeu	a1, a0, .LBB1_2
.Ltmp4:
	.loc	4 1733 13
	sb	a1, 12(sp)
	li	a1, 1
.Ltmp5:
	.loc	4 0 13 is_stmt 0
	j	.LBB1_7
.Ltmp6:
.LBB1_2:
	.loc	4 1704 15 is_stmt 1
	srli	a0, a1, 11
	bnez	a0, .LBB1_4
.Ltmp7:
	.loc	4 1736 19
	srli	a0, a1, 6
	.loc	4 1736 13 is_stmt 0
	ori	a0, a0, 192
	sb	a0, 12(sp)
	.loc	4 1737 18 is_stmt 1
	andi	a0, a1, 63
	.loc	4 1737 13 is_stmt 0
	ori	a0, a0, 128
	sb	a0, 13(sp)
	li	a1, 2
.Ltmp8:
	.loc	4 0 13
	j	.LBB1_7
.Ltmp9:
.LBB1_4:
	.loc	4 1706 15 is_stmt 1
	srli	a0, a1, 16
	.loc	4 1706 12 is_stmt 0
	bnez	a0, .LBB1_6
.Ltmp10:
	.loc	4 1740 19 is_stmt 1
	srli	a0, a1, 12
	.loc	4 1740 13 is_stmt 0
	ori	a0, a0, 224
	sb	a0, 12(sp)
	.loc	4 1741 18 is_stmt 1
	slli	a0, a1, 20
	srli	a0, a0, 26
	.loc	4 1741 13 is_stmt 0
	ori	a0, a0, 128
	sb	a0, 13(sp)
	.loc	4 1742 18 is_stmt 1
	andi	a0, a1, 63
	.loc	4 1742 13 is_stmt 0
	ori	a0, a0, 128
	sb	a0, 14(sp)
	li	a1, 3
.Ltmp11:
	.loc	4 0 13
	j	.LBB1_7
.Ltmp12:
.LBB1_6:
	.loc	4 1745 18 is_stmt 1
	slli	a0, a1, 11
	srli	a0, a0, 29
	.loc	4 1745 13 is_stmt 0
	ori	a0, a0, 240
	sb	a0, 12(sp)
	.loc	4 1746 18 is_stmt 1
	slli	a0, a1, 14
	srli	a0, a0, 26
	.loc	4 1746 13 is_stmt 0
	ori	a0, a0, 128
	sb	a0, 13(sp)
	.loc	4 1747 18 is_stmt 1
	slli	a0, a1, 20
	srli	a0, a0, 26
	.loc	4 1747 13 is_stmt 0
	ori	a0, a0, 128
	sb	a0, 14(sp)
	.loc	4 1748 18 is_stmt 1
	andi	a0, a1, 63
	.loc	4 1748 13 is_stmt 0
	ori	a0, a0, 128
	sb	a0, 15(sp)
	li	a1, 4
.Ltmp13:
.LBB1_7:
	.loc	4 0 13
	li	a2, 0
	addi	a3, sp, 12
.Ltmp14:
.LBB1_8:
	.file	5 "/Users/georg/.rustup/toolchains/nightly-2023-01-03-aarch64-apple-darwin/lib/rustlib/src/rust/library/core/src/ptr" "mut_ptr.rs"
	.loc	5 499 18 is_stmt 1
	add	a0, a3, a2
.Ltmp15:
	.file	6 "/Users/georg/.rustup/toolchains/nightly-2023-01-03-aarch64-apple-darwin/lib/rustlib/src/rust/library/core/src" "option.rs"
	.loc	6 1804 19
	lbu	a0, 0(a0)
.Ltmp16:
	.file	7 "/private/var/folders/sm/xh2t696x06zfh9q5m4xxg3y00000gn/T/40d967f993b24a8d963c1a89fc9ce196" "runtime/src/fmt.rs"
	.loc	7 38 9
	#APP
	ebreak	
	#NO_APP
.Ltmp17:
	.file	8 "/Users/georg/.rustup/toolchains/nightly-2023-01-03-aarch64-apple-darwin/lib/rustlib/src/rust/library/core/src/slice/iter" "macros.rs"
	.loc	8 146 24
	addi	a2, a2, 1
.Ltmp18:
	bne	a1, a2, .LBB1_8
.Ltmp19:
	.loc	3 170 6
	li	a0, 0
	addi	sp, sp, 16
	ret
.Ltmp20:
.Lfunc_end1:
	.size	_ZN4core3fmt5Write10write_char17hcb7f8f8c82f6d9bfE, .Lfunc_end1-_ZN4core3fmt5Write10write_char17hcb7f8f8c82f6d9bfE
	.cfi_endproc
	.file	9 "/Users/georg/.rustup/toolchains/nightly-2023-01-03-aarch64-apple-darwin/lib/rustlib/src/rust/library/core/src/iter/adapters" "copied.rs"
	.file	10 "/Users/georg/.rustup/toolchains/nightly-2023-01-03-aarch64-apple-darwin/lib/rustlib/src/rust/library/core/src/str" "iter.rs"

	.section	.text._ZN4core3fmt5Write9write_fmt17he9cd6fc9cbb882bfE,"ax",@progbits
	.p2align	1
	.type	_ZN4core3fmt5Write9write_fmt17he9cd6fc9cbb882bfE,@function
_ZN4core3fmt5Write9write_fmt17he9cd6fc9cbb882bfE:
.Lfunc_begin2:
	.loc	3 191 0
	.cfi_startproc
	addi	sp, sp, -48
	.cfi_def_cfa_offset 48
.Ltmp21:
	.loc	3 192 26 prologue_end
	sw	ra, 44(sp)
	.cfi_offset ra, -4
	lw	a2, 20(a1)
	lw	a3, 16(a1)
	sw	a0, 12(sp)
	sw	a2, 36(sp)
	sw	a3, 32(sp)
	lw	a0, 12(a1)
.Ltmp22:
	lw	a2, 8(a1)
	lw	a3, 4(a1)
	lw	a1, 0(a1)
.Ltmp23:
	sw	a0, 28(sp)
	sw	a2, 24(sp)
	sw	a3, 20(sp)
	sw	a1, 16(sp)
.Ltmp24:
	.loc	3 192 9 is_stmt 0
	lui	a0, %hi(.L__unnamed_1)
	addi	a1, a0, %lo(.L__unnamed_1)
	addi	a0, sp, 12
	addi	a2, sp, 16
	call	_ZN4core3fmt5write17h87a75934cc3b911aE
	.loc	3 193 6 is_stmt 1
	lw	ra, 44(sp)
	addi	sp, sp, 48
	ret
.Ltmp25:
.Lfunc_end2:
	.size	_ZN4core3fmt5Write9write_fmt17he9cd6fc9cbb882bfE, .Lfunc_end2-_ZN4core3fmt5Write9write_fmt17he9cd6fc9cbb882bfE
	.cfi_endproc

	.section	".text._ZN4core3ptr37drop_in_place$LT$core..fmt..Error$GT$17hac39e9c214b967d0E","ax",@progbits
	.p2align	1
	.type	_ZN4core3ptr37drop_in_place$LT$core..fmt..Error$GT$17hac39e9c214b967d0E,@function
_ZN4core3ptr37drop_in_place$LT$core..fmt..Error$GT$17hac39e9c214b967d0E:
.Lfunc_begin3:
	.file	11 "/Users/georg/.rustup/toolchains/nightly-2023-01-03-aarch64-apple-darwin/lib/rustlib/src/rust/library/core/src/ptr" "mod.rs"
	.loc	11 490 0
	.cfi_startproc
	.loc	11 490 1 prologue_end
	ret
.Ltmp26:
.Lfunc_end3:
	.size	_ZN4core3ptr37drop_in_place$LT$core..fmt..Error$GT$17hac39e9c214b967d0E, .Lfunc_end3-_ZN4core3ptr37drop_in_place$LT$core..fmt..Error$GT$17hac39e9c214b967d0E
	.cfi_endproc

	.section	".text._ZN50_$LT$$RF$mut$u20$W$u20$as$u20$core..fmt..Write$GT$10write_char17hbac5473a26c1dbe9E","ax",@progbits
	.p2align	1
	.type	_ZN50_$LT$$RF$mut$u20$W$u20$as$u20$core..fmt..Write$GT$10write_char17hbac5473a26c1dbe9E,@function
_ZN50_$LT$$RF$mut$u20$W$u20$as$u20$core..fmt..Write$GT$10write_char17hbac5473a26c1dbe9E:
.Lfunc_begin4:
	.loc	3 202 0
	.cfi_startproc
	addi	sp, sp, -16
	.cfi_def_cfa_offset 16
	li	a0, 128
.Ltmp27:
	.loc	3 169 43 prologue_end
	sw	zero, 12(sp)
.Ltmp28:
	.loc	4 1702 8
	bgeu	a1, a0, .LBB4_2
.Ltmp29:
	.loc	4 1733 13
	sb	a1, 12(sp)
	li	a1, 1
.Ltmp30:
	.loc	4 0 13 is_stmt 0
	j	.LBB4_7
.Ltmp31:
.LBB4_2:
	.loc	4 1704 15 is_stmt 1
	srli	a0, a1, 11
	bnez	a0, .LBB4_4
.Ltmp32:
	.loc	4 1736 19
	srli	a0, a1, 6
	.loc	4 1736 13 is_stmt 0
	ori	a0, a0, 192
	sb	a0, 12(sp)
	.loc	4 1737 18 is_stmt 1
	andi	a0, a1, 63
	.loc	4 1737 13 is_stmt 0
	ori	a0, a0, 128
	sb	a0, 13(sp)
	li	a1, 2
.Ltmp33:
	.loc	4 0 13
	j	.LBB4_7
.Ltmp34:
.LBB4_4:
	.loc	4 1706 15 is_stmt 1
	srli	a0, a1, 16
	.loc	4 1706 12 is_stmt 0
	bnez	a0, .LBB4_6
.Ltmp35:
	.loc	4 1740 19 is_stmt 1
	srli	a0, a1, 12
	.loc	4 1740 13 is_stmt 0
	ori	a0, a0, 224
	sb	a0, 12(sp)
	.loc	4 1741 18 is_stmt 1
	slli	a0, a1, 20
	srli	a0, a0, 26
	.loc	4 1741 13 is_stmt 0
	ori	a0, a0, 128
	sb	a0, 13(sp)
	.loc	4 1742 18 is_stmt 1
	andi	a0, a1, 63
	.loc	4 1742 13 is_stmt 0
	ori	a0, a0, 128
	sb	a0, 14(sp)
	li	a1, 3
.Ltmp36:
	.loc	4 0 13
	j	.LBB4_7
.Ltmp37:
.LBB4_6:
	.loc	4 1745 18 is_stmt 1
	slli	a0, a1, 11
	srli	a0, a0, 29
	.loc	4 1745 13 is_stmt 0
	ori	a0, a0, 240
	sb	a0, 12(sp)
	.loc	4 1746 18 is_stmt 1
	slli	a0, a1, 14
	srli	a0, a0, 26
	.loc	4 1746 13 is_stmt 0
	ori	a0, a0, 128
	sb	a0, 13(sp)
	.loc	4 1747 18 is_stmt 1
	slli	a0, a1, 20
	srli	a0, a0, 26
	.loc	4 1747 13 is_stmt 0
	ori	a0, a0, 128
	sb	a0, 14(sp)
	.loc	4 1748 18 is_stmt 1
	andi	a0, a1, 63
	.loc	4 1748 13 is_stmt 0
	ori	a0, a0, 128
	sb	a0, 15(sp)
	li	a1, 4
.Ltmp38:
.LBB4_7:
	.loc	4 0 13
	li	a2, 0
	addi	a3, sp, 12
.Ltmp39:
.LBB4_8:
	.loc	5 499 18 is_stmt 1
	add	a0, a3, a2
.Ltmp40:
	.loc	6 1804 19
	lbu	a0, 0(a0)
.Ltmp41:
	.loc	7 38 9
	#APP
	ebreak	
	#NO_APP
.Ltmp42:
	.loc	8 146 24
	addi	a2, a2, 1
.Ltmp43:
	bne	a1, a2, .LBB4_8
.Ltmp44:
	.loc	3 204 6
	li	a0, 0
	addi	sp, sp, 16
	ret
.Ltmp45:
.Lfunc_end4:
	.size	_ZN50_$LT$$RF$mut$u20$W$u20$as$u20$core..fmt..Write$GT$10write_char17hbac5473a26c1dbe9E, .Lfunc_end4-_ZN50_$LT$$RF$mut$u20$W$u20$as$u20$core..fmt..Write$GT$10write_char17hbac5473a26c1dbe9E
	.cfi_endproc

	.section	".text._ZN50_$LT$$RF$mut$u20$W$u20$as$u20$core..fmt..Write$GT$9write_fmt17h9360d1a9672f9147E","ax",@progbits
	.p2align	1
	.type	_ZN50_$LT$$RF$mut$u20$W$u20$as$u20$core..fmt..Write$GT$9write_fmt17h9360d1a9672f9147E,@function
_ZN50_$LT$$RF$mut$u20$W$u20$as$u20$core..fmt..Write$GT$9write_fmt17h9360d1a9672f9147E:
.Lfunc_begin5:
	.loc	3 206 0
	.cfi_startproc
	addi	sp, sp, -48
	.cfi_def_cfa_offset 48
.Ltmp46:
	.loc	3 207 9 prologue_end
	sw	ra, 44(sp)
	.cfi_offset ra, -4
	lw	a0, 0(a0)
.Ltmp47:
	.loc	3 192 26
	lw	a2, 20(a1)
	lw	a3, 16(a1)
	sw	a0, 12(sp)
	sw	a2, 36(sp)
	sw	a3, 32(sp)
	lw	a0, 12(a1)
.Ltmp48:
	lw	a2, 8(a1)
	lw	a3, 4(a1)
	lw	a1, 0(a1)
.Ltmp49:
	sw	a0, 28(sp)
	sw	a2, 24(sp)
	sw	a3, 20(sp)
	sw	a1, 16(sp)
.Ltmp50:
	.loc	3 192 9 is_stmt 0
	lui	a0, %hi(.L__unnamed_1)
	addi	a1, a0, %lo(.L__unnamed_1)
	addi	a0, sp, 12
	addi	a2, sp, 16
	call	_ZN4core3fmt5write17h87a75934cc3b911aE
.Ltmp51:
	.loc	3 208 6 is_stmt 1
	lw	ra, 44(sp)
	addi	sp, sp, 48
	ret
.Ltmp52:
.Lfunc_end5:
	.size	_ZN50_$LT$$RF$mut$u20$W$u20$as$u20$core..fmt..Write$GT$9write_fmt17h9360d1a9672f9147E, .Lfunc_end5-_ZN50_$LT$$RF$mut$u20$W$u20$as$u20$core..fmt..Write$GT$9write_fmt17h9360d1a9672f9147E
	.cfi_endproc

	.section	".text._ZN50_$LT$$RF$mut$u20$W$u20$as$u20$core..fmt..Write$GT$9write_str17h87da48f65744beb5E","ax",@progbits
	.p2align	1
	.type	_ZN50_$LT$$RF$mut$u20$W$u20$as$u20$core..fmt..Write$GT$9write_str17h87da48f65744beb5E,@function
_ZN50_$LT$$RF$mut$u20$W$u20$as$u20$core..fmt..Write$GT$9write_str17h87da48f65744beb5E:
.Lfunc_begin6:
	.loc	3 198 0
	.cfi_startproc
	.cfi_def_cfa_offset 0
	.loc	8 146 24 prologue_end
	beqz	a2, .LBB6_2
.Ltmp53:
.LBB6_1:
	.loc	6 1804 19
	lbu	a0, 0(a1)
.Ltmp54:
	.loc	7 38 9
	#APP
	ebreak	
	#NO_APP
.Ltmp55:
	.loc	5 499 18
	addi	a1, a1, 1
.Ltmp56:
	.loc	8 146 24
	addi	a2, a2, -1
	bnez	a2, .LBB6_1
.Ltmp57:
.LBB6_2:
	.loc	3 200 6
	li	a0, 0
	ret
.Ltmp58:
.Lfunc_end6:
	.size	_ZN50_$LT$$RF$mut$u20$W$u20$as$u20$core..fmt..Write$GT$9write_str17h87da48f65744beb5E, .Lfunc_end6-_ZN50_$LT$$RF$mut$u20$W$u20$as$u20$core..fmt..Write$GT$9write_str17h87da48f65744beb5E
	.cfi_endproc

	.section	.text._ZN7runtime12coprocessors8get_data17h9dba48eeb8d554b0E,"ax",@progbits
	.globl	_ZN7runtime12coprocessors8get_data17h9dba48eeb8d554b0E
	.p2align	1
	.type	_ZN7runtime12coprocessors8get_data17h9dba48eeb8d554b0E,@function
_ZN7runtime12coprocessors8get_data17h9dba48eeb8d554b0E:
.Lfunc_begin7:
	.file	12 "/private/var/folders/sm/xh2t696x06zfh9q5m4xxg3y00000gn/T/40d967f993b24a8d963c1a89fc9ce196" "runtime/src/coprocessors.rs"
	.loc	12 15 0
	.cfi_startproc
	addi	sp, sp, -32
	.cfi_def_cfa_offset 32
.Ltmp59:
	.file	13 "/Users/georg/.rustup/toolchains/nightly-2023-01-03-aarch64-apple-darwin/lib/rustlib/src/rust/library/core/src/slice" "mod.rs"
	.loc	13 0 0 is_stmt 0
	sw	ra, 28(sp)
	sw	s0, 24(sp)
	sw	s1, 20(sp)
	sw	s2, 16(sp)
	sw	s3, 12(sp)
	sw	s4, 8(sp)
.Ltmp60:
	.cfi_offset ra, -4
	.cfi_offset s0, -8
	.cfi_offset s1, -12
	.cfi_offset s2, -16
	.cfi_offset s3, -20
	.cfi_offset s4, -24
	.loc	8 146 24 prologue_end is_stmt 1
	beqz	a2, .LBB7_3
.Ltmp61:
	.loc	8 0 24 is_stmt 0
	mv	s3, a1
.Ltmp62:
	mv	s2, a0
.Ltmp63:
	.loc	8 146 24
	slli	s1, a2, 2
	li	s0, 1
.Ltmp64:
.LBB7_2:
	.loc	5 499 18 is_stmt 1
	addi	s4, s3, 4
.Ltmp65:
	.loc	12 17 23
	mv	a0, s2
	mv	a1, s0
	call	input_coprocessor
	.loc	12 17 9 is_stmt 0
	sw	a0, 0(s3)
.Ltmp66:
	.loc	8 146 24 is_stmt 1
	addi	s1, s1, -4
	addi	s0, s0, 1
.Ltmp67:
	.loc	8 0 24 is_stmt 0
	mv	s3, s4
.Ltmp68:
	.loc	8 146 24
	bnez	s1, .LBB7_2
.Ltmp69:
.LBB7_3:
	.loc	12 19 2 is_stmt 1
	lw	ra, 28(sp)
	lw	s0, 24(sp)
	lw	s1, 20(sp)
	lw	s2, 16(sp)
	lw	s3, 12(sp)
	lw	s4, 8(sp)
	addi	sp, sp, 32
	ret
.Ltmp70:
.Lfunc_end7:
	.size	_ZN7runtime12coprocessors8get_data17h9dba48eeb8d554b0E, .Lfunc_end7-_ZN7runtime12coprocessors8get_data17h9dba48eeb8d554b0E
	.cfi_endproc
	.file	14 "/Users/georg/.rustup/toolchains/nightly-2023-01-03-aarch64-apple-darwin/lib/rustlib/src/rust/library/core/src/iter/adapters" "enumerate.rs"

	.section	.text._ZN7runtime12coprocessors12get_data_len17he34a5cd59f21e625E,"ax",@progbits
	.globl	_ZN7runtime12coprocessors12get_data_len17he34a5cd59f21e625E
	.p2align	1
	.type	_ZN7runtime12coprocessors12get_data_len17he34a5cd59f21e625E,@function
_ZN7runtime12coprocessors12get_data_len17he34a5cd59f21e625E:
.Lfunc_begin8:
	.loc	12 21 0
	.cfi_startproc
	.loc	12 22 14 prologue_end
	li	a1, 0
	tail	input_coprocessor
.Ltmp71:
.Lfunc_end8:
	.size	_ZN7runtime12coprocessors12get_data_len17he34a5cd59f21e625E, .Lfunc_end8-_ZN7runtime12coprocessors12get_data_len17he34a5cd59f21e625E
	.cfi_endproc

	.section	.text._ZN7runtime12coprocessors11poseidon_gl17h7aa5e76802e6341dE,"ax",@progbits
	.globl	_ZN7runtime12coprocessors11poseidon_gl17h7aa5e76802e6341dE
	.p2align	1
	.type	_ZN7runtime12coprocessors11poseidon_gl17h7aa5e76802e6341dE,@function
_ZN7runtime12coprocessors11poseidon_gl17h7aa5e76802e6341dE:
.Lfunc_begin9:
	.loc	12 33 0
	.cfi_startproc
	addi	sp, sp, -16
	.cfi_def_cfa_offset 16
.Ltmp72:
	.loc	12 0 0 is_stmt 0
	sw	ra, 12(sp)
	sw	s0, 8(sp)
	sw	s1, 4(sp)
	sw	s2, 0(sp)
	.cfi_offset ra, -4
	.cfi_offset s0, -8
	.cfi_offset s1, -12
	.cfi_offset s2, -16
.Ltmp73:
	mv	s1, a1
.Ltmp74:
	.loc	12 34 10 prologue_end is_stmt 1
	lw	a1, 4(a1)
.Ltmp75:
	.loc	12 0 10 is_stmt 0
	li	a2, -1
	mv	s2, a0
.Ltmp76:
	.loc	12 35 17 is_stmt 1
	beq	a1, a2, .LBB9_2
.Ltmp77:
	.loc	12 0 17 is_stmt 0
	li	a0, 0
	j	.LBB9_3
.Ltmp78:
.LBB9_2:
	lw	a0, 0(s1)
.Ltmp79:
	snez	a0, a0
.Ltmp80:
.LBB9_3:
	.loc	12 35 9
	bnez	a0, .LBB9_49
.Ltmp81:
	.loc	12 34 10 is_stmt 1
	lw	a0, 12(s1)
.Ltmp82:
	.loc	12 0 10 is_stmt 0
	li	a1, -1
.Ltmp83:
	.loc	12 35 17 is_stmt 1
	beq	a0, a1, .LBB9_6
.Ltmp84:
	.loc	12 0 17 is_stmt 0
	li	a0, 0
.Ltmp85:
	j	.LBB9_7
.Ltmp86:
.LBB9_6:
	lw	a0, 8(s1)
.Ltmp87:
	snez	a0, a0
.Ltmp88:
.LBB9_7:
	.loc	12 35 9
	bnez	a0, .LBB9_49
.Ltmp89:
	.loc	12 34 10 is_stmt 1
	lw	a0, 20(s1)
.Ltmp90:
	.loc	12 0 10 is_stmt 0
	li	a1, -1
.Ltmp91:
	.loc	12 35 17 is_stmt 1
	beq	a0, a1, .LBB9_10
.Ltmp92:
	.loc	12 0 17 is_stmt 0
	li	a0, 0
.Ltmp93:
	j	.LBB9_11
.Ltmp94:
.LBB9_10:
	lw	a0, 16(s1)
.Ltmp95:
	snez	a0, a0
.Ltmp96:
.LBB9_11:
	.loc	12 35 9
	bnez	a0, .LBB9_49
.Ltmp97:
	.loc	12 34 10 is_stmt 1
	lw	a0, 28(s1)
.Ltmp98:
	.loc	12 0 10 is_stmt 0
	li	a1, -1
.Ltmp99:
	.loc	12 35 17 is_stmt 1
	beq	a0, a1, .LBB9_14
.Ltmp100:
	.loc	12 0 17 is_stmt 0
	li	a0, 0
.Ltmp101:
	j	.LBB9_15
.Ltmp102:
.LBB9_14:
	lw	a0, 24(s1)
.Ltmp103:
	snez	a0, a0
.Ltmp104:
.LBB9_15:
	.loc	12 35 9
	bnez	a0, .LBB9_49
.Ltmp105:
	.loc	12 34 10 is_stmt 1
	lw	a0, 36(s1)
.Ltmp106:
	.loc	12 0 10 is_stmt 0
	li	a1, -1
.Ltmp107:
	.loc	12 35 17 is_stmt 1
	beq	a0, a1, .LBB9_18
.Ltmp108:
	.loc	12 0 17 is_stmt 0
	li	a0, 0
.Ltmp109:
	j	.LBB9_19
.Ltmp110:
.LBB9_18:
	lw	a0, 32(s1)
.Ltmp111:
	snez	a0, a0
.Ltmp112:
.LBB9_19:
	.loc	12 35 9
	bnez	a0, .LBB9_49
.Ltmp113:
	.loc	12 34 10 is_stmt 1
	lw	a0, 44(s1)
.Ltmp114:
	.loc	12 0 10 is_stmt 0
	li	a1, -1
.Ltmp115:
	.loc	12 35 17 is_stmt 1
	beq	a0, a1, .LBB9_22
.Ltmp116:
	.loc	12 0 17 is_stmt 0
	li	a0, 0
.Ltmp117:
	j	.LBB9_23
.Ltmp118:
.LBB9_22:
	lw	a0, 40(s1)
.Ltmp119:
	snez	a0, a0
.Ltmp120:
.LBB9_23:
	.loc	12 35 9
	bnez	a0, .LBB9_49
.Ltmp121:
	.loc	12 34 10 is_stmt 1
	lw	a0, 52(s1)
.Ltmp122:
	.loc	12 0 10 is_stmt 0
	li	a1, -1
.Ltmp123:
	.loc	12 35 17 is_stmt 1
	beq	a0, a1, .LBB9_26
.Ltmp124:
	.loc	12 0 17 is_stmt 0
	li	a0, 0
.Ltmp125:
	j	.LBB9_27
.Ltmp126:
.LBB9_26:
	lw	a0, 48(s1)
.Ltmp127:
	snez	a0, a0
.Ltmp128:
.LBB9_27:
	.loc	12 35 9
	bnez	a0, .LBB9_49
.Ltmp129:
	.loc	12 34 10 is_stmt 1
	lw	a0, 60(s1)
.Ltmp130:
	.loc	12 0 10 is_stmt 0
	li	a1, -1
.Ltmp131:
	.loc	12 35 17 is_stmt 1
	beq	a0, a1, .LBB9_30
.Ltmp132:
	.loc	12 0 17 is_stmt 0
	li	a0, 0
.Ltmp133:
	j	.LBB9_31
.Ltmp134:
.LBB9_30:
	lw	a0, 56(s1)
.Ltmp135:
	snez	a0, a0
.Ltmp136:
.LBB9_31:
	.loc	12 35 9
	bnez	a0, .LBB9_49
.Ltmp137:
	.loc	12 34 10 is_stmt 1
	lw	a0, 68(s1)
.Ltmp138:
	.loc	12 0 10 is_stmt 0
	li	a1, -1
.Ltmp139:
	.loc	12 35 17 is_stmt 1
	beq	a0, a1, .LBB9_34
.Ltmp140:
	.loc	12 0 17 is_stmt 0
	li	a0, 0
.Ltmp141:
	j	.LBB9_35
.Ltmp142:
.LBB9_34:
	lw	a0, 64(s1)
.Ltmp143:
	snez	a0, a0
.Ltmp144:
.LBB9_35:
	.loc	12 35 9
	bnez	a0, .LBB9_49
.Ltmp145:
	.loc	12 34 10 is_stmt 1
	lw	a0, 76(s1)
.Ltmp146:
	.loc	12 0 10 is_stmt 0
	li	a1, -1
.Ltmp147:
	.loc	12 35 17 is_stmt 1
	beq	a0, a1, .LBB9_38
.Ltmp148:
	.loc	12 0 17 is_stmt 0
	li	a0, 0
.Ltmp149:
	j	.LBB9_39
.Ltmp150:
.LBB9_38:
	lw	a0, 72(s1)
.Ltmp151:
	snez	a0, a0
.Ltmp152:
.LBB9_39:
	.loc	12 35 9
	bnez	a0, .LBB9_49
.Ltmp153:
	.loc	12 34 10 is_stmt 1
	lw	a0, 84(s1)
.Ltmp154:
	.loc	12 0 10 is_stmt 0
	li	a1, -1
.Ltmp155:
	.loc	12 35 17 is_stmt 1
	beq	a0, a1, .LBB9_42
.Ltmp156:
	.loc	12 0 17 is_stmt 0
	li	a0, 0
.Ltmp157:
	j	.LBB9_43
.Ltmp158:
.LBB9_42:
	lw	a0, 80(s1)
.Ltmp159:
	snez	a0, a0
.Ltmp160:
.LBB9_43:
	.loc	12 35 9
	bnez	a0, .LBB9_49
.Ltmp161:
	.loc	12 34 10 is_stmt 1
	lw	a0, 92(s1)
.Ltmp162:
	.loc	12 0 10 is_stmt 0
	li	a1, -1
.Ltmp163:
	.loc	12 35 17 is_stmt 1
	beq	a0, a1, .LBB9_46
.Ltmp164:
	.loc	12 0 17 is_stmt 0
	addi	a0, a0, 1
.Ltmp165:
	snez	a0, a0
	j	.LBB9_47
.Ltmp166:
.LBB9_46:
	lw	a0, 88(s1)
.Ltmp167:
	seqz	a0, a0
.Ltmp168:
.LBB9_47:
	.loc	12 35 9
	beqz	a0, .LBB9_49
.Ltmp169:
	.loc	12 39 9 is_stmt 1
	mv	a0, s1
	call	poseidon_gl_coprocessor
	.loc	12 42 6
	lw	a0, 4(s1)
	lw	a1, 0(s1)
	.loc	12 42 15 is_stmt 0
	lw	a2, 12(s1)
	lw	a3, 8(s1)
	.loc	12 42 24
	lw	a4, 20(s1)
	lw	a5, 16(s1)
	.loc	12 42 33
	lw	s0, 28(s1)
	lw	s1, 24(s1)
.Ltmp170:
	.loc	12 42 5
	sw	a1, 0(s2)
	sw	a0, 4(s2)
	sw	a3, 8(s2)
	sw	a2, 12(s2)
	sw	a5, 16(s2)
	sw	a4, 20(s2)
	sw	s1, 24(s2)
	sw	s0, 28(s2)
	.loc	12 43 2 is_stmt 1
	lw	ra, 12(sp)
	lw	s0, 8(sp)
	lw	s1, 4(sp)
	lw	s2, 0(sp)
	addi	sp, sp, 16
	ret
.LBB9_49:
.Ltmp171:
	.loc	12 35 9
	lui	a0, %hi(.L__unnamed_4)
	addi	a0, a0, %lo(.L__unnamed_4)
	lui	a1, %hi(.L__unnamed_5)
	addi	a2, a1, %lo(.L__unnamed_5)
	li	a1, 32
	call	_ZN4core9panicking5panic17h83c2c4098b58b628E
	unimp	
.Ltmp172:
.Lfunc_end9:
	.size	_ZN7runtime12coprocessors11poseidon_gl17h7aa5e76802e6341dE, .Lfunc_end9-_ZN7runtime12coprocessors11poseidon_gl17h7aa5e76802e6341dE
	.cfi_endproc

	.section	.text._ZN7runtime12coprocessors18poseidon_gl_unsafe17ha5366bd69334d0b4E,"ax",@progbits
	.globl	_ZN7runtime12coprocessors18poseidon_gl_unsafe17ha5366bd69334d0b4E
	.p2align	1
	.type	_ZN7runtime12coprocessors18poseidon_gl_unsafe17ha5366bd69334d0b4E,@function
_ZN7runtime12coprocessors18poseidon_gl_unsafe17ha5366bd69334d0b4E:
.Lfunc_begin10:
	.loc	12 45 0
	.cfi_startproc
	addi	sp, sp, -16
	.cfi_def_cfa_offset 16
	sw	ra, 12(sp)
	sw	s0, 8(sp)
	sw	s1, 4(sp)
	.cfi_offset ra, -4
	.cfi_offset s0, -8
	.cfi_offset s1, -12
	mv	s0, a1
.Ltmp173:
	mv	s1, a0
.Ltmp174:
	.loc	12 47 9 prologue_end
	mv	a0, a1
	call	poseidon_gl_coprocessor
	.loc	12 50 6
	lw	a0, 4(s0)
	lw	a1, 0(s0)
	.loc	12 50 15 is_stmt 0
	lw	a2, 12(s0)
	lw	a3, 8(s0)
	.loc	12 50 24
	lw	a4, 20(s0)
	lw	a5, 16(s0)
	.loc	12 50 33
	lw	a6, 28(s0)
	lw	s0, 24(s0)
.Ltmp175:
	.loc	12 50 5
	sw	a1, 0(s1)
	sw	a0, 4(s1)
	sw	a3, 8(s1)
	sw	a2, 12(s1)
	sw	a5, 16(s1)
	sw	a4, 20(s1)
	sw	s0, 24(s1)
	sw	a6, 28(s1)
	.loc	12 51 2 is_stmt 1
	lw	ra, 12(sp)
	lw	s0, 8(sp)
	lw	s1, 4(sp)
	addi	sp, sp, 16
	ret
.Ltmp176:
.Lfunc_end10:
	.size	_ZN7runtime12coprocessors18poseidon_gl_unsafe17ha5366bd69334d0b4E, .Lfunc_end10-_ZN7runtime12coprocessors18poseidon_gl_unsafe17ha5366bd69334d0b4E
	.cfi_endproc

	.section	.text._ZN7runtime3fmt10print_args17hfaf9bfa954afda8fE,"ax",@progbits
	.globl	_ZN7runtime3fmt10print_args17hfaf9bfa954afda8fE
	.p2align	1
	.type	_ZN7runtime3fmt10print_args17hfaf9bfa954afda8fE,@function
_ZN7runtime3fmt10print_args17hfaf9bfa954afda8fE:
.Lfunc_begin11:
	.loc	7 11 0
	.cfi_startproc
	addi	sp, sp, -32
	.cfi_def_cfa_offset 32
.Ltmp177:
	.loc	7 12 38 prologue_end
	sw	ra, 28(sp)
	.cfi_offset ra, -4
	lw	a1, 20(a0)
	lw	a2, 16(a0)
	sw	a1, 20(sp)
	sw	a2, 16(sp)
	lw	a1, 12(a0)
	lw	a2, 8(a0)
	lw	a3, 4(a0)
	lw	a0, 0(a0)
.Ltmp178:
	sw	a1, 12(sp)
	sw	a2, 8(sp)
	sw	a3, 4(sp)
	sw	a0, 0(sp)
	.loc	7 12 5 is_stmt 0
	lui	a0, %hi(.L__unnamed_2)
	addi	a1, a0, %lo(.L__unnamed_2)
	addi	a0, sp, 24
	mv	a2, sp
	call	_ZN4core3fmt5write17h87a75934cc3b911aE
.Ltmp179:
	.file	15 "/Users/georg/.rustup/toolchains/nightly-2023-01-03-aarch64-apple-darwin/lib/rustlib/src/rust/library/core/src" "result.rs"
	.loc	15 1110 9 is_stmt 1
	bnez	a0, .LBB11_2
.Ltmp180:
	.loc	7 13 2
	lw	ra, 28(sp)
	addi	sp, sp, 32
	ret
.LBB11_2:
.Ltmp181:
	.loc	15 1112 23
	lui	a0, %hi(.L__unnamed_6)
.Ltmp182:
	addi	a0, a0, %lo(.L__unnamed_6)
	lui	a1, %hi(.L__unnamed_3)
	addi	a3, a1, %lo(.L__unnamed_3)
	lui	a1, %hi(.L__unnamed_7)
	addi	a4, a1, %lo(.L__unnamed_7)
	li	a1, 43
	addi	a2, sp, 24
	call	_ZN4core6result13unwrap_failed17h3809f1cd94940bfeE
	unimp	
.Ltmp183:
.Lfunc_end11:
	.size	_ZN7runtime3fmt10print_args17hfaf9bfa954afda8fE, .Lfunc_end11-_ZN7runtime3fmt10print_args17hfaf9bfa954afda8fE
	.cfi_endproc

	.section	".text._ZN63_$LT$runtime..fmt..ProverWriter$u20$as$u20$core..fmt..Write$GT$9write_str17h56ede652d1afdb54E","ax",@progbits
	.globl	_ZN63_$LT$runtime..fmt..ProverWriter$u20$as$u20$core..fmt..Write$GT$9write_str17h56ede652d1afdb54E
	.p2align	1
	.type	_ZN63_$LT$runtime..fmt..ProverWriter$u20$as$u20$core..fmt..Write$GT$9write_str17h56ede652d1afdb54E,@function
_ZN63_$LT$runtime..fmt..ProverWriter$u20$as$u20$core..fmt..Write$GT$9write_str17h56ede652d1afdb54E:
.Lfunc_begin12:
	.loc	7 18 0
	.cfi_startproc
	.cfi_def_cfa_offset 0
	.loc	8 146 24 prologue_end
	beqz	a2, .LBB12_2
.Ltmp184:
.LBB12_1:
	.loc	6 1804 19
	lbu	a0, 0(a1)
.Ltmp185:
	.loc	7 38 9
	#APP
	ebreak	
	#NO_APP
.Ltmp186:
	.loc	5 499 18
	addi	a1, a1, 1
.Ltmp187:
	.loc	8 146 24
	addi	a2, a2, -1
	bnez	a2, .LBB12_1
.Ltmp188:
.LBB12_2:
	.loc	7 21 6
	li	a0, 0
	ret
.Ltmp189:
.Lfunc_end12:
	.size	_ZN63_$LT$runtime..fmt..ProverWriter$u20$as$u20$core..fmt..Write$GT$9write_str17h56ede652d1afdb54E, .Lfunc_end12-_ZN63_$LT$runtime..fmt..ProverWriter$u20$as$u20$core..fmt..Write$GT$9write_str17h56ede652d1afdb54E
	.cfi_endproc

	.section	.text._ZN7runtime3fmt9print_str17h7aac055aed9a768cE,"ax",@progbits
	.globl	_ZN7runtime3fmt9print_str17h7aac055aed9a768cE
	.p2align	1
	.type	_ZN7runtime3fmt9print_str17h7aac055aed9a768cE,@function
_ZN7runtime3fmt9print_str17h7aac055aed9a768cE:
.Lfunc_begin13:
	.loc	7 24 0
	.cfi_startproc
	.cfi_def_cfa_offset 0
	.loc	8 146 24 prologue_end
	beqz	a1, .LBB13_3
.Ltmp190:
	.loc	8 0 24 is_stmt 0
	mv	a2, a0
.Ltmp191:
.LBB13_2:
	.loc	6 1804 19 is_stmt 1
	lbu	a0, 0(a2)
.Ltmp192:
	.loc	7 38 9
	#APP
	ebreak	
	#NO_APP
.Ltmp193:
	.loc	5 499 18
	addi	a2, a2, 1
.Ltmp194:
	.loc	8 146 24
	addi	a1, a1, -1
	bnez	a1, .LBB13_2
.Ltmp195:
.LBB13_3:
	.loc	7 31 2
	ret
.Ltmp196:
.Lfunc_end13:
	.size	_ZN7runtime3fmt9print_str17h7aac055aed9a768cE, .Lfunc_end13-_ZN7runtime3fmt9print_str17h7aac055aed9a768cE
	.cfi_endproc

	.section	.text.rust_begin_unwind,"ax",@progbits
	.globl	rust_begin_unwind
	.p2align	1
	.type	rust_begin_unwind,@function
rust_begin_unwind:
.Lfunc_begin14:
	.loc	1 19 0
	.cfi_startproc
	addi	sp, sp, -48
	.cfi_def_cfa_offset 48
.Ltmp197:
	.loc	1 22 9 prologue_end
	sw	ra, 44(sp)
	.cfi_offset ra, -4
	lui	a1, %hi(_ZN7runtime5panic12IS_PANICKING17h397fc45176bdf6a2E.0)
	lbu	a2, %lo(_ZN7runtime5panic12IS_PANICKING17h397fc45176bdf6a2E.0)(a1)
	sw	a0, 4(sp)
	.loc	1 22 8 is_stmt 0
	beqz	a2, .LBB14_2
.Ltmp198:
	.loc	7 38 9 is_stmt 1
	li	a0, 80
.Ltmp199:
	#APP
	ebreak	
	#NO_APP
.Ltmp200:
	li	a0, 97
	#APP
	ebreak	
	#NO_APP
.Ltmp201:
	li	a0, 110
	#APP
	ebreak	
	#NO_APP
.Ltmp202:
	li	a0, 105
	#APP
	ebreak	
	#NO_APP
.Ltmp203:
	li	a0, 99
	#APP
	ebreak	
	#NO_APP
.Ltmp204:
	li	a0, 32
	#APP
	ebreak	
	#NO_APP
.Ltmp205:
	li	a0, 104
	#APP
	ebreak	
	#NO_APP
.Ltmp206:
	li	a0, 97
	#APP
	ebreak	
	#NO_APP
.Ltmp207:
	li	a0, 110
	#APP
	ebreak	
	#NO_APP
.Ltmp208:
	li	a0, 100
	#APP
	ebreak	
	#NO_APP
.Ltmp209:
	li	a0, 108
	#APP
	ebreak	
	#NO_APP
.Ltmp210:
	li	a0, 101
	#APP
	ebreak	
	#NO_APP
.Ltmp211:
	li	a0, 114
	#APP
	ebreak	
	#NO_APP
.Ltmp212:
	li	a0, 32
	#APP
	ebreak	
	#NO_APP
.Ltmp213:
	li	a0, 104
	#APP
	ebreak	
	#NO_APP
.Ltmp214:
	li	a0, 97
	#APP
	ebreak	
	#NO_APP
.Ltmp215:
	li	a0, 115
	#APP
	ebreak	
	#NO_APP
.Ltmp216:
	li	a0, 32
	#APP
	ebreak	
	#NO_APP
.Ltmp217:
	li	a0, 112
	#APP
	ebreak	
	#NO_APP
.Ltmp218:
	li	a0, 97
	#APP
	ebreak	
	#NO_APP
.Ltmp219:
	li	a0, 110
	#APP
	ebreak	
	#NO_APP
.Ltmp220:
	li	a0, 105
	#APP
	ebreak	
	#NO_APP
.Ltmp221:
	li	a0, 99
	#APP
	ebreak	
	#NO_APP
.Ltmp222:
	li	a0, 107
	#APP
	ebreak	
	#NO_APP
.Ltmp223:
	li	a0, 101
	#APP
	ebreak	
	#NO_APP
.Ltmp224:
	li	a0, 100
	#APP
	ebreak	
	#NO_APP
.Ltmp225:
	li	a0, 33
	#APP
	ebreak	
	#NO_APP
.Ltmp226:
	li	a0, 32
	#APP
	ebreak	
	#NO_APP
.Ltmp227:
	li	a0, 84
	#APP
	ebreak	
	#NO_APP
.Ltmp228:
	li	a0, 104
	#APP
	ebreak	
	#NO_APP
.Ltmp229:
	li	a0, 105
	#APP
	ebreak	
	#NO_APP
.Ltmp230:
	li	a0, 110
	#APP
	ebreak	
	#NO_APP
.Ltmp231:
	li	a0, 103
	#APP
	ebreak	
	#NO_APP
.Ltmp232:
	li	a0, 115
	#APP
	ebreak	
	#NO_APP
.Ltmp233:
	li	a0, 32
	#APP
	ebreak	
	#NO_APP
.Ltmp234:
	li	a0, 97
	#APP
	ebreak	
	#NO_APP
.Ltmp235:
	li	a0, 114
	#APP
	ebreak	
	#NO_APP
.Ltmp236:
	li	a0, 101
	#APP
	ebreak	
	#NO_APP
.Ltmp237:
	li	a0, 32
	#APP
	ebreak	
	#NO_APP
.Ltmp238:
	li	a0, 118
	#APP
	ebreak	
	#NO_APP
.Ltmp239:
	li	a0, 101
	#APP
	ebreak	
	#NO_APP
.Ltmp240:
	li	a0, 114
	#APP
	ebreak	
	#NO_APP
.Ltmp241:
	li	a0, 121
	#APP
	ebreak	
	#NO_APP
.Ltmp242:
	li	a0, 32
	#APP
	ebreak	
	#NO_APP
.Ltmp243:
	li	a0, 100
	#APP
	ebreak	
	#NO_APP
.Ltmp244:
	li	a0, 105
	#APP
	ebreak	
	#NO_APP
.Ltmp245:
	li	a0, 114
	#APP
	ebreak	
	#NO_APP
.Ltmp246:
	li	a0, 101
	#APP
	ebreak	
	#NO_APP
.Ltmp247:
	li	a0, 32
	#APP
	ebreak	
	#NO_APP
.Ltmp248:
	li	a0, 105
	#APP
	ebreak	
	#NO_APP
.Ltmp249:
	li	a0, 110
	#APP
	ebreak	
	#NO_APP
.Ltmp250:
	li	a0, 100
	#APP
	ebreak	
	#NO_APP
.Ltmp251:
	li	a0, 101
	#APP
	ebreak	
	#NO_APP
	li	a0, 101
	#APP
	ebreak	
	#NO_APP
.Ltmp252:
	li	a0, 100
	#APP
	ebreak	
	#NO_APP
.Ltmp253:
	li	a0, 46
	#APP
	ebreak	
	#NO_APP
	li	a0, 46
	#APP
	ebreak	
	#NO_APP
	li	a0, 46
	#APP
	ebreak	
	#NO_APP
.Ltmp254:
	li	a0, 10
	#APP
	ebreak	
	#NO_APP
.Ltmp255:
	.loc	7 0 9 is_stmt 0
	j	.LBB14_3
.Ltmp256:
.LBB14_2:
	li	a0, 1
.Ltmp257:
	.loc	1 23 9 is_stmt 1
	sb	a0, %lo(_ZN7runtime5panic12IS_PANICKING17h397fc45176bdf6a2E.0)(a1)
	addi	a1, sp, 4
	.loc	1 25 9
	sw	a1, 8(sp)
	lui	a1, %hi(_ZN44_$LT$$RF$T$u20$as$u20$core..fmt..Display$GT$3fmt17ha66a21a5de81b0beE)
	addi	a1, a1, %lo(_ZN44_$LT$$RF$T$u20$as$u20$core..fmt..Display$GT$3fmt17ha66a21a5de81b0beE)
	sw	a1, 12(sp)
.Ltmp258:
	.loc	7 12 38
	sw	zero, 16(sp)
	lui	a1, %hi(.L__unnamed_8)
	addi	a1, a1, %lo(.L__unnamed_8)
.Ltmp259:
	sw	a1, 24(sp)
	li	a1, 2
.Ltmp260:
	sw	a1, 28(sp)
	addi	a1, sp, 8
	sw	a1, 32(sp)
	sw	a0, 36(sp)
	.loc	7 12 5 is_stmt 0
	lui	a0, %hi(.L__unnamed_2)
	addi	a1, a0, %lo(.L__unnamed_2)
	addi	a0, sp, 40
	addi	a2, sp, 16
	call	_ZN4core3fmt5write17h87a75934cc3b911aE
.Ltmp261:
	.loc	15 1110 9 is_stmt 1
	bnez	a0, .LBB14_5
.Ltmp262:
.LBB14_3:
	.loc	1 30 5
	#APP
	unimp	
	#NO_APP
.LBB14_4:
	.loc	1 31 5
	j	.LBB14_4
.LBB14_5:
.Ltmp263:
	.loc	15 1112 23
	lui	a0, %hi(.L__unnamed_6)
	addi	a0, a0, %lo(.L__unnamed_6)
	lui	a1, %hi(.L__unnamed_3)
	addi	a3, a1, %lo(.L__unnamed_3)
	lui	a1, %hi(.L__unnamed_7)
	addi	a4, a1, %lo(.L__unnamed_7)
	li	a1, 43
	addi	a2, sp, 40
	call	_ZN4core6result13unwrap_failed17h3809f1cd94940bfeE
	unimp	
.Ltmp264:
.Lfunc_end14:
	.size	rust_begin_unwind, .Lfunc_end14-rust_begin_unwind
	.cfi_endproc

	.section	.text.__runtime_start,"ax",@progbits
	.globl	__runtime_start
	.p2align	1
	.type	__runtime_start,@function
__runtime_start:
.Lfunc_begin15:
	.loc	1 48 0
	.cfi_startproc
	.loc	1 50 9 prologue_end
	tail	main
.Ltmp265:
.Lfunc_end15:
	.size	__runtime_start, .Lfunc_end15-__runtime_start
	.cfi_endproc

	.section	.text.__rg_alloc,"ax",@progbits
	.globl	__rg_alloc
	.p2align	1
	.type	__rg_alloc,@function
__rg_alloc:
.Lfunc_begin16:
	.loc	2 63 0
	.cfi_startproc
	.file	16 "/Users/georg/.rustup/toolchains/nightly-2023-01-03-aarch64-apple-darwin/lib/rustlib/src/rust/library/core/src" "cell.rs"
	.loc	16 452 18 prologue_end
	lui	a2, %hi(_ZN7runtime9allocator6GLOBAL17h2d92c41169adc018E)
	lw	a3, %lo(_ZN7runtime9allocator6GLOBAL17h2d92c41169adc018E)(a2)
	addi	a4, a2, %lo(_ZN7runtime9allocator6GLOBAL17h2d92c41169adc018E)
.Ltmp266:
	.loc	2 41 28
	addi	a4, a4, 4
.Ltmp267:
	add	a5, a4, a1
	add	a3, a3, a5
	.loc	2 41 27 is_stmt 0
	addi	a3, a3, -1
.Ltmp268:
	.loc	2 41 61
	neg	a1, a1
.Ltmp269:
	.loc	2 41 27
	and	a1, a1, a3
.Ltmp270:
	.loc	2 44 37 is_stmt 1
	sub	a0, a0, a4
.Ltmp271:
	.loc	2 47 34
	add	a3, a1, a0
	lui	a4, 262144
	li	a0, 0
.Ltmp272:
	.loc	2 49 12
	bltu	a4, a3, .LBB16_2
.Ltmp273:
	.loc	11 1354 9
	sw	a3, %lo(_ZN7runtime9allocator6GLOBAL17h2d92c41169adc018E)(a2)
.Ltmp274:
	.loc	11 0 9 is_stmt 0
	mv	a0, a1
.Ltmp275:
.LBB16_2:
	.loc	2 63 95 is_stmt 1
	ret
.Ltmp276:
.Lfunc_end16:
	.size	__rg_alloc, .Lfunc_end16-__rg_alloc
	.cfi_endproc
	.file	17 "/Users/georg/.rustup/toolchains/nightly-2023-01-03-aarch64-apple-darwin/lib/rustlib/src/rust/library/core/src/mem" "mod.rs"

	.section	.text.__rg_dealloc,"ax",@progbits
	.globl	__rg_dealloc
	.p2align	1
	.type	__rg_dealloc,@function
__rg_dealloc:
.Lfunc_begin17:
	.loc	2 63 0
	.cfi_startproc
	.loc	2 63 95 prologue_end
	ret
.Ltmp277:
.Lfunc_end17:
	.size	__rg_dealloc, .Lfunc_end17-__rg_dealloc
	.cfi_endproc

	.section	.text.__rg_realloc,"ax",@progbits
	.globl	__rg_realloc
	.p2align	1
	.type	__rg_realloc,@function
__rg_realloc:
.Lfunc_begin18:
	.loc	2 63 0
	.cfi_startproc
	addi	sp, sp, -16
	.cfi_def_cfa_offset 16
.Ltmp278:
	.file	18 "/Users/georg/.rustup/toolchains/nightly-2023-01-03-aarch64-apple-darwin/lib/rustlib/src/rust/library/core/src/alloc" "global.rs"
	.loc	18 0 0 is_stmt 0
	sw	ra, 12(sp)
	sw	s0, 8(sp)
	.cfi_offset ra, -4
	.cfi_offset s0, -8
.Ltmp279:
	.loc	16 452 18 prologue_end is_stmt 1
	lui	a6, %hi(_ZN7runtime9allocator6GLOBAL17h2d92c41169adc018E)
	lw	a5, %lo(_ZN7runtime9allocator6GLOBAL17h2d92c41169adc018E)(a6)
	addi	s0, a6, %lo(_ZN7runtime9allocator6GLOBAL17h2d92c41169adc018E)
.Ltmp280:
	.loc	2 41 28
	addi	a4, s0, 4
	add	s0, a4, a2
.Ltmp281:
	add	a5, a5, s0
	.loc	2 41 27 is_stmt 0
	addi	a5, a5, -1
.Ltmp282:
	.loc	2 41 61
	neg	a2, a2
.Ltmp283:
	.loc	2 41 27
	and	s0, a5, a2
.Ltmp284:
	.loc	2 44 37 is_stmt 1
	sub	a2, a3, a4
.Ltmp285:
	.loc	2 47 34
	add	a5, s0, a2
	lui	a4, 262144
	mv	a2, a1
.Ltmp286:
	.loc	2 0 34 is_stmt 0
	mv	a1, a0
.Ltmp287:
	li	a0, 0
.Ltmp288:
	.loc	2 49 12 is_stmt 1
	bltu	a4, a5, .LBB18_5
.Ltmp289:
	.loc	11 1354 9
	sw	a5, %lo(_ZN7runtime9allocator6GLOBAL17h2d92c41169adc018E)(a6)
.Ltmp290:
	.loc	18 267 12
	beqz	s0, .LBB18_6
.Ltmp291:
	.file	19 "/Users/georg/.rustup/toolchains/nightly-2023-01-03-aarch64-apple-darwin/lib/rustlib/src/rust/library/core/src" "cmp.rs"
	.loc	19 0 0 is_stmt 0
	bltu	a2, a3, .LBB18_4
.Ltmp292:
	mv	a2, a3
.Ltmp293:
.LBB18_4:
	.file	20 "/Users/georg/.rustup/toolchains/nightly-2023-01-03-aarch64-apple-darwin/lib/rustlib/src/rust/library/core/src" "intrinsics.rs"
	.loc	20 2372 9 is_stmt 1
	mv	a0, s0
	call	memcpy@plt
.Ltmp294:
	.loc	20 0 9 is_stmt 0
	mv	a0, s0
.Ltmp295:
.LBB18_5:
	.loc	2 63 95 is_stmt 1
	lw	ra, 12(sp)
	lw	s0, 8(sp)
	addi	sp, sp, 16
	ret
.LBB18_6:
.Ltmp296:
	.loc	2 0 95 is_stmt 0
	li	a0, 0
	.loc	2 63 95
	lw	ra, 12(sp)
	lw	s0, 8(sp)
	addi	sp, sp, 16
	ret
.Ltmp297:
.Lfunc_end18:
	.size	__rg_realloc, .Lfunc_end18-__rg_realloc
	.cfi_endproc

	.section	.text.__rg_alloc_zeroed,"ax",@progbits
	.globl	__rg_alloc_zeroed
	.p2align	1
	.type	__rg_alloc_zeroed,@function
__rg_alloc_zeroed:
.Lfunc_begin19:
	.loc	2 63 0 is_stmt 1
	.cfi_startproc
	.loc	16 452 18 prologue_end
	lui	a2, %hi(_ZN7runtime9allocator6GLOBAL17h2d92c41169adc018E)
	lw	a3, %lo(_ZN7runtime9allocator6GLOBAL17h2d92c41169adc018E)(a2)
	addi	a4, a2, %lo(_ZN7runtime9allocator6GLOBAL17h2d92c41169adc018E)
.Ltmp298:
	.loc	2 41 28
	addi	a4, a4, 4
.Ltmp299:
	add	a5, a4, a1
	add	a3, a3, a5
	.loc	2 41 27 is_stmt 0
	addi	a3, a3, -1
.Ltmp300:
	.loc	2 41 61
	neg	a1, a1
.Ltmp301:
	.loc	2 41 27
	and	a1, a1, a3
.Ltmp302:
	.loc	2 44 37 is_stmt 1
	sub	a0, a0, a4
.Ltmp303:
	.loc	2 47 34
	add	a3, a1, a0
	lui	a4, 262144
	li	a0, 0
.Ltmp304:
	.loc	2 49 12
	bltu	a4, a3, .LBB19_2
.Ltmp305:
	.loc	11 1354 9
	sw	a3, %lo(_ZN7runtime9allocator6GLOBAL17h2d92c41169adc018E)(a2)
.Ltmp306:
	.loc	11 0 9 is_stmt 0
	mv	a0, a1
.Ltmp307:
.LBB19_2:
	.loc	2 63 95 is_stmt 1
	ret
.Ltmp308:
.Lfunc_end19:
	.size	__rg_alloc_zeroed, .Lfunc_end19-__rg_alloc_zeroed
	.cfi_endproc

	.section	.text._ZN7runtime9allocator11alloc_error17hbc749fffa2ad4e7eE,"ax",@progbits
	.p2align	1
	.type	_ZN7runtime9allocator11alloc_error17hbc749fffa2ad4e7eE,@function
_ZN7runtime9allocator11alloc_error17hbc749fffa2ad4e7eE:
.Lfunc_begin20:
	.loc	2 66 0
	.cfi_startproc
	addi	sp, sp, -48
	.cfi_def_cfa_offset 48
.Ltmp309:
	.file	21 "/Users/georg/.rustup/toolchains/nightly-2023-01-03-aarch64-apple-darwin/lib/rustlib/src/rust/library/core/src/alloc" "layout.rs"
	.loc	21 129 9 prologue_end
	sw	a0, 40(sp)
.Ltmp310:
	.file	22 "/Users/georg/.rustup/toolchains/nightly-2023-01-03-aarch64-apple-darwin/lib/rustlib/src/rust/library/core/src/ptr" "alignment.rs"
	.loc	22 97 9
	sw	a1, 44(sp)
	addi	a0, sp, 40
.Ltmp311:
	.loc	2 67 5
	sw	a0, 24(sp)
	lui	a0, %hi(_ZN4core3fmt3num3imp54_$LT$impl$u20$core..fmt..Display$u20$for$u20$usize$GT$3fmt17hf88330a667d69cb1E)
	addi	a0, a0, %lo(_ZN4core3fmt3num3imp54_$LT$impl$u20$core..fmt..Display$u20$for$u20$usize$GT$3fmt17hf88330a667d69cb1E)
	sw	a0, 28(sp)
	addi	a1, sp, 44
.Ltmp312:
	sw	a1, 32(sp)
	sw	a0, 36(sp)
.Ltmp313:
	.loc	3 398 9
	lui	a0, %hi(.L__unnamed_9)
	addi	a0, a0, %lo(.L__unnamed_9)
.Ltmp314:
	sw	a0, 8(sp)
	li	a0, 3
.Ltmp315:
	sw	a0, 12(sp)
	sw	zero, 0(sp)
	addi	a0, sp, 24
	sw	a0, 16(sp)
	li	a0, 2
	sw	a0, 20(sp)
.Ltmp316:
	.loc	2 67 5
	lui	a0, %hi(.L__unnamed_10)
	addi	a1, a0, %lo(.L__unnamed_10)
	mv	a0, sp
	call	_ZN4core9panicking9panic_fmt17h38a84a0a59f0bde7E
	unimp	
.Ltmp317:
.Lfunc_end20:
	.size	_ZN7runtime9allocator11alloc_error17hbc749fffa2ad4e7eE, .Lfunc_end20-_ZN7runtime9allocator11alloc_error17hbc749fffa2ad4e7eE
	.cfi_endproc

	.section	.text.__rg_oom,"ax",@progbits
	.globl	__rg_oom
	.p2align	1
	.type	__rg_oom,@function
__rg_oom:
.Lfunc_begin21:
	.loc	2 66 0
	.cfi_startproc
	.cfi_def_cfa_offset 0
	.loc	2 66 1 prologue_end
	call	_ZN7runtime9allocator11alloc_error17hbc749fffa2ad4e7eE
.Ltmp318:
	unimp	
.Ltmp319:
.Lfunc_end21:
	.size	__rg_oom, .Lfunc_end21-__rg_oom
	.cfi_endproc

	.type	.L__unnamed_1,@object
	.section	.rodata..L__unnamed_1,"a",@progbits
	.p2align	2
.L__unnamed_1:
	.word	_ZN4core3ptr37drop_in_place$LT$core..fmt..Error$GT$17hac39e9c214b967d0E
	.asciz	"\004\000\000\000\004\000\000"
	.word	_ZN50_$LT$$RF$mut$u20$W$u20$as$u20$core..fmt..Write$GT$9write_str17h87da48f65744beb5E
	.word	_ZN50_$LT$$RF$mut$u20$W$u20$as$u20$core..fmt..Write$GT$10write_char17hbac5473a26c1dbe9E
	.word	_ZN50_$LT$$RF$mut$u20$W$u20$as$u20$core..fmt..Write$GT$9write_fmt17h9360d1a9672f9147E
	.size	.L__unnamed_1, 24

	.type	.L__unnamed_11,@object
	.section	.rodata..L__unnamed_11,"a",@progbits
	.p2align	2
.L__unnamed_11:
	.size	.L__unnamed_11, 0

	.type	.L__unnamed_4,@object
	.section	.rodata.cst32,"aM",@progbits,32
.L__unnamed_4:
	.ascii	"assertion failed: n < GOLDILOCKS"
	.size	.L__unnamed_4, 32

	.type	.L__unnamed_12,@object
	.section	.rodata..L__unnamed_12,"a",@progbits
.L__unnamed_12:
	.ascii	"runtime/src/coprocessors.rs"
	.size	.L__unnamed_12, 27

	.type	.L__unnamed_5,@object
	.section	.rodata..L__unnamed_5,"a",@progbits
	.p2align	2
.L__unnamed_5:
	.word	.L__unnamed_12
	.asciz	"\033\000\000\000#\000\000\000\t\000\000"
	.size	.L__unnamed_5, 16

	.type	.L__unnamed_2,@object
	.section	.rodata..L__unnamed_2,"a",@progbits
	.p2align	2
.L__unnamed_2:
	.word	_ZN4core3ptr37drop_in_place$LT$core..fmt..Error$GT$17hac39e9c214b967d0E
	.asciz	"\000\000\000\000\001\000\000"
	.word	_ZN63_$LT$runtime..fmt..ProverWriter$u20$as$u20$core..fmt..Write$GT$9write_str17h56ede652d1afdb54E
	.word	_ZN4core3fmt5Write10write_char17hcb7f8f8c82f6d9bfE
	.word	_ZN4core3fmt5Write9write_fmt17he9cd6fc9cbb882bfE
	.size	.L__unnamed_2, 24

	.type	.L__unnamed_6,@object
	.section	.rodata..L__unnamed_6,"a",@progbits
.L__unnamed_6:
	.ascii	"called `Result::unwrap()` on an `Err` value"
	.size	.L__unnamed_6, 43

	.type	.L__unnamed_3,@object
	.section	.rodata..L__unnamed_3,"a",@progbits
	.p2align	2
.L__unnamed_3:
	.word	_ZN4core3ptr37drop_in_place$LT$core..fmt..Error$GT$17hac39e9c214b967d0E
	.asciz	"\000\000\000\000\001\000\000"
	.word	_ZN53_$LT$core..fmt..Error$u20$as$u20$core..fmt..Debug$GT$3fmt17h8ce97bea8e305373E
	.size	.L__unnamed_3, 16

	.type	.L__unnamed_13,@object
	.section	.rodata..L__unnamed_13,"a",@progbits
.L__unnamed_13:
	.ascii	"runtime/src/fmt.rs"
	.size	.L__unnamed_13, 18

	.type	.L__unnamed_7,@object
	.section	.rodata..L__unnamed_7,"a",@progbits
	.p2align	2
.L__unnamed_7:
	.word	.L__unnamed_13
	.asciz	"\022\000\000\000\f\000\000\000,\000\000"
	.size	.L__unnamed_7, 16

	.type	.L__unnamed_14,@object
	.section	.rodata..L__unnamed_14,"a",@progbits
.L__unnamed_14:
	.byte	10
	.size	.L__unnamed_14, 1

	.type	.L__unnamed_8,@object
	.section	.rodata..L__unnamed_8,"a",@progbits
	.p2align	2
.L__unnamed_8:
	.word	.L__unnamed_11
	.zero	4
	.word	.L__unnamed_14
	.asciz	"\001\000\000"
	.size	.L__unnamed_8, 16

	.type	_ZN7runtime5panic12IS_PANICKING17h397fc45176bdf6a2E.0,@object
	.section	.sbss,"aw",@nobits
_ZN7runtime5panic12IS_PANICKING17h397fc45176bdf6a2E.0:
	.byte	0
	.size	_ZN7runtime5panic12IS_PANICKING17h397fc45176bdf6a2E.0, 1

	.type	_ZN7runtime9allocator6GLOBAL17h2d92c41169adc018E,@object
	.section	.bss._ZN7runtime9allocator6GLOBAL17h2d92c41169adc018E,"aw",@nobits
	.p2align	2
_ZN7runtime9allocator6GLOBAL17h2d92c41169adc018E:
	.zero	1073741828
	.size	_ZN7runtime9allocator6GLOBAL17h2d92c41169adc018E, 1073741828

	.type	.L__unnamed_15,@object
	.section	.rodata..L__unnamed_15,"a",@progbits
.L__unnamed_15:
	.ascii	"memory allocation of "
	.size	.L__unnamed_15, 21

	.type	.L__unnamed_16,@object
	.section	.rodata..L__unnamed_16,"a",@progbits
.L__unnamed_16:
	.ascii	" bytes with alignment "
	.size	.L__unnamed_16, 22

	.type	.L__unnamed_17,@object
	.section	.rodata..L__unnamed_17,"a",@progbits
.L__unnamed_17:
	.ascii	" failed"
	.size	.L__unnamed_17, 7

	.type	.L__unnamed_9,@object
	.section	.rodata..L__unnamed_9,"a",@progbits
	.p2align	2
.L__unnamed_9:
	.word	.L__unnamed_15
	.asciz	"\025\000\000"
	.word	.L__unnamed_16
	.asciz	"\026\000\000"
	.word	.L__unnamed_17
	.asciz	"\007\000\000"
	.size	.L__unnamed_9, 24

	.type	.L__unnamed_18,@object
	.section	.rodata..L__unnamed_18,"a",@progbits
.L__unnamed_18:
	.ascii	"runtime/src/allocator.rs"
	.size	.L__unnamed_18, 24

	.type	.L__unnamed_10,@object
	.section	.rodata..L__unnamed_10,"a",@progbits
	.p2align	2
.L__unnamed_10:
	.word	.L__unnamed_18
	.asciz	"\030\000\000\000C\000\000\000\005\000\000"
	.size	.L__unnamed_10, 16

	.section	.rodata..L__unnamed_1,"a",@progbits
.Lsec_end0:
	.section	.rodata..L__unnamed_2,"a",@progbits
.Lsec_end1:
	.section	.rodata..L__unnamed_3,"a",@progbits
.Lsec_end2:
	.section	.sbss,"aw",@nobits
.Lsec_end3:
	.section	.bss._ZN7runtime9allocator6GLOBAL17h2d92c41169adc018E,"aw",@nobits
.Lsec_end4:
	.section	".text._ZN44_$LT$$RF$T$u20$as$u20$core..fmt..Display$GT$3fmt17ha66a21a5de81b0beE","ax",@progbits
.Lsec_end5:
	.section	.text._ZN4core3fmt5Write10write_char17hcb7f8f8c82f6d9bfE,"ax",@progbits
.Lsec_end6:
	.section	.text._ZN4core3fmt5Write9write_fmt17he9cd6fc9cbb882bfE,"ax",@progbits
.Lsec_end7:
	.section	".text._ZN4core3ptr37drop_in_place$LT$core..fmt..Error$GT$17hac39e9c214b967d0E","ax",@progbits
.Lsec_end8:
	.section	".text._ZN50_$LT$$RF$mut$u20$W$u20$as$u20$core..fmt..Write$GT$10write_char17hbac5473a26c1dbe9E","ax",@progbits
.Lsec_end9:
	.section	".text._ZN50_$LT$$RF$mut$u20$W$u20$as$u20$core..fmt..Write$GT$9write_fmt17h9360d1a9672f9147E","ax",@progbits
.Lsec_end10:
	.section	".text._ZN50_$LT$$RF$mut$u20$W$u20$as$u20$core..fmt..Write$GT$9write_str17h87da48f65744beb5E","ax",@progbits
.Lsec_end11:
	.section	.text._ZN7runtime12coprocessors8get_data17h9dba48eeb8d554b0E,"ax",@progbits
.Lsec_end12:
	.section	.text._ZN7runtime12coprocessors12get_data_len17he34a5cd59f21e625E,"ax",@progbits
.Lsec_end13:
	.section	.text._ZN7runtime12coprocessors11poseidon_gl17h7aa5e76802e6341dE,"ax",@progbits
.Lsec_end14:
	.section	.text._ZN7runtime12coprocessors18poseidon_gl_unsafe17ha5366bd69334d0b4E,"ax",@progbits
.Lsec_end15:
	.section	.text._ZN7runtime3fmt10print_args17hfaf9bfa954afda8fE,"ax",@progbits
.Lsec_end16:
	.section	".text._ZN63_$LT$runtime..fmt..ProverWriter$u20$as$u20$core..fmt..Write$GT$9write_str17h56ede652d1afdb54E","ax",@progbits
.Lsec_end17:
	.section	.text._ZN7runtime3fmt9print_str17h7aac055aed9a768cE,"ax",@progbits
.Lsec_end18:
	.section	.text.rust_begin_unwind,"ax",@progbits
.Lsec_end19:
	.section	.text.__runtime_start,"ax",@progbits
.Lsec_end20:
	.section	.text.__rg_alloc,"ax",@progbits
.Lsec_end21:
	.section	.text.__rg_dealloc,"ax",@progbits
.Lsec_end22:
	.section	.text.__rg_realloc,"ax",@progbits
.Lsec_end23:
	.section	.text.__rg_alloc_zeroed,"ax",@progbits
.Lsec_end24:
	.section	.text._ZN7runtime9allocator11alloc_error17hbc749fffa2ad4e7eE,"ax",@progbits
.Lsec_end25:
	.section	.text.__rg_oom,"ax",@progbits
.Lsec_end26:
	.section	".note.GNU-stack","",@progbits