	.text
	.attribute	4, 16
	.attribute	5, "rv32i2p0_m2p0_a2p0_c2p0"
	.file	"alloc.734a7617-cgu.0"
	.section	".text._ZN42_$LT$$RF$T$u20$as$u20$core..fmt..Debug$GT$3fmt17h09cef89096c19262E","ax",@progbits
	.p2align	1
	.type	_ZN42_$LT$$RF$T$u20$as$u20$core..fmt..Debug$GT$3fmt17h09cef89096c19262E,@function
_ZN42_$LT$$RF$T$u20$as$u20$core..fmt..Debug$GT$3fmt17h09cef89096c19262E:
.Lfunc_begin0:
	.file	1 "/Users/georg/.rustup/toolchains/nightly-2023-01-03-aarch64-apple-darwin/lib/rustlib/src/rust/library/core/src/fmt" "mod.rs"
	.loc	1 2372 0
	.cfi_sections .debug_frame
	.cfi_startproc
	.loc	1 2606 9 prologue_end
	lui	a0, %hi(.L__unnamed_16)
.Ltmp0:
	addi	a3, a0, %lo(.L__unnamed_16)
	li	a2, 2
	mv	a0, a1
.Ltmp1:
	mv	a1, a3
	tail	_ZN4core3fmt9Formatter3pad17h10049b44c877e9aaE
.Ltmp2:
.Lfunc_end0:
	.size	_ZN42_$LT$$RF$T$u20$as$u20$core..fmt..Debug$GT$3fmt17h09cef89096c19262E, .Lfunc_end0-_ZN42_$LT$$RF$T$u20$as$u20$core..fmt..Debug$GT$3fmt17h09cef89096c19262E
	.cfi_endproc

	.section	".text._ZN42_$LT$$RF$T$u20$as$u20$core..fmt..Debug$GT$3fmt17h16c45db378635d7aE","ax",@progbits
	.p2align	1
	.type	_ZN42_$LT$$RF$T$u20$as$u20$core..fmt..Debug$GT$3fmt17h16c45db378635d7aE,@function
_ZN42_$LT$$RF$T$u20$as$u20$core..fmt..Debug$GT$3fmt17h16c45db378635d7aE:
.Lfunc_begin1:
	.loc	1 2372 0
	.cfi_startproc
	.loc	1 2372 71 prologue_end
	lw	a0, 0(a0)
.Ltmp3:
	.loc	1 2372 62 is_stmt 0
	tail	_ZN64_$LT$core..str..error..Utf8Error$u20$as$u20$core..fmt..Debug$GT$3fmt17h8c7aebc3d8fe9605E
.Ltmp4:
.Lfunc_end1:
	.size	_ZN42_$LT$$RF$T$u20$as$u20$core..fmt..Debug$GT$3fmt17h16c45db378635d7aE, .Lfunc_end1-_ZN42_$LT$$RF$T$u20$as$u20$core..fmt..Debug$GT$3fmt17h16c45db378635d7aE
	.cfi_endproc

	.section	".text._ZN42_$LT$$RF$T$u20$as$u20$core..fmt..Debug$GT$3fmt17h284c62f337751c04E","ax",@progbits
	.p2align	1
	.type	_ZN42_$LT$$RF$T$u20$as$u20$core..fmt..Debug$GT$3fmt17h284c62f337751c04E,@function
_ZN42_$LT$$RF$T$u20$as$u20$core..fmt..Debug$GT$3fmt17h284c62f337751c04E:
.Lfunc_begin2:
	.loc	1 2372 0 is_stmt 1
	.cfi_startproc
	addi	sp, sp, -16
	.cfi_def_cfa_offset 16
.Ltmp5:
	.loc	1 2372 71 prologue_end
	sw	ra, 12(sp)
	sw	s0, 8(sp)
	sw	s1, 4(sp)
	.cfi_offset ra, -4
	.cfi_offset s0, -8
	.cfi_offset s1, -12
	lw	s1, 0(a0)
.Ltmp6:
	.loc	1 0 71 is_stmt 0
	mv	s0, a1
.Ltmp7:
	.file	2 "/Users/georg/.rustup/toolchains/nightly-2023-01-03-aarch64-apple-darwin/lib/rustlib/src/rust/library/core/src/fmt" "num.rs"
	.loc	2 186 20 is_stmt 1
	mv	a0, a1
.Ltmp8:
	call	_ZN4core3fmt9Formatter15debug_lower_hex17h04526c2b9c99d3d4E
	beqz	a0, .LBB2_2
.Ltmp9:
	.loc	2 187 21
	mv	a0, s1
	mv	a1, s0
	lw	ra, 12(sp)
	lw	s0, 8(sp)
.Ltmp10:
	lw	s1, 4(sp)
.Ltmp11:
	addi	sp, sp, 16
	tail	_ZN4core3fmt3num55_$LT$impl$u20$core..fmt..LowerHex$u20$for$u20$usize$GT$3fmt17h1ff60382f65a84d6E
.LBB2_2:
.Ltmp12:
	.loc	2 188 27
	mv	a0, s0
	call	_ZN4core3fmt9Formatter15debug_upper_hex17hb53be40bf6a8bf55E
	beqz	a0, .LBB2_4
.Ltmp13:
	.loc	2 189 21
	mv	a0, s1
	mv	a1, s0
	lw	ra, 12(sp)
	lw	s0, 8(sp)
.Ltmp14:
	lw	s1, 4(sp)
.Ltmp15:
	addi	sp, sp, 16
	tail	_ZN4core3fmt3num55_$LT$impl$u20$core..fmt..UpperHex$u20$for$u20$usize$GT$3fmt17hf436a150bb0743dfE
.LBB2_4:
.Ltmp16:
	.loc	2 191 21
	mv	a0, s1
	mv	a1, s0
	lw	ra, 12(sp)
	lw	s0, 8(sp)
.Ltmp17:
	lw	s1, 4(sp)
.Ltmp18:
	addi	sp, sp, 16
	tail	_ZN4core3fmt3num3imp54_$LT$impl$u20$core..fmt..Display$u20$for$u20$usize$GT$3fmt17hf88330a667d69cb1E
.Ltmp19:
.Lfunc_end2:
	.size	_ZN42_$LT$$RF$T$u20$as$u20$core..fmt..Debug$GT$3fmt17h284c62f337751c04E, .Lfunc_end2-_ZN42_$LT$$RF$T$u20$as$u20$core..fmt..Debug$GT$3fmt17h284c62f337751c04E
	.cfi_endproc

	.section	".text._ZN42_$LT$$RF$T$u20$as$u20$core..fmt..Debug$GT$3fmt17h3d836f658e7cd17bE","ax",@progbits
	.p2align	1
	.type	_ZN42_$LT$$RF$T$u20$as$u20$core..fmt..Debug$GT$3fmt17h3d836f658e7cd17bE,@function
_ZN42_$LT$$RF$T$u20$as$u20$core..fmt..Debug$GT$3fmt17h3d836f658e7cd17bE:
.Lfunc_begin3:
	.loc	1 2372 0
	.cfi_startproc
	addi	sp, sp, -16
	.cfi_def_cfa_offset 16
.Ltmp20:
	.loc	1 2372 71 prologue_end
	sw	ra, 12(sp)
	sw	s0, 8(sp)
	sw	s1, 4(sp)
	.cfi_offset ra, -4
	.cfi_offset s0, -8
	.cfi_offset s1, -12
	lw	s1, 0(a0)
.Ltmp21:
	.loc	1 0 71 is_stmt 0
	mv	s0, a1
.Ltmp22:
	.loc	2 186 20 is_stmt 1
	mv	a0, a1
.Ltmp23:
	call	_ZN4core3fmt9Formatter15debug_lower_hex17h04526c2b9c99d3d4E
	beqz	a0, .LBB3_2
.Ltmp24:
	.loc	2 187 21
	mv	a0, s1
	mv	a1, s0
	lw	ra, 12(sp)
	lw	s0, 8(sp)
.Ltmp25:
	lw	s1, 4(sp)
.Ltmp26:
	addi	sp, sp, 16
	tail	_ZN4core3fmt3num52_$LT$impl$u20$core..fmt..LowerHex$u20$for$u20$u8$GT$3fmt17hc9e2df206f18e6dcE
.LBB3_2:
.Ltmp27:
	.loc	2 188 27
	mv	a0, s0
	call	_ZN4core3fmt9Formatter15debug_upper_hex17hb53be40bf6a8bf55E
	beqz	a0, .LBB3_4
.Ltmp28:
	.loc	2 189 21
	mv	a0, s1
	mv	a1, s0
	lw	ra, 12(sp)
	lw	s0, 8(sp)
.Ltmp29:
	lw	s1, 4(sp)
.Ltmp30:
	addi	sp, sp, 16
	tail	_ZN4core3fmt3num52_$LT$impl$u20$core..fmt..UpperHex$u20$for$u20$u8$GT$3fmt17hfee34f01f7cb49a8E
.LBB3_4:
.Ltmp31:
	.loc	2 191 21
	mv	a0, s1
	mv	a1, s0
	lw	ra, 12(sp)
	lw	s0, 8(sp)
.Ltmp32:
	lw	s1, 4(sp)
.Ltmp33:
	addi	sp, sp, 16
	tail	_ZN4core3fmt3num3imp51_$LT$impl$u20$core..fmt..Display$u20$for$u20$u8$GT$3fmt17hdba8d61254bf568dE
.Ltmp34:
.Lfunc_end3:
	.size	_ZN42_$LT$$RF$T$u20$as$u20$core..fmt..Debug$GT$3fmt17h3d836f658e7cd17bE, .Lfunc_end3-_ZN42_$LT$$RF$T$u20$as$u20$core..fmt..Debug$GT$3fmt17h3d836f658e7cd17bE
	.cfi_endproc

	.section	".text._ZN42_$LT$$RF$T$u20$as$u20$core..fmt..Debug$GT$3fmt17h67a57bdb935bf8b9E","ax",@progbits
	.p2align	1
	.type	_ZN42_$LT$$RF$T$u20$as$u20$core..fmt..Debug$GT$3fmt17h67a57bdb935bf8b9E,@function
_ZN42_$LT$$RF$T$u20$as$u20$core..fmt..Debug$GT$3fmt17h67a57bdb935bf8b9E:
.Lfunc_begin4:
	.loc	1 2372 0
	.cfi_startproc
	addi	sp, sp, -16
	.cfi_def_cfa_offset 16
.Ltmp35:
	.loc	1 2372 71 prologue_end
	sw	ra, 12(sp)
	.cfi_offset ra, -4
	lw	a2, 0(a0)
.Ltmp36:
	.file	3 "/Users/georg/.rustup/toolchains/nightly-2023-01-03-aarch64-apple-darwin/lib/rustlib/src/rust/library/alloc" "src/ffi/c_str.rs"
	.loc	3 138 32
	lw	a3, 0(a2)
	mv	a0, a1
.Ltmp37:
	beqz	a3, .LBB4_2
.Ltmp38:
	lui	a1, %hi(.L__unnamed_17)
	addi	a1, a1, %lo(.L__unnamed_17)
	li	a2, 16
.Ltmp39:
	lw	ra, 12(sp)
	addi	sp, sp, 16
	tail	_ZN4core3fmt9Formatter9write_str17h060247258d2cc5e5E
.Ltmp40:
.LBB4_2:
	.loc	3 140 17
	addi	a1, a2, 4
	sw	a1, 8(sp)
.Ltmp41:
	.loc	3 138 32
	lui	a1, %hi(.L__unnamed_18)
	addi	a1, a1, %lo(.L__unnamed_18)
	lui	a2, %hi(.L__unnamed_11)
.Ltmp42:
	addi	a4, a2, %lo(.L__unnamed_11)
	li	a2, 11
	addi	a3, sp, 8
	call	_ZN4core3fmt9Formatter25debug_tuple_field1_finish17hd52c15995c616ceaE
.Ltmp43:
	.loc	1 2372 84
	lw	ra, 12(sp)
	addi	sp, sp, 16
	ret
.Ltmp44:
.Lfunc_end4:
	.size	_ZN42_$LT$$RF$T$u20$as$u20$core..fmt..Debug$GT$3fmt17h67a57bdb935bf8b9E, .Lfunc_end4-_ZN42_$LT$$RF$T$u20$as$u20$core..fmt..Debug$GT$3fmt17h67a57bdb935bf8b9E
	.cfi_endproc

	.section	".text._ZN42_$LT$$RF$T$u20$as$u20$core..fmt..Debug$GT$3fmt17h7a1cd28268fd835cE","ax",@progbits
	.p2align	1
	.type	_ZN42_$LT$$RF$T$u20$as$u20$core..fmt..Debug$GT$3fmt17h7a1cd28268fd835cE,@function
_ZN42_$LT$$RF$T$u20$as$u20$core..fmt..Debug$GT$3fmt17h7a1cd28268fd835cE:
.Lfunc_begin5:
	.loc	1 2372 0
	.cfi_startproc
	.loc	1 2372 71 prologue_end
	lw	a0, 0(a0)
.Ltmp45:
	.loc	1 2372 62 is_stmt 0
	tail	_ZN64_$LT$core..alloc..layout..Layout$u20$as$u20$core..fmt..Debug$GT$3fmt17hb22ec4b27fb36aa1E
.Ltmp46:
.Lfunc_end5:
	.size	_ZN42_$LT$$RF$T$u20$as$u20$core..fmt..Debug$GT$3fmt17h7a1cd28268fd835cE, .Lfunc_end5-_ZN42_$LT$$RF$T$u20$as$u20$core..fmt..Debug$GT$3fmt17h7a1cd28268fd835cE
	.cfi_endproc

	.section	".text._ZN42_$LT$$RF$T$u20$as$u20$core..fmt..Debug$GT$3fmt17h84ccf8e71d264277E","ax",@progbits
	.p2align	1
	.type	_ZN42_$LT$$RF$T$u20$as$u20$core..fmt..Debug$GT$3fmt17h84ccf8e71d264277E,@function
_ZN42_$LT$$RF$T$u20$as$u20$core..fmt..Debug$GT$3fmt17h84ccf8e71d264277E:
.Lfunc_begin6:
	.loc	1 2372 0 is_stmt 1
	.cfi_startproc
	.loc	1 2372 71 prologue_end
	lw	a2, 0(a0)
.Ltmp47:
	.loc	3 562 9
	lw	a0, 0(a2)
.Ltmp48:
	lw	a2, 4(a2)
.Ltmp49:
	.loc	3 0 9 is_stmt 0
	mv	a3, a1
.Ltmp50:
	.loc	3 721 9 is_stmt 1
	mv	a1, a2
	mv	a2, a3
.Ltmp51:
	tail	_ZN59_$LT$core..ffi..c_str..CStr$u20$as$u20$core..fmt..Debug$GT$3fmt17h2ae0a10454495905E
.Ltmp52:
.Lfunc_end6:
	.size	_ZN42_$LT$$RF$T$u20$as$u20$core..fmt..Debug$GT$3fmt17h84ccf8e71d264277E, .Lfunc_end6-_ZN42_$LT$$RF$T$u20$as$u20$core..fmt..Debug$GT$3fmt17h84ccf8e71d264277E
	.cfi_endproc

	.section	".text._ZN42_$LT$$RF$T$u20$as$u20$core..fmt..Debug$GT$3fmt17h8a83899c8d1b0864E","ax",@progbits
	.p2align	1
	.type	_ZN42_$LT$$RF$T$u20$as$u20$core..fmt..Debug$GT$3fmt17h8a83899c8d1b0864E,@function
_ZN42_$LT$$RF$T$u20$as$u20$core..fmt..Debug$GT$3fmt17h8a83899c8d1b0864E:
.Lfunc_begin7:
	.loc	1 2372 0
	.cfi_startproc
	addi	sp, sp, -32
	.cfi_def_cfa_offset 32
.Ltmp53:
	.loc	1 2372 71 prologue_end
	sw	ra, 28(sp)
	sw	s0, 24(sp)
	sw	s1, 20(sp)
	sw	s2, 16(sp)
	sw	s3, 12(sp)
	.cfi_offset ra, -4
	.cfi_offset s0, -8
	.cfi_offset s1, -12
	.cfi_offset s2, -16
	.cfi_offset s3, -20
	lw	a0, 0(a0)
.Ltmp54:
	.loc	1 2372 62 is_stmt 0
	lw	s0, 4(a0)
	lw	s1, 8(a0)
.Ltmp55:
	.loc	1 2598 9 is_stmt 1
	mv	a0, sp
	call	_ZN4core3fmt9Formatter10debug_list17h5f74b3efb712d571E
.Ltmp56:
	.file	4 "/Users/georg/.rustup/toolchains/nightly-2023-01-03-aarch64-apple-darwin/lib/rustlib/src/rust/library/core/src/slice/iter" "macros.rs"
	.loc	4 146 24
	beqz	s1, .LBB7_3
.Ltmp57:
	.loc	4 0 24 is_stmt 0
	lui	a0, %hi(.L__unnamed_2)
	addi	s2, a0, %lo(.L__unnamed_2)
.Ltmp58:
.LBB7_2:
	.file	5 "/Users/georg/.rustup/toolchains/nightly-2023-01-03-aarch64-apple-darwin/lib/rustlib/src/rust/library/core/src/ptr" "mut_ptr.rs"
	.loc	5 499 18 is_stmt 1
	addi	s3, s0, 1
.Ltmp59:
	.file	6 "/Users/georg/.rustup/toolchains/nightly-2023-01-03-aarch64-apple-darwin/lib/rustlib/src/rust/library/core/src/fmt" "builders.rs"
	.loc	6 632 13
	sw	s0, 8(sp)
.Ltmp60:
	.loc	6 633 13
	mv	a0, sp
	addi	a1, sp, 8
	mv	a2, s2
	call	_ZN4core3fmt8builders9DebugList5entry17hbffb0e2a4415b066E
.Ltmp61:
	.loc	4 146 24
	addi	s1, s1, -1
	mv	s0, s3
.Ltmp62:
	bnez	s1, .LBB7_2
.Ltmp63:
.LBB7_3:
	.loc	1 2598 9
	mv	a0, sp
	call	_ZN4core3fmt8builders9DebugList6finish17h0a88927cbe538c30E
.Ltmp64:
	.loc	1 2372 84
	lw	ra, 28(sp)
	lw	s0, 24(sp)
	lw	s1, 20(sp)
	lw	s2, 16(sp)
	lw	s3, 12(sp)
	addi	sp, sp, 32
	ret
.Ltmp65:
.Lfunc_end7:
	.size	_ZN42_$LT$$RF$T$u20$as$u20$core..fmt..Debug$GT$3fmt17h8a83899c8d1b0864E, .Lfunc_end7-_ZN42_$LT$$RF$T$u20$as$u20$core..fmt..Debug$GT$3fmt17h8a83899c8d1b0864E
	.cfi_endproc
	.file	7 "/Users/georg/.rustup/toolchains/nightly-2023-01-03-aarch64-apple-darwin/lib/rustlib/src/rust/library/alloc" "src/vec/mod.rs"

	.section	".text._ZN42_$LT$$RF$T$u20$as$u20$core..fmt..Debug$GT$3fmt17hb1a0aaf2a3b9bb7fE","ax",@progbits
	.p2align	1
	.type	_ZN42_$LT$$RF$T$u20$as$u20$core..fmt..Debug$GT$3fmt17hb1a0aaf2a3b9bb7fE,@function
_ZN42_$LT$$RF$T$u20$as$u20$core..fmt..Debug$GT$3fmt17hb1a0aaf2a3b9bb7fE:
.Lfunc_begin8:
	.loc	1 2372 0
	.cfi_startproc
	.loc	1 2372 71 prologue_end
	lw	a2, 0(a0)
	lw	a3, 4(a0)
	mv	a4, a1
.Ltmp66:
	.loc	1 2372 62 is_stmt 0
	mv	a0, a2
.Ltmp67:
	mv	a1, a3
	mv	a2, a4
.Ltmp68:
	tail	_ZN40_$LT$str$u20$as$u20$core..fmt..Debug$GT$3fmt17h329a77865969649fE
.Ltmp69:
.Lfunc_end8:
	.size	_ZN42_$LT$$RF$T$u20$as$u20$core..fmt..Debug$GT$3fmt17hb1a0aaf2a3b9bb7fE, .Lfunc_end8-_ZN42_$LT$$RF$T$u20$as$u20$core..fmt..Debug$GT$3fmt17hb1a0aaf2a3b9bb7fE
	.cfi_endproc

	.section	".text._ZN42_$LT$$RF$T$u20$as$u20$core..fmt..Debug$GT$3fmt17hf30d5b32817e334fE","ax",@progbits
	.p2align	1
	.type	_ZN42_$LT$$RF$T$u20$as$u20$core..fmt..Debug$GT$3fmt17hf30d5b32817e334fE,@function
_ZN42_$LT$$RF$T$u20$as$u20$core..fmt..Debug$GT$3fmt17hf30d5b32817e334fE:
.Lfunc_begin9:
	.loc	1 2372 0 is_stmt 1
	.cfi_startproc
	addi	sp, sp, -32
	.cfi_def_cfa_offset 32
.Ltmp70:
	.loc	1 2372 71 prologue_end
	sw	ra, 28(sp)
	.cfi_offset ra, -4
	lw	a2, 0(a0)
.Ltmp71:
	.file	8 "/Users/georg/.rustup/toolchains/nightly-2023-01-03-aarch64-apple-darwin/lib/rustlib/src/rust/library/alloc" "src/collections/mod.rs"
	.loc	8 80 32
	lw	a3, 4(a2)
	mv	a0, a1
.Ltmp72:
	beqz	a3, .LBB9_2
.Ltmp73:
	.loc	8 94 9
	sw	a2, 20(sp)
	.loc	8 105 9
	sw	a2, 24(sp)
.Ltmp74:
	.loc	8 80 32
	lui	a1, %hi(.L__unnamed_10)
	addi	a1, a1, %lo(.L__unnamed_10)
	sw	a1, 8(sp)
	addi	a1, sp, 24
	sw	a1, 4(sp)
	li	t0, 14
	lui	a1, %hi(.L__unnamed_19)
	addi	a1, a1, %lo(.L__unnamed_19)
	lui	a2, %hi(.L__unnamed_20)
.Ltmp75:
	addi	a3, a2, %lo(.L__unnamed_20)
	lui	a2, %hi(.L__unnamed_9)
	addi	a6, a2, %lo(.L__unnamed_9)
	lui	a2, %hi(.L__unnamed_21)
	addi	a7, a2, %lo(.L__unnamed_21)
	li	a2, 10
	li	a4, 6
	addi	a5, sp, 20
	sw	t0, 0(sp)
	call	_ZN4core3fmt9Formatter26debug_struct_field2_finish17h9091e75d7dc47269E
.Ltmp76:
	.loc	1 2372 84
	lw	ra, 28(sp)
	addi	sp, sp, 32
	ret
.Ltmp77:
.LBB9_2:
	.loc	8 80 32
	lui	a1, %hi(.L__unnamed_22)
	addi	a1, a1, %lo(.L__unnamed_22)
	li	a2, 16
.Ltmp78:
	lw	ra, 28(sp)
	addi	sp, sp, 32
	tail	_ZN4core3fmt9Formatter9write_str17h060247258d2cc5e5E
.Ltmp79:
.Lfunc_end9:
	.size	_ZN42_$LT$$RF$T$u20$as$u20$core..fmt..Debug$GT$3fmt17hf30d5b32817e334fE, .Lfunc_end9-_ZN42_$LT$$RF$T$u20$as$u20$core..fmt..Debug$GT$3fmt17hf30d5b32817e334fE
	.cfi_endproc

	.section	".text._ZN4core3ptr205drop_in_place$LT$$LT$alloc..boxed..Box$LT$dyn$u20$core..error..Error$u2b$core..marker..Send$u2b$core..marker..Sync$GT$$u20$as$u20$core..convert..From$LT$alloc..string..String$GT$$GT$..from..StringError$GT$17h4aceb1283a6dbf46E","ax",@progbits
	.p2align	1
	.type	_ZN4core3ptr205drop_in_place$LT$$LT$alloc..boxed..Box$LT$dyn$u20$core..error..Error$u2b$core..marker..Send$u2b$core..marker..Sync$GT$$u20$as$u20$core..convert..From$LT$alloc..string..String$GT$$GT$..from..StringError$GT$17h4aceb1283a6dbf46E,@function
_ZN4core3ptr205drop_in_place$LT$$LT$alloc..boxed..Box$LT$dyn$u20$core..error..Error$u2b$core..marker..Send$u2b$core..marker..Sync$GT$$u20$as$u20$core..convert..From$LT$alloc..string..String$GT$$GT$..from..StringError$GT$17h4aceb1283a6dbf46E:
.Lfunc_begin10:
	.file	9 "/Users/georg/.rustup/toolchains/nightly-2023-01-03-aarch64-apple-darwin/lib/rustlib/src/rust/library/core/src/ptr" "mod.rs"
	.loc	9 490 0
	.cfi_startproc
	.loc	9 490 1 prologue_end
	lw	a1, 0(a0)
.Ltmp80:
	.file	10 "/Users/georg/.rustup/toolchains/nightly-2023-01-03-aarch64-apple-darwin/lib/rustlib/src/rust/library/alloc" "src/raw_vec.rs"
	.loc	10 241 12
	beqz	a1, .LBB10_2
.Ltmp81:
	.loc	9 490 1
	lw	a0, 4(a0)
.Ltmp82:
	.file	11 "/Users/georg/.rustup/toolchains/nightly-2023-01-03-aarch64-apple-darwin/lib/rustlib/src/rust/library/alloc" "src/alloc.rs"
	.loc	11 113 14
	li	a2, 1
	tail	__rust_dealloc
.Ltmp83:
.LBB10_2:
	.loc	9 490 1
	ret
.Ltmp84:
.Lfunc_end10:
	.size	_ZN4core3ptr205drop_in_place$LT$$LT$alloc..boxed..Box$LT$dyn$u20$core..error..Error$u2b$core..marker..Send$u2b$core..marker..Sync$GT$$u20$as$u20$core..convert..From$LT$alloc..string..String$GT$$GT$..from..StringError$GT$17h4aceb1283a6dbf46E, .Lfunc_end10-_ZN4core3ptr205drop_in_place$LT$$LT$alloc..boxed..Box$LT$dyn$u20$core..error..Error$u2b$core..marker..Send$u2b$core..marker..Sync$GT$$u20$as$u20$core..convert..From$LT$alloc..string..String$GT$$GT$..from..StringError$GT$17h4aceb1283a6dbf46E
	.cfi_endproc

	.section	".text._ZN4core3ptr27drop_in_place$LT$$RF$u8$GT$17h533449fef5ef3eceE","ax",@progbits
	.p2align	1
	.type	_ZN4core3ptr27drop_in_place$LT$$RF$u8$GT$17h533449fef5ef3eceE,@function
_ZN4core3ptr27drop_in_place$LT$$RF$u8$GT$17h533449fef5ef3eceE:
.Lfunc_begin11:
	.loc	9 490 0
	.cfi_startproc
	.loc	9 490 1 prologue_end
	ret
.Ltmp85:
.Lfunc_end11:
	.size	_ZN4core3ptr27drop_in_place$LT$$RF$u8$GT$17h533449fef5ef3eceE, .Lfunc_end11-_ZN4core3ptr27drop_in_place$LT$$RF$u8$GT$17h533449fef5ef3eceE
	.cfi_endproc

	.section	.text._ZN4core5error5Error5cause17h64432525accc317cE,"ax",@progbits
	.p2align	1
	.type	_ZN4core5error5Error5cause17h64432525accc317cE,@function
_ZN4core5error5Error5cause17h64432525accc317cE:
.Lfunc_begin12:
	.file	12 "/Users/georg/.rustup/toolchains/nightly-2023-01-03-aarch64-apple-darwin/lib/rustlib/src/rust/library/core/src" "error.rs"
	.loc	12 119 0
	.cfi_startproc
	.loc	12 121 6 prologue_end
	li	a0, 0
.Ltmp86:
	ret
.Ltmp87:
.Lfunc_end12:
	.size	_ZN4core5error5Error5cause17h64432525accc317cE, .Lfunc_end12-_ZN4core5error5Error5cause17h64432525accc317cE
	.cfi_endproc

	.section	.text._ZN4core5error5Error5cause17h94db1e2cb30a45e5E,"ax",@progbits
	.p2align	1
	.type	_ZN4core5error5Error5cause17h94db1e2cb30a45e5E,@function
_ZN4core5error5Error5cause17h94db1e2cb30a45e5E:
.Lfunc_begin13:
	.loc	12 119 0
	.cfi_startproc
	.loc	12 121 6 prologue_end
	li	a0, 0
.Ltmp88:
	ret
.Ltmp89:
.Lfunc_end13:
	.size	_ZN4core5error5Error5cause17h94db1e2cb30a45e5E, .Lfunc_end13-_ZN4core5error5Error5cause17h94db1e2cb30a45e5E
	.cfi_endproc

	.section	.text._ZN4core5error5Error6source17h02a20bc8b1f5d3bfE,"ax",@progbits
	.p2align	1
	.type	_ZN4core5error5Error6source17h02a20bc8b1f5d3bfE,@function
_ZN4core5error5Error6source17h02a20bc8b1f5d3bfE:
.Lfunc_begin14:
	.loc	12 83 0
	.cfi_startproc
	.loc	12 85 6 prologue_end
	li	a0, 0
	ret
.Ltmp90:
.Lfunc_end14:
	.size	_ZN4core5error5Error6source17h02a20bc8b1f5d3bfE, .Lfunc_end14-_ZN4core5error5Error6source17h02a20bc8b1f5d3bfE
	.cfi_endproc

	.section	.text._ZN4core5error5Error7provide17h7f4366c44e57c564E,"ax",@progbits
	.p2align	1
	.type	_ZN4core5error5Error7provide17h7f4366c44e57c564E,@function
_ZN4core5error5Error7provide17h7f4366c44e57c564E:
.Lfunc_begin15:
	.loc	12 193 0
	.cfi_startproc
	.loc	12 193 57 prologue_end
	ret
.Ltmp91:
.Lfunc_end15:
	.size	_ZN4core5error5Error7provide17h7f4366c44e57c564E, .Lfunc_end15-_ZN4core5error5Error7provide17h7f4366c44e57c564E
	.cfi_endproc

	.section	.text._ZN4core5error5Error7type_id17h5661b8227c383599E,"ax",@progbits
	.p2align	1
	.type	_ZN4core5error5Error7type_id17h5661b8227c383599E,@function
_ZN4core5error5Error7type_id17h5661b8227c383599E:
.Lfunc_begin16:
	.loc	12 94 0
	.cfi_startproc
	lui	a0, 131288
	addi	a0, a0, 181
	lui	a1, 374043
	addi	a1, a1, 1020
.Ltmp92:
	.loc	12 99 6 prologue_end
	ret
.Ltmp93:
.Lfunc_end16:
	.size	_ZN4core5error5Error7type_id17h5661b8227c383599E, .Lfunc_end16-_ZN4core5error5Error7type_id17h5661b8227c383599E
	.cfi_endproc

	.section	.text._ZN4core5error5Error7type_id17h9d09a8fa61d96977E,"ax",@progbits
	.p2align	1
	.type	_ZN4core5error5Error7type_id17h9d09a8fa61d96977E,@function
_ZN4core5error5Error7type_id17h9d09a8fa61d96977E:
.Lfunc_begin17:
	.loc	12 94 0
	.cfi_startproc
	lui	a0, 888975
	addi	a0, a0, -2002
	lui	a1, 1045320
	addi	a1, a1, -24
.Ltmp94:
	.loc	12 99 6 prologue_end
	ret
.Ltmp95:
.Lfunc_end17:
	.size	_ZN4core5error5Error7type_id17h9d09a8fa61d96977E, .Lfunc_end17-_ZN4core5error5Error7type_id17h9d09a8fa61d96977E
	.cfi_endproc

	.section	".text._ZN50_$LT$$RF$mut$u20$W$u20$as$u20$core..fmt..Write$GT$10write_char17h591f81b2895bdbb2E","ax",@progbits
	.p2align	1
	.type	_ZN50_$LT$$RF$mut$u20$W$u20$as$u20$core..fmt..Write$GT$10write_char17h591f81b2895bdbb2E,@function
_ZN50_$LT$$RF$mut$u20$W$u20$as$u20$core..fmt..Write$GT$10write_char17h591f81b2895bdbb2E:
.Lfunc_begin18:
	.loc	1 202 0
	.cfi_startproc
	addi	sp, sp, -16
	.cfi_def_cfa_offset 16
.Ltmp96:
	.loc	1 203 9 prologue_end
	sw	ra, 12(sp)
	.cfi_offset ra, -4
	lw	a0, 0(a0)
.Ltmp97:
	.file	13 "/Users/georg/.rustup/toolchains/nightly-2023-01-03-aarch64-apple-darwin/lib/rustlib/src/rust/library/alloc" "src/string.rs"
	.loc	13 2871 9
	call	_ZN5alloc6string6String4push17h6de370a8d6220186E
.Ltmp98:
	.loc	1 204 6
	li	a0, 0
	lw	ra, 12(sp)
	addi	sp, sp, 16
	ret
.Ltmp99:
.Lfunc_end18:
	.size	_ZN50_$LT$$RF$mut$u20$W$u20$as$u20$core..fmt..Write$GT$10write_char17h591f81b2895bdbb2E, .Lfunc_end18-_ZN50_$LT$$RF$mut$u20$W$u20$as$u20$core..fmt..Write$GT$10write_char17h591f81b2895bdbb2E
	.cfi_endproc

	.section	".text._ZN50_$LT$$RF$mut$u20$W$u20$as$u20$core..fmt..Write$GT$9write_fmt17h74f0f8ad31fa4d01E","ax",@progbits
	.p2align	1
	.type	_ZN50_$LT$$RF$mut$u20$W$u20$as$u20$core..fmt..Write$GT$9write_fmt17h74f0f8ad31fa4d01E,@function
_ZN50_$LT$$RF$mut$u20$W$u20$as$u20$core..fmt..Write$GT$9write_fmt17h74f0f8ad31fa4d01E:
.Lfunc_begin19:
	.loc	1 206 0
	.cfi_startproc
	addi	sp, sp, -48
	.cfi_def_cfa_offset 48
.Ltmp100:
	.loc	1 207 9 prologue_end
	sw	ra, 44(sp)
	.cfi_offset ra, -4
	lw	a0, 0(a0)
.Ltmp101:
	.loc	1 192 26
	lw	a2, 20(a1)
	lw	a3, 16(a1)
	sw	a0, 12(sp)
	sw	a2, 36(sp)
	sw	a3, 32(sp)
	lw	a0, 12(a1)
.Ltmp102:
	lw	a2, 8(a1)
	lw	a3, 4(a1)
	lw	a1, 0(a1)
.Ltmp103:
	sw	a0, 28(sp)
	sw	a2, 24(sp)
	sw	a3, 20(sp)
	sw	a1, 16(sp)
.Ltmp104:
	.loc	1 192 9 is_stmt 0
	lui	a0, %hi(.L__unnamed_1)
	addi	a1, a0, %lo(.L__unnamed_1)
	addi	a0, sp, 12
	addi	a2, sp, 16
	call	_ZN4core3fmt5write17h87a75934cc3b911aE
.Ltmp105:
	.loc	1 208 6 is_stmt 1
	lw	ra, 44(sp)
	addi	sp, sp, 48
	ret
.Ltmp106:
.Lfunc_end19:
	.size	_ZN50_$LT$$RF$mut$u20$W$u20$as$u20$core..fmt..Write$GT$9write_fmt17h74f0f8ad31fa4d01E, .Lfunc_end19-_ZN50_$LT$$RF$mut$u20$W$u20$as$u20$core..fmt..Write$GT$9write_fmt17h74f0f8ad31fa4d01E
	.cfi_endproc

	.section	".text._ZN50_$LT$$RF$mut$u20$W$u20$as$u20$core..fmt..Write$GT$9write_str17hcd9e853f3382fdc2E","ax",@progbits
	.p2align	1
	.type	_ZN50_$LT$$RF$mut$u20$W$u20$as$u20$core..fmt..Write$GT$9write_str17hcd9e853f3382fdc2E,@function
_ZN50_$LT$$RF$mut$u20$W$u20$as$u20$core..fmt..Write$GT$9write_str17hcd9e853f3382fdc2E:
.Lfunc_begin20:
	.loc	1 198 0
	.cfi_startproc
	addi	sp, sp, -32
	.cfi_def_cfa_offset 32
.Ltmp107:
	.loc	1 199 9 prologue_end
	sw	ra, 28(sp)
	sw	s0, 24(sp)
	sw	s1, 20(sp)
	sw	s2, 16(sp)
	sw	s3, 12(sp)
	.cfi_offset ra, -4
	.cfi_offset s0, -8
	.cfi_offset s1, -12
	.cfi_offset s2, -16
	.cfi_offset s3, -20
	lw	s0, 0(a0)
.Ltmp108:
	.loc	7 907 26
	lw	s1, 8(s0)
.Ltmp109:
	.loc	10 288 12
	lw	a0, 0(s0)
.Ltmp110:
	.file	14 "/Users/georg/.rustup/toolchains/nightly-2023-01-03-aarch64-apple-darwin/lib/rustlib/src/rust/library/core/src/num" "uint_macros.rs"
	.loc	14 1203 13
	sub	a0, a0, s1
.Ltmp111:
	.loc	14 0 13 is_stmt 0
	mv	s2, a2
.Ltmp112:
	mv	s3, a1
.Ltmp113:
	.loc	10 288 12 is_stmt 1
	bltu	a0, a2, .LBB20_2
.Ltmp114:
.LBB20_1:
	.loc	10 224 9
	lw	a0, 4(s0)
.Ltmp115:
	.loc	5 499 18
	add	a0, a0, s1
.Ltmp116:
	.file	15 "/Users/georg/.rustup/toolchains/nightly-2023-01-03-aarch64-apple-darwin/lib/rustlib/src/rust/library/core/src" "intrinsics.rs"
	.loc	15 2372 9
	mv	a1, s3
	mv	a2, s2
	call	memcpy@plt
.Ltmp117:
	.loc	7 1950 9
	add	a0, s1, s2
	sw	a0, 8(s0)
.Ltmp118:
	.loc	1 200 6
	li	a0, 0
	lw	ra, 28(sp)
	lw	s0, 24(sp)
.Ltmp119:
	lw	s1, 20(sp)
.Ltmp120:
	lw	s2, 16(sp)
.Ltmp121:
	lw	s3, 12(sp)
.Ltmp122:
	addi	sp, sp, 32
	ret
.LBB20_2:
.Ltmp123:
	.loc	10 289 13
	mv	a0, s0
	mv	a1, s1
	mv	a2, s2
	call	_ZN5alloc7raw_vec19RawVec$LT$T$C$A$GT$7reserve21do_reserve_and_handle17hc60fe6a21a566324E
.Ltmp124:
	.loc	7 2057 9
	lw	s1, 8(s0)
.Ltmp125:
	.loc	7 0 9 is_stmt 0
	j	.LBB20_1
.Ltmp126:
.Lfunc_end20:
	.size	_ZN50_$LT$$RF$mut$u20$W$u20$as$u20$core..fmt..Write$GT$9write_str17hcd9e853f3382fdc2E, .Lfunc_end20-_ZN50_$LT$$RF$mut$u20$W$u20$as$u20$core..fmt..Write$GT$9write_str17hcd9e853f3382fdc2E
	.cfi_endproc
	.file	16 "/Users/georg/.rustup/toolchains/nightly-2023-01-03-aarch64-apple-darwin/lib/rustlib/src/rust/library/alloc" "src/vec/spec_extend.rs"

	.section	".text.unlikely._ZN5alloc7raw_vec19RawVec$LT$T$C$A$GT$7reserve21do_reserve_and_handle17hc60fe6a21a566324E","ax",@progbits
	.p2align	1
	.type	_ZN5alloc7raw_vec19RawVec$LT$T$C$A$GT$7reserve21do_reserve_and_handle17hc60fe6a21a566324E,@function
_ZN5alloc7raw_vec19RawVec$LT$T$C$A$GT$7reserve21do_reserve_and_handle17hc60fe6a21a566324E:
.Lfunc_begin21:
	.loc	10 280 0 is_stmt 1
	.cfi_startproc
	addi	sp, sp, -48
	.cfi_def_cfa_offset 48
.Ltmp127:
	.loc	14 1479 26 prologue_end
	sw	ra, 44(sp)
	sw	s0, 40(sp)
	sw	s1, 36(sp)
	.cfi_offset ra, -4
	.cfi_offset s0, -8
	.cfi_offset s1, -12
	add	a2, a2, a1
.Ltmp128:
	.loc	10 390 28
	bltu	a2, a1, .LBB21_11
.Ltmp129:
	.loc	10 0 28 is_stmt 0
	mv	s0, a0
.Ltmp130:
	.loc	10 394 28 is_stmt 1
	lw	a0, 0(a0)
	slli	s1, a0, 1
.Ltmp131:
	.file	17 "/Users/georg/.rustup/toolchains/nightly-2023-01-03-aarch64-apple-darwin/lib/rustlib/src/rust/library/core/src" "cmp.rs"
	.loc	17 0 0 is_stmt 0
	bgeu	a2, s1, .LBB21_5
.Ltmp132:
	li	a1, 8
.Ltmp133:
	bgeu	a1, s1, .LBB21_6
.Ltmp134:
.LBB21_3:
	.file	18 "/Users/georg/.rustup/toolchains/nightly-2023-01-03-aarch64-apple-darwin/lib/rustlib/src/rust/library/core/src/alloc" "layout.rs"
	.loc	18 452 16 is_stmt 1
	not	a1, s1
	srli	a2, a1, 31
.Ltmp135:
	.loc	10 241 12
	beqz	a0, .LBB21_7
.Ltmp136:
.LBB21_4:
	.loc	10 400 43
	lw	a1, 4(s0)
.Ltmp137:
	.loc	10 248 17
	sw	a1, 24(sp)
	sw	a0, 28(sp)
	li	a0, 1
.Ltmp138:
	sw	a0, 32(sp)
	j	.LBB21_8
.Ltmp139:
.LBB21_5:
	.loc	10 0 17 is_stmt 0
	mv	s1, a2
.Ltmp140:
	li	a1, 8
.Ltmp141:
	bltu	a1, s1, .LBB21_3
.Ltmp142:
.LBB21_6:
	li	s1, 8
.Ltmp143:
	.loc	18 452 16 is_stmt 1
	not	a1, s1
	srli	a2, a1, 31
.Ltmp144:
	.loc	10 241 12
	bnez	a0, .LBB21_4
.Ltmp145:
.LBB21_7:
	.loc	10 242 13
	sw	zero, 32(sp)
.Ltmp146:
.LBB21_8:
	.loc	10 400 19
	addi	a0, sp, 8
	addi	a3, sp, 24
	mv	a1, s1
	call	_ZN5alloc7raw_vec11finish_grow17h84df8231ddcc73c7E
.Ltmp147:
	.file	19 "/Users/georg/.rustup/toolchains/nightly-2023-01-03-aarch64-apple-darwin/lib/rustlib/src/rust/library/core/src" "result.rs"
	.loc	19 2091 15
	lw	a1, 8(sp)
	.loc	19 2091 9 is_stmt 0
	lw	a0, 12(sp)
.Ltmp148:
	.loc	10 400 19 is_stmt 1
	beqz	a1, .LBB21_12
.Ltmp149:
	.loc	10 0 0 is_stmt 0
	lw	a1, 16(sp)
	lui	a2, 524288
	addi	a2, a2, 1
.Ltmp150:
	.loc	10 488 5 is_stmt 1
	beq	a1, a2, .LBB21_13
.Ltmp151:
	bnez	a1, .LBB21_14
.Ltmp152:
.LBB21_11:
	.loc	10 489 34
	call	_ZN5alloc7raw_vec17capacity_overflow17h2c1c04a797021fabE
	unimp	
.Ltmp153:
.LBB21_12:
	.loc	10 368 9
	sw	a0, 4(s0)
	.loc	10 369 9
	sw	s1, 0(s0)
.Ltmp154:
.LBB21_13:
	.loc	10 286 10
	lw	ra, 44(sp)
	lw	s0, 40(sp)
.Ltmp155:
	lw	s1, 36(sp)
	addi	sp, sp, 48
	ret
.LBB21_14:
.Ltmp156:
	.loc	10 490 43
	call	_ZN5alloc5alloc18handle_alloc_error17hd9333cd203b4ffb7E
.Ltmp157:
	unimp	
.Ltmp158:
.Lfunc_end21:
	.size	_ZN5alloc7raw_vec19RawVec$LT$T$C$A$GT$7reserve21do_reserve_and_handle17hc60fe6a21a566324E, .Lfunc_end21-_ZN5alloc7raw_vec19RawVec$LT$T$C$A$GT$7reserve21do_reserve_and_handle17hc60fe6a21a566324E
	.cfi_endproc

	.section	".text._ZN5alloc7raw_vec19RawVec$LT$T$C$A$GT$16reserve_for_push17h2bc031d3040ca85dE","ax",@progbits
	.p2align	1
	.type	_ZN5alloc7raw_vec19RawVec$LT$T$C$A$GT$16reserve_for_push17h2bc031d3040ca85dE,@function
_ZN5alloc7raw_vec19RawVec$LT$T$C$A$GT$16reserve_for_push17h2bc031d3040ca85dE:
.Lfunc_begin22:
	.loc	10 297 0
	.cfi_startproc
	addi	sp, sp, -48
	.cfi_def_cfa_offset 48
.Ltmp159:
	.loc	14 1479 26 prologue_end
	sw	ra, 44(sp)
	sw	s0, 40(sp)
	sw	s1, 36(sp)
	.cfi_offset ra, -4
	.cfi_offset s0, -8
	.cfi_offset s1, -12
	addi	a1, a1, 1
.Ltmp160:
	.loc	10 390 28
	beqz	a1, .LBB22_11
.Ltmp161:
	.loc	10 0 28 is_stmt 0
	mv	s0, a0
.Ltmp162:
	.loc	10 394 28 is_stmt 1
	lw	a0, 0(a0)
	slli	s1, a0, 1
.Ltmp163:
	.loc	17 0 0 is_stmt 0
	bgeu	a1, s1, .LBB22_5
.Ltmp164:
	li	a1, 8
.Ltmp165:
	bgeu	a1, s1, .LBB22_6
.Ltmp166:
.LBB22_3:
	.loc	18 452 16 is_stmt 1
	not	a1, s1
	srli	a2, a1, 31
.Ltmp167:
	.loc	10 241 12
	beqz	a0, .LBB22_7
.Ltmp168:
.LBB22_4:
	.loc	10 400 43
	lw	a1, 4(s0)
.Ltmp169:
	.loc	10 248 17
	sw	a1, 24(sp)
	sw	a0, 28(sp)
	li	a0, 1
.Ltmp170:
	sw	a0, 32(sp)
	j	.LBB22_8
.Ltmp171:
.LBB22_5:
	.loc	10 0 17 is_stmt 0
	mv	s1, a1
.Ltmp172:
	li	a1, 8
.Ltmp173:
	bltu	a1, s1, .LBB22_3
.Ltmp174:
.LBB22_6:
	li	s1, 8
.Ltmp175:
	.loc	18 452 16 is_stmt 1
	not	a1, s1
	srli	a2, a1, 31
.Ltmp176:
	.loc	10 241 12
	bnez	a0, .LBB22_4
.Ltmp177:
.LBB22_7:
	.loc	10 242 13
	sw	zero, 32(sp)
.Ltmp178:
.LBB22_8:
	.loc	10 400 19
	addi	a0, sp, 8
	addi	a3, sp, 24
	mv	a1, s1
	call	_ZN5alloc7raw_vec11finish_grow17h84df8231ddcc73c7E
.Ltmp179:
	.loc	19 2091 15
	lw	a1, 8(sp)
	.loc	19 2091 9 is_stmt 0
	lw	a0, 12(sp)
.Ltmp180:
	.loc	10 400 19 is_stmt 1
	beqz	a1, .LBB22_12
.Ltmp181:
	.loc	10 0 0 is_stmt 0
	lw	a1, 16(sp)
	lui	a2, 524288
	addi	a2, a2, 1
.Ltmp182:
	.loc	10 488 5 is_stmt 1
	beq	a1, a2, .LBB22_13
.Ltmp183:
	bnez	a1, .LBB22_14
.Ltmp184:
.LBB22_11:
	.loc	10 489 34
	call	_ZN5alloc7raw_vec17capacity_overflow17h2c1c04a797021fabE
	unimp	
.Ltmp185:
.LBB22_12:
	.loc	10 368 9
	sw	a0, 4(s0)
	.loc	10 369 9
	sw	s1, 0(s0)
.Ltmp186:
.LBB22_13:
	.loc	10 299 6
	lw	ra, 44(sp)
	lw	s0, 40(sp)
.Ltmp187:
	lw	s1, 36(sp)
	addi	sp, sp, 48
	ret
.LBB22_14:
.Ltmp188:
	.loc	10 490 43
	call	_ZN5alloc5alloc18handle_alloc_error17hd9333cd203b4ffb7E
.Ltmp189:
	unimp	
.Ltmp190:
.Lfunc_end22:
	.size	_ZN5alloc7raw_vec19RawVec$LT$T$C$A$GT$16reserve_for_push17h2bc031d3040ca85dE, .Lfunc_end22-_ZN5alloc7raw_vec19RawVec$LT$T$C$A$GT$16reserve_for_push17h2bc031d3040ca85dE
	.cfi_endproc

	.section	.text._ZN5alloc7raw_vec11finish_grow17h84df8231ddcc73c7E,"ax",@progbits
	.p2align	1
	.type	_ZN5alloc7raw_vec11finish_grow17h84df8231ddcc73c7E,@function
_ZN5alloc7raw_vec11finish_grow17h84df8231ddcc73c7E:
.Lfunc_begin23:
	.loc	10 448 0
	.cfi_startproc
	addi	sp, sp, -16
	.cfi_def_cfa_offset 16
	sw	ra, 12(sp)
	sw	s0, 8(sp)
	sw	s1, 4(sp)
	.cfi_offset ra, -4
	.cfi_offset s0, -8
	.cfi_offset s1, -12
	mv	s1, a1
.Ltmp191:
	mv	s0, a0
.Ltmp192:
	.loc	19 858 9 prologue_end
	beqz	a2, .LBB23_5
.Ltmp193:
	.loc	10 506 8
	bltz	s1, .LBB23_6
.Ltmp194:
	.loc	10 461 25
	lw	a0, 8(a3)
	beqz	a0, .LBB23_7
.Ltmp195:
	.loc	10 461 36 is_stmt 0
	lw	a1, 4(a3)
.Ltmp196:
	.loc	11 198 9 is_stmt 1
	beqz	a1, .LBB23_7
.Ltmp197:
	.loc	10 0 0 is_stmt 0
	lw	a0, 0(a3)
.Ltmp198:
	.loc	11 132 14 is_stmt 1
	li	a2, 1
.Ltmp199:
	mv	a3, s1
.Ltmp200:
	call	__rust_realloc
.Ltmp201:
	.loc	19 858 9
	bnez	a0, .LBB23_11
	j	.LBB23_9
.Ltmp202:
.LBB23_5:
	.loc	19 2107 23
	sw	s1, 4(s0)
.Ltmp203:
.LBB23_6:
	.loc	10 0 0 is_stmt 0
	sw	zero, 8(s0)
	li	a1, 1
	j	.LBB23_12
.Ltmp204:
.LBB23_7:
	beqz	s1, .LBB23_10
.Ltmp205:
	li	a1, 1
	mv	a0, s1
	call	__rust_alloc
.Ltmp206:
	.loc	19 858 9 is_stmt 1
	bnez	a0, .LBB23_11
.Ltmp207:
.LBB23_9:
	.loc	19 860 23
	sw	s1, 4(s0)
	li	a1, 1
	sw	a1, 8(s0)
	j	.LBB23_12
.Ltmp208:
.LBB23_10:
	.loc	19 0 23 is_stmt 0
	li	a0, 1
.Ltmp209:
.LBB23_11:
	li	a1, 0
.Ltmp210:
	.loc	19 859 22 is_stmt 1
	sw	a0, 4(s0)
	sw	s1, 8(s0)
.Ltmp211:
.LBB23_12:
	.loc	10 0 0 is_stmt 0
	sw	a1, 0(s0)
	.loc	10 473 2 is_stmt 1
	lw	ra, 12(sp)
	lw	s0, 8(sp)
	lw	s1, 4(sp)
.Ltmp212:
	addi	sp, sp, 16
	ret
.Ltmp213:
.Lfunc_end23:
	.size	_ZN5alloc7raw_vec11finish_grow17h84df8231ddcc73c7E, .Lfunc_end23-_ZN5alloc7raw_vec11finish_grow17h84df8231ddcc73c7E
	.cfi_endproc

	.section	.text._ZN5alloc7raw_vec17capacity_overflow17h2c1c04a797021fabE,"ax",@progbits
	.globl	_ZN5alloc7raw_vec17capacity_overflow17h2c1c04a797021fabE
	.p2align	1
	.type	_ZN5alloc7raw_vec17capacity_overflow17h2c1c04a797021fabE,@function
_ZN5alloc7raw_vec17capacity_overflow17h2c1c04a797021fabE:
.Lfunc_begin24:
	.loc	10 517 0
	.cfi_startproc
	addi	sp, sp, -32
	.cfi_def_cfa_offset 32
.Ltmp214:
	.loc	1 398 9 prologue_end
	lui	a0, %hi(.L__unnamed_23)
	addi	a0, a0, %lo(.L__unnamed_23)
.Ltmp215:
	sw	a0, 16(sp)
	li	a0, 1
.Ltmp216:
	sw	a0, 20(sp)
	sw	zero, 8(sp)
	lui	a0, %hi(.L__unnamed_24)
	addi	a0, a0, %lo(.L__unnamed_24)
.Ltmp217:
	sw	a0, 24(sp)
	sw	zero, 28(sp)
.Ltmp218:
	.loc	10 518 5
	lui	a0, %hi(.L__unnamed_25)
.Ltmp219:
	addi	a1, a0, %lo(.L__unnamed_25)
	addi	a0, sp, 8
	call	_ZN4core9panicking9panic_fmt17h38a84a0a59f0bde7E
	unimp	
.Ltmp220:
.Lfunc_end24:
	.size	_ZN5alloc7raw_vec17capacity_overflow17h2c1c04a797021fabE, .Lfunc_end24-_ZN5alloc7raw_vec17capacity_overflow17h2c1c04a797021fabE
	.cfi_endproc

	.section	.text.unlikely._ZN5alloc5alloc18handle_alloc_error17hd9333cd203b4ffb7E,"ax",@progbits
	.globl	_ZN5alloc5alloc18handle_alloc_error17hd9333cd203b4ffb7E
	.p2align	1
	.type	_ZN5alloc5alloc18handle_alloc_error17hd9333cd203b4ffb7E,@function
_ZN5alloc5alloc18handle_alloc_error17hd9333cd203b4ffb7E:
.Lfunc_begin25:
	.loc	11 378 0
	.cfi_startproc
	.cfi_def_cfa_offset 0
	.loc	11 389 14 prologue_end
	call	_ZN5alloc5alloc18handle_alloc_error8rt_error17hbce31673c38e46b3E
.Ltmp221:
	unimp	
.Ltmp222:
.Lfunc_end25:
	.size	_ZN5alloc5alloc18handle_alloc_error17hd9333cd203b4ffb7E, .Lfunc_end25-_ZN5alloc5alloc18handle_alloc_error17hd9333cd203b4ffb7E
	.cfi_endproc

	.section	.text._ZN5alloc5alloc18handle_alloc_error8ct_error17h17e27b3e5371a247E,"ax",@progbits
	.globl	_ZN5alloc5alloc18handle_alloc_error8ct_error17h17e27b3e5371a247E
	.p2align	1
	.type	_ZN5alloc5alloc18handle_alloc_error8ct_error17h17e27b3e5371a247E,@function
_ZN5alloc5alloc18handle_alloc_error8ct_error17h17e27b3e5371a247E:
.Lfunc_begin26:
	.loc	11 379 0
	.cfi_startproc
	addi	sp, sp, -32
	.cfi_def_cfa_offset 32
.Ltmp223:
	.loc	1 398 9 prologue_end
	lui	a0, %hi(.L__unnamed_26)
.Ltmp224:
	addi	a0, a0, %lo(.L__unnamed_26)
.Ltmp225:
	sw	a0, 16(sp)
	li	a0, 1
.Ltmp226:
	sw	a0, 20(sp)
	sw	zero, 8(sp)
	lui	a0, %hi(.L__unnamed_24)
	addi	a0, a0, %lo(.L__unnamed_24)
.Ltmp227:
	sw	a0, 24(sp)
	sw	zero, 28(sp)
.Ltmp228:
	.loc	11 380 9
	lui	a0, %hi(.L__unnamed_27)
.Ltmp229:
	addi	a1, a0, %lo(.L__unnamed_27)
.Ltmp230:
	addi	a0, sp, 8
	call	_ZN4core9panicking9panic_fmt17h38a84a0a59f0bde7E
	unimp	
.Ltmp231:
.Lfunc_end26:
	.size	_ZN5alloc5alloc18handle_alloc_error8ct_error17h17e27b3e5371a247E, .Lfunc_end26-_ZN5alloc5alloc18handle_alloc_error8ct_error17h17e27b3e5371a247E
	.cfi_endproc

	.section	.text._ZN5alloc5alloc18handle_alloc_error8rt_error17hbce31673c38e46b3E,"ax",@progbits
	.globl	_ZN5alloc5alloc18handle_alloc_error8rt_error17hbce31673c38e46b3E
	.p2align	1
	.type	_ZN5alloc5alloc18handle_alloc_error8rt_error17hbce31673c38e46b3E,@function
_ZN5alloc5alloc18handle_alloc_error8rt_error17hbce31673c38e46b3E:
.Lfunc_begin27:
	.loc	11 383 0
	.cfi_startproc
	.cfi_def_cfa_offset 0
	.loc	11 385 13 prologue_end
	call	__rust_alloc_error_handler
.Ltmp232:
	unimp	
.Ltmp233:
.Lfunc_end27:
	.size	_ZN5alloc5alloc18handle_alloc_error8rt_error17hbce31673c38e46b3E, .Lfunc_end27-_ZN5alloc5alloc18handle_alloc_error8rt_error17hbce31673c38e46b3E
	.cfi_endproc

	.section	.text.__rdl_oom,"ax",@progbits
	.globl	__rdl_oom
	.p2align	1
	.type	__rdl_oom,@function
__rdl_oom:
.Lfunc_begin28:
	.loc	11 404 0
	.cfi_startproc
	addi	sp, sp, -48
	.cfi_def_cfa_offset 48
	sw	a0, 12(sp)
	addi	a0, sp, 12
.Ltmp234:
	.loc	11 405 9 prologue_end
	sw	a0, 40(sp)
	lui	a0, %hi(_ZN4core3fmt3num3imp54_$LT$impl$u20$core..fmt..Display$u20$for$u20$usize$GT$3fmt17hf88330a667d69cb1E)
	addi	a0, a0, %lo(_ZN4core3fmt3num3imp54_$LT$impl$u20$core..fmt..Display$u20$for$u20$usize$GT$3fmt17hf88330a667d69cb1E)
	sw	a0, 44(sp)
.Ltmp235:
	.loc	1 398 9
	lui	a0, %hi(.L__unnamed_28)
	addi	a0, a0, %lo(.L__unnamed_28)
.Ltmp236:
	sw	a0, 24(sp)
	li	a0, 2
.Ltmp237:
	sw	a0, 28(sp)
	sw	zero, 16(sp)
	addi	a0, sp, 40
	sw	a0, 32(sp)
	li	a0, 1
	sw	a0, 36(sp)
.Ltmp238:
	.loc	11 405 9
	lui	a0, %hi(.L__unnamed_29)
	addi	a1, a0, %lo(.L__unnamed_29)
.Ltmp239:
	addi	a0, sp, 16
	call	_ZN4core9panicking9panic_fmt17h38a84a0a59f0bde7E
	unimp	
.Ltmp240:
.Lfunc_end28:
	.size	__rdl_oom, .Lfunc_end28-__rdl_oom
	.cfi_endproc

	.section	".text._ZN71_$LT$alloc..boxed..Box$LT$str$GT$$u20$as$u20$core..default..Default$GT$7default17hb78e7dcba44058baE","ax",@progbits
	.globl	_ZN71_$LT$alloc..boxed..Box$LT$str$GT$$u20$as$u20$core..default..Default$GT$7default17hb78e7dcba44058baE
	.p2align	1
	.type	_ZN71_$LT$alloc..boxed..Box$LT$str$GT$$u20$as$u20$core..default..Default$GT$7default17hb78e7dcba44058baE,@function
_ZN71_$LT$alloc..boxed..Box$LT$str$GT$$u20$as$u20$core..default..Default$GT$7default17hb78e7dcba44058baE:
.Lfunc_begin29:
	.file	20 "/Users/georg/.rustup/toolchains/nightly-2023-01-03-aarch64-apple-darwin/lib/rustlib/src/rust/library/alloc" "src/boxed.rs"
	.loc	20 1265 0
	.cfi_startproc
	.loc	20 1272 6 prologue_end
	li	a0, 1
	li	a1, 0
	ret
.Ltmp241:
.Lfunc_end29:
	.size	_ZN71_$LT$alloc..boxed..Box$LT$str$GT$$u20$as$u20$core..default..Default$GT$7default17hb78e7dcba44058baE, .Lfunc_end29-_ZN71_$LT$alloc..boxed..Box$LT$str$GT$$u20$as$u20$core..default..Default$GT$7default17hb78e7dcba44058baE
	.cfi_endproc

	.section	".text._ZN67_$LT$alloc..boxed..Box$LT$str$GT$$u20$as$u20$core..clone..Clone$GT$5clone17h2cc726b399646242E","ax",@progbits
	.globl	_ZN67_$LT$alloc..boxed..Box$LT$str$GT$$u20$as$u20$core..clone..Clone$GT$5clone17h2cc726b399646242E
	.p2align	1
	.type	_ZN67_$LT$alloc..boxed..Box$LT$str$GT$$u20$as$u20$core..clone..Clone$GT$5clone17h2cc726b399646242E,@function
_ZN67_$LT$alloc..boxed..Box$LT$str$GT$$u20$as$u20$core..clone..Clone$GT$5clone17h2cc726b399646242E:
.Lfunc_begin30:
	.loc	20 1328 0
	.cfi_startproc
	addi	sp, sp, -16
	.cfi_def_cfa_offset 16
.Ltmp242:
	.loc	20 1330 30 prologue_end
	sw	ra, 12(sp)
	sw	s0, 8(sp)
	sw	s1, 4(sp)
	sw	s2, 0(sp)
	.cfi_offset ra, -4
	.cfi_offset s0, -8
	.cfi_offset s1, -12
	.cfi_offset s2, -16
	lw	s0, 4(a0)
.Ltmp243:
	lw	s2, 0(a0)
.Ltmp244:
	.loc	10 171 12
	beqz	s0, .LBB30_4
.Ltmp245:
	.loc	10 176 26
	bltz	s0, .LBB30_6
.Ltmp246:
	.loc	11 95 14
	li	a1, 1
	mv	a0, s0
.Ltmp247:
	call	__rust_alloc
	mv	s1, a0
.Ltmp248:
	.loc	10 188 23
	bnez	a0, .LBB30_5
.Ltmp249:
	.loc	10 190 27
	li	a1, 1
	mv	a0, s0
	call	_ZN5alloc5alloc18handle_alloc_error17hd9333cd203b4ffb7E
	unimp	
.Ltmp250:
.LBB30_4:
	.loc	10 0 27 is_stmt 0
	li	s1, 1
.Ltmp251:
.LBB30_5:
	.loc	15 2372 9 is_stmt 1
	mv	a0, s1
	mv	a1, s2
	mv	a2, s0
	call	memcpy@plt
.Ltmp252:
	.loc	20 1332 6
	mv	a0, s1
	mv	a1, s0
	lw	ra, 12(sp)
	lw	s0, 8(sp)
.Ltmp253:
	lw	s1, 4(sp)
.Ltmp254:
	lw	s2, 0(sp)
.Ltmp255:
	addi	sp, sp, 16
	ret
.Ltmp256:
.LBB30_6:
	.loc	10 178 27
	call	_ZN5alloc7raw_vec17capacity_overflow17h2c1c04a797021fabE
.Ltmp257:
	unimp	
.Ltmp258:
.Lfunc_end30:
	.size	_ZN67_$LT$alloc..boxed..Box$LT$str$GT$$u20$as$u20$core..clone..Clone$GT$5clone17h2cc726b399646242E, .Lfunc_end30-_ZN67_$LT$alloc..boxed..Box$LT$str$GT$$u20$as$u20$core..clone..Clone$GT$5clone17h2cc726b399646242E
	.cfi_endproc
	.file	21 "/Users/georg/.rustup/toolchains/nightly-2023-01-03-aarch64-apple-darwin/lib/rustlib/src/rust/library/core/src/convert" "mod.rs"

	.section	".text._ZN223_$LT$$LT$alloc..boxed..Box$LT$dyn$u20$core..error..Error$u2b$core..marker..Send$u2b$core..marker..Sync$GT$$u20$as$u20$core..convert..From$LT$alloc..string..String$GT$$GT$..from..StringError$u20$as$u20$core..error..Error$GT$11description17h607d5e4b4698c1e9E","ax",@progbits
	.globl	_ZN223_$LT$$LT$alloc..boxed..Box$LT$dyn$u20$core..error..Error$u2b$core..marker..Send$u2b$core..marker..Sync$GT$$u20$as$u20$core..convert..From$LT$alloc..string..String$GT$$GT$..from..StringError$u20$as$u20$core..error..Error$GT$11description17h607d5e4b4698c1e9E
	.p2align	1
	.type	_ZN223_$LT$$LT$alloc..boxed..Box$LT$dyn$u20$core..error..Error$u2b$core..marker..Send$u2b$core..marker..Sync$GT$$u20$as$u20$core..convert..From$LT$alloc..string..String$GT$$GT$..from..StringError$u20$as$u20$core..error..Error$GT$11description17h607d5e4b4698c1e9E,@function
_ZN223_$LT$$LT$alloc..boxed..Box$LT$dyn$u20$core..error..Error$u2b$core..marker..Send$u2b$core..marker..Sync$GT$$u20$as$u20$core..convert..From$LT$alloc..string..String$GT$$GT$..from..StringError$u20$as$u20$core..error..Error$GT$11description17h607d5e4b4698c1e9E:
.Lfunc_begin31:
	.loc	20 2280 0
	.cfi_startproc
	.loc	13 2460 43 prologue_end
	lw	a2, 4(a0)
	lw	a1, 8(a0)
.Ltmp259:
	.loc	20 2282 14
	mv	a0, a2
.Ltmp260:
	ret
.Ltmp261:
.Lfunc_end31:
	.size	_ZN223_$LT$$LT$alloc..boxed..Box$LT$dyn$u20$core..error..Error$u2b$core..marker..Send$u2b$core..marker..Sync$GT$$u20$as$u20$core..convert..From$LT$alloc..string..String$GT$$GT$..from..StringError$u20$as$u20$core..error..Error$GT$11description17h607d5e4b4698c1e9E, .Lfunc_end31-_ZN223_$LT$$LT$alloc..boxed..Box$LT$dyn$u20$core..error..Error$u2b$core..marker..Send$u2b$core..marker..Sync$GT$$u20$as$u20$core..convert..From$LT$alloc..string..String$GT$$GT$..from..StringError$u20$as$u20$core..error..Error$GT$11description17h607d5e4b4698c1e9E
	.cfi_endproc

	.section	".text._ZN223_$LT$$LT$alloc..boxed..Box$LT$dyn$u20$core..error..Error$u2b$core..marker..Send$u2b$core..marker..Sync$GT$$u20$as$u20$core..convert..From$LT$alloc..string..String$GT$$GT$..from..StringError$u20$as$u20$core..fmt..Display$GT$3fmt17h380b3fd264ba2a9bE","ax",@progbits
	.globl	_ZN223_$LT$$LT$alloc..boxed..Box$LT$dyn$u20$core..error..Error$u2b$core..marker..Send$u2b$core..marker..Sync$GT$$u20$as$u20$core..convert..From$LT$alloc..string..String$GT$$GT$..from..StringError$u20$as$u20$core..fmt..Display$GT$3fmt17h380b3fd264ba2a9bE
	.p2align	1
	.type	_ZN223_$LT$$LT$alloc..boxed..Box$LT$dyn$u20$core..error..Error$u2b$core..marker..Send$u2b$core..marker..Sync$GT$$u20$as$u20$core..convert..From$LT$alloc..string..String$GT$$GT$..from..StringError$u20$as$u20$core..fmt..Display$GT$3fmt17h380b3fd264ba2a9bE,@function
_ZN223_$LT$$LT$alloc..boxed..Box$LT$dyn$u20$core..error..Error$u2b$core..marker..Send$u2b$core..marker..Sync$GT$$u20$as$u20$core..convert..From$LT$alloc..string..String$GT$$GT$..from..StringError$u20$as$u20$core..fmt..Display$GT$3fmt17h380b3fd264ba2a9bE:
.Lfunc_begin32:
	.loc	20 2286 0
	.cfi_startproc
	.loc	20 2287 17 prologue_end
	lw	a2, 4(a0)
	lw	a3, 8(a0)
.Ltmp262:
	.loc	20 0 17 is_stmt 0
	mv	a4, a1
.Ltmp263:
	.loc	13 2275 9 is_stmt 1
	mv	a0, a2
.Ltmp264:
	mv	a1, a3
	mv	a2, a4
.Ltmp265:
	tail	_ZN42_$LT$str$u20$as$u20$core..fmt..Display$GT$3fmt17hbfabe9198c18d813E
.Ltmp266:
.Lfunc_end32:
	.size	_ZN223_$LT$$LT$alloc..boxed..Box$LT$dyn$u20$core..error..Error$u2b$core..marker..Send$u2b$core..marker..Sync$GT$$u20$as$u20$core..convert..From$LT$alloc..string..String$GT$$GT$..from..StringError$u20$as$u20$core..fmt..Display$GT$3fmt17h380b3fd264ba2a9bE, .Lfunc_end32-_ZN223_$LT$$LT$alloc..boxed..Box$LT$dyn$u20$core..error..Error$u2b$core..marker..Send$u2b$core..marker..Sync$GT$$u20$as$u20$core..convert..From$LT$alloc..string..String$GT$$GT$..from..StringError$u20$as$u20$core..fmt..Display$GT$3fmt17h380b3fd264ba2a9bE
	.cfi_endproc

	.section	".text._ZN221_$LT$$LT$alloc..boxed..Box$LT$dyn$u20$core..error..Error$u2b$core..marker..Send$u2b$core..marker..Sync$GT$$u20$as$u20$core..convert..From$LT$alloc..string..String$GT$$GT$..from..StringError$u20$as$u20$core..fmt..Debug$GT$3fmt17h80919c7767221e1eE","ax",@progbits
	.globl	_ZN221_$LT$$LT$alloc..boxed..Box$LT$dyn$u20$core..error..Error$u2b$core..marker..Send$u2b$core..marker..Sync$GT$$u20$as$u20$core..convert..From$LT$alloc..string..String$GT$$GT$..from..StringError$u20$as$u20$core..fmt..Debug$GT$3fmt17h80919c7767221e1eE
	.p2align	1
	.type	_ZN221_$LT$$LT$alloc..boxed..Box$LT$dyn$u20$core..error..Error$u2b$core..marker..Send$u2b$core..marker..Sync$GT$$u20$as$u20$core..convert..From$LT$alloc..string..String$GT$$GT$..from..StringError$u20$as$u20$core..fmt..Debug$GT$3fmt17h80919c7767221e1eE,@function
_ZN221_$LT$$LT$alloc..boxed..Box$LT$dyn$u20$core..error..Error$u2b$core..marker..Send$u2b$core..marker..Sync$GT$$u20$as$u20$core..convert..From$LT$alloc..string..String$GT$$GT$..from..StringError$u20$as$u20$core..fmt..Debug$GT$3fmt17h80919c7767221e1eE:
.Lfunc_begin33:
	.loc	20 2293 0
	.cfi_startproc
	.loc	20 2294 17 prologue_end
	lw	a2, 4(a0)
	lw	a3, 8(a0)
.Ltmp267:
	.loc	20 0 17 is_stmt 0
	mv	a4, a1
.Ltmp268:
	.loc	13 2283 9 is_stmt 1
	mv	a0, a2
.Ltmp269:
	mv	a1, a3
	mv	a2, a4
.Ltmp270:
	tail	_ZN40_$LT$str$u20$as$u20$core..fmt..Debug$GT$3fmt17h329a77865969649fE
.Ltmp271:
.Lfunc_end33:
	.size	_ZN221_$LT$$LT$alloc..boxed..Box$LT$dyn$u20$core..error..Error$u2b$core..marker..Send$u2b$core..marker..Sync$GT$$u20$as$u20$core..convert..From$LT$alloc..string..String$GT$$GT$..from..StringError$u20$as$u20$core..fmt..Debug$GT$3fmt17h80919c7767221e1eE, .Lfunc_end33-_ZN221_$LT$$LT$alloc..boxed..Box$LT$dyn$u20$core..error..Error$u2b$core..marker..Send$u2b$core..marker..Sync$GT$$u20$as$u20$core..convert..From$LT$alloc..string..String$GT$$GT$..from..StringError$u20$as$u20$core..fmt..Debug$GT$3fmt17h80919c7767221e1eE
	.cfi_endproc

	.section	".text._ZN120_$LT$alloc..boxed..Box$LT$dyn$u20$core..error..Error$GT$$u20$as$u20$core..convert..From$LT$alloc..string..String$GT$$GT$4from17h0dba0cd00fa1e306E","ax",@progbits
	.globl	_ZN120_$LT$alloc..boxed..Box$LT$dyn$u20$core..error..Error$GT$$u20$as$u20$core..convert..From$LT$alloc..string..String$GT$$GT$4from17h0dba0cd00fa1e306E
	.p2align	1
	.type	_ZN120_$LT$alloc..boxed..Box$LT$dyn$u20$core..error..Error$GT$$u20$as$u20$core..convert..From$LT$alloc..string..String$GT$$GT$4from17h0dba0cd00fa1e306E,@function
_ZN120_$LT$alloc..boxed..Box$LT$dyn$u20$core..error..Error$GT$$u20$as$u20$core..convert..From$LT$alloc..string..String$GT$$GT$4from17h0dba0cd00fa1e306E:
.Lfunc_begin34:
	.loc	20 2317 0
	.cfi_startproc
	addi	sp, sp, -16
	.cfi_def_cfa_offset 16
	sw	ra, 12(sp)
	sw	s0, 8(sp)
	.cfi_offset ra, -4
	.cfi_offset s0, -8
	mv	s0, a0
.Ltmp272:
	.loc	11 95 14 prologue_end
	li	a0, 12
	li	a1, 4
	call	__rust_alloc
.Ltmp273:
	.loc	11 326 5
	beqz	a0, .LBB34_2
.Ltmp274:
	.loc	20 219 18
	lw	a1, 8(s0)
	lw	a2, 4(s0)
	sw	a1, 8(a0)
	lw	a3, 0(s0)
	sw	a2, 4(a0)
.Ltmp275:
	.loc	20 2321 6
	lui	a1, %hi(.L__unnamed_3)
	addi	a1, a1, %lo(.L__unnamed_3)
.Ltmp276:
	.loc	20 219 18
	sw	a3, 0(a0)
.Ltmp277:
	.loc	20 2321 6
	lw	ra, 12(sp)
	lw	s0, 8(sp)
.Ltmp278:
	addi	sp, sp, 16
	ret
.LBB34_2:
.Ltmp279:
	.loc	11 328 19
	li	a0, 12
	li	a1, 4
	call	_ZN5alloc5alloc18handle_alloc_error17hd9333cd203b4ffb7E
	unimp	
.Ltmp280:
.Lfunc_end34:
	.size	_ZN120_$LT$alloc..boxed..Box$LT$dyn$u20$core..error..Error$GT$$u20$as$u20$core..convert..From$LT$alloc..string..String$GT$$GT$4from17h0dba0cd00fa1e306E, .Lfunc_end34-_ZN120_$LT$alloc..boxed..Box$LT$dyn$u20$core..error..Error$GT$$u20$as$u20$core..convert..From$LT$alloc..string..String$GT$$GT$4from17h0dba0cd00fa1e306E
	.cfi_endproc

	.section	".text._ZN106_$LT$alloc..boxed..Box$LT$dyn$u20$core..error..Error$GT$$u20$as$u20$core..convert..From$LT$$RF$str$GT$$GT$4from17he8f09f607d18deaeE","ax",@progbits
	.globl	_ZN106_$LT$alloc..boxed..Box$LT$dyn$u20$core..error..Error$GT$$u20$as$u20$core..convert..From$LT$$RF$str$GT$$GT$4from17he8f09f607d18deaeE
	.p2align	1
	.type	_ZN106_$LT$alloc..boxed..Box$LT$dyn$u20$core..error..Error$GT$$u20$as$u20$core..convert..From$LT$$RF$str$GT$$GT$4from17he8f09f607d18deaeE,@function
_ZN106_$LT$alloc..boxed..Box$LT$dyn$u20$core..error..Error$GT$$u20$as$u20$core..convert..From$LT$$RF$str$GT$$GT$4from17he8f09f607d18deaeE:
.Lfunc_begin35:
	.loc	20 2365 0
	.cfi_startproc
	addi	sp, sp, -16
	.cfi_def_cfa_offset 16
.Ltmp281:
	.loc	13 0 0 is_stmt 0
	sw	ra, 12(sp)
	sw	s0, 8(sp)
	sw	s1, 4(sp)
	sw	s2, 0(sp)
	.cfi_offset ra, -4
	.cfi_offset s0, -8
	.cfi_offset s1, -12
	.cfi_offset s2, -16
.Ltmp282:
	mv	s0, a1
.Ltmp283:
	mv	s2, a0
.Ltmp284:
	.loc	10 171 12 prologue_end is_stmt 1
	beqz	a1, .LBB35_4
.Ltmp285:
	.loc	10 176 26
	bltz	s0, .LBB35_8
.Ltmp286:
	.loc	11 95 14
	li	a1, 1
	mv	a0, s0
	call	__rust_alloc
	mv	s1, a0
.Ltmp287:
	.loc	10 188 23
	bnez	a0, .LBB35_5
.Ltmp288:
	.loc	10 190 27
	li	a1, 1
	mv	a0, s0
	call	_ZN5alloc5alloc18handle_alloc_error17hd9333cd203b4ffb7E
	unimp	
.Ltmp289:
.LBB35_4:
	.loc	10 0 27 is_stmt 0
	li	s1, 1
.Ltmp290:
.LBB35_5:
	.loc	15 2372 9 is_stmt 1
	mv	a0, s1
	mv	a1, s2
	mv	a2, s0
	call	memcpy@plt
.Ltmp291:
	.loc	11 95 14
	li	a0, 12
	li	a1, 4
	call	__rust_alloc
.Ltmp292:
	.loc	11 326 5
	beqz	a0, .LBB35_7
.Ltmp293:
	.loc	20 219 18
	sw	s0, 0(a0)
	sw	s1, 4(a0)
.Ltmp294:
	.loc	20 2321 6
	lui	a1, %hi(.L__unnamed_3)
	addi	a1, a1, %lo(.L__unnamed_3)
.Ltmp295:
	.loc	20 219 18
	sw	s0, 8(a0)
.Ltmp296:
	.loc	20 2367 6
	lw	ra, 12(sp)
	lw	s0, 8(sp)
.Ltmp297:
	lw	s1, 4(sp)
.Ltmp298:
	lw	s2, 0(sp)
.Ltmp299:
	addi	sp, sp, 16
	ret
.LBB35_7:
.Ltmp300:
	.loc	11 328 19
	li	a0, 12
	li	a1, 4
	call	_ZN5alloc5alloc18handle_alloc_error17hd9333cd203b4ffb7E
	unimp	
.Ltmp301:
.LBB35_8:
	.loc	10 178 27
	call	_ZN5alloc7raw_vec17capacity_overflow17h2c1c04a797021fabE
	unimp	
.Ltmp302:
.Lfunc_end35:
	.size	_ZN106_$LT$alloc..boxed..Box$LT$dyn$u20$core..error..Error$GT$$u20$as$u20$core..convert..From$LT$$RF$str$GT$$GT$4from17he8f09f607d18deaeE, .Lfunc_end35-_ZN106_$LT$alloc..boxed..Box$LT$dyn$u20$core..error..Error$GT$$u20$as$u20$core..convert..From$LT$$RF$str$GT$$GT$4from17he8f09f607d18deaeE
	.cfi_endproc
	.file	22 "/Users/georg/.rustup/toolchains/nightly-2023-01-03-aarch64-apple-darwin/lib/rustlib/src/rust/library/alloc" "src/slice.rs"
	.file	23 "/Users/georg/.rustup/toolchains/nightly-2023-01-03-aarch64-apple-darwin/lib/rustlib/src/rust/library/alloc" "src/str.rs"
	.file	24 "/Users/georg/.rustup/toolchains/nightly-2023-01-03-aarch64-apple-darwin/lib/rustlib/src/rust/library/core/src/ptr" "const_ptr.rs"

	.section	".text._ZN174_$LT$alloc..boxed..Box$LT$dyn$u20$core..error..Error$u2b$core..marker..Send$u2b$core..marker..Sync$GT$$u20$as$u20$core..convert..From$LT$alloc..borrow..Cow$LT$str$GT$$GT$$GT$4from17h6aa1ddb9d2323b80E","ax",@progbits
	.globl	_ZN174_$LT$alloc..boxed..Box$LT$dyn$u20$core..error..Error$u2b$core..marker..Send$u2b$core..marker..Sync$GT$$u20$as$u20$core..convert..From$LT$alloc..borrow..Cow$LT$str$GT$$GT$$GT$4from17h6aa1ddb9d2323b80E
	.p2align	1
	.type	_ZN174_$LT$alloc..boxed..Box$LT$dyn$u20$core..error..Error$u2b$core..marker..Send$u2b$core..marker..Sync$GT$$u20$as$u20$core..convert..From$LT$alloc..borrow..Cow$LT$str$GT$$GT$$GT$4from17h6aa1ddb9d2323b80E,@function
_ZN174_$LT$alloc..boxed..Box$LT$dyn$u20$core..error..Error$u2b$core..marker..Send$u2b$core..marker..Sync$GT$$u20$as$u20$core..convert..From$LT$alloc..borrow..Cow$LT$str$GT$$GT$$GT$4from17h6aa1ddb9d2323b80E:
.Lfunc_begin36:
	.loc	20 2387 0
	.cfi_startproc
	addi	sp, sp, -32
	.cfi_def_cfa_offset 32
.Ltmp303:
	.loc	20 2388 33 prologue_end
	sw	ra, 28(sp)
	sw	s0, 24(sp)
	sw	s1, 20(sp)
	sw	s2, 16(sp)
	sw	s3, 12(sp)
	.cfi_offset ra, -4
	.cfi_offset s0, -8
	.cfi_offset s1, -12
	.cfi_offset s2, -16
	.cfi_offset s3, -20
	lw	a1, 0(a0)
	lw	s2, 4(a0)
	lw	s0, 8(a0)
.Ltmp304:
	.file	25 "/Users/georg/.rustup/toolchains/nightly-2023-01-03-aarch64-apple-darwin/lib/rustlib/src/rust/library/alloc" "src/borrow.rs"
	.loc	25 323 9
	beqz	a1, .LBB36_3
.Ltmp305:
	.loc	20 2388 33
	lw	s3, 12(a0)
	mv	s1, s0
	mv	s0, s2
.Ltmp306:
	.loc	11 95 14
	li	a0, 12
.Ltmp307:
	li	a1, 4
	call	__rust_alloc
.Ltmp308:
	.loc	11 326 5
	beqz	a0, .LBB36_9
.Ltmp309:
.LBB36_2:
	.loc	20 219 18
	sw	s0, 0(a0)
	sw	s1, 4(a0)
.Ltmp310:
	.loc	20 2389 6
	lui	a1, %hi(.L__unnamed_3)
	addi	a1, a1, %lo(.L__unnamed_3)
.Ltmp311:
	.loc	20 219 18
	sw	s3, 8(a0)
.Ltmp312:
	.loc	20 2389 6
	lw	ra, 28(sp)
	lw	s0, 24(sp)
.Ltmp313:
	lw	s1, 20(sp)
.Ltmp314:
	lw	s2, 16(sp)
	lw	s3, 12(sp)
.Ltmp315:
	addi	sp, sp, 32
	ret
.LBB36_3:
.Ltmp316:
	.loc	10 171 12
	beqz	s0, .LBB36_7
.Ltmp317:
	.loc	10 176 26
	bltz	s0, .LBB36_10
.Ltmp318:
	.loc	11 95 14
	li	a1, 1
.Ltmp319:
	mv	a0, s0
.Ltmp320:
	call	__rust_alloc
	mv	s1, a0
.Ltmp321:
	.loc	10 188 23
	bnez	a0, .LBB36_8
.Ltmp322:
	.loc	10 190 27
	li	a1, 1
	mv	a0, s0
	call	_ZN5alloc5alloc18handle_alloc_error17hd9333cd203b4ffb7E
	unimp	
.Ltmp323:
.LBB36_7:
	.loc	10 0 27 is_stmt 0
	li	s1, 1
.Ltmp324:
.LBB36_8:
	.loc	15 2372 9 is_stmt 1
	mv	a0, s1
	mv	a1, s2
	mv	a2, s0
	call	memcpy@plt
.Ltmp325:
	.loc	15 0 9 is_stmt 0
	mv	s3, s0
.Ltmp326:
	.loc	11 95 14 is_stmt 1
	li	a0, 12
	li	a1, 4
	call	__rust_alloc
.Ltmp327:
	.loc	11 326 5
	bnez	a0, .LBB36_2
.Ltmp328:
.LBB36_9:
	.loc	11 328 19
	li	a0, 12
	li	a1, 4
	call	_ZN5alloc5alloc18handle_alloc_error17hd9333cd203b4ffb7E
	unimp	
.Ltmp329:
.LBB36_10:
	.loc	10 178 27
	call	_ZN5alloc7raw_vec17capacity_overflow17h2c1c04a797021fabE
.Ltmp330:
	unimp	
.Ltmp331:
.Lfunc_end36:
	.size	_ZN174_$LT$alloc..boxed..Box$LT$dyn$u20$core..error..Error$u2b$core..marker..Send$u2b$core..marker..Sync$GT$$u20$as$u20$core..convert..From$LT$alloc..borrow..Cow$LT$str$GT$$GT$$GT$4from17h6aa1ddb9d2323b80E, .Lfunc_end36-_ZN174_$LT$alloc..boxed..Box$LT$dyn$u20$core..error..Error$u2b$core..marker..Send$u2b$core..marker..Sync$GT$$u20$as$u20$core..convert..From$LT$alloc..borrow..Cow$LT$str$GT$$GT$$GT$4from17h6aa1ddb9d2323b80E
	.cfi_endproc

	.section	".text._ZN128_$LT$alloc..boxed..Box$LT$dyn$u20$core..error..Error$GT$$u20$as$u20$core..convert..From$LT$alloc..borrow..Cow$LT$str$GT$$GT$$GT$4from17h44016b48a6d81bf3E","ax",@progbits
	.globl	_ZN128_$LT$alloc..boxed..Box$LT$dyn$u20$core..error..Error$GT$$u20$as$u20$core..convert..From$LT$alloc..borrow..Cow$LT$str$GT$$GT$$GT$4from17h44016b48a6d81bf3E
	.p2align	1
	.type	_ZN128_$LT$alloc..boxed..Box$LT$dyn$u20$core..error..Error$GT$$u20$as$u20$core..convert..From$LT$alloc..borrow..Cow$LT$str$GT$$GT$$GT$4from17h44016b48a6d81bf3E,@function
_ZN128_$LT$alloc..boxed..Box$LT$dyn$u20$core..error..Error$GT$$u20$as$u20$core..convert..From$LT$alloc..borrow..Cow$LT$str$GT$$GT$$GT$4from17h44016b48a6d81bf3E:
.Lfunc_begin37:
	.loc	20 2408 0
	.cfi_startproc
	addi	sp, sp, -32
	.cfi_def_cfa_offset 32
.Ltmp332:
	.loc	20 2409 33 prologue_end
	sw	ra, 28(sp)
	sw	s0, 24(sp)
	sw	s1, 20(sp)
	sw	s2, 16(sp)
	sw	s3, 12(sp)
	.cfi_offset ra, -4
	.cfi_offset s0, -8
	.cfi_offset s1, -12
	.cfi_offset s2, -16
	.cfi_offset s3, -20
	lw	a1, 0(a0)
	lw	s2, 4(a0)
	lw	s0, 8(a0)
.Ltmp333:
	.loc	25 323 9
	beqz	a1, .LBB37_3
.Ltmp334:
	.loc	20 2409 33
	lw	s3, 12(a0)
	mv	s1, s0
	mv	s0, s2
.Ltmp335:
	.loc	11 95 14
	li	a0, 12
.Ltmp336:
	li	a1, 4
	call	__rust_alloc
.Ltmp337:
	.loc	11 326 5
	beqz	a0, .LBB37_9
.Ltmp338:
.LBB37_2:
	.loc	20 219 18
	sw	s0, 0(a0)
	sw	s1, 4(a0)
.Ltmp339:
	.loc	20 2321 6
	lui	a1, %hi(.L__unnamed_3)
	addi	a1, a1, %lo(.L__unnamed_3)
.Ltmp340:
	.loc	20 219 18
	sw	s3, 8(a0)
.Ltmp341:
	.loc	20 2410 6
	lw	ra, 28(sp)
	lw	s0, 24(sp)
.Ltmp342:
	lw	s1, 20(sp)
.Ltmp343:
	lw	s2, 16(sp)
	lw	s3, 12(sp)
.Ltmp344:
	addi	sp, sp, 32
	ret
.LBB37_3:
.Ltmp345:
	.loc	10 171 12
	beqz	s0, .LBB37_7
.Ltmp346:
	.loc	10 176 26
	bltz	s0, .LBB37_10
.Ltmp347:
	.loc	11 95 14
	li	a1, 1
.Ltmp348:
	mv	a0, s0
.Ltmp349:
	call	__rust_alloc
	mv	s1, a0
.Ltmp350:
	.loc	10 188 23
	bnez	a0, .LBB37_8
.Ltmp351:
	.loc	10 190 27
	li	a1, 1
	mv	a0, s0
	call	_ZN5alloc5alloc18handle_alloc_error17hd9333cd203b4ffb7E
	unimp	
.Ltmp352:
.LBB37_7:
	.loc	10 0 27 is_stmt 0
	li	s1, 1
.Ltmp353:
.LBB37_8:
	.loc	15 2372 9 is_stmt 1
	mv	a0, s1
	mv	a1, s2
	mv	a2, s0
	call	memcpy@plt
.Ltmp354:
	.loc	15 0 9 is_stmt 0
	mv	s3, s0
.Ltmp355:
	.loc	11 95 14 is_stmt 1
	li	a0, 12
	li	a1, 4
	call	__rust_alloc
.Ltmp356:
	.loc	11 326 5
	bnez	a0, .LBB37_2
.Ltmp357:
.LBB37_9:
	.loc	11 328 19
	li	a0, 12
	li	a1, 4
	call	_ZN5alloc5alloc18handle_alloc_error17hd9333cd203b4ffb7E
	unimp	
.Ltmp358:
.LBB37_10:
	.loc	10 178 27
	call	_ZN5alloc7raw_vec17capacity_overflow17h2c1c04a797021fabE
.Ltmp359:
	unimp	
.Ltmp360:
.Lfunc_end37:
	.size	_ZN128_$LT$alloc..boxed..Box$LT$dyn$u20$core..error..Error$GT$$u20$as$u20$core..convert..From$LT$alloc..borrow..Cow$LT$str$GT$$GT$$GT$4from17h44016b48a6d81bf3E, .Lfunc_end37-_ZN128_$LT$alloc..boxed..Box$LT$dyn$u20$core..error..Error$GT$$u20$as$u20$core..convert..From$LT$alloc..borrow..Cow$LT$str$GT$$GT$$GT$4from17h44016b48a6d81bf3E
	.cfi_endproc

	.section	".text._ZN92_$LT$alloc..borrow..Cow$LT$str$GT$$u20$as$u20$core..ops..arith..AddAssign$LT$$RF$str$GT$$GT$10add_assign17hb6be10ab55b06473E","ax",@progbits
	.globl	_ZN92_$LT$alloc..borrow..Cow$LT$str$GT$$u20$as$u20$core..ops..arith..AddAssign$LT$$RF$str$GT$$GT$10add_assign17hb6be10ab55b06473E
	.p2align	1
	.type	_ZN92_$LT$alloc..borrow..Cow$LT$str$GT$$u20$as$u20$core..ops..arith..AddAssign$LT$$RF$str$GT$$GT$10add_assign17hb6be10ab55b06473E,@function
_ZN92_$LT$alloc..borrow..Cow$LT$str$GT$$u20$as$u20$core..ops..arith..AddAssign$LT$$RF$str$GT$$GT$10add_assign17hb6be10ab55b06473E:
.Lfunc_begin38:
	.loc	25 465 0
	.cfi_startproc
	addi	sp, sp, -48
	.cfi_def_cfa_offset 48
	sw	ra, 44(sp)
	sw	s0, 40(sp)
	sw	s1, 36(sp)
	sw	s2, 32(sp)
	sw	s3, 28(sp)
	sw	s4, 24(sp)
	sw	s5, 20(sp)
	sw	s6, 16(sp)
	sw	s7, 12(sp)
	.cfi_offset ra, -4
	.cfi_offset s0, -8
	.cfi_offset s1, -12
	.cfi_offset s2, -16
	.cfi_offset s3, -20
	.cfi_offset s4, -24
	.cfi_offset s5, -28
	.cfi_offset s6, -32
	.cfi_offset s7, -36
	mv	s0, a0
.Ltmp361:
	.loc	25 339 15 prologue_end
	lw	a0, 0(a0)
	.loc	25 0 0 is_stmt 0
	lw	s6, 8(s0)
	lw	s1, 12(s0)
	mv	s3, a2
.Ltmp362:
	mv	s2, a1
.Ltmp363:
	mv	a1, s6
	beqz	a0, .LBB38_2
.Ltmp364:
	mv	a1, s1
.Ltmp365:
.LBB38_2:
	lw	s4, 4(s0)
	.loc	25 466 12 is_stmt 1
	beqz	a1, .LBB38_9
.Ltmp366:
	.loc	25 468 19
	beqz	s3, .LBB38_17
.Ltmp367:
	.loc	25 0 0 is_stmt 0
	addi	s5, s0, 4
.Ltmp368:
	.loc	25 469 20 is_stmt 1
	bnez	a0, .LBB38_15
.Ltmp369:
	.loc	25 470 51
	add	s1, s6, s3
.Ltmp370:
	.loc	10 171 12
	beqz	s1, .LBB38_12
.Ltmp371:
	.loc	10 176 26
	bltz	s1, .LBB38_20
.Ltmp372:
	.loc	11 95 14
	li	a1, 1
	mv	a0, s1
	call	__rust_alloc
.Ltmp373:
	.loc	10 188 23
	bnez	a0, .LBB38_13
.Ltmp374:
	.loc	10 190 27
	li	a1, 1
	mv	a0, s1
.Ltmp375:
	call	_ZN5alloc5alloc18handle_alloc_error17hd9333cd203b4ffb7E
	unimp	
.Ltmp376:
.LBB38_9:
	.loc	25 339 9
	seqz	a0, a0
	seqz	a1, s4
.Ltmp377:
	.loc	9 490 1
	or	a0, a0, a1
.Ltmp378:
	bnez	a0, .LBB38_11
.Ltmp379:
	.loc	11 113 14
	li	a2, 1
	mv	a0, s6
	mv	a1, s4
	call	__rust_dealloc
.Ltmp380:
.LBB38_11:
	.loc	25 467 13
	sw	zero, 0(s0)
	sw	s2, 4(s0)
	sw	s3, 8(s0)
	j	.LBB38_17
.Ltmp381:
.LBB38_12:
	.loc	25 0 13 is_stmt 0
	li	a0, 1
.Ltmp382:
.LBB38_13:
	li	s7, 0
.Ltmp383:
	.loc	13 501 9 is_stmt 1
	sw	s1, 0(sp)
	sw	a0, 4(sp)
	sw	zero, 8(sp)
.Ltmp384:
	.loc	10 288 12
	bltu	s1, s6, .LBB38_19
.Ltmp385:
.LBB38_14:
	.loc	5 499 18
	add	a0, a0, s7
.Ltmp386:
	.loc	15 2372 9
	mv	a1, s4
	mv	a2, s6
	call	memcpy@plt
.Ltmp387:
	.loc	7 1950 9
	add	a0, s7, s6
	sw	a0, 8(sp)
	li	a0, 1
.Ltmp388:
	.loc	25 472 17
	lw	a1, 8(sp)
	lw	a2, 4(sp)
	lw	a3, 0(sp)
	sw	a0, 0(s0)
	sw	a1, 8(s5)
	sw	a2, 4(s5)
	sw	a3, 0(s5)
.Ltmp389:
	.loc	7 907 26
	lw	s1, 12(s0)
.Ltmp390:
	.loc	10 288 12
	lw	s4, 4(s0)
.Ltmp391:
.LBB38_15:
	.loc	14 1203 13
	sub	a0, s4, s1
.Ltmp392:
	.loc	10 288 12
	bltu	a0, s3, .LBB38_18
.Ltmp393:
.LBB38_16:
	.loc	10 224 9
	lw	a0, 8(s0)
.Ltmp394:
	.loc	5 499 18
	add	a0, a0, s1
.Ltmp395:
	.loc	15 2372 9
	mv	a1, s2
	mv	a2, s3
	call	memcpy@plt
.Ltmp396:
	.loc	7 1950 9
	add	a0, s1, s3
	sw	a0, 12(s0)
.Ltmp397:
.LBB38_17:
	.loc	25 476 6
	lw	ra, 44(sp)
	lw	s0, 40(sp)
.Ltmp398:
	lw	s1, 36(sp)
	lw	s2, 32(sp)
.Ltmp399:
	lw	s3, 28(sp)
.Ltmp400:
	lw	s4, 24(sp)
	lw	s5, 20(sp)
	lw	s6, 16(sp)
	lw	s7, 12(sp)
	addi	sp, sp, 48
	ret
.LBB38_18:
.Ltmp401:
	.loc	10 289 13
	mv	a0, s5
	mv	a1, s1
	mv	a2, s3
	call	_ZN5alloc7raw_vec19RawVec$LT$T$C$A$GT$7reserve21do_reserve_and_handle17hc60fe6a21a566324E
.Ltmp402:
	.loc	7 2057 9
	lw	s1, 12(s0)
.Ltmp403:
	.loc	7 0 9 is_stmt 0
	j	.LBB38_16
.Ltmp404:
.LBB38_19:
	.loc	10 289 13 is_stmt 1
	mv	a0, sp
	li	a1, 0
	mv	a2, s6
	call	_ZN5alloc7raw_vec19RawVec$LT$T$C$A$GT$7reserve21do_reserve_and_handle17hc60fe6a21a566324E
.Ltmp405:
	.loc	7 2057 9
	lw	s7, 8(sp)
.Ltmp406:
	.loc	10 224 9
	lw	a0, 4(sp)
	j	.LBB38_14
.Ltmp407:
.LBB38_20:
	.loc	10 178 27
	call	_ZN5alloc7raw_vec17capacity_overflow17h2c1c04a797021fabE
	unimp	
.Ltmp408:
.Lfunc_end38:
	.size	_ZN92_$LT$alloc..borrow..Cow$LT$str$GT$$u20$as$u20$core..ops..arith..AddAssign$LT$$RF$str$GT$$GT$10add_assign17hb6be10ab55b06473E, .Lfunc_end38-_ZN92_$LT$alloc..borrow..Cow$LT$str$GT$$u20$as$u20$core..ops..arith..AddAssign$LT$$RF$str$GT$$GT$10add_assign17hb6be10ab55b06473E
	.cfi_endproc

	.section	".text._ZN77_$LT$alloc..borrow..Cow$LT$str$GT$$u20$as$u20$core..ops..arith..AddAssign$GT$10add_assign17hc1dc50fd8da0be7bE","ax",@progbits
	.globl	_ZN77_$LT$alloc..borrow..Cow$LT$str$GT$$u20$as$u20$core..ops..arith..AddAssign$GT$10add_assign17hc1dc50fd8da0be7bE
	.p2align	1
	.type	_ZN77_$LT$alloc..borrow..Cow$LT$str$GT$$u20$as$u20$core..ops..arith..AddAssign$GT$10add_assign17hc1dc50fd8da0be7bE,@function
_ZN77_$LT$alloc..borrow..Cow$LT$str$GT$$u20$as$u20$core..ops..arith..AddAssign$GT$10add_assign17hc1dc50fd8da0be7bE:
.Lfunc_begin39:
	.loc	25 482 0
	.cfi_startproc
	addi	sp, sp, -64
	.cfi_def_cfa_offset 64
	sw	ra, 60(sp)
	sw	s0, 56(sp)
	sw	s1, 52(sp)
	sw	s2, 48(sp)
	sw	s3, 44(sp)
	sw	s4, 40(sp)
	sw	s5, 36(sp)
	sw	s6, 32(sp)
	sw	s7, 28(sp)
	sw	s8, 24(sp)
	.cfi_offset ra, -4
	.cfi_offset s0, -8
	.cfi_offset s1, -12
	.cfi_offset s2, -16
	.cfi_offset s3, -20
	.cfi_offset s4, -24
	.cfi_offset s5, -28
	.cfi_offset s6, -32
	.cfi_offset s7, -36
	.cfi_offset s8, -40
	mv	s1, a0
.Ltmp409:
	.loc	25 339 15 prologue_end
	lw	a0, 0(a0)
	.loc	25 0 0 is_stmt 0
	lw	s4, 8(s1)
	lw	s0, 12(s1)
	mv	s7, a1
.Ltmp410:
	mv	a1, s4
	beqz	a0, .LBB39_2
.Ltmp411:
	mv	a1, s0
.Ltmp412:
.LBB39_2:
	lw	s5, 4(s1)
	.loc	25 483 12 is_stmt 1
	beqz	a1, .LBB39_5
.Ltmp413:
	.loc	25 339 15
	lw	a1, 0(s7)
	.loc	25 0 0 is_stmt 0
	lw	s2, 8(s7)
	beqz	a1, .LBB39_8
.Ltmp414:
	mv	s3, s2
	bnez	a1, .LBB39_9
	j	.LBB39_10
.Ltmp415:
.LBB39_5:
	.loc	25 339 9
	seqz	a0, a0
	seqz	a1, s5
.Ltmp416:
	.loc	9 490 1 is_stmt 1
	or	a0, a0, a1
.Ltmp417:
	bnez	a0, .LBB39_7
.Ltmp418:
	.loc	11 113 14
	li	a2, 1
	mv	a0, s4
	mv	a1, s5
	call	__rust_dealloc
.Ltmp419:
.LBB39_7:
	.loc	25 484 13
	lw	a0, 12(s7)
	lw	a1, 8(s7)
	lw	a2, 4(s7)
	lw	a3, 0(s7)
	sw	a0, 12(s1)
	sw	a1, 8(s1)
	sw	a2, 4(s1)
	sw	a3, 0(s1)
	j	.LBB39_24
.Ltmp420:
.LBB39_8:
	.loc	25 0 13 is_stmt 0
	lw	s3, 4(s7)
.Ltmp421:
	beqz	a1, .LBB39_10
.Ltmp422:
.LBB39_9:
	lw	s2, 12(s7)
.Ltmp423:
.LBB39_10:
	.loc	25 485 19 is_stmt 1
	beqz	s2, .LBB39_21
.Ltmp424:
	.loc	25 0 0 is_stmt 0
	addi	s6, s1, 4
.Ltmp425:
	.loc	25 486 20 is_stmt 1
	bnez	a0, .LBB39_19
.Ltmp426:
	.loc	25 487 51
	add	s0, s2, s4
.Ltmp427:
	.loc	10 171 12
	beqz	s0, .LBB39_16
.Ltmp428:
	.loc	10 176 26
	bltz	s0, .LBB39_27
.Ltmp429:
	.loc	11 95 14
	li	a1, 1
	mv	a0, s0
	call	__rust_alloc
.Ltmp430:
	.loc	10 188 23
	bnez	a0, .LBB39_17
.Ltmp431:
	.loc	10 190 27
	li	a1, 1
	mv	a0, s0
.Ltmp432:
	call	_ZN5alloc5alloc18handle_alloc_error17hd9333cd203b4ffb7E
	unimp	
.Ltmp433:
.LBB39_16:
	.loc	10 0 27 is_stmt 0
	li	a0, 1
.Ltmp434:
.LBB39_17:
	li	s8, 0
	.loc	13 501 9 is_stmt 1
	sw	s0, 8(sp)
	sw	a0, 12(sp)
	sw	zero, 16(sp)
.Ltmp435:
	.loc	10 288 12
	bltu	s0, s4, .LBB39_26
.Ltmp436:
.LBB39_18:
	.loc	5 499 18
	add	a0, a0, s8
.Ltmp437:
	.loc	15 2372 9
	mv	a1, s5
	mv	a2, s4
	call	memcpy@plt
.Ltmp438:
	.loc	7 1950 9
	add	a0, s8, s4
	sw	a0, 16(sp)
	li	a0, 1
.Ltmp439:
	.loc	25 489 17
	lw	a1, 16(sp)
	lw	a2, 12(sp)
	lw	a3, 8(sp)
	sw	a0, 0(s1)
	sw	a1, 8(s6)
	sw	a2, 4(s6)
	sw	a3, 0(s6)
.Ltmp440:
	.loc	7 907 26
	lw	s0, 12(s1)
.Ltmp441:
	.loc	10 288 12
	lw	s5, 4(s1)
.Ltmp442:
.LBB39_19:
	.loc	14 1203 13
	sub	a0, s5, s0
.Ltmp443:
	.loc	10 288 12
	bltu	a0, s2, .LBB39_25
.Ltmp444:
.LBB39_20:
	.loc	10 224 9
	lw	a0, 8(s1)
.Ltmp445:
	.loc	5 499 18
	add	a0, a0, s0
.Ltmp446:
	.loc	15 2372 9
	mv	a1, s3
	mv	a2, s2
	call	memcpy@plt
.Ltmp447:
	.loc	9 490 1
	lw	a1, 0(s7)
.Ltmp448:
	.loc	7 1950 9
	add	a0, s0, s2
	sw	a0, 12(s1)
.Ltmp449:
.LBB39_21:
	.loc	9 490 1
	beqz	a1, .LBB39_24
.Ltmp450:
	lw	a1, 4(s7)
.Ltmp451:
	.loc	10 241 12
	beqz	a1, .LBB39_24
.Ltmp452:
	.loc	9 490 1
	lw	a0, 8(s7)
.Ltmp453:
	.loc	11 113 14
	li	a2, 1
	lw	ra, 60(sp)
	lw	s0, 56(sp)
	lw	s1, 52(sp)
.Ltmp454:
	lw	s2, 48(sp)
	lw	s3, 44(sp)
	lw	s4, 40(sp)
	lw	s5, 36(sp)
	lw	s6, 32(sp)
	lw	s7, 28(sp)
.Ltmp455:
	lw	s8, 24(sp)
	addi	sp, sp, 64
	tail	__rust_dealloc
.Ltmp456:
.LBB39_24:
	.loc	25 493 6
	lw	ra, 60(sp)
	lw	s0, 56(sp)
	lw	s1, 52(sp)
.Ltmp457:
	lw	s2, 48(sp)
	lw	s3, 44(sp)
	lw	s4, 40(sp)
	lw	s5, 36(sp)
	lw	s6, 32(sp)
	lw	s7, 28(sp)
.Ltmp458:
	lw	s8, 24(sp)
	addi	sp, sp, 64
	ret
.LBB39_25:
.Ltmp459:
	.loc	10 289 13
	mv	a0, s6
	mv	a1, s0
	mv	a2, s2
	call	_ZN5alloc7raw_vec19RawVec$LT$T$C$A$GT$7reserve21do_reserve_and_handle17hc60fe6a21a566324E
.Ltmp460:
	.loc	7 2057 9
	lw	s0, 12(s1)
.Ltmp461:
	.loc	7 0 9 is_stmt 0
	j	.LBB39_20
.Ltmp462:
.LBB39_26:
	.loc	10 289 13 is_stmt 1
	addi	a0, sp, 8
	li	a1, 0
	mv	a2, s4
	call	_ZN5alloc7raw_vec19RawVec$LT$T$C$A$GT$7reserve21do_reserve_and_handle17hc60fe6a21a566324E
.Ltmp463:
	.loc	7 2057 9
	lw	s8, 16(sp)
.Ltmp464:
	.loc	10 224 9
	lw	a0, 12(sp)
	j	.LBB39_18
.Ltmp465:
.LBB39_27:
	.loc	10 178 27
	call	_ZN5alloc7raw_vec17capacity_overflow17h2c1c04a797021fabE
	unimp	
.Ltmp466:
.Lfunc_end39:
	.size	_ZN77_$LT$alloc..borrow..Cow$LT$str$GT$$u20$as$u20$core..ops..arith..AddAssign$GT$10add_assign17hc1dc50fd8da0be7bE, .Lfunc_end39-_ZN77_$LT$alloc..borrow..Cow$LT$str$GT$$u20$as$u20$core..ops..arith..AddAssign$GT$10add_assign17hc1dc50fd8da0be7bE
	.cfi_endproc

	.section	".text._ZN93_$LT$alloc..collections..btree..mem..replace..PanicGuard$u20$as$u20$core..ops..drop..Drop$GT$4drop17ha2253a2118283a49E","ax",@progbits
	.globl	_ZN93_$LT$alloc..collections..btree..mem..replace..PanicGuard$u20$as$u20$core..ops..drop..Drop$GT$4drop17ha2253a2118283a49E
	.p2align	1
	.type	_ZN93_$LT$alloc..collections..btree..mem..replace..PanicGuard$u20$as$u20$core..ops..drop..Drop$GT$4drop17ha2253a2118283a49E,@function
_ZN93_$LT$alloc..collections..btree..mem..replace..PanicGuard$u20$as$u20$core..ops..drop..Drop$GT$4drop17ha2253a2118283a49E:
.Lfunc_begin40:
	.file	26 "/Users/georg/.rustup/toolchains/nightly-2023-01-03-aarch64-apple-darwin/lib/rustlib/src/rust/library/alloc" "src/collections/btree/mem.rs"
	.loc	26 23 0
	.cfi_startproc
	.loc	26 24 13 prologue_end
	unimp	
	unimp	
.Ltmp467:
.Lfunc_end40:
	.size	_ZN93_$LT$alloc..collections..btree..mem..replace..PanicGuard$u20$as$u20$core..ops..drop..Drop$GT$4drop17ha2253a2118283a49E, .Lfunc_end40-_ZN93_$LT$alloc..collections..btree..mem..replace..PanicGuard$u20$as$u20$core..ops..drop..Drop$GT$4drop17ha2253a2118283a49E
	.cfi_endproc

	.section	.text._ZN5alloc11collections5btree4node10splitpoint17h2bfcffc48b15a48eE,"ax",@progbits
	.globl	_ZN5alloc11collections5btree4node10splitpoint17h2bfcffc48b15a48eE
	.p2align	1
	.type	_ZN5alloc11collections5btree4node10splitpoint17h2bfcffc48b15a48eE,@function
_ZN5alloc11collections5btree4node10splitpoint17h2bfcffc48b15a48eE:
.Lfunc_begin41:
	.file	27 "/Users/georg/.rustup/toolchains/nightly-2023-01-03-aarch64-apple-darwin/lib/rustlib/src/rust/library/alloc" "src/collections/btree/node.rs"
	.loc	27 839 0
	.cfi_startproc
	li	a2, 5
.Ltmp468:
	.loc	27 843 9 prologue_end
	bgeu	a1, a2, .LBB41_2
.Ltmp469:
	.loc	27 0 9 is_stmt 0
	li	a2, 0
	li	a3, 4
	sw	a3, 0(a0)
	sw	a2, 4(a0)
	sw	a1, 8(a0)
	.loc	27 848 2 is_stmt 1
	ret
.Ltmp470:
.LBB41_2:
	.loc	27 0 2 is_stmt 0
	li	a2, 6
	.loc	27 842 5 is_stmt 1
	beq	a1, a2, .LBB41_5
.Ltmp471:
	.loc	27 0 5 is_stmt 0
	li	a2, 5
	.loc	27 842 5
	bne	a1, a2, .LBB41_6
.Ltmp472:
	.loc	27 0 5
	li	a2, 0
	mv	a3, a1
	sw	a3, 0(a0)
	sw	a2, 4(a0)
	sw	a1, 8(a0)
	.loc	27 848 2 is_stmt 1
	ret
.Ltmp473:
.LBB41_5:
	.loc	27 0 2 is_stmt 0
	li	a1, 0
.Ltmp474:
	li	a2, 1
	li	a3, 5
	sw	a3, 0(a0)
	sw	a2, 4(a0)
	sw	a1, 8(a0)
	.loc	27 848 2
	ret
.LBB41_6:
.Ltmp475:
	.loc	27 846 53 is_stmt 1
	addi	a1, a1, -7
.Ltmp476:
	.loc	27 0 53 is_stmt 0
	li	a2, 1
	li	a3, 6
	sw	a3, 0(a0)
	sw	a2, 4(a0)
	sw	a1, 8(a0)
	.loc	27 848 2 is_stmt 1
	ret
.Ltmp477:
.Lfunc_end41:
	.size	_ZN5alloc11collections5btree4node10splitpoint17h2bfcffc48b15a48eE, .Lfunc_end41-_ZN5alloc11collections5btree4node10splitpoint17h2bfcffc48b15a48eE
	.cfi_endproc

	.section	".text._ZN110_$LT$alloc..collections..btree..set_val..SetValZST$u20$as$u20$alloc..collections..btree..set_val..IsSetVal$GT$10is_set_val17he6c9954eef6dea17E","ax",@progbits
	.globl	_ZN110_$LT$alloc..collections..btree..set_val..SetValZST$u20$as$u20$alloc..collections..btree..set_val..IsSetVal$GT$10is_set_val17he6c9954eef6dea17E
	.p2align	1
	.type	_ZN110_$LT$alloc..collections..btree..set_val..SetValZST$u20$as$u20$alloc..collections..btree..set_val..IsSetVal$GT$10is_set_val17he6c9954eef6dea17E,@function
_ZN110_$LT$alloc..collections..btree..set_val..SetValZST$u20$as$u20$alloc..collections..btree..set_val..IsSetVal$GT$10is_set_val17he6c9954eef6dea17E:
.Lfunc_begin42:
	.file	28 "/Users/georg/.rustup/toolchains/nightly-2023-01-03-aarch64-apple-darwin/lib/rustlib/src/rust/library/alloc" "src/collections/btree/set_val.rs"
	.loc	28 26 0
	.cfi_startproc
	.loc	28 28 6 prologue_end
	li	a0, 1
	ret
.Ltmp478:
.Lfunc_end42:
	.size	_ZN110_$LT$alloc..collections..btree..set_val..SetValZST$u20$as$u20$alloc..collections..btree..set_val..IsSetVal$GT$10is_set_val17he6c9954eef6dea17E, .Lfunc_end42-_ZN110_$LT$alloc..collections..btree..set_val..SetValZST$u20$as$u20$alloc..collections..btree..set_val..IsSetVal$GT$10is_set_val17he6c9954eef6dea17E
	.cfi_endproc

	.section	".text._ZN74_$LT$alloc..collections..TryReserveError$u20$as$u20$core..fmt..Display$GT$3fmt17hf0a6f19811b19d13E","ax",@progbits
	.globl	_ZN74_$LT$alloc..collections..TryReserveError$u20$as$u20$core..fmt..Display$GT$3fmt17hf0a6f19811b19d13E
	.p2align	1
	.type	_ZN74_$LT$alloc..collections..TryReserveError$u20$as$u20$core..fmt..Display$GT$3fmt17hf0a6f19811b19d13E,@function
_ZN74_$LT$alloc..collections..TryReserveError$u20$as$u20$core..fmt..Display$GT$3fmt17hf0a6f19811b19d13E:
.Lfunc_begin43:
	.loc	8 132 0
	.cfi_startproc
	addi	sp, sp, -16
	.cfi_def_cfa_offset 16
	sw	ra, 12(sp)
	sw	s0, 8(sp)
	sw	s1, 4(sp)
	.cfi_offset ra, -4
	.cfi_offset s0, -8
	.cfi_offset s1, -12
	mv	s0, a1
.Ltmp479:
	mv	s1, a0
.Ltmp480:
	.loc	8 136 9 prologue_end
	lui	a0, %hi(.L__unnamed_30)
	addi	a1, a0, %lo(.L__unnamed_30)
	li	a2, 24
	mv	a0, s0
	call	_ZN4core3fmt9Formatter9write_str17h060247258d2cc5e5E
	beqz	a0, .LBB43_2
.Ltmp481:
	.loc	8 146 6
	li	a0, 1
	lw	ra, 12(sp)
	lw	s0, 8(sp)
.Ltmp482:
	lw	s1, 4(sp)
.Ltmp483:
	addi	sp, sp, 16
	ret
.LBB43_2:
.Ltmp484:
	.loc	8 137 28
	lw	a0, 4(s1)
	.loc	8 0 0 is_stmt 0
	beqz	a0, .LBB43_4
.Ltmp485:
	lui	a0, %hi(.L__unnamed_31)
	addi	a1, a0, %lo(.L__unnamed_31)
	li	a2, 47
	j	.LBB43_5
.Ltmp486:
.LBB43_4:
	lui	a0, %hi(.L__unnamed_32)
	addi	a1, a0, %lo(.L__unnamed_32)
	li	a2, 64
.Ltmp487:
.LBB43_5:
	.loc	8 145 9 is_stmt 1
	mv	a0, s0
	lw	ra, 12(sp)
	lw	s0, 8(sp)
.Ltmp488:
	lw	s1, 4(sp)
.Ltmp489:
	addi	sp, sp, 16
	tail	_ZN4core3fmt9Formatter9write_str17h060247258d2cc5e5E
.Ltmp490:
.Lfunc_end43:
	.size	_ZN74_$LT$alloc..collections..TryReserveError$u20$as$u20$core..fmt..Display$GT$3fmt17hf0a6f19811b19d13E, .Lfunc_end43-_ZN74_$LT$alloc..collections..TryReserveError$u20$as$u20$core..fmt..Display$GT$3fmt17hf0a6f19811b19d13E
	.cfi_endproc

	.section	.text._ZN5alloc3ffi5c_str19FromVecWithNulError8as_bytes17h5586da820339d33eE,"ax",@progbits
	.globl	_ZN5alloc3ffi5c_str19FromVecWithNulError8as_bytes17h5586da820339d33eE
	.p2align	1
	.type	_ZN5alloc3ffi5c_str19FromVecWithNulError8as_bytes17h5586da820339d33eE,@function
_ZN5alloc3ffi5c_str19FromVecWithNulError8as_bytes17h5586da820339d33eE:
.Lfunc_begin44:
	.loc	3 186 0
	.cfi_startproc
	.loc	7 2727 23 prologue_end
	lw	a2, 12(a0)
	lw	a1, 16(a0)
.Ltmp491:
	.loc	3 188 6
	mv	a0, a2
.Ltmp492:
	ret
.Ltmp493:
.Lfunc_end44:
	.size	_ZN5alloc3ffi5c_str19FromVecWithNulError8as_bytes17h5586da820339d33eE, .Lfunc_end44-_ZN5alloc3ffi5c_str19FromVecWithNulError8as_bytes17h5586da820339d33eE
	.cfi_endproc

	.section	.text._ZN5alloc3ffi5c_str19FromVecWithNulError10into_bytes17h5d7a021d4baf6c11E,"ax",@progbits
	.globl	_ZN5alloc3ffi5c_str19FromVecWithNulError10into_bytes17h5d7a021d4baf6c11E
	.p2align	1
	.type	_ZN5alloc3ffi5c_str19FromVecWithNulError10into_bytes17h5d7a021d4baf6c11E,@function
_ZN5alloc3ffi5c_str19FromVecWithNulError10into_bytes17h5d7a021d4baf6c11E:
.Lfunc_begin45:
	.loc	3 212 0
	.cfi_startproc
	.loc	3 213 9 prologue_end
	lw	a2, 16(a1)
	lw	a3, 12(a1)
	lw	a1, 8(a1)
.Ltmp494:
	sw	a2, 8(a0)
	sw	a3, 4(a0)
	sw	a1, 0(a0)
	.loc	3 214 6
	ret
.Ltmp495:
.Lfunc_end45:
	.size	_ZN5alloc3ffi5c_str19FromVecWithNulError10into_bytes17h5d7a021d4baf6c11E, .Lfunc_end45-_ZN5alloc3ffi5c_str19FromVecWithNulError10into_bytes17h5d7a021d4baf6c11E
	.cfi_endproc

	.section	".text._ZN72_$LT$$RF$str$u20$as$u20$alloc..ffi..c_str..CString..new..SpecNewImpl$GT$13spec_new_impl17h3cfa9e2daa4f7d78E","ax",@progbits
	.globl	_ZN72_$LT$$RF$str$u20$as$u20$alloc..ffi..c_str..CString..new..SpecNewImpl$GT$13spec_new_impl17h3cfa9e2daa4f7d78E
	.p2align	1
	.type	_ZN72_$LT$$RF$str$u20$as$u20$alloc..ffi..c_str..CString..new..SpecNewImpl$GT$13spec_new_impl17h3cfa9e2daa4f7d78E,@function
_ZN72_$LT$$RF$str$u20$as$u20$alloc..ffi..c_str..CString..new..SpecNewImpl$GT$13spec_new_impl17h3cfa9e2daa4f7d78E:
.Lfunc_begin46:
	.loc	3 305 0
	.cfi_startproc
	addi	sp, sp, -48
	.cfi_def_cfa_offset 48
.Ltmp496:
	.loc	14 1479 26 prologue_end
	sw	ra, 44(sp)
	sw	s0, 40(sp)
	sw	s1, 36(sp)
	sw	s2, 32(sp)
	sw	s3, 28(sp)
	.cfi_offset ra, -4
	.cfi_offset s0, -8
	.cfi_offset s1, -12
	.cfi_offset s2, -16
	.cfi_offset s3, -20
	addi	s0, a2, 1
.Ltmp497:
	.file	29 "/Users/georg/.rustup/toolchains/nightly-2023-01-03-aarch64-apple-darwin/lib/rustlib/src/rust/library/core/src" "option.rs"
	.loc	29 820 9
	beqz	s0, .LBB46_14
.Ltmp498:
	.loc	10 176 26
	bltz	s0, .LBB46_15
.Ltmp499:
	.loc	10 0 26 is_stmt 0
	mv	s1, a2
.Ltmp500:
	mv	s3, a1
.Ltmp501:
	mv	s2, a0
.Ltmp502:
	.loc	11 95 14 is_stmt 1
	li	a1, 1
	mv	a0, s0
	call	__rust_alloc
.Ltmp503:
	.loc	10 188 23
	beqz	a0, .LBB46_16
.Ltmp504:
	.loc	7 673 9
	sw	s0, 0(sp)
	sw	a0, 4(sp)
.Ltmp505:
	.loc	15 2372 9
	mv	a1, s3
	mv	a2, s1
	call	memcpy@plt
.Ltmp506:
	.loc	15 0 9 is_stmt 0
	li	a0, 8
.Ltmp507:
	.loc	7 1950 9 is_stmt 1
	sw	s1, 8(sp)
.Ltmp508:
	.file	30 "/Users/georg/.rustup/toolchains/nightly-2023-01-03-aarch64-apple-darwin/lib/rustlib/src/rust/library/core/src/slice" "memchr.rs"
	.loc	30 40 8
	bgeu	s1, a0, .LBB46_8
.Ltmp509:
	.loc	30 0 8 is_stmt 0
	li	a1, 0
.Ltmp510:
	.loc	30 52 11 is_stmt 1
	beqz	s1, .LBB46_9
.Ltmp511:
.LBB46_5:
	.loc	30 53 12
	add	a0, s3, a1
	lbu	a0, 0(a0)
	beqz	a0, .LBB46_11
.Ltmp512:
	.loc	30 57 9
	addi	a1, a1, 1
.Ltmp513:
	.loc	30 52 11
	bne	s1, a1, .LBB46_5
.Ltmp514:
	.loc	30 0 11 is_stmt 0
	li	a0, 0
	mv	a1, s1
	.loc	3 292 13 is_stmt 1
	bnez	a0, .LBB46_10
	j	.LBB46_12
.Ltmp515:
.LBB46_8:
	.loc	30 44 5
	li	a0, 0
	mv	a1, s3
	mv	a2, s1
	call	_ZN4core5slice6memchr14memchr_aligned17hbc387cc60fca16fbE
.Ltmp516:
	.loc	3 292 13
	bnez	a0, .LBB46_10
	j	.LBB46_12
.Ltmp517:
.LBB46_9:
	.loc	3 0 13 is_stmt 0
	li	a0, 0
	.loc	3 292 13
	beqz	a0, .LBB46_12
.Ltmp518:
.LBB46_10:
	.loc	3 293 28 is_stmt 1
	lw	a0, 0(sp)
	lw	a2, 4(sp)
	lw	a3, 8(sp)
	sw	a1, 0(s2)
	sw	a0, 4(s2)
	sw	a2, 8(s2)
	sw	a3, 12(s2)
	j	.LBB46_13
.Ltmp519:
.LBB46_11:
	.loc	3 0 28 is_stmt 0
	li	a0, 1
	.loc	3 292 13 is_stmt 1
	bnez	a0, .LBB46_10
.Ltmp520:
.LBB46_12:
	.loc	3 294 66
	lw	a0, 8(sp)
	lw	a1, 4(sp)
	lw	a2, 0(sp)
	sw	a0, 24(sp)
	sw	a1, 20(sp)
	sw	a2, 16(sp)
	.loc	3 294 37 is_stmt 0
	addi	a0, sp, 16
	call	_ZN5alloc3ffi5c_str7CString19_from_vec_unchecked17h526b13a1dcd3d8ceE
	.loc	3 294 25
	sw	a0, 0(s2)
	sw	a1, 4(s2)
	sw	zero, 8(s2)
.Ltmp521:
.LBB46_13:
	.loc	3 307 14 is_stmt 1
	lw	ra, 44(sp)
	lw	s0, 40(sp)
	lw	s1, 36(sp)
.Ltmp522:
	lw	s2, 32(sp)
	lw	s3, 28(sp)
.Ltmp523:
	addi	sp, sp, 48
	ret
.LBB46_14:
.Ltmp524:
	.loc	29 822 21
	lui	a0, %hi(.L__unnamed_33)
	addi	a0, a0, %lo(.L__unnamed_33)
	lui	a1, %hi(.L__unnamed_34)
.Ltmp525:
	addi	a2, a1, %lo(.L__unnamed_34)
.Ltmp526:
	li	a1, 43
	call	_ZN4core9panicking5panic17h83c2c4098b58b628E
	unimp	
.Ltmp527:
.LBB46_15:
	.loc	10 178 27
	call	_ZN5alloc7raw_vec17capacity_overflow17h2c1c04a797021fabE
.Ltmp528:
	unimp	
.Ltmp529:
.LBB46_16:
	.loc	10 190 27
	li	a1, 1
	mv	a0, s0
.Ltmp530:
	call	_ZN5alloc5alloc18handle_alloc_error17hd9333cd203b4ffb7E
	unimp	
.Ltmp531:
.Lfunc_end46:
	.size	_ZN72_$LT$$RF$str$u20$as$u20$alloc..ffi..c_str..CString..new..SpecNewImpl$GT$13spec_new_impl17h3cfa9e2daa4f7d78E, .Lfunc_end46-_ZN72_$LT$$RF$str$u20$as$u20$alloc..ffi..c_str..CString..new..SpecNewImpl$GT$13spec_new_impl17h3cfa9e2daa4f7d78E
	.cfi_endproc

	.section	".text._ZN89_$LT$$RF$mut$u20$$u5b$u8$u5d$$u20$as$u20$alloc..ffi..c_str..CString..new..SpecNewImpl$GT$13spec_new_impl17hc16027d33ced0345E","ax",@progbits
	.globl	_ZN89_$LT$$RF$mut$u20$$u5b$u8$u5d$$u20$as$u20$alloc..ffi..c_str..CString..new..SpecNewImpl$GT$13spec_new_impl17hc16027d33ced0345E
	.p2align	1
	.type	_ZN89_$LT$$RF$mut$u20$$u5b$u8$u5d$$u20$as$u20$alloc..ffi..c_str..CString..new..SpecNewImpl$GT$13spec_new_impl17hc16027d33ced0345E,@function
_ZN89_$LT$$RF$mut$u20$$u5b$u8$u5d$$u20$as$u20$alloc..ffi..c_str..CString..new..SpecNewImpl$GT$13spec_new_impl17hc16027d33ced0345E:
.Lfunc_begin47:
	.loc	3 311 0
	.cfi_startproc
	addi	sp, sp, -48
	.cfi_def_cfa_offset 48
.Ltmp532:
	.loc	14 1479 26 prologue_end
	sw	ra, 44(sp)
	sw	s0, 40(sp)
	sw	s1, 36(sp)
	sw	s2, 32(sp)
	sw	s3, 28(sp)
	.cfi_offset ra, -4
	.cfi_offset s0, -8
	.cfi_offset s1, -12
	.cfi_offset s2, -16
	.cfi_offset s3, -20
	addi	s0, a2, 1
.Ltmp533:
	.loc	29 820 9
	beqz	s0, .LBB47_14
.Ltmp534:
	.loc	10 176 26
	bltz	s0, .LBB47_15
.Ltmp535:
	.loc	10 0 26 is_stmt 0
	mv	s1, a2
.Ltmp536:
	mv	s3, a1
.Ltmp537:
	mv	s2, a0
.Ltmp538:
	.loc	11 95 14 is_stmt 1
	li	a1, 1
	mv	a0, s0
	call	__rust_alloc
.Ltmp539:
	.loc	10 188 23
	beqz	a0, .LBB47_16
.Ltmp540:
	.loc	7 673 9
	sw	s0, 0(sp)
	sw	a0, 4(sp)
.Ltmp541:
	.loc	15 2372 9
	mv	a1, s3
	mv	a2, s1
	call	memcpy@plt
.Ltmp542:
	.loc	15 0 9 is_stmt 0
	li	a0, 8
.Ltmp543:
	.loc	7 1950 9 is_stmt 1
	sw	s1, 8(sp)
.Ltmp544:
	.loc	30 40 8
	bgeu	s1, a0, .LBB47_8
.Ltmp545:
	.loc	30 0 8 is_stmt 0
	li	a1, 0
.Ltmp546:
	.loc	30 52 11 is_stmt 1
	beqz	s1, .LBB47_9
.Ltmp547:
.LBB47_5:
	.loc	30 53 12
	add	a0, s3, a1
	lbu	a0, 0(a0)
	beqz	a0, .LBB47_11
.Ltmp548:
	.loc	30 57 9
	addi	a1, a1, 1
.Ltmp549:
	.loc	30 52 11
	bne	s1, a1, .LBB47_5
.Ltmp550:
	.loc	30 0 11 is_stmt 0
	li	a0, 0
	mv	a1, s1
	.loc	3 292 13 is_stmt 1
	bnez	a0, .LBB47_10
	j	.LBB47_12
.Ltmp551:
.LBB47_8:
	.loc	30 44 5
	li	a0, 0
	mv	a1, s3
	mv	a2, s1
	call	_ZN4core5slice6memchr14memchr_aligned17hbc387cc60fca16fbE
.Ltmp552:
	.loc	3 292 13
	bnez	a0, .LBB47_10
	j	.LBB47_12
.Ltmp553:
.LBB47_9:
	.loc	3 0 13 is_stmt 0
	li	a0, 0
	.loc	3 292 13
	beqz	a0, .LBB47_12
.Ltmp554:
.LBB47_10:
	.loc	3 293 28 is_stmt 1
	lw	a0, 0(sp)
	lw	a2, 4(sp)
	lw	a3, 8(sp)
	sw	a1, 0(s2)
	sw	a0, 4(s2)
	sw	a2, 8(s2)
	sw	a3, 12(s2)
	j	.LBB47_13
.Ltmp555:
.LBB47_11:
	.loc	3 0 28 is_stmt 0
	li	a0, 1
	.loc	3 292 13 is_stmt 1
	bnez	a0, .LBB47_10
.Ltmp556:
.LBB47_12:
	.loc	3 294 66
	lw	a0, 8(sp)
	lw	a1, 4(sp)
	lw	a2, 0(sp)
	sw	a0, 24(sp)
	sw	a1, 20(sp)
	sw	a2, 16(sp)
	.loc	3 294 37 is_stmt 0
	addi	a0, sp, 16
	call	_ZN5alloc3ffi5c_str7CString19_from_vec_unchecked17h526b13a1dcd3d8ceE
	.loc	3 294 25
	sw	a0, 0(s2)
	sw	a1, 4(s2)
	sw	zero, 8(s2)
.Ltmp557:
.LBB47_13:
	.loc	3 313 14 is_stmt 1
	lw	ra, 44(sp)
	lw	s0, 40(sp)
	lw	s1, 36(sp)
.Ltmp558:
	lw	s2, 32(sp)
	lw	s3, 28(sp)
.Ltmp559:
	addi	sp, sp, 48
	ret
.LBB47_14:
.Ltmp560:
	.loc	29 822 21
	lui	a0, %hi(.L__unnamed_33)
	addi	a0, a0, %lo(.L__unnamed_33)
	lui	a1, %hi(.L__unnamed_34)
.Ltmp561:
	addi	a2, a1, %lo(.L__unnamed_34)
.Ltmp562:
	li	a1, 43
	call	_ZN4core9panicking5panic17h83c2c4098b58b628E
	unimp	
.Ltmp563:
.LBB47_15:
	.loc	10 178 27
	call	_ZN5alloc7raw_vec17capacity_overflow17h2c1c04a797021fabE
.Ltmp564:
	unimp	
.Ltmp565:
.LBB47_16:
	.loc	10 190 27
	li	a1, 1
	mv	a0, s0
.Ltmp566:
	call	_ZN5alloc5alloc18handle_alloc_error17hd9333cd203b4ffb7E
	unimp	
.Ltmp567:
.Lfunc_end47:
	.size	_ZN89_$LT$$RF$mut$u20$$u5b$u8$u5d$$u20$as$u20$alloc..ffi..c_str..CString..new..SpecNewImpl$GT$13spec_new_impl17hc16027d33ced0345E, .Lfunc_end47-_ZN89_$LT$$RF$mut$u20$$u5b$u8$u5d$$u20$as$u20$alloc..ffi..c_str..CString..new..SpecNewImpl$GT$13spec_new_impl17hc16027d33ced0345E
	.cfi_endproc

	.section	.text._ZN5alloc3ffi5c_str7CString18from_vec_unchecked17h330ebd61f41b7337E,"ax",@progbits
	.globl	_ZN5alloc3ffi5c_str7CString18from_vec_unchecked17h330ebd61f41b7337E
	.p2align	1
	.type	_ZN5alloc3ffi5c_str7CString18from_vec_unchecked17h330ebd61f41b7337E,@function
_ZN5alloc3ffi5c_str7CString18from_vec_unchecked17h330ebd61f41b7337E:
.Lfunc_begin48:
	.loc	3 340 0
	.cfi_startproc
	addi	sp, sp, -16
	.cfi_def_cfa_offset 16
.Ltmp568:
	.loc	3 342 44 prologue_end
	sw	ra, 12(sp)
	.cfi_offset ra, -4
	lw	a1, 8(a0)
	lw	a2, 4(a0)
	lw	a0, 0(a0)
.Ltmp569:
	sw	a1, 8(sp)
	sw	a2, 4(sp)
	sw	a0, 0(sp)
	.loc	3 342 18 is_stmt 0
	mv	a0, sp
	call	_ZN5alloc3ffi5c_str7CString19_from_vec_unchecked17h526b13a1dcd3d8ceE
	.loc	3 343 6 is_stmt 1
	lw	ra, 12(sp)
	addi	sp, sp, 16
	ret
.Ltmp570:
.Lfunc_end48:
	.size	_ZN5alloc3ffi5c_str7CString18from_vec_unchecked17h330ebd61f41b7337E, .Lfunc_end48-_ZN5alloc3ffi5c_str7CString18from_vec_unchecked17h330ebd61f41b7337E
	.cfi_endproc

	.section	.text._ZN5alloc3ffi5c_str7CString19_from_vec_unchecked17h526b13a1dcd3d8ceE,"ax",@progbits
	.globl	_ZN5alloc3ffi5c_str7CString19_from_vec_unchecked17h526b13a1dcd3d8ceE
	.p2align	1
	.type	_ZN5alloc3ffi5c_str7CString19_from_vec_unchecked17h526b13a1dcd3d8ceE,@function
_ZN5alloc3ffi5c_str7CString19_from_vec_unchecked17h526b13a1dcd3d8ceE:
.Lfunc_begin49:
	.loc	3 345 0
	.cfi_startproc
	addi	sp, sp, -48
	.cfi_def_cfa_offset 48
	sw	ra, 44(sp)
	sw	s0, 40(sp)
	sw	s1, 36(sp)
	sw	s2, 32(sp)
	.cfi_offset ra, -4
	.cfi_offset s0, -8
	.cfi_offset s1, -12
	.cfi_offset s2, -16
	mv	s1, a0
.Ltmp571:
	.loc	7 937 32 prologue_end
	lw	s0, 8(a0)
.Ltmp572:
	.loc	10 338 12
	lw	s2, 0(a0)
.Ltmp573:
	bne	s2, s0, .LBB49_10
.Ltmp574:
	.loc	14 1479 26
	addi	s2, s0, 1
.Ltmp575:
	.loc	10 415 19
	beqz	s2, .LBB49_8
.Ltmp576:
	.loc	18 452 16
	not	a0, s2
	srli	a2, a0, 31
.Ltmp577:
	.loc	10 241 12
	beqz	s0, .LBB49_4
.Ltmp578:
	.loc	10 419 43
	lw	a0, 4(s1)
.Ltmp579:
	.loc	10 248 17
	sw	a0, 16(sp)
	sw	s0, 20(sp)
	li	a0, 1
	sw	a0, 24(sp)
	j	.LBB49_5
.Ltmp580:
.LBB49_4:
	.loc	10 242 13
	sw	zero, 24(sp)
.Ltmp581:
.LBB49_5:
	.loc	10 419 19
	mv	a0, sp
	addi	a3, sp, 16
	mv	a1, s2
	call	_ZN5alloc7raw_vec11finish_grow17h84df8231ddcc73c7E
.Ltmp582:
	.loc	19 2091 15
	lw	a1, 0(sp)
	.loc	19 2091 9 is_stmt 0
	lw	a0, 4(sp)
.Ltmp583:
	.loc	10 419 19 is_stmt 1
	beqz	a1, .LBB49_9
.Ltmp584:
	.loc	10 0 0 is_stmt 0
	lw	a1, 8(sp)
	lui	a2, 524288
	addi	a2, a2, 1
.Ltmp585:
	.loc	10 488 5 is_stmt 1
	beq	a1, a2, .LBB49_11
.Ltmp586:
	bnez	a1, .LBB49_18
.Ltmp587:
.LBB49_8:
	.loc	10 489 34
	call	_ZN5alloc7raw_vec17capacity_overflow17h2c1c04a797021fabE
	unimp	
.Ltmp588:
.LBB49_9:
	.loc	10 368 9
	sw	a0, 4(s1)
	.loc	10 369 9
	sw	s2, 0(s1)
.Ltmp589:
.LBB49_10:
	.loc	10 0 9 is_stmt 0
	bne	s0, s2, .LBB49_12
.Ltmp590:
.LBB49_11:
	.loc	7 1835 13 is_stmt 1
	mv	a0, s1
	mv	a1, s0
	call	_ZN5alloc7raw_vec19RawVec$LT$T$C$A$GT$16reserve_for_push17h2bc031d3040ca85dE
	.loc	7 1838 45
	lw	s0, 8(s1)
.Ltmp591:
	.loc	3 348 23
	lw	s2, 0(s1)
.Ltmp592:
.LBB49_12:
	.loc	10 224 9
	lw	a0, 4(s1)
.Ltmp593:
	.loc	5 499 18
	add	a1, a0, s0
.Ltmp594:
	.loc	9 1354 9
	sb	zero, 0(a1)
.Ltmp595:
	.loc	7 1840 13
	addi	s0, s0, 1
.Ltmp596:
	sw	s0, 8(s1)
	bgeu	s0, s2, .LBB49_17
.Ltmp597:
	.loc	11 132 14
	li	a2, 1
	mv	a1, s2
	beqz	s0, .LBB49_16
.Ltmp598:
	mv	a3, s0
	call	__rust_realloc
.Ltmp599:
	.loc	19 858 9
	bnez	a0, .LBB49_17
.Ltmp600:
	.loc	10 490 43
	li	a1, 1
	mv	a0, s0
	call	_ZN5alloc5alloc18handle_alloc_error17hd9333cd203b4ffb7E
	unimp	
.Ltmp601:
.LBB49_16:
	.loc	11 113 14
	call	__rust_dealloc
.Ltmp602:
	.loc	11 0 14 is_stmt 0
	li	a0, 1
.Ltmp603:
.LBB49_17:
	.loc	3 349 6 is_stmt 1
	mv	a1, s0
	lw	ra, 44(sp)
	lw	s0, 40(sp)
.Ltmp604:
	lw	s1, 36(sp)
.Ltmp605:
	lw	s2, 32(sp)
	addi	sp, sp, 48
	ret
.Ltmp606:
.LBB49_18:
	.loc	10 490 43
	call	_ZN5alloc5alloc18handle_alloc_error17hd9333cd203b4ffb7E
.Ltmp607:
	unimp	
.Ltmp608:
.Lfunc_end49:
	.size	_ZN5alloc3ffi5c_str7CString19_from_vec_unchecked17h526b13a1dcd3d8ceE, .Lfunc_end49-_ZN5alloc3ffi5c_str7CString19_from_vec_unchecked17h526b13a1dcd3d8ceE
	.cfi_endproc

	.section	.text._ZN5alloc3ffi5c_str7CString8from_raw17h59d08196e33172d2E,"ax",@progbits
	.globl	_ZN5alloc3ffi5c_str7CString8from_raw17h59d08196e33172d2E
	.p2align	1
	.type	_ZN5alloc3ffi5c_str7CString8from_raw17h59d08196e33172d2E,@function
_ZN5alloc3ffi5c_str7CString8from_raw17h59d08196e33172d2E:
.Lfunc_begin50:
	.loc	3 397 0
	.cfi_startproc
	addi	sp, sp, -16
	.cfi_def_cfa_offset 16
	sw	ra, 12(sp)
	sw	s0, 8(sp)
	.cfi_offset ra, -4
	.cfi_offset s0, -8
	mv	s0, a0
.Ltmp609:
	.loc	3 408 23 prologue_end
	call	strlen
	addi	a1, a0, 1
.Ltmp610:
	.loc	3 412 6
	mv	a0, s0
	lw	ra, 12(sp)
	lw	s0, 8(sp)
.Ltmp611:
	addi	sp, sp, 16
	ret
.Ltmp612:
.Lfunc_end50:
	.size	_ZN5alloc3ffi5c_str7CString8from_raw17h59d08196e33172d2E, .Lfunc_end50-_ZN5alloc3ffi5c_str7CString8from_raw17h59d08196e33172d2E
	.cfi_endproc

	.section	.text._ZN5alloc3ffi5c_str7CString11into_string17h1e2026c9e077cff0E,"ax",@progbits
	.globl	_ZN5alloc3ffi5c_str7CString11into_string17h1e2026c9e077cff0E
	.p2align	1
	.type	_ZN5alloc3ffi5c_str7CString11into_string17h1e2026c9e077cff0E,@function
_ZN5alloc3ffi5c_str7CString11into_string17h1e2026c9e077cff0E:
.Lfunc_begin51:
	.loc	3 473 0
	.cfi_startproc
	addi	sp, sp, -48
	.cfi_def_cfa_offset 48
	sw	ra, 44(sp)
	sw	s0, 40(sp)
	sw	s1, 36(sp)
	sw	s2, 32(sp)
	sw	s3, 28(sp)
	sw	s4, 24(sp)
	sw	s5, 20(sp)
	.cfi_offset ra, -4
	.cfi_offset s0, -8
	.cfi_offset s1, -12
	.cfi_offset s2, -16
	.cfi_offset s3, -20
	.cfi_offset s4, -24
	.cfi_offset s5, -28
	mv	s3, a2
.Ltmp613:
	mv	s2, a1
.Ltmp614:
	mv	s0, a0
.Ltmp615:
	li	s1, 0
.Ltmp616:
	.loc	7 1907 12 prologue_end
	beqz	a2, .LBB51_2
.Ltmp617:
	.loc	7 0 12 is_stmt 0
	addi	s1, s3, -1
.Ltmp618:
.LBB51_2:
	.loc	13 573 15 is_stmt 1
	addi	a0, sp, 8
	mv	a1, s2
	mv	a2, s1
	call	_ZN4core3str8converts9from_utf817h61cf81879fbe94b6E
	lw	a0, 8(sp)
	.loc	13 573 9 is_stmt 0
	beqz	a0, .LBB51_4
.Ltmp619:
	.loc	13 575 17 is_stmt 1
	lw	s4, 16(sp)
.Ltmp620:
	.loc	19 858 15
	andi	a0, s4, 255
	li	a1, 2
	.loc	19 858 9 is_stmt 0
	bne	a0, a1, .LBB51_5
.Ltmp621:
.LBB51_4:
	.loc	19 859 22 is_stmt 1
	sw	s3, 0(s0)
	sw	s2, 4(s0)
	sw	s1, 8(s0)
	li	a0, 2
	sb	a0, 12(s0)
	j	.LBB51_6
.Ltmp622:
.LBB51_5:
	.loc	3 0 0 is_stmt 0
	lw	s5, 12(sp)
.Ltmp623:
	.loc	3 476 55 is_stmt 1
	sw	s3, 8(sp)
	sw	s2, 12(sp)
	sw	s1, 16(sp)
	.loc	3 476 29 is_stmt 0
	addi	a0, sp, 8
	call	_ZN5alloc3ffi5c_str7CString19_from_vec_unchecked17h526b13a1dcd3d8ceE
.Ltmp624:
	.loc	19 860 23 is_stmt 1
	sw	a0, 0(s0)
	sw	a1, 4(s0)
	sw	s4, 12(s0)
	sw	s5, 8(s0)
.Ltmp625:
.LBB51_6:
	.loc	3 478 6
	lw	ra, 44(sp)
	lw	s0, 40(sp)
	lw	s1, 36(sp)
	lw	s2, 32(sp)
.Ltmp626:
	lw	s3, 28(sp)
.Ltmp627:
	lw	s4, 24(sp)
	lw	s5, 20(sp)
	addi	sp, sp, 48
	ret
.Ltmp628:
.Lfunc_end51:
	.size	_ZN5alloc3ffi5c_str7CString11into_string17h1e2026c9e077cff0E, .Lfunc_end51-_ZN5alloc3ffi5c_str7CString11into_string17h1e2026c9e077cff0E
	.cfi_endproc

	.section	.text._ZN5alloc3ffi5c_str7CString10into_bytes17hd7f4393d55daf9d1E,"ax",@progbits
	.globl	_ZN5alloc3ffi5c_str7CString10into_bytes17hd7f4393d55daf9d1E
	.p2align	1
	.type	_ZN5alloc3ffi5c_str7CString10into_bytes17hd7f4393d55daf9d1E,@function
_ZN5alloc3ffi5c_str7CString10into_bytes17hd7f4393d55daf9d1E:
.Lfunc_begin52:
	.loc	3 497 0
	.cfi_startproc
	li	a3, 0
.Ltmp629:
	.loc	7 782 18 prologue_end
	sw	a2, 0(a0)
	sw	a1, 4(a0)
.Ltmp630:
	.loc	7 1907 12
	beqz	a2, .LBB52_2
.Ltmp631:
	.loc	7 0 12 is_stmt 0
	addi	a3, a2, -1
.Ltmp632:
.LBB52_2:
	sw	a3, 8(a0)
	.loc	3 502 6 is_stmt 1
	ret
.Ltmp633:
.Lfunc_end52:
	.size	_ZN5alloc3ffi5c_str7CString10into_bytes17hd7f4393d55daf9d1E, .Lfunc_end52-_ZN5alloc3ffi5c_str7CString10into_bytes17hd7f4393d55daf9d1E
	.cfi_endproc

	.section	.text._ZN5alloc3ffi5c_str7CString19into_bytes_with_nul17h608fcdf0a5a3679aE,"ax",@progbits
	.globl	_ZN5alloc3ffi5c_str7CString19into_bytes_with_nul17h608fcdf0a5a3679aE
	.p2align	1
	.type	_ZN5alloc3ffi5c_str7CString19into_bytes_with_nul17h608fcdf0a5a3679aE,@function
_ZN5alloc3ffi5c_str7CString19into_bytes_with_nul17h608fcdf0a5a3679aE:
.Lfunc_begin53:
	.loc	3 518 0
	.cfi_startproc
	.loc	7 782 18 prologue_end
	sw	a2, 0(a0)
	sw	a1, 4(a0)
	sw	a2, 8(a0)
.Ltmp634:
	.loc	3 520 6
	ret
.Ltmp635:
.Lfunc_end53:
	.size	_ZN5alloc3ffi5c_str7CString19into_bytes_with_nul17h608fcdf0a5a3679aE, .Lfunc_end53-_ZN5alloc3ffi5c_str7CString19into_bytes_with_nul17h608fcdf0a5a3679aE
	.cfi_endproc

	.section	.text._ZN5alloc3ffi5c_str7CString16into_boxed_c_str17h18015b5cd248b73aE,"ax",@progbits
	.globl	_ZN5alloc3ffi5c_str7CString16into_boxed_c_str17h18015b5cd248b73aE
	.p2align	1
	.type	_ZN5alloc3ffi5c_str7CString16into_boxed_c_str17h18015b5cd248b73aE,@function
_ZN5alloc3ffi5c_str7CString16into_boxed_c_str17h18015b5cd248b73aE:
.Lfunc_begin54:
	.loc	3 598 0
	.cfi_startproc
	.loc	3 600 6 prologue_end
	ret
.Ltmp636:
.Lfunc_end54:
	.size	_ZN5alloc3ffi5c_str7CString16into_boxed_c_str17h18015b5cd248b73aE, .Lfunc_end54-_ZN5alloc3ffi5c_str7CString16into_boxed_c_str17h18015b5cd248b73aE
	.cfi_endproc

	.section	.text._ZN5alloc3ffi5c_str7CString27from_vec_with_nul_unchecked17h81d67190fe510a08E,"ax",@progbits
	.globl	_ZN5alloc3ffi5c_str7CString27from_vec_with_nul_unchecked17h81d67190fe510a08E
	.p2align	1
	.type	_ZN5alloc3ffi5c_str7CString27from_vec_with_nul_unchecked17h81d67190fe510a08E,@function
_ZN5alloc3ffi5c_str7CString27from_vec_with_nul_unchecked17h81d67190fe510a08E:
.Lfunc_begin55:
	.loc	3 632 0
	.cfi_startproc
	addi	sp, sp, -16
	.cfi_def_cfa_offset 16
.Ltmp637:
	.loc	3 634 53 prologue_end
	sw	ra, 12(sp)
	sw	s0, 8(sp)
	.cfi_offset ra, -4
	.cfi_offset s0, -8
	lw	a1, 0(a0)
	lw	s0, 8(a0)
.Ltmp638:
	lw	a0, 4(a0)
.Ltmp639:
	.loc	7 1040 12
	bgeu	s0, a1, .LBB55_5
.Ltmp640:
	.loc	11 132 14
	li	a2, 1
.Ltmp641:
	.loc	11 288 9
	beqz	s0, .LBB55_4
.Ltmp642:
	.loc	11 132 14
	mv	a3, s0
	call	__rust_realloc
.Ltmp643:
	.loc	19 858 9
	bnez	a0, .LBB55_5
.Ltmp644:
	.loc	10 490 43
	li	a1, 1
	mv	a0, s0
	call	_ZN5alloc5alloc18handle_alloc_error17hd9333cd203b4ffb7E
	unimp	
.Ltmp645:
.LBB55_4:
	.loc	11 113 14
	call	__rust_dealloc
.Ltmp646:
	.loc	11 0 14 is_stmt 0
	li	a0, 1
.Ltmp647:
.LBB55_5:
	.loc	3 635 6 is_stmt 1
	mv	a1, s0
	lw	ra, 12(sp)
	lw	s0, 8(sp)
.Ltmp648:
	addi	sp, sp, 16
	ret
.Ltmp649:
.Lfunc_end55:
	.size	_ZN5alloc3ffi5c_str7CString27from_vec_with_nul_unchecked17h81d67190fe510a08E, .Lfunc_end55-_ZN5alloc3ffi5c_str7CString27from_vec_with_nul_unchecked17h81d67190fe510a08E
	.cfi_endproc

	.section	.text._ZN5alloc3ffi5c_str7CString17from_vec_with_nul17ha5821e27fbcb25a7E,"ax",@progbits
	.globl	_ZN5alloc3ffi5c_str7CString17from_vec_with_nul17ha5821e27fbcb25a7E
	.p2align	1
	.type	_ZN5alloc3ffi5c_str7CString17from_vec_with_nul17ha5821e27fbcb25a7E,@function
_ZN5alloc3ffi5c_str7CString17from_vec_with_nul17ha5821e27fbcb25a7E:
.Lfunc_begin56:
	.loc	3 675 0
	.cfi_startproc
	addi	sp, sp, -32
	.cfi_def_cfa_offset 32
	sw	ra, 28(sp)
	sw	s0, 24(sp)
	sw	s1, 20(sp)
	sw	s2, 16(sp)
	sw	s3, 12(sp)
	.cfi_offset ra, -4
	.cfi_offset s0, -8
	.cfi_offset s1, -12
	.cfi_offset s2, -16
	.cfi_offset s3, -20
	mv	s3, a1
.Ltmp650:
	.loc	3 676 41 prologue_end
	lw	s1, 8(a1)
	lw	s0, 4(a1)
	li	a1, 8
	mv	s2, a0
.Ltmp651:
	.loc	30 40 8
	bgeu	s1, a1, .LBB56_5
.Ltmp652:
	.loc	30 0 8 is_stmt 0
	li	a1, 0
.Ltmp653:
	.loc	30 52 11 is_stmt 1
	beqz	s1, .LBB56_6
.Ltmp654:
.LBB56_2:
	.loc	30 53 12
	add	a0, s0, a1
	lbu	a0, 0(a0)
	beqz	a0, .LBB56_13
.Ltmp655:
	.loc	30 57 9
	addi	a1, a1, 1
.Ltmp656:
	.loc	30 52 11
	bne	s1, a1, .LBB56_2
.Ltmp657:
	.loc	30 0 11 is_stmt 0
	li	a0, 0
	mv	a1, s1
.Ltmp658:
	.loc	3 677 9 is_stmt 1
	bnez	a0, .LBB56_7
	j	.LBB56_14
.Ltmp659:
.LBB56_5:
	.loc	30 44 5
	li	a0, 0
	mv	a1, s0
	mv	a2, s1
	call	_ZN4core5slice6memchr14memchr_aligned17hbc387cc60fca16fbE
.Ltmp660:
	.loc	3 677 9
	bnez	a0, .LBB56_7
	j	.LBB56_14
.Ltmp661:
.LBB56_6:
	.loc	3 0 9 is_stmt 0
	li	a0, 0
.Ltmp662:
	.loc	3 677 9
	beqz	a0, .LBB56_14
.Ltmp663:
.LBB56_7:
	.loc	3 678 30 is_stmt 1
	addi	a0, a1, 1
.Ltmp664:
	bne	a0, s1, .LBB56_12
.Ltmp665:
	.loc	3 681 64
	lw	a1, 0(s3)
.Ltmp666:
	.loc	7 1040 12
	bgeu	s1, a1, .LBB56_17
.Ltmp667:
	.loc	11 132 14
	li	a2, 1
	mv	a0, s0
.Ltmp668:
	.loc	11 288 9
	beqz	s1, .LBB56_16
.Ltmp669:
	.loc	11 132 14
	mv	a3, s1
	call	__rust_realloc
.Ltmp670:
	mv	s0, a0
.Ltmp671:
	.loc	19 858 9
	bnez	a0, .LBB56_17
.Ltmp672:
	.loc	10 490 43
	li	a1, 1
	mv	a0, s1
	call	_ZN5alloc5alloc18handle_alloc_error17hd9333cd203b4ffb7E
	unimp	
.Ltmp673:
.LBB56_12:
	.loc	3 683 30
	sw	zero, 0(s2)
	lw	a0, 0(s3)
	lw	a2, 4(s3)
	lw	a3, 8(s3)
	sw	a1, 4(s2)
	sw	a0, 8(s2)
	j	.LBB56_15
.Ltmp674:
.LBB56_13:
	.loc	3 0 30 is_stmt 0
	li	a0, 1
.Ltmp675:
	.loc	3 677 9 is_stmt 1
	bnez	a0, .LBB56_7
.Ltmp676:
.LBB56_14:
	.loc	3 0 9 is_stmt 0
	li	a0, 1
.Ltmp677:
	.loc	3 687 21 is_stmt 1
	lw	a1, 0(s3)
.Ltmp678:
	lw	a2, 4(s3)
	lw	a3, 8(s3)
	sw	a0, 0(s2)
	sw	a1, 8(s2)
.Ltmp679:
.LBB56_15:
	.loc	3 0 0 is_stmt 0
	sw	a2, 12(s2)
	sw	a3, 16(s2)
	j	.LBB56_18
.Ltmp680:
.LBB56_16:
	.loc	11 113 14 is_stmt 1
	call	__rust_dealloc
.Ltmp681:
	.loc	11 0 14 is_stmt 0
	li	s0, 1
.Ltmp682:
.LBB56_17:
	.loc	3 681 17 is_stmt 1
	sw	s0, 4(s2)
	sw	s1, 8(s2)
	li	a0, 2
	sw	a0, 0(s2)
.Ltmp683:
.LBB56_18:
	.loc	3 692 6
	lw	ra, 28(sp)
	lw	s0, 24(sp)
	lw	s1, 20(sp)
	lw	s2, 16(sp)
	lw	s3, 12(sp)
.Ltmp684:
	addi	sp, sp, 32
	ret
.Ltmp685:
.Lfunc_end56:
	.size	_ZN5alloc3ffi5c_str7CString17from_vec_with_nul17ha5821e27fbcb25a7E, .Lfunc_end56-_ZN5alloc3ffi5c_str7CString17from_vec_with_nul17ha5821e27fbcb25a7E
	.cfi_endproc

	.section	".text._ZN63_$LT$alloc..ffi..c_str..CString$u20$as$u20$core..fmt..Debug$GT$3fmt17hdafbc7459b3a5a5dE","ax",@progbits
	.globl	_ZN63_$LT$alloc..ffi..c_str..CString$u20$as$u20$core..fmt..Debug$GT$3fmt17hdafbc7459b3a5a5dE
	.p2align	1
	.type	_ZN63_$LT$alloc..ffi..c_str..CString$u20$as$u20$core..fmt..Debug$GT$3fmt17hdafbc7459b3a5a5dE,@function
_ZN63_$LT$alloc..ffi..c_str..CString$u20$as$u20$core..fmt..Debug$GT$3fmt17hdafbc7459b3a5a5dE:
.Lfunc_begin57:
	.loc	3 720 0
	.cfi_startproc
	.loc	3 562 9 prologue_end
	lw	a2, 0(a0)
	lw	a3, 4(a0)
	mv	a4, a1
.Ltmp686:
	.loc	3 721 9
	mv	a0, a2
.Ltmp687:
	mv	a1, a3
	mv	a2, a4
.Ltmp688:
	tail	_ZN59_$LT$core..ffi..c_str..CStr$u20$as$u20$core..fmt..Debug$GT$3fmt17h2ae0a10454495905E
.Ltmp689:
.Lfunc_end57:
	.size	_ZN63_$LT$alloc..ffi..c_str..CString$u20$as$u20$core..fmt..Debug$GT$3fmt17hdafbc7459b3a5a5dE, .Lfunc_end57-_ZN63_$LT$alloc..ffi..c_str..CString$u20$as$u20$core..fmt..Debug$GT$3fmt17hdafbc7459b3a5a5dE
	.cfi_endproc

	.section	".text._ZN69_$LT$alloc..ffi..c_str..CString$u20$as$u20$core..default..Default$GT$7default17hca23f01d9708e7dcE","ax",@progbits
	.globl	_ZN69_$LT$alloc..ffi..c_str..CString$u20$as$u20$core..default..Default$GT$7default17hca23f01d9708e7dcE
	.p2align	1
	.type	_ZN69_$LT$alloc..ffi..c_str..CString$u20$as$u20$core..default..Default$GT$7default17hca23f01d9708e7dcE,@function
_ZN69_$LT$alloc..ffi..c_str..CString$u20$as$u20$core..default..Default$GT$7default17hca23f01d9708e7dcE:
.Lfunc_begin58:
	.loc	3 739 0
	.cfi_startproc
	addi	sp, sp, -16
	.cfi_def_cfa_offset 16
.Ltmp690:
	.loc	3 740 24 prologue_end
	sw	ra, 12(sp)
	sw	s0, 8(sp)
	sw	s1, 4(sp)
	sw	s2, 0(sp)
	.cfi_offset ra, -4
	.cfi_offset s0, -8
	.cfi_offset s1, -12
	.cfi_offset s2, -16
	call	_ZN69_$LT$$RF$core..ffi..c_str..CStr$u20$as$u20$core..default..Default$GT$7default17h9d738bb0f9d6da71E
	mv	s2, a0
	mv	s0, a1
.Ltmp691:
	.loc	10 171 12
	beqz	a1, .LBB58_4
.Ltmp692:
	.loc	10 176 26
	bltz	s0, .LBB58_6
.Ltmp693:
	.loc	11 95 14
	li	a1, 1
	mv	a0, s0
	call	__rust_alloc
	mv	s1, a0
.Ltmp694:
	.loc	10 188 23
	bnez	a0, .LBB58_5
.Ltmp695:
	.loc	10 190 27
	li	a1, 1
	mv	a0, s0
	call	_ZN5alloc5alloc18handle_alloc_error17hd9333cd203b4ffb7E
	unimp	
.Ltmp696:
.LBB58_4:
	.loc	10 0 27 is_stmt 0
	li	s1, 1
.Ltmp697:
.LBB58_5:
	.loc	15 2372 9 is_stmt 1
	mv	a0, s1
	mv	a1, s2
	mv	a2, s0
	call	memcpy@plt
.Ltmp698:
	.loc	3 742 6
	mv	a0, s1
	mv	a1, s0
	lw	ra, 12(sp)
	lw	s0, 8(sp)
.Ltmp699:
	lw	s1, 4(sp)
.Ltmp700:
	lw	s2, 0(sp)
.Ltmp701:
	addi	sp, sp, 16
	ret
.Ltmp702:
.LBB58_6:
	.loc	10 178 27
	call	_ZN5alloc7raw_vec17capacity_overflow17h2c1c04a797021fabE
	unimp	
.Ltmp703:
.Lfunc_end58:
	.size	_ZN69_$LT$alloc..ffi..c_str..CString$u20$as$u20$core..default..Default$GT$7default17hca23f01d9708e7dcE, .Lfunc_end58-_ZN69_$LT$alloc..ffi..c_str..CString$u20$as$u20$core..default..Default$GT$7default17hca23f01d9708e7dcE
	.cfi_endproc

	.section	".text._ZN5alloc3ffi5c_str131_$LT$impl$u20$core..convert..From$LT$$RF$core..ffi..c_str..CStr$GT$$u20$for$u20$alloc..boxed..Box$LT$core..ffi..c_str..CStr$GT$$GT$4from17hd9e25a7856381636E","ax",@progbits
	.globl	_ZN5alloc3ffi5c_str131_$LT$impl$u20$core..convert..From$LT$$RF$core..ffi..c_str..CStr$GT$$u20$for$u20$alloc..boxed..Box$LT$core..ffi..c_str..CStr$GT$$GT$4from17hd9e25a7856381636E
	.p2align	1
	.type	_ZN5alloc3ffi5c_str131_$LT$impl$u20$core..convert..From$LT$$RF$core..ffi..c_str..CStr$GT$$u20$for$u20$alloc..boxed..Box$LT$core..ffi..c_str..CStr$GT$$GT$4from17hd9e25a7856381636E,@function
_ZN5alloc3ffi5c_str131_$LT$impl$u20$core..convert..From$LT$$RF$core..ffi..c_str..CStr$GT$$u20$for$u20$alloc..boxed..Box$LT$core..ffi..c_str..CStr$GT$$GT$4from17hd9e25a7856381636E:
.Lfunc_begin59:
	.loc	3 768 0
	.cfi_startproc
	addi	sp, sp, -16
	.cfi_def_cfa_offset 16
.Ltmp704:
	.loc	20 0 0 is_stmt 0
	sw	ra, 12(sp)
	sw	s0, 8(sp)
	sw	s1, 4(sp)
	sw	s2, 0(sp)
	.cfi_offset ra, -4
	.cfi_offset s0, -8
	.cfi_offset s1, -12
	.cfi_offset s2, -16
.Ltmp705:
	mv	s0, a1
.Ltmp706:
	mv	s2, a0
.Ltmp707:
	.loc	10 171 12 prologue_end is_stmt 1
	beqz	a1, .LBB59_4
.Ltmp708:
	.loc	10 176 26
	bltz	s0, .LBB59_6
.Ltmp709:
	.loc	11 95 14
	li	a1, 1
	mv	a0, s0
	call	__rust_alloc
	mv	s1, a0
.Ltmp710:
	.loc	10 188 23
	bnez	a0, .LBB59_5
.Ltmp711:
	.loc	10 190 27
	li	a1, 1
	mv	a0, s0
	call	_ZN5alloc5alloc18handle_alloc_error17hd9333cd203b4ffb7E
	unimp	
.Ltmp712:
.LBB59_4:
	.loc	10 0 27 is_stmt 0
	li	s1, 1
.Ltmp713:
.LBB59_5:
	.loc	15 2372 9 is_stmt 1
	mv	a0, s1
	mv	a1, s2
	mv	a2, s0
	call	memcpy@plt
.Ltmp714:
	.loc	3 771 6
	mv	a0, s1
	mv	a1, s0
	lw	ra, 12(sp)
	lw	s0, 8(sp)
.Ltmp715:
	lw	s1, 4(sp)
.Ltmp716:
	lw	s2, 0(sp)
.Ltmp717:
	addi	sp, sp, 16
	ret
.Ltmp718:
.LBB59_6:
	.loc	10 178 27
	call	_ZN5alloc7raw_vec17capacity_overflow17h2c1c04a797021fabE
	unimp	
.Ltmp719:
.Lfunc_end59:
	.size	_ZN5alloc3ffi5c_str131_$LT$impl$u20$core..convert..From$LT$$RF$core..ffi..c_str..CStr$GT$$u20$for$u20$alloc..boxed..Box$LT$core..ffi..c_str..CStr$GT$$GT$4from17hd9e25a7856381636E, .Lfunc_end59-_ZN5alloc3ffi5c_str131_$LT$impl$u20$core..convert..From$LT$$RF$core..ffi..c_str..CStr$GT$$u20$for$u20$alloc..boxed..Box$LT$core..ffi..c_str..CStr$GT$$GT$4from17hd9e25a7856381636E
	.cfi_endproc

	.section	".text._ZN5alloc3ffi5c_str100_$LT$impl$u20$core..default..Default$u20$for$u20$alloc..boxed..Box$LT$core..ffi..c_str..CStr$GT$$GT$7default17he63d33d0049484d1E","ax",@progbits
	.globl	_ZN5alloc3ffi5c_str100_$LT$impl$u20$core..default..Default$u20$for$u20$alloc..boxed..Box$LT$core..ffi..c_str..CStr$GT$$GT$7default17he63d33d0049484d1E
	.p2align	1
	.type	_ZN5alloc3ffi5c_str100_$LT$impl$u20$core..default..Default$u20$for$u20$alloc..boxed..Box$LT$core..ffi..c_str..CStr$GT$$GT$7default17he63d33d0049484d1E,@function
_ZN5alloc3ffi5c_str100_$LT$impl$u20$core..default..Default$u20$for$u20$alloc..boxed..Box$LT$core..ffi..c_str..CStr$GT$$GT$7default17he63d33d0049484d1E:
.Lfunc_begin60:
	.loc	3 913 0
	.cfi_startproc
	addi	sp, sp, -16
	.cfi_def_cfa_offset 16
.Ltmp720:
	.loc	11 0 0 is_stmt 0
	sw	ra, 12(sp)
	.cfi_offset ra, -4
.Ltmp721:
	.loc	11 95 14 prologue_end is_stmt 1
	li	a0, 1
	li	a1, 1
	call	__rust_alloc
.Ltmp722:
	.loc	11 326 5
	beqz	a0, .LBB60_2
.Ltmp723:
	.loc	3 916 6
	li	a1, 1
.Ltmp724:
	.loc	20 1620 18
	sb	zero, 0(a0)
.Ltmp725:
	.loc	3 916 6
	lw	ra, 12(sp)
	addi	sp, sp, 16
	ret
.Ltmp726:
.LBB60_2:
	.loc	11 328 19
	li	a0, 1
	li	a1, 1
	call	_ZN5alloc5alloc18handle_alloc_error17hd9333cd203b4ffb7E
	unimp	
.Ltmp727:
.Lfunc_end60:
	.size	_ZN5alloc3ffi5c_str100_$LT$impl$u20$core..default..Default$u20$for$u20$alloc..boxed..Box$LT$core..ffi..c_str..CStr$GT$$GT$7default17he63d33d0049484d1E, .Lfunc_end60-_ZN5alloc3ffi5c_str100_$LT$impl$u20$core..default..Default$u20$for$u20$alloc..boxed..Box$LT$core..ffi..c_str..CStr$GT$$GT$7default17he63d33d0049484d1E
	.cfi_endproc

	.section	.text._ZN5alloc3ffi5c_str8NulError12nul_position17h6c12710974cfb16dE,"ax",@progbits
	.globl	_ZN5alloc3ffi5c_str8NulError12nul_position17h6c12710974cfb16dE
	.p2align	1
	.type	_ZN5alloc3ffi5c_str8NulError12nul_position17h6c12710974cfb16dE,@function
_ZN5alloc3ffi5c_str8NulError12nul_position17h6c12710974cfb16dE:
.Lfunc_begin61:
	.loc	3 936 0
	.cfi_startproc
	.loc	3 937 9 prologue_end
	lw	a0, 0(a0)
.Ltmp728:
	.loc	3 938 6
	ret
.Ltmp729:
.Lfunc_end61:
	.size	_ZN5alloc3ffi5c_str8NulError12nul_position17h6c12710974cfb16dE, .Lfunc_end61-_ZN5alloc3ffi5c_str8NulError12nul_position17h6c12710974cfb16dE
	.cfi_endproc

	.section	.text._ZN5alloc3ffi5c_str8NulError8into_vec17h0c15e41f0098c6f0E,"ax",@progbits
	.globl	_ZN5alloc3ffi5c_str8NulError8into_vec17h0c15e41f0098c6f0E
	.p2align	1
	.type	_ZN5alloc3ffi5c_str8NulError8into_vec17h0c15e41f0098c6f0E,@function
_ZN5alloc3ffi5c_str8NulError8into_vec17h0c15e41f0098c6f0E:
.Lfunc_begin62:
	.loc	3 953 0
	.cfi_startproc
	.loc	3 954 9 prologue_end
	lw	a2, 12(a1)
	lw	a3, 8(a1)
	lw	a1, 4(a1)
.Ltmp730:
	sw	a2, 8(a0)
	sw	a3, 4(a0)
	sw	a1, 0(a0)
	.loc	3 955 6
	ret
.Ltmp731:
.Lfunc_end62:
	.size	_ZN5alloc3ffi5c_str8NulError8into_vec17h0c15e41f0098c6f0E, .Lfunc_end62-_ZN5alloc3ffi5c_str8NulError8into_vec17h0c15e41f0098c6f0E
	.cfi_endproc

	.section	".text._ZN66_$LT$alloc..ffi..c_str..NulError$u20$as$u20$core..fmt..Display$GT$3fmt17h4685c37b9f17683dE","ax",@progbits
	.globl	_ZN66_$LT$alloc..ffi..c_str..NulError$u20$as$u20$core..fmt..Display$GT$3fmt17h4685c37b9f17683dE
	.p2align	1
	.type	_ZN66_$LT$alloc..ffi..c_str..NulError$u20$as$u20$core..fmt..Display$GT$3fmt17h4685c37b9f17683dE,@function
_ZN66_$LT$alloc..ffi..c_str..NulError$u20$as$u20$core..fmt..Display$GT$3fmt17h4685c37b9f17683dE:
.Lfunc_begin63:
	.loc	3 960 0
	.cfi_startproc
	addi	sp, sp, -48
	.cfi_def_cfa_offset 48
	sw	ra, 44(sp)
	.cfi_offset ra, -4
	mv	a2, a1
.Ltmp732:
	.loc	3 961 9 prologue_end
	sw	a0, 32(sp)
	lui	a0, %hi(_ZN4core3fmt3num3imp54_$LT$impl$u20$core..fmt..Display$u20$for$u20$usize$GT$3fmt17hf88330a667d69cb1E)
.Ltmp733:
	addi	a0, a0, %lo(_ZN4core3fmt3num3imp54_$LT$impl$u20$core..fmt..Display$u20$for$u20$usize$GT$3fmt17hf88330a667d69cb1E)
	sw	a0, 36(sp)
.Ltmp734:
	.loc	1 398 9
	lui	a0, %hi(.L__unnamed_35)
	addi	a0, a0, %lo(.L__unnamed_35)
.Ltmp735:
	sw	a0, 16(sp)
	li	a0, 1
.Ltmp736:
	sw	a0, 20(sp)
	sw	zero, 8(sp)
	addi	a1, sp, 32
	sw	a1, 24(sp)
	sw	a0, 28(sp)
.Ltmp737:
	.loc	3 961 9
	addi	a1, sp, 8
	mv	a0, a2
.Ltmp738:
	call	_ZN4core3fmt9Formatter9write_fmt17h95eed0c2cf77d379E
.Ltmp739:
	.loc	3 962 6
	lw	ra, 44(sp)
	addi	sp, sp, 48
	ret
.Ltmp740:
.Lfunc_end63:
	.size	_ZN66_$LT$alloc..ffi..c_str..NulError$u20$as$u20$core..fmt..Display$GT$3fmt17h4685c37b9f17683dE, .Lfunc_end63-_ZN66_$LT$alloc..ffi..c_str..NulError$u20$as$u20$core..fmt..Display$GT$3fmt17h4685c37b9f17683dE
	.cfi_endproc

	.section	".text._ZN77_$LT$alloc..ffi..c_str..FromVecWithNulError$u20$as$u20$core..fmt..Display$GT$3fmt17hf95e7eb23c8fc30cE","ax",@progbits
	.globl	_ZN77_$LT$alloc..ffi..c_str..FromVecWithNulError$u20$as$u20$core..fmt..Display$GT$3fmt17hf95e7eb23c8fc30cE
	.p2align	1
	.type	_ZN77_$LT$alloc..ffi..c_str..FromVecWithNulError$u20$as$u20$core..fmt..Display$GT$3fmt17hf95e7eb23c8fc30cE,@function
_ZN77_$LT$alloc..ffi..c_str..FromVecWithNulError$u20$as$u20$core..fmt..Display$GT$3fmt17hf95e7eb23c8fc30cE:
.Lfunc_begin64:
	.loc	3 967 0
	.cfi_startproc
	addi	sp, sp, -48
	.cfi_def_cfa_offset 48
	sw	ra, 44(sp)
	.cfi_offset ra, -4
	mv	a2, a0
.Ltmp741:
	.loc	3 968 15 prologue_end
	lw	a3, 0(a0)
	mv	a0, a1
.Ltmp742:
	.loc	3 968 9 is_stmt 0
	beqz	a3, .LBB64_2
.Ltmp743:
	.loc	1 398 9 is_stmt 1
	lui	a1, %hi(.L__unnamed_36)
	addi	a1, a1, %lo(.L__unnamed_36)
.Ltmp744:
	sw	a1, 24(sp)
	li	a1, 1
.Ltmp745:
	sw	a1, 28(sp)
	sw	zero, 16(sp)
	lui	a1, %hi(.L__unnamed_24)
	addi	a1, a1, %lo(.L__unnamed_24)
.Ltmp746:
	sw	a1, 32(sp)
	sw	zero, 36(sp)
	j	.LBB64_3
.Ltmp747:
.LBB64_2:
	.loc	3 969 52
	lw	a1, 4(a2)
	sw	a1, 4(sp)
	addi	a1, sp, 4
.Ltmp748:
	.loc	3 970 17
	sw	a1, 8(sp)
	lui	a1, %hi(_ZN4core3fmt3num3imp54_$LT$impl$u20$core..fmt..Display$u20$for$u20$usize$GT$3fmt17hf88330a667d69cb1E)
	addi	a1, a1, %lo(_ZN4core3fmt3num3imp54_$LT$impl$u20$core..fmt..Display$u20$for$u20$usize$GT$3fmt17hf88330a667d69cb1E)
	sw	a1, 12(sp)
.Ltmp749:
	.loc	1 398 9
	lui	a1, %hi(.L__unnamed_37)
	addi	a1, a1, %lo(.L__unnamed_37)
.Ltmp750:
	sw	a1, 24(sp)
	li	a1, 1
.Ltmp751:
	sw	a1, 28(sp)
	sw	zero, 16(sp)
	addi	a2, sp, 8
.Ltmp752:
	sw	a2, 32(sp)
	sw	a1, 36(sp)
.Ltmp753:
.LBB64_3:
	.loc	3 0 0 is_stmt 0
	addi	a1, sp, 16
	call	_ZN4core3fmt9Formatter9write_fmt17h95eed0c2cf77d379E
.Ltmp754:
	.loc	3 976 6 is_stmt 1
	lw	ra, 44(sp)
	addi	sp, sp, 48
	ret
.Ltmp755:
.Lfunc_end64:
	.size	_ZN77_$LT$alloc..ffi..c_str..FromVecWithNulError$u20$as$u20$core..fmt..Display$GT$3fmt17hf95e7eb23c8fc30cE, .Lfunc_end64-_ZN77_$LT$alloc..ffi..c_str..FromVecWithNulError$u20$as$u20$core..fmt..Display$GT$3fmt17hf95e7eb23c8fc30cE
	.cfi_endproc

	.section	.text._ZN5alloc3ffi5c_str15IntoStringError12into_cstring17h6e407b6e53e3b3aaE,"ax",@progbits
	.globl	_ZN5alloc3ffi5c_str15IntoStringError12into_cstring17h6e407b6e53e3b3aaE
	.p2align	1
	.type	_ZN5alloc3ffi5c_str15IntoStringError12into_cstring17h6e407b6e53e3b3aaE,@function
_ZN5alloc3ffi5c_str15IntoStringError12into_cstring17h6e407b6e53e3b3aaE:
.Lfunc_begin65:
	.loc	3 984 0
	.cfi_startproc
	.loc	3 985 9 prologue_end
	lw	a2, 0(a0)
	lw	a1, 4(a0)
	.loc	3 986 6
	mv	a0, a2
.Ltmp756:
	ret
.Ltmp757:
.Lfunc_end65:
	.size	_ZN5alloc3ffi5c_str15IntoStringError12into_cstring17h6e407b6e53e3b3aaE, .Lfunc_end65-_ZN5alloc3ffi5c_str15IntoStringError12into_cstring17h6e407b6e53e3b3aaE
	.cfi_endproc

	.section	.text._ZN5alloc3ffi5c_str15IntoStringError10utf8_error17hb4f8b655a180ff50E,"ax",@progbits
	.globl	_ZN5alloc3ffi5c_str15IntoStringError10utf8_error17hb4f8b655a180ff50E
	.p2align	1
	.type	_ZN5alloc3ffi5c_str15IntoStringError10utf8_error17hb4f8b655a180ff50E,@function
_ZN5alloc3ffi5c_str15IntoStringError10utf8_error17hb4f8b655a180ff50E:
.Lfunc_begin66:
	.loc	3 991 0
	.cfi_startproc
	.loc	3 992 9 prologue_end
	lw	a2, 12(a1)
	lw	a1, 8(a1)
.Ltmp758:
	sw	a2, 4(a0)
	sw	a1, 0(a0)
	.loc	3 993 6
	ret
.Ltmp759:
.Lfunc_end66:
	.size	_ZN5alloc3ffi5c_str15IntoStringError10utf8_error17hb4f8b655a180ff50E, .Lfunc_end66-_ZN5alloc3ffi5c_str15IntoStringError10utf8_error17hb4f8b655a180ff50E
	.cfi_endproc

	.section	.text._ZN5alloc3ffi5c_str15IntoStringError8__source17h6e2a5c70ab34a35fE,"ax",@progbits
	.globl	_ZN5alloc3ffi5c_str15IntoStringError8__source17h6e2a5c70ab34a35fE
	.p2align	1
	.type	_ZN5alloc3ffi5c_str15IntoStringError8__source17h6e2a5c70ab34a35fE,@function
_ZN5alloc3ffi5c_str15IntoStringError8__source17h6e2a5c70ab34a35fE:
.Lfunc_begin67:
	.loc	3 997 0
	.cfi_startproc
	.loc	3 998 9 prologue_end
	addi	a0, a0, 8
.Ltmp760:
	.loc	3 999 6
	ret
.Ltmp761:
.Lfunc_end67:
	.size	_ZN5alloc3ffi5c_str15IntoStringError8__source17h6e2a5c70ab34a35fE, .Lfunc_end67-_ZN5alloc3ffi5c_str15IntoStringError8__source17h6e2a5c70ab34a35fE
	.cfi_endproc

	.section	".text._ZN73_$LT$alloc..ffi..c_str..IntoStringError$u20$as$u20$core..fmt..Display$GT$3fmt17h4d86baaa5cb5e0efE","ax",@progbits
	.globl	_ZN73_$LT$alloc..ffi..c_str..IntoStringError$u20$as$u20$core..fmt..Display$GT$3fmt17h4d86baaa5cb5e0efE
	.p2align	1
	.type	_ZN73_$LT$alloc..ffi..c_str..IntoStringError$u20$as$u20$core..fmt..Display$GT$3fmt17h4d86baaa5cb5e0efE,@function
_ZN73_$LT$alloc..ffi..c_str..IntoStringError$u20$as$u20$core..fmt..Display$GT$3fmt17h4d86baaa5cb5e0efE:
.Lfunc_begin68:
	.loc	3 1011 0
	.cfi_startproc
	mv	a2, a1
.Ltmp762:
	.loc	3 1012 9 prologue_end
	lui	a0, %hi(.L__unnamed_38)
.Ltmp763:
	addi	a0, a0, %lo(.L__unnamed_38)
	li	a1, 33
	tail	_ZN42_$LT$str$u20$as$u20$core..fmt..Display$GT$3fmt17hbfabe9198c18d813E
.Ltmp764:
.Lfunc_end68:
	.size	_ZN73_$LT$alloc..ffi..c_str..IntoStringError$u20$as$u20$core..fmt..Display$GT$3fmt17h4d86baaa5cb5e0efE, .Lfunc_end68-_ZN73_$LT$alloc..ffi..c_str..IntoStringError$u20$as$u20$core..fmt..Display$GT$3fmt17h4d86baaa5cb5e0efE
	.cfi_endproc

	.section	".text._ZN5alloc3ffi5c_str75_$LT$impl$u20$alloc..borrow..ToOwned$u20$for$u20$core..ffi..c_str..CStr$GT$8to_owned17h9ac81d7ec196e93fE","ax",@progbits
	.globl	_ZN5alloc3ffi5c_str75_$LT$impl$u20$alloc..borrow..ToOwned$u20$for$u20$core..ffi..c_str..CStr$GT$8to_owned17h9ac81d7ec196e93fE
	.p2align	1
	.type	_ZN5alloc3ffi5c_str75_$LT$impl$u20$alloc..borrow..ToOwned$u20$for$u20$core..ffi..c_str..CStr$GT$8to_owned17h9ac81d7ec196e93fE,@function
_ZN5alloc3ffi5c_str75_$LT$impl$u20$alloc..borrow..ToOwned$u20$for$u20$core..ffi..c_str..CStr$GT$8to_owned17h9ac81d7ec196e93fE:
.Lfunc_begin69:
	.loc	3 1020 0
	.cfi_startproc
	addi	sp, sp, -16
	.cfi_def_cfa_offset 16
.Ltmp765:
	.loc	20 0 0 is_stmt 0
	sw	ra, 12(sp)
	sw	s0, 8(sp)
	sw	s1, 4(sp)
	sw	s2, 0(sp)
	.cfi_offset ra, -4
	.cfi_offset s0, -8
	.cfi_offset s1, -12
	.cfi_offset s2, -16
.Ltmp766:
	mv	s0, a1
.Ltmp767:
	mv	s2, a0
.Ltmp768:
	.loc	10 171 12 prologue_end is_stmt 1
	beqz	a1, .LBB69_4
.Ltmp769:
	.loc	10 176 26
	bltz	s0, .LBB69_6
.Ltmp770:
	.loc	11 95 14
	li	a1, 1
	mv	a0, s0
	call	__rust_alloc
	mv	s1, a0
.Ltmp771:
	.loc	10 188 23
	bnez	a0, .LBB69_5
.Ltmp772:
	.loc	10 190 27
	li	a1, 1
	mv	a0, s0
	call	_ZN5alloc5alloc18handle_alloc_error17hd9333cd203b4ffb7E
	unimp	
.Ltmp773:
.LBB69_4:
	.loc	10 0 27 is_stmt 0
	li	s1, 1
.Ltmp774:
.LBB69_5:
	.loc	15 2372 9 is_stmt 1
	mv	a0, s1
	mv	a1, s2
	mv	a2, s0
	call	memcpy@plt
.Ltmp775:
	.loc	3 1022 6
	mv	a0, s1
	mv	a1, s0
	lw	ra, 12(sp)
	lw	s0, 8(sp)
.Ltmp776:
	lw	s1, 4(sp)
.Ltmp777:
	lw	s2, 0(sp)
.Ltmp778:
	addi	sp, sp, 16
	ret
.Ltmp779:
.LBB69_6:
	.loc	10 178 27
	call	_ZN5alloc7raw_vec17capacity_overflow17h2c1c04a797021fabE
	unimp	
.Ltmp780:
.Lfunc_end69:
	.size	_ZN5alloc3ffi5c_str75_$LT$impl$u20$alloc..borrow..ToOwned$u20$for$u20$core..ffi..c_str..CStr$GT$8to_owned17h9ac81d7ec196e93fE, .Lfunc_end69-_ZN5alloc3ffi5c_str75_$LT$impl$u20$alloc..borrow..ToOwned$u20$for$u20$core..ffi..c_str..CStr$GT$8to_owned17h9ac81d7ec196e93fE
	.cfi_endproc

	.section	".text._ZN5alloc3ffi5c_str75_$LT$impl$u20$alloc..borrow..ToOwned$u20$for$u20$core..ffi..c_str..CStr$GT$10clone_into17hdb8a7e0d9b61b463E","ax",@progbits
	.globl	_ZN5alloc3ffi5c_str75_$LT$impl$u20$alloc..borrow..ToOwned$u20$for$u20$core..ffi..c_str..CStr$GT$10clone_into17hdb8a7e0d9b61b463E
	.p2align	1
	.type	_ZN5alloc3ffi5c_str75_$LT$impl$u20$alloc..borrow..ToOwned$u20$for$u20$core..ffi..c_str..CStr$GT$10clone_into17hdb8a7e0d9b61b463E,@function
_ZN5alloc3ffi5c_str75_$LT$impl$u20$alloc..borrow..ToOwned$u20$for$u20$core..ffi..c_str..CStr$GT$10clone_into17hdb8a7e0d9b61b463E:
.Lfunc_begin70:
	.loc	3 1024 0
	.cfi_startproc
	addi	sp, sp, -48
	.cfi_def_cfa_offset 48
	sw	ra, 44(sp)
	sw	s0, 40(sp)
	sw	s1, 36(sp)
	sw	s2, 32(sp)
	sw	s3, 28(sp)
	sw	s4, 24(sp)
	sw	s5, 20(sp)
	sw	s6, 16(sp)
	.cfi_offset ra, -4
	.cfi_offset s0, -8
	.cfi_offset s1, -12
	.cfi_offset s2, -16
	.cfi_offset s3, -20
	.cfi_offset s4, -24
	.cfi_offset s5, -28
	.cfi_offset s6, -32
	mv	s2, a2
.Ltmp781:
	mv	s3, a0
.Ltmp782:
	.loc	9 1157 9 prologue_end
	lw	s4, 0(a2)
.Ltmp783:
	lw	s1, 4(a2)
.Ltmp784:
	.loc	9 0 9 is_stmt 0
	li	a0, 1
.Ltmp785:
	.loc	9 1354 9 is_stmt 1
	sw	a0, 0(a2)
	sw	zero, 4(a2)
.Ltmp786:
	.loc	7 782 18
	sw	s1, 0(sp)
	sw	s4, 4(sp)
	sw	s1, 8(sp)
.Ltmp787:
	.loc	7 0 18 is_stmt 0
	mv	s0, s1
.Ltmp788:
	.loc	7 1163 16 is_stmt 1
	bltu	s1, a1, .LBB70_2
.Ltmp789:
	.loc	7 1168 13
	sw	a1, 8(sp)
	mv	s0, a1
.Ltmp790:
.LBB70_2:
	.file	31 "/Users/georg/.rustup/toolchains/nightly-2023-01-03-aarch64-apple-darwin/lib/rustlib/src/rust/library/core/src/slice" "mod.rs"
	.loc	31 1660 74
	sub	s5, a1, s0
.Ltmp791:
	.loc	15 2372 9
	mv	a0, s4
	mv	a1, s3
.Ltmp792:
	mv	a2, s0
	call	memcpy@plt
.Ltmp793:
	.loc	14 1203 13
	sub	a0, s1, s0
	mv	s6, s0
.Ltmp794:
	.loc	10 288 12
	bltu	a0, s5, .LBB70_9
.Ltmp795:
.LBB70_3:
	.loc	24 485 18
	add	a1, s3, s0
.Ltmp796:
	.loc	5 499 18
	add	a0, s4, s6
.Ltmp797:
	.loc	15 2372 9
	mv	a2, s5
	call	memcpy@plt
.Ltmp798:
	.loc	7 1950 9
	add	s3, s6, s5
.Ltmp799:
	.loc	7 1040 12
	bgeu	s3, s1, .LBB70_8
.Ltmp800:
	.loc	11 132 14
	li	a2, 1
	mv	a0, s4
	mv	a1, s1
.Ltmp801:
	.loc	11 288 9
	beqz	s3, .LBB70_7
.Ltmp802:
	.loc	11 132 14
	mv	a3, s3
	call	__rust_realloc
	mv	s4, a0
.Ltmp803:
	.loc	19 858 9
	bnez	a0, .LBB70_8
.Ltmp804:
	.loc	10 490 43
	li	a1, 1
	mv	a0, s3
	call	_ZN5alloc5alloc18handle_alloc_error17hd9333cd203b4ffb7E
	unimp	
.Ltmp805:
.LBB70_7:
	.loc	11 113 14
	call	__rust_dealloc
	li	s4, 1
.Ltmp806:
.LBB70_8:
	.loc	3 1027 9
	sw	s4, 0(s2)
	sw	s3, 4(s2)
.Ltmp807:
	.loc	3 1028 6
	lw	ra, 44(sp)
	lw	s0, 40(sp)
	lw	s1, 36(sp)
	lw	s2, 32(sp)
.Ltmp808:
	lw	s3, 28(sp)
	lw	s4, 24(sp)
	lw	s5, 20(sp)
	lw	s6, 16(sp)
	addi	sp, sp, 48
	ret
.Ltmp809:
.LBB70_9:
	.loc	10 289 13
	mv	a0, sp
	mv	a1, s0
	mv	a2, s5
	call	_ZN5alloc7raw_vec19RawVec$LT$T$C$A$GT$7reserve21do_reserve_and_handle17hc60fe6a21a566324E
.Ltmp810:
	.loc	7 2057 9
	lw	s6, 8(sp)
.Ltmp811:
	.loc	10 224 9
	lw	s4, 4(sp)
.Ltmp812:
	.loc	3 1027 24
	lw	s1, 0(sp)
.Ltmp813:
	.loc	3 0 24 is_stmt 0
	j	.LBB70_3
.Ltmp814:
.Lfunc_end70:
	.size	_ZN5alloc3ffi5c_str75_$LT$impl$u20$alloc..borrow..ToOwned$u20$for$u20$core..ffi..c_str..CStr$GT$10clone_into17hdb8a7e0d9b61b463E, .Lfunc_end70-_ZN5alloc3ffi5c_str75_$LT$impl$u20$alloc..borrow..ToOwned$u20$for$u20$core..ffi..c_str..CStr$GT$10clone_into17hdb8a7e0d9b61b463E
	.cfi_endproc
	.file	32 "/Users/georg/.rustup/toolchains/nightly-2023-01-03-aarch64-apple-darwin/lib/rustlib/src/rust/library/core/src/mem" "mod.rs"

	.section	".text._ZN100_$LT$alloc..ffi..c_str..CString$u20$as$u20$core..convert..From$LT$$RF$core..ffi..c_str..CStr$GT$$GT$4from17he708984fd77233b4E","ax",@progbits
	.globl	_ZN100_$LT$alloc..ffi..c_str..CString$u20$as$u20$core..convert..From$LT$$RF$core..ffi..c_str..CStr$GT$$GT$4from17he708984fd77233b4E
	.p2align	1
	.type	_ZN100_$LT$alloc..ffi..c_str..CString$u20$as$u20$core..convert..From$LT$$RF$core..ffi..c_str..CStr$GT$$GT$4from17he708984fd77233b4E,@function
_ZN100_$LT$alloc..ffi..c_str..CString$u20$as$u20$core..convert..From$LT$$RF$core..ffi..c_str..CStr$GT$$GT$4from17he708984fd77233b4E:
.Lfunc_begin71:
	.loc	3 1033 0 is_stmt 1
	.cfi_startproc
	addi	sp, sp, -16
	.cfi_def_cfa_offset 16
.Ltmp815:
	.loc	20 0 0 is_stmt 0
	sw	ra, 12(sp)
	sw	s0, 8(sp)
	sw	s1, 4(sp)
	sw	s2, 0(sp)
	.cfi_offset ra, -4
	.cfi_offset s0, -8
	.cfi_offset s1, -12
	.cfi_offset s2, -16
.Ltmp816:
	mv	s0, a1
.Ltmp817:
	mv	s2, a0
.Ltmp818:
	.loc	10 171 12 prologue_end is_stmt 1
	beqz	a1, .LBB71_4
.Ltmp819:
	.loc	10 176 26
	bltz	s0, .LBB71_6
.Ltmp820:
	.loc	11 95 14
	li	a1, 1
	mv	a0, s0
	call	__rust_alloc
	mv	s1, a0
.Ltmp821:
	.loc	10 188 23
	bnez	a0, .LBB71_5
.Ltmp822:
	.loc	10 190 27
	li	a1, 1
	mv	a0, s0
	call	_ZN5alloc5alloc18handle_alloc_error17hd9333cd203b4ffb7E
	unimp	
.Ltmp823:
.LBB71_4:
	.loc	10 0 27 is_stmt 0
	li	s1, 1
.Ltmp824:
.LBB71_5:
	.loc	15 2372 9 is_stmt 1
	mv	a0, s1
	mv	a1, s2
	mv	a2, s0
	call	memcpy@plt
.Ltmp825:
	.loc	3 1035 6
	mv	a0, s1
	mv	a1, s0
	lw	ra, 12(sp)
	lw	s0, 8(sp)
.Ltmp826:
	lw	s1, 4(sp)
.Ltmp827:
	lw	s2, 0(sp)
.Ltmp828:
	addi	sp, sp, 16
	ret
.Ltmp829:
.LBB71_6:
	.loc	10 178 27
	call	_ZN5alloc7raw_vec17capacity_overflow17h2c1c04a797021fabE
	unimp	
.Ltmp830:
.Lfunc_end71:
	.size	_ZN100_$LT$alloc..ffi..c_str..CString$u20$as$u20$core..convert..From$LT$$RF$core..ffi..c_str..CStr$GT$$GT$4from17he708984fd77233b4E, .Lfunc_end71-_ZN100_$LT$alloc..ffi..c_str..CString$u20$as$u20$core..convert..From$LT$$RF$core..ffi..c_str..CStr$GT$$GT$4from17he708984fd77233b4E
	.cfi_endproc

	.section	".text._ZN5alloc3ffi5c_str40_$LT$impl$u20$core..ffi..c_str..CStr$GT$15to_string_lossy17h854a599b2348488fE","ax",@progbits
	.globl	_ZN5alloc3ffi5c_str40_$LT$impl$u20$core..ffi..c_str..CStr$GT$15to_string_lossy17h854a599b2348488fE
	.p2align	1
	.type	_ZN5alloc3ffi5c_str40_$LT$impl$u20$core..ffi..c_str..CStr$GT$15to_string_lossy17h854a599b2348488fE,@function
_ZN5alloc3ffi5c_str40_$LT$impl$u20$core..ffi..c_str..CStr$GT$15to_string_lossy17h854a599b2348488fE:
.Lfunc_begin72:
	.loc	3 1102 0
	.cfi_startproc
	addi	sp, sp, -16
	.cfi_def_cfa_offset 16
.Ltmp831:
	.file	33 "/Users/georg/.rustup/toolchains/nightly-2023-01-03-aarch64-apple-darwin/lib/rustlib/src/rust/library/core/src/ffi" "c_str.rs"
	.loc	33 0 0 is_stmt 0
	sw	ra, 12(sp)
	.cfi_offset ra, -4
.Ltmp832:
	.loc	33 559 40 prologue_end is_stmt 1
	addi	a2, a2, -1
.Ltmp833:
	.loc	3 1103 9
	call	_ZN5alloc6string6String15from_utf8_lossy17h2ab085cbf059c53bE
.Ltmp834:
	.loc	3 1104 6
	lw	ra, 12(sp)
	addi	sp, sp, 16
	ret
.Ltmp835:
.Lfunc_end72:
	.size	_ZN5alloc3ffi5c_str40_$LT$impl$u20$core..ffi..c_str..CStr$GT$15to_string_lossy17h854a599b2348488fE, .Lfunc_end72-_ZN5alloc3ffi5c_str40_$LT$impl$u20$core..ffi..c_str..CStr$GT$15to_string_lossy17h854a599b2348488fE
	.cfi_endproc

	.section	".text._ZN5alloc3ffi5c_str40_$LT$impl$u20$core..ffi..c_str..CStr$GT$13into_c_string17h6248fdc6882a340bE","ax",@progbits
	.globl	_ZN5alloc3ffi5c_str40_$LT$impl$u20$core..ffi..c_str..CStr$GT$13into_c_string17h6248fdc6882a340bE
	.p2align	1
	.type	_ZN5alloc3ffi5c_str40_$LT$impl$u20$core..ffi..c_str..CStr$GT$13into_c_string17h6248fdc6882a340bE,@function
_ZN5alloc3ffi5c_str40_$LT$impl$u20$core..ffi..c_str..CStr$GT$13into_c_string17h6248fdc6882a340bE:
.Lfunc_begin73:
	.loc	3 1120 0
	.cfi_startproc
	.loc	3 1122 6 prologue_end
	ret
.Ltmp836:
.Lfunc_end73:
	.size	_ZN5alloc3ffi5c_str40_$LT$impl$u20$core..ffi..c_str..CStr$GT$13into_c_string17h6248fdc6882a340bE, .Lfunc_end73-_ZN5alloc3ffi5c_str40_$LT$impl$u20$core..ffi..c_str..CStr$GT$13into_c_string17h6248fdc6882a340bE
	.cfi_endproc

	.section	".text._ZN66_$LT$alloc..ffi..c_str..NulError$u20$as$u20$core..error..Error$GT$11description17ha0d5cb352d18280eE","ax",@progbits
	.globl	_ZN66_$LT$alloc..ffi..c_str..NulError$u20$as$u20$core..error..Error$GT$11description17ha0d5cb352d18280eE
	.p2align	1
	.type	_ZN66_$LT$alloc..ffi..c_str..NulError$u20$as$u20$core..error..Error$GT$11description17ha0d5cb352d18280eE,@function
_ZN66_$LT$alloc..ffi..c_str..NulError$u20$as$u20$core..error..Error$GT$11description17ha0d5cb352d18280eE:
.Lfunc_begin74:
	.loc	3 1128 0
	.cfi_startproc
	.loc	3 1130 6 prologue_end
	lui	a0, %hi(.L__unnamed_39)
.Ltmp837:
	addi	a0, a0, %lo(.L__unnamed_39)
	li	a1, 22
	ret
.Ltmp838:
.Lfunc_end74:
	.size	_ZN66_$LT$alloc..ffi..c_str..NulError$u20$as$u20$core..error..Error$GT$11description17ha0d5cb352d18280eE, .Lfunc_end74-_ZN66_$LT$alloc..ffi..c_str..NulError$u20$as$u20$core..error..Error$GT$11description17ha0d5cb352d18280eE
	.cfi_endproc

	.section	".text._ZN73_$LT$alloc..ffi..c_str..IntoStringError$u20$as$u20$core..error..Error$GT$11description17hd034c402c8eac455E","ax",@progbits
	.globl	_ZN73_$LT$alloc..ffi..c_str..IntoStringError$u20$as$u20$core..error..Error$GT$11description17hd034c402c8eac455E
	.p2align	1
	.type	_ZN73_$LT$alloc..ffi..c_str..IntoStringError$u20$as$u20$core..error..Error$GT$11description17hd034c402c8eac455E,@function
_ZN73_$LT$alloc..ffi..c_str..IntoStringError$u20$as$u20$core..error..Error$GT$11description17hd034c402c8eac455E:
.Lfunc_begin75:
	.loc	3 1139 0
	.cfi_startproc
	.loc	3 1141 6 prologue_end
	lui	a0, %hi(.L__unnamed_38)
.Ltmp839:
	addi	a0, a0, %lo(.L__unnamed_38)
	li	a1, 33
	ret
.Ltmp840:
.Lfunc_end75:
	.size	_ZN73_$LT$alloc..ffi..c_str..IntoStringError$u20$as$u20$core..error..Error$GT$11description17hd034c402c8eac455E, .Lfunc_end75-_ZN73_$LT$alloc..ffi..c_str..IntoStringError$u20$as$u20$core..error..Error$GT$11description17hd034c402c8eac455E
	.cfi_endproc

	.section	".text._ZN73_$LT$alloc..ffi..c_str..IntoStringError$u20$as$u20$core..error..Error$GT$6source17ha8f1e3171fb3faf2E","ax",@progbits
	.globl	_ZN73_$LT$alloc..ffi..c_str..IntoStringError$u20$as$u20$core..error..Error$GT$6source17ha8f1e3171fb3faf2E
	.p2align	1
	.type	_ZN73_$LT$alloc..ffi..c_str..IntoStringError$u20$as$u20$core..error..Error$GT$6source17ha8f1e3171fb3faf2E,@function
_ZN73_$LT$alloc..ffi..c_str..IntoStringError$u20$as$u20$core..error..Error$GT$6source17ha8f1e3171fb3faf2E:
.Lfunc_begin76:
	.loc	3 1143 0
	.cfi_startproc
	.loc	3 998 9 prologue_end
	addi	a0, a0, 8
.Ltmp841:
	.loc	3 1145 6
	lui	a1, %hi(.L__unnamed_4)
	addi	a1, a1, %lo(.L__unnamed_4)
	ret
.Ltmp842:
.Lfunc_end76:
	.size	_ZN73_$LT$alloc..ffi..c_str..IntoStringError$u20$as$u20$core..error..Error$GT$6source17ha8f1e3171fb3faf2E, .Lfunc_end76-_ZN73_$LT$alloc..ffi..c_str..IntoStringError$u20$as$u20$core..error..Error$GT$6source17ha8f1e3171fb3faf2E
	.cfi_endproc

	.section	.text._ZN5alloc3fmt6format12format_inner17hefc6c986a988a8dfE,"ax",@progbits
	.globl	_ZN5alloc3fmt6format12format_inner17hefc6c986a988a8dfE
	.p2align	1
	.type	_ZN5alloc3fmt6format12format_inner17hefc6c986a988a8dfE,@function
_ZN5alloc3fmt6format12format_inner17hefc6c986a988a8dfE:
.Lfunc_begin77:
	.file	34 "/Users/georg/.rustup/toolchains/nightly-2023-01-03-aarch64-apple-darwin/lib/rustlib/src/rust/library/alloc" "src/fmt.rs"
	.loc	34 609 0
	.cfi_startproc
	addi	sp, sp, -64
	.cfi_def_cfa_offset 64
.Ltmp843:
	.loc	34 611 13 prologue_end
	sw	ra, 60(sp)
	sw	s0, 56(sp)
	sw	s1, 52(sp)
	sw	s2, 48(sp)
	.cfi_offset ra, -4
	.cfi_offset s0, -8
	.cfi_offset s1, -12
	.cfi_offset s2, -16
.Ltmp844:
	.loc	34 0 13 is_stmt 0
	mv	s0, a1
.Ltmp845:
	.loc	1 431 36 is_stmt 1
	lw	a2, 12(a1)
.Ltmp846:
	.loc	1 0 36 is_stmt 0
	mv	s2, a0
.Ltmp847:
	.loc	4 146 24 is_stmt 1
	beqz	a2, .LBB77_5
.Ltmp848:
	.loc	1 0 0 is_stmt 0
	lw	a0, 8(s0)
.Ltmp849:
	li	s1, 0
.Ltmp850:
	.loc	4 146 24
	addi	a1, a0, 4
	slli	a2, a2, 3
.Ltmp851:
.LBB77_2:
	.file	35 "/Users/georg/.rustup/toolchains/nightly-2023-01-03-aarch64-apple-darwin/lib/rustlib/src/rust/library/core/src/iter/traits" "iterator.rs"
	.loc	35 2421 21 is_stmt 1
	lw	a3, 0(a1)
.Ltmp852:
	.file	36 "/Users/georg/.rustup/toolchains/nightly-2023-01-03-aarch64-apple-darwin/lib/rustlib/src/rust/library/core/src/iter/traits" "accum.rs"
	.loc	36 53 28
	add	s1, s1, a3
.Ltmp853:
	.loc	4 146 24
	addi	a2, a2, -8
	addi	a1, a1, 8
.Ltmp854:
	bnez	a2, .LBB77_2
.Ltmp855:
	.loc	1 433 12
	lw	a1, 20(s0)
	beqz	a1, .LBB77_8
.Ltmp856:
	.loc	1 435 46
	lw	a0, 4(a0)
.Ltmp857:
	.file	37 "/Users/georg/.rustup/toolchains/nightly-2023-01-03-aarch64-apple-darwin/lib/rustlib/src/rust/library/core/src/str" "mod.rs"
	.loc	37 181 9
	seqz	a0, a0
.Ltmp858:
	.loc	37 0 9 is_stmt 0
	sltiu	a1, s1, 16
.Ltmp859:
	.loc	1 435 19 is_stmt 1
	and	a0, a0, a1
	beqz	a0, .LBB77_6
	j	.LBB77_7
.Ltmp860:
.LBB77_5:
	.loc	1 433 12
	lw	a0, 20(s0)
	li	s1, 0
	beqz	a0, .LBB77_12
.Ltmp861:
.LBB77_6:
	.loc	1 0 12 is_stmt 0
	mv	a0, s1
.Ltmp862:
	.loc	14 1677 26 is_stmt 1
	add	s1, s1, s1
.Ltmp863:
	.loc	1 0 0 is_stmt 0
	bgeu	s1, a0, .LBB77_8
.Ltmp864:
.LBB77_7:
	li	s1, 0
	j	.LBB77_12
.Ltmp865:
.LBB77_8:
	.loc	10 171 12 is_stmt 1
	beqz	s1, .LBB77_12
.Ltmp866:
	.loc	10 176 26
	bltz	s1, .LBB77_16
.Ltmp867:
	.loc	11 95 14
	li	a1, 1
	mv	a0, s1
	call	__rust_alloc
.Ltmp868:
	.loc	10 188 23
	bnez	a0, .LBB77_13
.Ltmp869:
	.loc	10 190 27
	li	a1, 1
	mv	a0, s1
.Ltmp870:
	call	_ZN5alloc5alloc18handle_alloc_error17hd9333cd203b4ffb7E
	unimp	
.Ltmp871:
.LBB77_12:
	.loc	10 0 27 is_stmt 0
	li	a0, 1
.Ltmp872:
.LBB77_13:
	.loc	13 501 9 is_stmt 1
	sw	s1, 0(s2)
	sw	a0, 4(s2)
.Ltmp873:
	.loc	1 192 26
	lw	a0, 20(s0)
	lw	a1, 16(s0)
.Ltmp874:
	.loc	13 501 9
	sw	zero, 8(s2)
.Ltmp875:
	.loc	13 0 9 is_stmt 0
	sw	s2, 12(sp)
.Ltmp876:
	.loc	1 192 26 is_stmt 1
	sw	a0, 36(sp)
	sw	a1, 32(sp)
	lw	a0, 12(s0)
	lw	a1, 8(s0)
	lw	a2, 4(s0)
	lw	a3, 0(s0)
	sw	a0, 28(sp)
	sw	a1, 24(sp)
	sw	a2, 20(sp)
	sw	a3, 16(sp)
.Ltmp877:
	.loc	1 192 9 is_stmt 0
	lui	a0, %hi(.L__unnamed_1)
	addi	a1, a0, %lo(.L__unnamed_1)
	addi	a0, sp, 12
	addi	a2, sp, 16
	call	_ZN4core3fmt5write17h87a75934cc3b911aE
	bnez	a0, .LBB77_15
.Ltmp878:
	.loc	34 614 6 is_stmt 1
	lw	ra, 60(sp)
	lw	s0, 56(sp)
.Ltmp879:
	lw	s1, 52(sp)
	lw	s2, 48(sp)
	addi	sp, sp, 64
	ret
.LBB77_15:
.Ltmp880:
	.loc	19 1069 23
	lui	a0, %hi(.L__unnamed_40)
.Ltmp881:
	addi	a0, a0, %lo(.L__unnamed_40)
	lui	a1, %hi(.L__unnamed_5)
	addi	a3, a1, %lo(.L__unnamed_5)
	lui	a1, %hi(.L__unnamed_41)
	addi	a4, a1, %lo(.L__unnamed_41)
	li	a1, 51
	addi	a2, sp, 40
	call	_ZN4core6result13unwrap_failed17h3809f1cd94940bfeE
	unimp	
.Ltmp882:
.LBB77_16:
	.loc	10 178 27
	call	_ZN5alloc7raw_vec17capacity_overflow17h2c1c04a797021fabE
	unimp	
.Ltmp883:
.Lfunc_end77:
	.size	_ZN5alloc3fmt6format12format_inner17hefc6c986a988a8dfE, .Lfunc_end77-_ZN5alloc3fmt6format12format_inner17hefc6c986a988a8dfE
	.cfi_endproc
	.file	38 "/Users/georg/.rustup/toolchains/nightly-2023-01-03-aarch64-apple-darwin/lib/rustlib/src/rust/library/core/src/iter/adapters" "map.rs"

	.section	.text._ZN5alloc2rc29rcbox_layout_for_value_layout17hc837365798476e35E,"ax",@progbits
	.globl	_ZN5alloc2rc29rcbox_layout_for_value_layout17hc837365798476e35E
	.p2align	1
	.type	_ZN5alloc2rc29rcbox_layout_for_value_layout17hc837365798476e35E,@function
_ZN5alloc2rc29rcbox_layout_for_value_layout17hc837365798476e35E:
.Lfunc_begin78:
	.file	39 "/Users/georg/.rustup/toolchains/nightly-2023-01-03-aarch64-apple-darwin/lib/rustlib/src/rust/library/alloc" "src/rc.rs"
	.loc	39 297 0
	.cfi_startproc
	li	a3, 4
	mv	a2, a1
.Ltmp884:
	.loc	17 0 0 is_stmt 0
	bltu	a3, a1, .LBB78_2
.Ltmp885:
	li	a1, 4
.Ltmp886:
.LBB78_2:
	.loc	14 1203 13 prologue_end is_stmt 1
	addi	a3, a2, 7
.Ltmp887:
	.loc	18 283 72
	neg	a2, a2
.Ltmp888:
	.loc	18 283 30 is_stmt 0
	and	a2, a2, a3
.Ltmp889:
	.loc	14 1203 13 is_stmt 1
	addi	a3, a2, -8
.Ltmp890:
	.loc	18 385 22
	bltu	a2, a3, .LBB78_5
.Ltmp891:
	.loc	14 1479 26
	add	a0, a0, a2
.Ltmp892:
	sltu	a2, a0, a2
.Ltmp893:
	.loc	14 0 26 is_stmt 0
	lui	a3, 524288
.Ltmp894:
	sub	a3, a3, a1
	sltu	a3, a3, a0
.Ltmp895:
	.loc	18 386 24 is_stmt 1
	or	a2, a2, a3
	bnez	a2, .LBB78_5
.Ltmp896:
	.loc	14 1162 13
	add	a0, a0, a1
.Ltmp897:
	.loc	14 1203 13
	addi	a0, a0, -1
.Ltmp898:
	.loc	18 283 72
	neg	a2, a1
	.loc	18 283 30 is_stmt 0
	and	a0, a0, a2
.Ltmp899:
	.loc	39 303 2 is_stmt 1
	ret
.Ltmp900:
.LBB78_5:
	addi	sp, sp, -16
	.cfi_def_cfa_offset 16
.Ltmp901:
	.loc	19 1112 23
	lui	a0, %hi(.L__unnamed_42)
	addi	a0, a0, %lo(.L__unnamed_42)
	lui	a1, %hi(.L__unnamed_6)
	addi	a3, a1, %lo(.L__unnamed_6)
	lui	a1, %hi(.L__unnamed_43)
	addi	a4, a1, %lo(.L__unnamed_43)
	li	a1, 43
	addi	a2, sp, 8
	call	_ZN4core6result13unwrap_failed17h3809f1cd94940bfeE
	unimp	
.Ltmp902:
.Lfunc_end78:
	.size	_ZN5alloc2rc29rcbox_layout_for_value_layout17hc837365798476e35E, .Lfunc_end78-_ZN5alloc2rc29rcbox_layout_for_value_layout17hc837365798476e35E
	.cfi_endproc

	.section	".text._ZN5alloc3str56_$LT$impl$u20$alloc..borrow..ToOwned$u20$for$u20$str$GT$10clone_into17hc38b57b49a59f4a1E","ax",@progbits
	.globl	_ZN5alloc3str56_$LT$impl$u20$alloc..borrow..ToOwned$u20$for$u20$str$GT$10clone_into17hc38b57b49a59f4a1E
	.p2align	1
	.type	_ZN5alloc3str56_$LT$impl$u20$alloc..borrow..ToOwned$u20$for$u20$str$GT$10clone_into17hc38b57b49a59f4a1E,@function
_ZN5alloc3str56_$LT$impl$u20$alloc..borrow..ToOwned$u20$for$u20$str$GT$10clone_into17hc38b57b49a59f4a1E:
.Lfunc_begin79:
	.loc	23 212 0
	.cfi_startproc
	addi	sp, sp, -48
	.cfi_def_cfa_offset 48
	sw	ra, 44(sp)
	sw	s0, 40(sp)
	sw	s1, 36(sp)
	sw	s2, 32(sp)
	sw	s3, 28(sp)
	sw	s4, 24(sp)
	sw	s5, 20(sp)
	.cfi_offset ra, -4
	.cfi_offset s0, -8
	.cfi_offset s1, -12
	.cfi_offset s2, -16
	.cfi_offset s3, -20
	.cfi_offset s4, -24
	.cfi_offset s5, -28
	mv	s0, a2
.Ltmp903:
	.file	40 "/Users/georg/.rustup/toolchains/nightly-2023-01-03-aarch64-apple-darwin/lib/rustlib/src/rust/library/core/src/mem" "manually_drop.rs"
	.loc	40 89 9 prologue_end
	lw	s1, 8(a2)
	lw	s4, 4(a2)
	lw	a2, 0(a2)
	mv	s2, a0
.Ltmp904:
	sw	s1, 16(sp)
	sw	s4, 12(sp)
	sw	a2, 8(sp)
.Ltmp905:
	.loc	7 1163 16
	bltu	s1, a1, .LBB79_2
.Ltmp906:
	.loc	7 0 16 is_stmt 0
	mv	s1, a1
.Ltmp907:
.LBB79_2:
	sw	s1, 16(sp)
.Ltmp908:
	.loc	31 1660 74 is_stmt 1
	sub	s3, a1, s1
.Ltmp909:
	.loc	15 2372 9
	mv	a0, s4
	mv	a1, s2
.Ltmp910:
	mv	a2, s1
	call	memcpy@plt
.Ltmp911:
	.loc	10 288 12
	lw	a0, 8(sp)
.Ltmp912:
	.loc	14 1203 13
	sub	a0, a0, s1
.Ltmp913:
	.loc	14 0 13 is_stmt 0
	mv	s5, s1
.Ltmp914:
	.loc	10 288 12 is_stmt 1
	bltu	a0, s3, .LBB79_4
.Ltmp915:
.LBB79_3:
	.loc	24 485 18
	add	a1, s2, s1
.Ltmp916:
	.loc	5 499 18
	add	a0, s4, s5
.Ltmp917:
	.loc	15 2372 9
	mv	a2, s3
	call	memcpy@plt
.Ltmp918:
	.loc	7 1950 9
	add	a0, s5, s3
	sw	a0, 16(sp)
.Ltmp919:
	.loc	23 215 9
	lw	a1, 8(sp)
	lw	a2, 12(sp)
	sw	a1, 0(s0)
	sw	a2, 4(s0)
	sw	a0, 8(s0)
.Ltmp920:
	.loc	23 216 6
	lw	ra, 44(sp)
	lw	s0, 40(sp)
.Ltmp921:
	lw	s1, 36(sp)
	lw	s2, 32(sp)
.Ltmp922:
	lw	s3, 28(sp)
.Ltmp923:
	lw	s4, 24(sp)
.Ltmp924:
	lw	s5, 20(sp)
.Ltmp925:
	addi	sp, sp, 48
	ret
.Ltmp926:
.LBB79_4:
	.loc	10 289 13
	addi	a0, sp, 8
	mv	a1, s1
	mv	a2, s3
	call	_ZN5alloc7raw_vec19RawVec$LT$T$C$A$GT$7reserve21do_reserve_and_handle17hc60fe6a21a566324E
.Ltmp927:
	.loc	7 2057 9
	lw	s5, 16(sp)
.Ltmp928:
	.loc	10 224 9
	lw	s4, 12(sp)
	j	.LBB79_3
.Ltmp929:
.Lfunc_end79:
	.size	_ZN5alloc3str56_$LT$impl$u20$alloc..borrow..ToOwned$u20$for$u20$str$GT$10clone_into17hc38b57b49a59f4a1E, .Lfunc_end79-_ZN5alloc3str56_$LT$impl$u20$alloc..borrow..ToOwned$u20$for$u20$str$GT$10clone_into17hc38b57b49a59f4a1E
	.cfi_endproc
	.file	41 "/Users/georg/.rustup/toolchains/nightly-2023-01-03-aarch64-apple-darwin/lib/rustlib/src/rust/library/core/src/mem" "maybe_uninit.rs"

	.section	".text._ZN5alloc3str21_$LT$impl$u20$str$GT$12to_lowercase17h9663fe311062bce0E","ax",@progbits
	.globl	_ZN5alloc3str21_$LT$impl$u20$str$GT$12to_lowercase17h9663fe311062bce0E
	.p2align	1
	.type	_ZN5alloc3str21_$LT$impl$u20$str$GT$12to_lowercase17h9663fe311062bce0E,@function
_ZN5alloc3str21_$LT$impl$u20$str$GT$12to_lowercase17h9663fe311062bce0E:
.Lfunc_begin80:
	.loc	23 368 0
	.cfi_startproc
	addi	sp, sp, -80
	.cfi_def_cfa_offset 80
.Ltmp930:
	.loc	23 376 13 prologue_end
	sw	ra, 76(sp)
	sw	s0, 72(sp)
	sw	s1, 68(sp)
	sw	s2, 64(sp)
	sw	s3, 60(sp)
	sw	s4, 56(sp)
	sw	s5, 52(sp)
	sw	s6, 48(sp)
	sw	s7, 44(sp)
	sw	s8, 40(sp)
	sw	s9, 36(sp)
	sw	s10, 32(sp)
	sw	s11, 28(sp)
	.cfi_offset ra, -4
	.cfi_offset s0, -8
	.cfi_offset s1, -12
	.cfi_offset s2, -16
	.cfi_offset s3, -20
	.cfi_offset s4, -24
	.cfi_offset s5, -28
	.cfi_offset s6, -32
	.cfi_offset s7, -36
	.cfi_offset s8, -40
	.cfi_offset s9, -44
	.cfi_offset s10, -48
	.cfi_offset s11, -52
.Ltmp931:
	.loc	23 0 13 is_stmt 0
	mv	s3, a2
.Ltmp932:
	mv	s4, a1
.Ltmp933:
	mv	s5, a0
.Ltmp934:
	.loc	10 171 12 is_stmt 1
	beqz	a2, .LBB80_5
.Ltmp935:
	.loc	10 176 26
	bltz	s3, .LBB80_87
.Ltmp936:
	.loc	11 95 14
	li	a1, 1
	mv	a0, s3
	call	__rust_alloc
.Ltmp937:
	.loc	10 188 23
	beqz	a0, .LBB80_88
.Ltmp938:
	.loc	10 0 23 is_stmt 0
	li	a1, 8
.Ltmp939:
	.loc	23 638 15 is_stmt 1
	bgeu	s3, a1, .LBB80_6
.Ltmp940:
	.loc	23 0 15 is_stmt 0
	li	a1, 0
	j	.LBB80_28
.Ltmp941:
.LBB80_5:
	li	a1, 0
	li	a0, 1
	j	.LBB80_28
.Ltmp942:
.LBB80_6:
	li	a1, 0
.Ltmp943:
	.loc	23 650 16 is_stmt 1
	addi	a6, s4, 4
	lui	a2, 526344
	addi	a7, a2, 128
	li	t0, 26
	j	.LBB80_8
.Ltmp944:
.LBB80_7:
	.loc	23 638 15
	addi	a3, a1, 8
	addi	a4, a1, 16
.Ltmp945:
	.loc	41 489 9
	sb	a2, 7(s1)
.Ltmp946:
	.loc	41 0 9 is_stmt 0
	mv	a1, a3
.Ltmp947:
	.loc	23 638 15 is_stmt 1
	bltu	s3, a4, .LBB80_27
.Ltmp948:
.LBB80_8:
	.loc	24 1269 18
	add	a2, a6, a1
	lbu	a3, -3(a2)
	lbu	a5, -4(a2)
	lbu	s1, -1(a2)
	lbu	s0, -2(a2)
	slli	a3, a3, 8
	or	a3, a3, a5
	slli	a5, s1, 8
	or	a5, a5, s0
	slli	a5, a5, 16
	or	s0, a5, a3
.Ltmp949:
	lbu	a3, 1(a2)
	lbu	a5, 0(a2)
	lbu	s1, 3(a2)
	lbu	a2, 2(a2)
	slli	a3, a3, 8
	or	a3, a3, a5
	slli	a5, s1, 8
	or	a2, a2, a5
	slli	a2, a2, 16
	or	a5, a2, a3
.Ltmp950:
	.loc	23 647 17
	or	a2, a5, s0
.Ltmp951:
	.loc	23 650 16
	and	a2, a2, a7
.Ltmp952:
	bnez	a2, .LBB80_28
.Ltmp953:
	.file	42 "/Users/georg/.rustup/toolchains/nightly-2023-01-03-aarch64-apple-darwin/lib/rustlib/src/rust/library/core/src/num" "mod.rs"
	.loc	42 520 25
	addi	a2, s0, -65
	andi	a2, a2, 255
.Ltmp954:
	.loc	42 375 9
	bltu	a2, t0, .LBB80_11
.Ltmp955:
	.loc	42 0 9 is_stmt 0
	mv	a3, s0
	j	.LBB80_12
.Ltmp956:
.LBB80_11:
	ori	a3, s0, 32
.Ltmp957:
.LBB80_12:
	srli	a2, s0, 8
.Ltmp958:
	add	s1, a0, a1
.Ltmp959:
	.loc	42 520 25 is_stmt 1
	addi	a4, a2, -65
	andi	a4, a4, 255
.Ltmp960:
	.loc	41 489 9
	sb	a3, 0(s1)
.Ltmp961:
	.loc	42 375 9
	bgeu	a4, t0, .LBB80_14
.Ltmp962:
	.loc	42 0 9 is_stmt 0
	ori	a2, a2, 32
.Ltmp963:
.LBB80_14:
	srli	a3, s0, 16
.Ltmp964:
	.loc	42 520 25 is_stmt 1
	addi	a4, a3, -65
	andi	a4, a4, 255
.Ltmp965:
	.loc	41 489 9
	sb	a2, 1(s1)
.Ltmp966:
	.loc	42 375 9
	bgeu	a4, t0, .LBB80_16
.Ltmp967:
	.loc	42 0 9 is_stmt 0
	ori	a3, a3, 32
.Ltmp968:
.LBB80_16:
	srli	a2, s0, 24
.Ltmp969:
	.loc	42 520 25 is_stmt 1
	addi	a4, a2, -65
	andi	a4, a4, 255
.Ltmp970:
	.loc	41 489 9
	sb	a3, 2(s1)
.Ltmp971:
	.loc	42 375 9
	bgeu	a4, t0, .LBB80_18
.Ltmp972:
	.loc	42 0 9 is_stmt 0
	ori	a2, a2, 32
.Ltmp973:
.LBB80_18:
	.loc	42 520 25 is_stmt 1
	addi	a3, a5, -65
	andi	a3, a3, 255
.Ltmp974:
	.loc	41 489 9
	sb	a2, 3(s1)
.Ltmp975:
	.loc	42 375 9
	bltu	a3, t0, .LBB80_20
.Ltmp976:
	.loc	42 0 9 is_stmt 0
	mv	a3, a5
	j	.LBB80_21
.Ltmp977:
.LBB80_20:
	ori	a3, a5, 32
.Ltmp978:
.LBB80_21:
	srli	a2, a5, 8
.Ltmp979:
	.loc	42 520 25 is_stmt 1
	addi	a4, a2, -65
	andi	a4, a4, 255
.Ltmp980:
	.loc	41 489 9
	sb	a3, 4(s1)
.Ltmp981:
	.loc	42 375 9
	bgeu	a4, t0, .LBB80_23
.Ltmp982:
	.loc	42 0 9 is_stmt 0
	ori	a2, a2, 32
.Ltmp983:
.LBB80_23:
	srli	a3, a5, 16
.Ltmp984:
	.loc	42 520 25 is_stmt 1
	addi	a4, a3, -65
	andi	a4, a4, 255
.Ltmp985:
	.loc	41 489 9
	sb	a2, 5(s1)
.Ltmp986:
	.loc	42 375 9
	bgeu	a4, t0, .LBB80_25
.Ltmp987:
	.loc	42 0 9 is_stmt 0
	ori	a3, a3, 32
.Ltmp988:
.LBB80_25:
	srli	a2, a5, 24
.Ltmp989:
	.loc	42 520 25 is_stmt 1
	addi	a4, a2, -65
	andi	a4, a4, 255
.Ltmp990:
	.loc	41 489 9
	sb	a3, 6(s1)
.Ltmp991:
	.loc	42 375 9
	bgeu	a4, t0, .LBB80_7
.Ltmp992:
	.loc	42 0 9 is_stmt 0
	ori	a2, a2, 32
	j	.LBB80_7
.Ltmp993:
.LBB80_27:
	mv	a1, a3
.Ltmp994:
.LBB80_28:
	.loc	13 846 9 is_stmt 1
	sw	s3, 0(s5)
	sw	a0, 4(s5)
	sw	a1, 8(s5)
.Ltmp995:
	.loc	4 146 24
	bne	s3, a1, .LBB80_30
.Ltmp996:
.LBB80_29:
	.loc	23 419 6
	lw	ra, 76(sp)
	lw	s0, 72(sp)
	lw	s1, 68(sp)
	lw	s2, 64(sp)
	lw	s3, 60(sp)
	lw	s4, 56(sp)
	lw	s5, 52(sp)
	lw	s6, 48(sp)
	lw	s7, 44(sp)
	lw	s8, 40(sp)
	lw	s9, 36(sp)
	lw	s10, 32(sp)
	lw	s11, 28(sp)
	addi	sp, sp, 80
	ret
.LBB80_30:
.Ltmp997:
	.loc	23 0 6 is_stmt 0
	li	s0, 0
	add	s6, s4, a1
.Ltmp998:
	sub	s2, s3, a1
.Ltmp999:
	add	s3, s3, s4
.Ltmp1000:
	li	s4, 931
.Ltmp1001:
	lui	a0, 8
	addi	a0, a0, 975
	sw	a0, 12(sp)
	lui	s10, 272
	li	s9, -64
	mv	a0, s6
	j	.LBB80_34
.Ltmp1002:
.LBB80_31:
	.loc	23 388 22 is_stmt 1
	lw	s0, 16(sp)
.Ltmp1003:
.LBB80_32:
	.loc	23 0 0 is_stmt 0
	mv	a0, s5
	mv	a1, s0
	call	_ZN5alloc6string6String4push17h6de370a8d6220186E
.Ltmp1004:
.LBB80_33:
	mv	s0, s8
.Ltmp1005:
	mv	a0, s7
.Ltmp1006:
	.loc	4 146 24 is_stmt 1
	beq	s7, s3, .LBB80_29
.Ltmp1007:
.LBB80_34:
	.file	43 "/Users/georg/.rustup/toolchains/nightly-2023-01-03-aarch64-apple-darwin/lib/rustlib/src/rust/library/core/src/str" "validations.rs"
	.loc	43 38 13
	lb	a2, 0(a0)
	andi	a1, a2, 255
.Ltmp1008:
	.loc	43 39 8
	bltz	a2, .LBB80_36
.Ltmp1009:
	.loc	43 0 8 is_stmt 0
	addi	s7, a0, 1
.Ltmp1010:
	.file	44 "/Users/georg/.rustup/toolchains/nightly-2023-01-03-aarch64-apple-darwin/lib/rustlib/src/rust/library/core/src/str" "iter.rs"
	.loc	44 145 38 is_stmt 1
	sub	a0, s0, a0
.Ltmp1011:
	.loc	44 145 17 is_stmt 0
	add	s8, a0, s7
.Ltmp1012:
	.loc	23 378 23 is_stmt 1
	bne	a1, s4, .LBB80_41
	j	.LBB80_45
.Ltmp1013:
.LBB80_36:
	.loc	43 49 22
	lbu	a3, 1(a0)
.Ltmp1014:
	.loc	43 12 5
	andi	a2, a1, 31
.Ltmp1015:
	.loc	43 18 17
	andi	a3, a3, 63
.Ltmp1016:
	.loc	43 51 8
	li	a4, 223
	bgeu	a4, a1, .LBB80_40
.Ltmp1017:
	.loc	43 56 26
	lbu	a4, 2(a0)
.Ltmp1018:
	.loc	43 18 5
	slli	a3, a3, 6
.Ltmp1019:
	.loc	43 18 17 is_stmt 0
	andi	a4, a4, 63
	.loc	43 18 5
	or	a3, a3, a4
.Ltmp1020:
	.loc	43 59 12 is_stmt 1
	li	a4, 240
.Ltmp1021:
	bltu	a1, a4, .LBB80_44
.Ltmp1022:
	.loc	43 64 30
	lbu	a1, 3(a0)
.Ltmp1023:
	.loc	43 65 18
	slli	a2, a2, 29
.Ltmp1024:
	srli	a2, a2, 11
.Ltmp1025:
	.loc	43 18 5
	slli	a3, a3, 6
.Ltmp1026:
	.loc	43 18 17 is_stmt 0
	andi	a1, a1, 63
	.loc	43 18 5
	or	a1, a1, a3
.Ltmp1027:
	.loc	43 65 13 is_stmt 1
	or	a1, a1, a2
.Ltmp1028:
	.loc	44 140 9
	beq	a1, s10, .LBB80_29
.Ltmp1029:
	.loc	44 0 9 is_stmt 0
	addi	s7, a0, 4
.Ltmp1030:
	.loc	44 145 38 is_stmt 1
	sub	a0, s0, a0
.Ltmp1031:
	.loc	44 145 17 is_stmt 0
	add	s8, a0, s7
.Ltmp1032:
	.loc	23 378 23 is_stmt 1
	bne	a1, s4, .LBB80_41
	j	.LBB80_45
.Ltmp1033:
.LBB80_40:
	.loc	23 0 23 is_stmt 0
	addi	s7, a0, 2
.Ltmp1034:
	slli	a1, a2, 6
	or	a1, a1, a3
.Ltmp1035:
	.loc	44 145 38 is_stmt 1
	sub	a0, s0, a0
.Ltmp1036:
	.loc	44 145 17 is_stmt 0
	add	s8, a0, s7
.Ltmp1037:
	.loc	23 378 23 is_stmt 1
	beq	a1, s4, .LBB80_45
.Ltmp1038:
.LBB80_41:
	beq	a1, s10, .LBB80_29
.Ltmp1039:
	.loc	23 387 23
	addi	a0, sp, 16
	call	_ZN4core7unicode12unicode_data11conversions8to_lower17h79276ba31f13189dE
	.loc	23 387 17 is_stmt 0
	lw	s1, 20(sp)
	beqz	s1, .LBB80_31
.Ltmp1040:
	lw	s0, 24(sp)
	.loc	23 0 0
	lw	a1, 16(sp)
	mv	a0, s5
	call	_ZN5alloc6string6String4push17h6de370a8d6220186E
	mv	a0, s5
	mv	a1, s1
	call	_ZN5alloc6string6String4push17h6de370a8d6220186E
	.loc	23 387 17
	bnez	s0, .LBB80_32
	j	.LBB80_33
.Ltmp1041:
.LBB80_44:
	.loc	23 0 17
	addi	s7, a0, 3
.Ltmp1042:
	slli	a1, a2, 12
	or	a1, a1, a3
.Ltmp1043:
	.loc	44 145 38 is_stmt 1
	sub	a0, s0, a0
.Ltmp1044:
	.loc	44 145 17 is_stmt 0
	add	s8, a0, s7
.Ltmp1045:
	.loc	23 378 23 is_stmt 1
	bne	a1, s4, .LBB80_41
.Ltmp1046:
.LBB80_45:
	.loc	23 0 23 is_stmt 0
	add	s11, s6, s0
.Ltmp1047:
	.loc	37 216 12 is_stmt 1
	beqz	s0, .LBB80_49
.Ltmp1048:
	.loc	37 220 9
	bgeu	s0, s2, .LBB80_48
.Ltmp1049:
	.loc	37 232 19
	lb	a0, 0(s11)
.Ltmp1050:
	.file	45 "/Users/georg/.rustup/toolchains/nightly-2023-01-03-aarch64-apple-darwin/lib/rustlib/src/rust/library/core/src/str" "traits.rs"
	.loc	45 259 9
	li	a1, -65
	blt	a1, a0, .LBB80_49
	j	.LBB80_86
.Ltmp1051:
.LBB80_48:
	bne	s0, s2, .LBB80_86
.Ltmp1052:
.LBB80_49:
	.loc	45 0 9 is_stmt 0
	li	a0, 0
	j	.LBB80_51
.Ltmp1053:
.LBB80_50:
	li	a0, 1
.Ltmp1054:
	.file	46 "/Users/georg/.rustup/toolchains/nightly-2023-01-03-aarch64-apple-darwin/lib/rustlib/src/rust/library/core/src/iter/traits" "double_ended.rs"
	.loc	46 229 21 is_stmt 1
	bne	s1, s10, .LBB80_63
.Ltmp1055:
.LBB80_51:
	.loc	4 361 24
	beq	s11, s6, .LBB80_82
.Ltmp1056:
	.loc	43 85 22
	lbu	s1, -1(s11)
	slli	a1, s1, 24
	srai	a1, a1, 24
	bltz	a1, .LBB80_54
.Ltmp1057:
	.loc	43 0 22 is_stmt 0
	addi	s11, s11, -1
.Ltmp1058:
	j	.LBB80_60
.Ltmp1059:
.LBB80_54:
	.loc	43 94 22 is_stmt 1
	lbu	a3, -2(s11)
.Ltmp1060:
	slli	a2, a3, 24
	srai	a2, a2, 24
.Ltmp1061:
	.loc	43 96 8
	bge	a2, s9, .LBB80_57
.Ltmp1062:
	.loc	43 99 26
	lbu	a4, -3(s11)
.Ltmp1063:
	slli	a3, a4, 24
.Ltmp1064:
	srai	a3, a3, 24
.Ltmp1065:
	.loc	43 101 12
	bge	a3, s9, .LBB80_58
.Ltmp1066:
	.loc	43 104 30
	lbu	a4, -4(s11)
.Ltmp1067:
	.loc	24 485 18
	addi	s11, s11, -4
.Ltmp1068:
	.loc	43 12 5
	andi	a4, a4, 7
.Ltmp1069:
	.loc	43 18 5
	slli	a4, a4, 6
.Ltmp1070:
	.loc	43 18 17 is_stmt 0
	andi	a3, a3, 63
.Ltmp1071:
	.loc	43 18 5
	or	a3, a3, a4
.Ltmp1072:
	.loc	43 0 5
	j	.LBB80_59
.Ltmp1073:
.LBB80_57:
	addi	s11, s11, -2
	andi	a2, a3, 31
.Ltmp1074:
	.loc	43 18 5
	slli	a2, a2, 6
.Ltmp1075:
	.loc	43 18 17
	andi	a1, a1, 63
.Ltmp1076:
	.loc	43 18 5
	or	s1, a2, a1
.Ltmp1077:
	.loc	43 0 5
	bne	s1, s10, .LBB80_60
	j	.LBB80_82
.Ltmp1078:
.LBB80_58:
	addi	s11, s11, -3
	andi	a3, a4, 15
.Ltmp1079:
.LBB80_59:
	.loc	43 18 5
	slli	a3, a3, 6
.Ltmp1080:
	.loc	43 18 17
	andi	a2, a2, 63
.Ltmp1081:
	.loc	43 18 5
	or	a2, a2, a3
.Ltmp1082:
	.loc	43 18 5
	slli	a2, a2, 6
.Ltmp1083:
	.loc	43 18 17
	andi	a1, a1, 63
.Ltmp1084:
	.loc	43 18 5
	or	s1, a2, a1
.Ltmp1085:
	.loc	46 228 19 is_stmt 1
	beq	s1, s10, .LBB80_82
.Ltmp1086:
.LBB80_60:
	.file	47 "/Users/georg/.rustup/toolchains/nightly-2023-01-03-aarch64-apple-darwin/lib/rustlib/src/rust/library/core/src/iter/adapters" "skip_while.rs"
	.loc	47 48 20
	andi	a0, a0, 255
	bnez	a0, .LBB80_50
.Ltmp1087:
	.loc	23 414 40
	mv	a0, s1
	call	_ZN4core7unicode12unicode_data14case_ignorable6lookup17hf45febd2a7376b98E
.Ltmp1088:
	.loc	47 48 20
	beqz	a0, .LBB80_50
.Ltmp1089:
	.loc	47 0 20 is_stmt 0
	li	a0, 0
	lui	s1, 272
	.loc	46 229 21 is_stmt 1
	beq	s1, s10, .LBB80_51
.Ltmp1090:
.LBB80_63:
	.loc	23 415 28
	mv	a0, s1
	call	_ZN4core7unicode12unicode_data5cased6lookup17hfd9e10c681d03ddfE
.Ltmp1091:
	.loc	23 407 33
	beqz	a0, .LBB80_82
.Ltmp1092:
	.loc	23 408 53
	addi	a2, s0, 2
	add	s1, s6, a2
.Ltmp1093:
	.loc	37 216 12
	beqz	a2, .LBB80_68
.Ltmp1094:
	.loc	37 220 9
	bgeu	a2, s2, .LBB80_67
.Ltmp1095:
	.loc	37 232 19
	lb	a0, 0(s1)
.Ltmp1096:
	.loc	45 330 12
	li	a1, -65
	blt	a1, a0, .LBB80_68
	j	.LBB80_89
.Ltmp1097:
.LBB80_67:
	bne	a2, s2, .LBB80_89
.Ltmp1098:
.LBB80_68:
	.loc	45 0 12 is_stmt 0
	li	a0, 0
	j	.LBB80_70
.Ltmp1099:
.LBB80_69:
	li	a0, 1
.Ltmp1100:
	.loc	35 2245 21 is_stmt 1
	bne	s0, s10, .LBB80_81
.Ltmp1101:
.LBB80_70:
	.loc	4 146 24
	beq	s1, s3, .LBB80_84
.Ltmp1102:
	.loc	43 38 13
	lb	a1, 0(s1)
	andi	s0, a1, 255
.Ltmp1103:
	.loc	43 39 8
	bltz	a1, .LBB80_73
.Ltmp1104:
	.loc	43 0 8 is_stmt 0
	addi	s1, s1, 1
.Ltmp1105:
	.loc	47 48 20 is_stmt 1
	andi	a0, a0, 255
	bnez	a0, .LBB80_69
	j	.LBB80_79
.Ltmp1106:
.LBB80_73:
	.loc	43 49 22
	lbu	a2, 1(s1)
.Ltmp1107:
	.loc	43 12 5
	andi	a1, s0, 31
.Ltmp1108:
	.loc	43 18 17
	andi	a2, a2, 63
.Ltmp1109:
	.loc	43 51 8
	li	a3, 223
	bgeu	a3, s0, .LBB80_77
.Ltmp1110:
	.loc	43 56 26
	lbu	a3, 2(s1)
.Ltmp1111:
	.loc	43 18 5
	slli	a2, a2, 6
.Ltmp1112:
	.loc	43 18 17 is_stmt 0
	andi	a3, a3, 63
	.loc	43 18 5
	or	a2, a2, a3
.Ltmp1113:
	.loc	43 59 12 is_stmt 1
	li	a3, 240
.Ltmp1114:
	bltu	s0, a3, .LBB80_78
.Ltmp1115:
	.loc	43 64 30
	lbu	a3, 3(s1)
.Ltmp1116:
	.loc	43 65 18
	slli	a1, a1, 29
.Ltmp1117:
	srli	a1, a1, 11
.Ltmp1118:
	.loc	43 18 5
	slli	a2, a2, 6
.Ltmp1119:
	.loc	43 18 17 is_stmt 0
	andi	a3, a3, 63
	.loc	43 18 5
	or	a2, a2, a3
.Ltmp1120:
	.loc	43 65 13 is_stmt 1
	or	s0, a2, a1
.Ltmp1121:
	.loc	35 2244 19
	beq	s0, s10, .LBB80_84
.Ltmp1122:
	.loc	35 0 19 is_stmt 0
	addi	s1, s1, 4
.Ltmp1123:
	.loc	47 48 20 is_stmt 1
	andi	a0, a0, 255
	bnez	a0, .LBB80_69
	j	.LBB80_79
.Ltmp1124:
.LBB80_77:
	.loc	47 0 20 is_stmt 0
	addi	s1, s1, 2
	slli	a1, a1, 6
	or	s0, a1, a2
.Ltmp1125:
	.loc	47 48 20
	andi	a0, a0, 255
	bnez	a0, .LBB80_69
	j	.LBB80_79
.Ltmp1126:
.LBB80_78:
	.loc	47 0 20
	addi	s1, s1, 3
	slli	a1, a1, 12
	or	s0, a2, a1
.Ltmp1127:
	.loc	47 48 20
	andi	a0, a0, 255
	bnez	a0, .LBB80_69
.Ltmp1128:
.LBB80_79:
	.loc	23 414 40 is_stmt 1
	mv	a0, s0
	call	_ZN4core7unicode12unicode_data14case_ignorable6lookup17hf45febd2a7376b98E
.Ltmp1129:
	.loc	47 48 20
	beqz	a0, .LBB80_69
.Ltmp1130:
	.loc	47 0 20 is_stmt 0
	li	a0, 0
	lui	s0, 272
	.loc	35 2245 21 is_stmt 1
	beq	s0, s10, .LBB80_70
.Ltmp1131:
.LBB80_81:
	.loc	23 415 28
	mv	a0, s0
	call	_ZN4core7unicode12unicode_data5cased6lookup17hfd9e10c681d03ddfE
.Ltmp1132:
	.loc	23 409 28
	beqz	a0, .LBB80_84
.Ltmp1133:
.LBB80_82:
	.loc	7 907 26
	lw	a1, 8(s5)
.Ltmp1134:
	.loc	10 288 12
	lw	a0, 0(s5)
.Ltmp1135:
	.loc	14 1203 13
	sub	a0, a0, a1
.Ltmp1136:
	.loc	14 0 13 is_stmt 0
	lw	s0, 12(sp)
.Ltmp1137:
	.loc	10 288 12 is_stmt 1
	li	a2, 2
	bltu	a0, a2, .LBB80_85
.Ltmp1138:
.LBB80_83:
	.loc	13 0 0 is_stmt 0
	lw	a0, 4(s5)
	add	a0, a0, a1
	srli	a2, s0, 8
	sb	a2, 1(a0)
	sb	s0, 0(a0)
	addi	a0, a1, 2
	sw	a0, 8(s5)
.Ltmp1139:
	j	.LBB80_33
.Ltmp1140:
.LBB80_84:
	.loc	7 907 26 is_stmt 1
	lw	a1, 8(s5)
.Ltmp1141:
	.loc	10 288 12
	lw	a0, 0(s5)
.Ltmp1142:
	.loc	14 1203 13
	sub	a0, a0, a1
.Ltmp1143:
	.loc	14 0 13 is_stmt 0
	lui	a2, 8
	addi	s0, a2, 719
.Ltmp1144:
	.loc	10 288 12 is_stmt 1
	li	a2, 1
	bltu	a2, a0, .LBB80_83
.Ltmp1145:
.LBB80_85:
	.loc	13 0 0 is_stmt 0
	li	a2, 2
	mv	a0, s5
	call	_ZN5alloc7raw_vec19RawVec$LT$T$C$A$GT$7reserve21do_reserve_and_handle17hc60fe6a21a566324E
	lw	a1, 8(s5)
	j	.LBB80_83
.Ltmp1146:
.LBB80_86:
	.loc	45 294 21 is_stmt 1
	lui	a0, %hi(.L__unnamed_44)
	addi	a4, a0, %lo(.L__unnamed_44)
	mv	a0, s6
	mv	a1, s2
	li	a2, 0
	mv	a3, s0
	call	_ZN4core3str16slice_error_fail17he10ac03a11db86e0E
	unimp	
.Ltmp1147:
.LBB80_87:
	.loc	10 178 27
	call	_ZN5alloc7raw_vec17capacity_overflow17h2c1c04a797021fabE
	unimp	
.Ltmp1148:
.LBB80_88:
	.loc	10 190 27
	li	a1, 1
	mv	a0, s3
.Ltmp1149:
	call	_ZN5alloc5alloc18handle_alloc_error17hd9333cd203b4ffb7E
	unimp	
.Ltmp1150:
.LBB80_89:
	.loc	45 370 21
	lui	a0, %hi(.L__unnamed_45)
	addi	a4, a0, %lo(.L__unnamed_45)
	mv	a0, s6
	mv	a1, s2
	mv	a3, s2
	call	_ZN4core3str16slice_error_fail17he10ac03a11db86e0E
.Ltmp1151:
	unimp	
.Ltmp1152:
.Lfunc_end80:
	.size	_ZN5alloc3str21_$LT$impl$u20$str$GT$12to_lowercase17h9663fe311062bce0E, .Lfunc_end80-_ZN5alloc3str21_$LT$impl$u20$str$GT$12to_lowercase17h9663fe311062bce0E
	.cfi_endproc
	.file	48 "/Users/georg/.rustup/toolchains/nightly-2023-01-03-aarch64-apple-darwin/lib/rustlib/src/rust/library/core/src/iter/adapters" "rev.rs"

	.section	".text._ZN5alloc3str21_$LT$impl$u20$str$GT$12to_uppercase17h9d3abeae09b0ed66E","ax",@progbits
	.globl	_ZN5alloc3str21_$LT$impl$u20$str$GT$12to_uppercase17h9d3abeae09b0ed66E
	.p2align	1
	.type	_ZN5alloc3str21_$LT$impl$u20$str$GT$12to_uppercase17h9d3abeae09b0ed66E,@function
_ZN5alloc3str21_$LT$impl$u20$str$GT$12to_uppercase17h9d3abeae09b0ed66E:
.Lfunc_begin81:
	.loc	23 459 0
	.cfi_startproc
	addi	sp, sp, -48
	.cfi_def_cfa_offset 48
.Ltmp1153:
	.loc	23 467 13 prologue_end
	sw	ra, 44(sp)
	sw	s0, 40(sp)
	sw	s1, 36(sp)
	sw	s2, 32(sp)
	sw	s3, 28(sp)
	sw	s4, 24(sp)
	sw	s5, 20(sp)
	sw	s6, 16(sp)
	sw	s7, 12(sp)
	.cfi_offset ra, -4
	.cfi_offset s0, -8
	.cfi_offset s1, -12
	.cfi_offset s2, -16
	.cfi_offset s3, -20
	.cfi_offset s4, -24
	.cfi_offset s5, -28
	.cfi_offset s6, -32
	.cfi_offset s7, -36
.Ltmp1154:
	.loc	23 0 13 is_stmt 0
	mv	s4, a2
.Ltmp1155:
	mv	s2, a1
.Ltmp1156:
	mv	s3, a0
.Ltmp1157:
	.loc	10 171 12 is_stmt 1
	beqz	a2, .LBB81_5
.Ltmp1158:
	.loc	10 176 26
	bltz	s4, .LBB81_43
.Ltmp1159:
	.loc	11 95 14
	li	a1, 1
	mv	a0, s4
	call	__rust_alloc
.Ltmp1160:
	.loc	10 188 23
	beqz	a0, .LBB81_44
.Ltmp1161:
	.loc	10 0 23 is_stmt 0
	li	a1, 8
.Ltmp1162:
	.loc	23 638 15 is_stmt 1
	bgeu	s4, a1, .LBB81_6
.Ltmp1163:
	.loc	23 0 15 is_stmt 0
	li	a1, 0
	j	.LBB81_28
.Ltmp1164:
.LBB81_5:
	li	a1, 0
	li	a0, 1
	j	.LBB81_28
.Ltmp1165:
.LBB81_6:
	li	a1, 0
.Ltmp1166:
	.loc	23 650 16 is_stmt 1
	addi	a6, s2, 4
	lui	a2, 526344
	addi	a7, a2, 128
	li	t0, 26
	j	.LBB81_8
.Ltmp1167:
.LBB81_7:
	.loc	23 638 15
	addi	a3, a1, 8
	addi	a4, a1, 16
.Ltmp1168:
	.loc	41 489 9
	sb	a2, 7(s0)
.Ltmp1169:
	.loc	41 0 9 is_stmt 0
	mv	a1, a3
.Ltmp1170:
	.loc	23 638 15 is_stmt 1
	bltu	s4, a4, .LBB81_27
.Ltmp1171:
.LBB81_8:
	.loc	24 1269 18
	add	a3, a6, a1
	lbu	a2, -3(a3)
	lbu	a5, -4(a3)
	lbu	s1, -1(a3)
	lbu	s0, -2(a3)
	slli	a2, a2, 8
	or	a2, a2, a5
	slli	a5, s1, 8
	or	a5, a5, s0
	slli	a5, a5, 16
	or	a2, a2, a5
.Ltmp1172:
	lbu	a5, 1(a3)
	lbu	s1, 0(a3)
	lbu	s0, 3(a3)
	lbu	a3, 2(a3)
	slli	a5, a5, 8
	or	a5, a5, s1
	slli	s1, s0, 8
	or	a3, a3, s1
	slli	a3, a3, 16
	or	a5, a5, a3
.Ltmp1173:
	.loc	23 647 17
	or	a3, a5, a2
.Ltmp1174:
	.loc	23 650 16
	and	a3, a3, a7
.Ltmp1175:
	bnez	a3, .LBB81_28
.Ltmp1176:
	.loc	42 554 25
	addi	a3, a2, -97
	andi	a3, a3, 255
.Ltmp1177:
	.loc	42 350 9
	bltu	a3, t0, .LBB81_11
.Ltmp1178:
	.loc	42 0 9 is_stmt 0
	mv	s1, a2
	j	.LBB81_12
.Ltmp1179:
.LBB81_11:
	xori	s1, a2, 32
.Ltmp1180:
.LBB81_12:
	srli	a3, a2, 8
.Ltmp1181:
	add	s0, a0, a1
.Ltmp1182:
	.loc	42 554 25 is_stmt 1
	addi	a4, a3, -97
	andi	a4, a4, 255
.Ltmp1183:
	.loc	41 489 9
	sb	s1, 0(s0)
.Ltmp1184:
	.loc	42 350 9
	bgeu	a4, t0, .LBB81_14
.Ltmp1185:
	.loc	42 0 9 is_stmt 0
	xori	a3, a3, 32
.Ltmp1186:
.LBB81_14:
	srli	s1, a2, 16
.Ltmp1187:
	.loc	42 554 25 is_stmt 1
	addi	a4, s1, -97
	andi	a4, a4, 255
.Ltmp1188:
	.loc	41 489 9
	sb	a3, 1(s0)
.Ltmp1189:
	.loc	42 350 9
	bgeu	a4, t0, .LBB81_16
.Ltmp1190:
	.loc	42 0 9 is_stmt 0
	xori	s1, s1, 32
.Ltmp1191:
.LBB81_16:
	srli	a2, a2, 24
.Ltmp1192:
	.loc	42 554 25 is_stmt 1
	addi	a3, a2, -97
	andi	a3, a3, 255
.Ltmp1193:
	.loc	41 489 9
	sb	s1, 2(s0)
.Ltmp1194:
	.loc	42 350 9
	bgeu	a3, t0, .LBB81_18
.Ltmp1195:
	.loc	42 0 9 is_stmt 0
	xori	a2, a2, 32
.Ltmp1196:
.LBB81_18:
	.loc	42 554 25 is_stmt 1
	addi	a3, a5, -97
	andi	a3, a3, 255
.Ltmp1197:
	.loc	41 489 9
	sb	a2, 3(s0)
.Ltmp1198:
	.loc	42 350 9
	bltu	a3, t0, .LBB81_20
.Ltmp1199:
	.loc	42 0 9 is_stmt 0
	mv	a3, a5
	j	.LBB81_21
.Ltmp1200:
.LBB81_20:
	xori	a3, a5, 32
.Ltmp1201:
.LBB81_21:
	srli	a2, a5, 8
.Ltmp1202:
	.loc	42 554 25 is_stmt 1
	addi	a4, a2, -97
	andi	a4, a4, 255
.Ltmp1203:
	.loc	41 489 9
	sb	a3, 4(s0)
.Ltmp1204:
	.loc	42 350 9
	bgeu	a4, t0, .LBB81_23
.Ltmp1205:
	.loc	42 0 9 is_stmt 0
	xori	a2, a2, 32
.Ltmp1206:
.LBB81_23:
	srli	a3, a5, 16
.Ltmp1207:
	.loc	42 554 25 is_stmt 1
	addi	a4, a3, -97
	andi	a4, a4, 255
.Ltmp1208:
	.loc	41 489 9
	sb	a2, 5(s0)
.Ltmp1209:
	.loc	42 350 9
	bgeu	a4, t0, .LBB81_25
.Ltmp1210:
	.loc	42 0 9 is_stmt 0
	xori	a3, a3, 32
.Ltmp1211:
.LBB81_25:
	srli	a2, a5, 24
.Ltmp1212:
	.loc	42 554 25 is_stmt 1
	addi	a4, a2, -97
	andi	a4, a4, 255
.Ltmp1213:
	.loc	41 489 9
	sb	a3, 6(s0)
.Ltmp1214:
	.loc	42 350 9
	bgeu	a4, t0, .LBB81_7
.Ltmp1215:
	.loc	42 0 9 is_stmt 0
	xori	a2, a2, 32
	j	.LBB81_7
.Ltmp1216:
.LBB81_27:
	mv	a1, a3
.Ltmp1217:
.LBB81_28:
	.loc	13 846 9 is_stmt 1
	sw	s4, 0(s3)
	sw	a0, 4(s3)
	sw	a1, 8(s3)
.Ltmp1218:
	.loc	4 146 24
	bne	a1, s4, .LBB81_30
.Ltmp1219:
.LBB81_29:
	.loc	23 484 6
	lw	ra, 44(sp)
	lw	s0, 40(sp)
	lw	s1, 36(sp)
	lw	s2, 32(sp)
	lw	s3, 28(sp)
	lw	s4, 24(sp)
	lw	s5, 20(sp)
	lw	s6, 16(sp)
	lw	s7, 12(sp)
	addi	sp, sp, 48
	ret
.LBB81_30:
.Ltmp1220:
	.loc	23 0 0 is_stmt 0
	add	s4, s4, s2
.Ltmp1221:
	.loc	24 485 18 is_stmt 1
	add	s2, s2, a1
.Ltmp1222:
	.loc	24 0 18 is_stmt 0
	li	s5, 223
	li	s6, 240
	lui	s7, 272
	j	.LBB81_34
.Ltmp1223:
.LBB81_31:
	.loc	23 471 18 is_stmt 1
	lw	s1, 0(sp)
.Ltmp1224:
.LBB81_32:
	.loc	23 0 0 is_stmt 0
	mv	a0, s3
	mv	a1, s1
	call	_ZN5alloc6string6String4push17h6de370a8d6220186E
.Ltmp1225:
.LBB81_33:
	.loc	4 146 24 is_stmt 1
	beq	s2, s4, .LBB81_29
.Ltmp1226:
.LBB81_34:
	.loc	43 38 13
	lb	a0, 0(s2)
	andi	a1, a0, 255
.Ltmp1227:
	.loc	43 39 8
	bltz	a0, .LBB81_36
.Ltmp1228:
	.loc	43 0 8 is_stmt 0
	addi	s2, s2, 1
.Ltmp1229:
	.loc	23 470 19 is_stmt 1
	mv	a0, sp
	call	_ZN4core7unicode12unicode_data11conversions8to_upper17hff912206ed15d78eE
	.loc	23 470 13 is_stmt 0
	lw	s0, 4(sp)
	bnez	s0, .LBB81_42
	j	.LBB81_31
.Ltmp1230:
.LBB81_36:
	.loc	43 49 22 is_stmt 1
	lbu	a2, 1(s2)
.Ltmp1231:
	.loc	43 12 5
	andi	a0, a1, 31
.Ltmp1232:
	.loc	43 18 17
	andi	a2, a2, 63
.Ltmp1233:
	.loc	43 51 8
	bgeu	s5, a1, .LBB81_40
.Ltmp1234:
	.loc	43 56 26
	lbu	a3, 2(s2)
.Ltmp1235:
	.loc	43 18 5
	slli	a2, a2, 6
.Ltmp1236:
	.loc	43 18 17 is_stmt 0
	andi	a3, a3, 63
	.loc	43 18 5
	or	a2, a2, a3
.Ltmp1237:
	.loc	43 59 12 is_stmt 1
	bltu	a1, s6, .LBB81_41
.Ltmp1238:
	.loc	43 64 30
	lbu	a1, 3(s2)
.Ltmp1239:
	.loc	43 65 18
	slli	a0, a0, 29
.Ltmp1240:
	srli	a0, a0, 11
.Ltmp1241:
	.loc	43 18 5
	slli	a2, a2, 6
.Ltmp1242:
	.loc	43 18 17 is_stmt 0
	andi	a1, a1, 63
	.loc	43 18 5
	or	a1, a1, a2
.Ltmp1243:
	.loc	43 65 13 is_stmt 1
	or	a1, a1, a0
.Ltmp1244:
	.loc	23 469 18
	beq	a1, s7, .LBB81_29
.Ltmp1245:
	.loc	23 0 18 is_stmt 0
	addi	s2, s2, 4
.Ltmp1246:
	.loc	23 470 19 is_stmt 1
	mv	a0, sp
	call	_ZN4core7unicode12unicode_data11conversions8to_upper17hff912206ed15d78eE
.Ltmp1247:
	.loc	23 470 13 is_stmt 0
	lw	s0, 4(sp)
	bnez	s0, .LBB81_42
	j	.LBB81_31
.Ltmp1248:
.LBB81_40:
	.loc	23 0 13
	addi	s2, s2, 2
.Ltmp1249:
	slli	a0, a0, 6
	or	a1, a0, a2
	.loc	23 470 19
	mv	a0, sp
	call	_ZN4core7unicode12unicode_data11conversions8to_upper17hff912206ed15d78eE
	.loc	23 470 13
	lw	s0, 4(sp)
	bnez	s0, .LBB81_42
	j	.LBB81_31
.Ltmp1250:
.LBB81_41:
	.loc	23 0 13
	addi	s2, s2, 3
.Ltmp1251:
	slli	a0, a0, 12
	or	a1, a2, a0
	.loc	23 470 19
	mv	a0, sp
	call	_ZN4core7unicode12unicode_data11conversions8to_upper17hff912206ed15d78eE
	.loc	23 470 13
	lw	s0, 4(sp)
	beqz	s0, .LBB81_31
.Ltmp1252:
.LBB81_42:
	lw	s1, 8(sp)
	.loc	23 0 0
	lw	a1, 0(sp)
	mv	a0, s3
	call	_ZN5alloc6string6String4push17h6de370a8d6220186E
	mv	a0, s3
	mv	a1, s0
	call	_ZN5alloc6string6String4push17h6de370a8d6220186E
	.loc	23 470 13
	bnez	s1, .LBB81_32
	j	.LBB81_33
.Ltmp1253:
.LBB81_43:
	.loc	10 178 27 is_stmt 1
	call	_ZN5alloc7raw_vec17capacity_overflow17h2c1c04a797021fabE
	unimp	
.Ltmp1254:
.LBB81_44:
	.loc	10 190 27
	li	a1, 1
	mv	a0, s4
.Ltmp1255:
	call	_ZN5alloc5alloc18handle_alloc_error17hd9333cd203b4ffb7E
	unimp	
.Ltmp1256:
.Lfunc_end81:
	.size	_ZN5alloc3str21_$LT$impl$u20$str$GT$12to_uppercase17h9d3abeae09b0ed66E, .Lfunc_end81-_ZN5alloc3str21_$LT$impl$u20$str$GT$12to_uppercase17h9d3abeae09b0ed66E
	.cfi_endproc

	.section	".text._ZN5alloc3str21_$LT$impl$u20$str$GT$6repeat17hb0f65f4a7812b387E","ax",@progbits
	.globl	_ZN5alloc3str21_$LT$impl$u20$str$GT$6repeat17hb0f65f4a7812b387E
	.p2align	1
	.type	_ZN5alloc3str21_$LT$impl$u20$str$GT$6repeat17hb0f65f4a7812b387E,@function
_ZN5alloc3str21_$LT$impl$u20$str$GT$6repeat17hb0f65f4a7812b387E:
.Lfunc_begin82:
	.loc	23 531 0
	.cfi_startproc
	addi	sp, sp, -48
	.cfi_def_cfa_offset 48
	sw	ra, 44(sp)
	sw	s0, 40(sp)
	sw	s1, 36(sp)
	sw	s2, 32(sp)
	sw	s3, 28(sp)
	sw	s4, 24(sp)
	sw	s5, 20(sp)
	sw	s6, 16(sp)
	sw	s7, 12(sp)
	.cfi_offset ra, -4
	.cfi_offset s0, -8
	.cfi_offset s1, -12
	.cfi_offset s2, -16
	.cfi_offset s3, -20
	.cfi_offset s4, -24
	.cfi_offset s5, -28
	.cfi_offset s6, -32
	.cfi_offset s7, -36
	mv	s2, a0
.Ltmp1257:
	.loc	22 488 12 prologue_end
	beqz	a3, .LBB82_6
.Ltmp1258:
	.loc	22 0 12 is_stmt 0
	mv	s7, a3
.Ltmp1259:
	mv	s4, a2
.Ltmp1260:
	.loc	14 1677 26 is_stmt 1
	mulhu	a0, a2, a3
.Ltmp1261:
	.loc	29 783 9
	bnez	a0, .LBB82_17
.Ltmp1262:
	.loc	29 0 9 is_stmt 0
	mv	s5, a1
.Ltmp1263:
	mul	s3, s4, s7
.Ltmp1264:
	.loc	10 171 12 is_stmt 1
	beqz	s3, .LBB82_7
.Ltmp1265:
	.loc	10 176 26
	bltz	s3, .LBB82_18
.Ltmp1266:
	.loc	11 95 14
	li	a1, 1
	mv	a0, s3
	call	__rust_alloc
	mv	s6, a0
.Ltmp1267:
	.loc	10 188 23
	bnez	a0, .LBB82_8
.Ltmp1268:
	.loc	10 190 27
	li	a1, 1
	mv	a0, s3
	call	_ZN5alloc5alloc18handle_alloc_error17hd9333cd203b4ffb7E
	unimp	
.Ltmp1269:
.LBB82_6:
	.loc	10 0 27 is_stmt 0
	li	s3, 0
	li	a0, 0
	li	s6, 1
	j	.LBB82_15
.Ltmp1270:
.LBB82_7:
	li	s6, 1
.Ltmp1271:
.LBB82_8:
	li	s1, 0
	.loc	7 673 9 is_stmt 1
	sw	s3, 0(sp)
	sw	s6, 4(sp)
	sw	zero, 8(sp)
.Ltmp1272:
	.loc	10 288 12
	bltu	s3, s4, .LBB82_16
.Ltmp1273:
.LBB82_9:
	.loc	5 499 18
	add	a0, s6, s1
.Ltmp1274:
	.loc	15 2372 9
	mv	a1, s5
	mv	a2, s4
	call	memcpy@plt
.Ltmp1275:
	.loc	15 0 9 is_stmt 0
	li	a0, 2
.Ltmp1276:
	.loc	7 1950 9 is_stmt 1
	add	s1, s1, s4
.Ltmp1277:
	.loc	22 506 19
	bltu	s7, a0, .LBB82_12
.Ltmp1278:
	.loc	22 0 19 is_stmt 0
	li	s4, 4
.Ltmp1279:
.LBB82_11:
	mv	s0, s7
	srli	s7, s7, 1
.Ltmp1280:
	.loc	5 499 18 is_stmt 1
	add	a0, s6, s1
.Ltmp1281:
	.loc	15 2372 9
	mv	a1, s6
	mv	a2, s1
	call	memcpy@plt
.Ltmp1282:
	.loc	22 516 33
	slli	s1, s1, 1
.Ltmp1283:
	.loc	22 506 19
	bgeu	s0, s4, .LBB82_11
.Ltmp1284:
.LBB82_12:
	.loc	22 526 12
	beq	s3, s1, .LBB82_14
.Ltmp1285:
	.loc	22 525 23
	sub	a2, s3, s1
.Ltmp1286:
	.loc	5 499 18
	add	a0, s6, s1
.Ltmp1287:
	.loc	15 2372 9
	mv	a1, s6
	call	memcpy@plt
.Ltmp1288:
.LBB82_14:
	.loc	22 539 9
	lw	a0, 0(sp)
.Ltmp1289:
.LBB82_15:
	.loc	13 846 9
	sw	a0, 0(s2)
	sw	s6, 4(s2)
	sw	s3, 8(s2)
.Ltmp1290:
	.loc	23 533 6
	lw	ra, 44(sp)
	lw	s0, 40(sp)
	lw	s1, 36(sp)
	lw	s2, 32(sp)
	lw	s3, 28(sp)
.Ltmp1291:
	lw	s4, 24(sp)
	lw	s5, 20(sp)
	lw	s6, 16(sp)
.Ltmp1292:
	lw	s7, 12(sp)
	addi	sp, sp, 48
	ret
.Ltmp1293:
.LBB82_16:
	.loc	10 289 13
	mv	a0, sp
	li	a1, 0
	mv	a2, s4
	call	_ZN5alloc7raw_vec19RawVec$LT$T$C$A$GT$7reserve21do_reserve_and_handle17hc60fe6a21a566324E
.Ltmp1294:
	.loc	7 2057 9
	lw	s1, 8(sp)
.Ltmp1295:
	.loc	10 224 9
	lw	s6, 4(sp)
	j	.LBB82_9
.Ltmp1296:
.LBB82_17:
	.loc	29 785 21
	lui	a0, %hi(.L__unnamed_46)
	addi	a0, a0, %lo(.L__unnamed_46)
	lui	a1, %hi(.L__unnamed_47)
.Ltmp1297:
	addi	a2, a1, %lo(.L__unnamed_47)
	li	a1, 17
	call	_ZN4core6option13expect_failed17hb252db09785c6ee6E
	unimp	
.Ltmp1298:
.LBB82_18:
	.loc	10 178 27
	call	_ZN5alloc7raw_vec17capacity_overflow17h2c1c04a797021fabE
	unimp	
.Ltmp1299:
.Lfunc_end82:
	.size	_ZN5alloc3str21_$LT$impl$u20$str$GT$6repeat17hb0f65f4a7812b387E, .Lfunc_end82-_ZN5alloc3str21_$LT$impl$u20$str$GT$6repeat17hb0f65f4a7812b387E
	.cfi_endproc

	.section	.text._ZN5alloc6string6String15from_utf8_lossy17h2ab085cbf059c53bE,"ax",@progbits
	.globl	_ZN5alloc6string6String15from_utf8_lossy17h2ab085cbf059c53bE
	.p2align	1
	.type	_ZN5alloc6string6String15from_utf8_lossy17h2ab085cbf059c53bE,@function
_ZN5alloc6string6String15from_utf8_lossy17h2ab085cbf059c53bE:
.Lfunc_begin83:
	.loc	13 631 0
	.cfi_startproc
	addi	sp, sp, -112
	.cfi_def_cfa_offset 112
	sw	ra, 108(sp)
	sw	s0, 104(sp)
	sw	s1, 100(sp)
	sw	s2, 96(sp)
	sw	s3, 92(sp)
	sw	s4, 88(sp)
	sw	s5, 84(sp)
	sw	s6, 80(sp)
	sw	s7, 76(sp)
	sw	s8, 72(sp)
	.cfi_offset ra, -4
	.cfi_offset s0, -8
	.cfi_offset s1, -12
	.cfi_offset s2, -16
	.cfi_offset s3, -20
	.cfi_offset s4, -24
	.cfi_offset s5, -28
	.cfi_offset s6, -32
	.cfi_offset s7, -36
	.cfi_offset s8, -40
	mv	s1, a2
.Ltmp1300:
	mv	s2, a0
.Ltmp1301:
	.loc	13 632 24 prologue_end
	mv	a0, a1
.Ltmp1302:
	mv	a1, a2
	call	_ZN4core3str5lossy10Utf8Chunks3new17h217caeb7755f08d1E
.Ltmp1303:
	sw	a0, 8(sp)
	sw	a1, 12(sp)
.Ltmp1304:
	.loc	13 634 48
	addi	a0, sp, 40
	addi	a1, sp, 8
	call	_ZN87_$LT$core..str..lossy..Utf8Chunks$u20$as$u20$core..iter..traits..iterator..Iterator$GT$4next17hdd67c257b975977eE
	.loc	13 634 34 is_stmt 0
	lw	a0, 40(sp)
	beqz	a0, .LBB83_6
.Ltmp1305:
	.loc	13 634 39
	lw	a0, 52(sp)
	lw	a1, 48(sp)
	lw	a2, 44(sp)
	lw	a3, 40(sp)
	sw	a0, 68(sp)
	sw	a1, 64(sp)
	sw	a2, 60(sp)
	sw	a3, 56(sp)
	.loc	13 635 25 is_stmt 1
	addi	a0, sp, 56
	call	_ZN4core3str5lossy9Utf8Chunk5valid17hbe1cac9bf20b186fE
	mv	s3, a0
.Ltmp1306:
	mv	s4, a1
.Ltmp1307:
	.loc	13 636 16
	addi	a0, sp, 56
	call	_ZN4core3str5lossy9Utf8Chunk7invalid17h03edaea8d242caffE
	beqz	a1, .LBB83_7
.Ltmp1308:
	.loc	10 171 12
	beqz	s1, .LBB83_9
.Ltmp1309:
	.loc	10 176 26
	bltz	s1, .LBB83_25
.Ltmp1310:
	.loc	11 95 14
	li	a1, 1
	mv	a0, s1
	call	__rust_alloc
.Ltmp1311:
	.loc	10 188 23
	bnez	a0, .LBB83_10
.Ltmp1312:
	.loc	10 190 27
	li	a1, 1
	mv	a0, s1
.Ltmp1313:
	call	_ZN5alloc5alloc18handle_alloc_error17hd9333cd203b4ffb7E
	unimp	
.Ltmp1314:
.LBB83_6:
	.loc	13 642 20
	lui	a0, %hi(.L__unnamed_24)
	addi	a0, a0, %lo(.L__unnamed_24)
	sw	a0, 4(s2)
	sw	zero, 8(s2)
	j	.LBB83_8
.Ltmp1315:
.LBB83_7:
	.loc	13 638 24
	sw	s3, 4(s2)
	sw	s4, 8(s2)
.Ltmp1316:
.LBB83_8:
	.loc	13 0 0 is_stmt 0
	sw	zero, 0(s2)
	j	.LBB83_22
.Ltmp1317:
.LBB83_9:
	li	a0, 1
.Ltmp1318:
.LBB83_10:
	li	s0, 0
.Ltmp1319:
	.loc	13 501 9 is_stmt 1
	sw	s1, 16(sp)
	sw	a0, 20(sp)
	sw	zero, 24(sp)
.Ltmp1320:
	.loc	10 288 12
	bltu	s1, s4, .LBB83_23
.Ltmp1321:
.LBB83_11:
	.loc	5 499 18
	add	a0, a0, s0
.Ltmp1322:
	.loc	15 2372 9
	mv	a1, s3
	mv	a2, s4
	call	memcpy@plt
.Ltmp1323:
	.loc	7 1950 9
	add	a1, s0, s4
	sw	a1, 24(sp)
.Ltmp1324:
	.loc	10 288 12
	lw	a0, 16(sp)
.Ltmp1325:
	.loc	14 1203 13
	sub	a0, a0, a1
.Ltmp1326:
	.loc	14 0 13 is_stmt 0
	li	a2, 2
.Ltmp1327:
	.loc	10 288 12 is_stmt 1
	bgeu	a2, a0, .LBB83_24
.Ltmp1328:
.LBB83_12:
	.loc	10 224 9
	lw	s7, 20(sp)
.Ltmp1329:
	.loc	5 499 18
	add	a0, s7, a1
	li	s4, 189
.Ltmp1330:
	.loc	15 2372 9
	sb	s4, 2(a0)
	li	s5, 191
	sb	s5, 1(a0)
	li	s6, 239
	sb	s6, 0(a0)
.Ltmp1331:
	.loc	13 651 22
	lw	a0, 8(sp)
.Ltmp1332:
	lw	a2, 12(sp)
.Ltmp1333:
	.loc	7 1950 9
	addi	s1, a1, 3
.Ltmp1334:
	sw	s1, 24(sp)
.Ltmp1335:
	.loc	13 651 22
	sw	a0, 32(sp)
	sw	a2, 36(sp)
.Ltmp1336:
	.loc	13 651 22 is_stmt 0
	addi	a0, sp, 40
	addi	a1, sp, 32
.Ltmp1337:
	call	_ZN87_$LT$core..str..lossy..Utf8Chunks$u20$as$u20$core..iter..traits..iterator..Iterator$GT$4next17hdd67c257b975977eE
	lw	a0, 40(sp)
	beqz	a0, .LBB83_21
.Ltmp1338:
	.loc	13 0 22
	li	s8, 2
	j	.LBB83_16
.Ltmp1339:
.LBB83_14:
	.loc	10 224 9 is_stmt 1
	lw	s7, 20(sp)
.Ltmp1340:
	.loc	5 499 18
	add	a0, s7, s1
.Ltmp1341:
	.loc	15 2372 9
	sb	s4, 2(a0)
	sb	s5, 1(a0)
	sb	s6, 0(a0)
.Ltmp1342:
	.loc	7 1950 9
	addi	s1, s1, 3
.Ltmp1343:
	sw	s1, 24(sp)
.Ltmp1344:
.LBB83_15:
	.loc	13 651 22
	addi	a0, sp, 40
	addi	a1, sp, 32
	call	_ZN87_$LT$core..str..lossy..Utf8Chunks$u20$as$u20$core..iter..traits..iterator..Iterator$GT$4next17hdd67c257b975977eE
	lw	a0, 40(sp)
	beqz	a0, .LBB83_21
.LBB83_16:
	.loc	13 651 13 is_stmt 0
	lw	a0, 52(sp)
	lw	a1, 48(sp)
	lw	a2, 44(sp)
	lw	a3, 40(sp)
	sw	a0, 68(sp)
	sw	a1, 64(sp)
	sw	a2, 60(sp)
	sw	a3, 56(sp)
.Ltmp1345:
	.loc	13 652 26 is_stmt 1
	addi	a0, sp, 56
	call	_ZN4core3str5lossy9Utf8Chunk5valid17hbe1cac9bf20b186fE
.Ltmp1346:
	.loc	10 288 12
	lw	a2, 16(sp)
.Ltmp1347:
	.loc	14 1203 13
	sub	a2, a2, s1
.Ltmp1348:
	.loc	13 652 26
	mv	s3, a0
	mv	s0, a1
.Ltmp1349:
	.loc	10 288 12
	bltu	a2, a1, .LBB83_20
.Ltmp1350:
.LBB83_17:
	.loc	5 499 18
	add	a0, s7, s1
.Ltmp1351:
	.loc	15 2372 9
	mv	a1, s3
	mv	a2, s0
	call	memcpy@plt
.Ltmp1352:
	.loc	7 1950 9
	add	s1, s1, s0
.Ltmp1353:
	sw	s1, 24(sp)
.Ltmp1354:
	.loc	13 653 17
	addi	a0, sp, 56
	call	_ZN4core3str5lossy9Utf8Chunk7invalid17h03edaea8d242caffE
.Ltmp1355:
	.loc	13 653 16 is_stmt 0
	beqz	a1, .LBB83_15
.Ltmp1356:
	.loc	10 288 12 is_stmt 1
	lw	a0, 16(sp)
.Ltmp1357:
	.loc	14 1203 13
	sub	a0, a0, s1
.Ltmp1358:
	.loc	10 288 12
	bltu	s8, a0, .LBB83_14
.Ltmp1359:
	.loc	10 289 13
	addi	a0, sp, 16
	li	a2, 3
	mv	a1, s1
	call	_ZN5alloc7raw_vec19RawVec$LT$T$C$A$GT$7reserve21do_reserve_and_handle17hc60fe6a21a566324E
.Ltmp1360:
	.loc	7 2057 9
	lw	s1, 24(sp)
.Ltmp1361:
	.loc	7 0 9 is_stmt 0
	j	.LBB83_14
.Ltmp1362:
.LBB83_20:
	.loc	10 289 13 is_stmt 1
	addi	a0, sp, 16
	mv	a1, s1
	mv	a2, s0
	call	_ZN5alloc7raw_vec19RawVec$LT$T$C$A$GT$7reserve21do_reserve_and_handle17hc60fe6a21a566324E
.Ltmp1363:
	.loc	7 2057 9
	lw	s1, 24(sp)
.Ltmp1364:
	.loc	10 224 9
	lw	s7, 20(sp)
	j	.LBB83_17
.Ltmp1365:
.LBB83_21:
	.loc	13 658 9
	lw	a0, 24(sp)
	lw	a1, 20(sp)
	lw	a2, 16(sp)
	sw	a0, 12(s2)
	sw	a1, 8(s2)
	sw	a2, 4(s2)
	li	a0, 1
	sw	a0, 0(s2)
.Ltmp1366:
.LBB83_22:
	.loc	13 659 6
	lw	ra, 108(sp)
	lw	s0, 104(sp)
	lw	s1, 100(sp)
	lw	s2, 96(sp)
	lw	s3, 92(sp)
	lw	s4, 88(sp)
	lw	s5, 84(sp)
	lw	s6, 80(sp)
	lw	s7, 76(sp)
	lw	s8, 72(sp)
	addi	sp, sp, 112
	ret
.LBB83_23:
.Ltmp1367:
	.loc	10 289 13
	addi	a0, sp, 16
	li	a1, 0
	mv	a2, s4
	call	_ZN5alloc7raw_vec19RawVec$LT$T$C$A$GT$7reserve21do_reserve_and_handle17hc60fe6a21a566324E
.Ltmp1368:
	.loc	7 2057 9
	lw	s0, 24(sp)
.Ltmp1369:
	.loc	10 224 9
	lw	a0, 20(sp)
	j	.LBB83_11
.Ltmp1370:
.LBB83_24:
	.loc	10 289 13
	addi	a0, sp, 16
	li	a2, 3
	call	_ZN5alloc7raw_vec19RawVec$LT$T$C$A$GT$7reserve21do_reserve_and_handle17hc60fe6a21a566324E
.Ltmp1371:
	.loc	7 2057 9
	lw	a1, 24(sp)
	j	.LBB83_12
.Ltmp1372:
.LBB83_25:
	.loc	10 178 27
	call	_ZN5alloc7raw_vec17capacity_overflow17h2c1c04a797021fabE
	unimp	
.Ltmp1373:
.Lfunc_end83:
	.size	_ZN5alloc6string6String15from_utf8_lossy17h2ab085cbf059c53bE, .Lfunc_end83-_ZN5alloc6string6String15from_utf8_lossy17h2ab085cbf059c53bE
	.cfi_endproc

	.section	.text._ZN5alloc6string6String10from_utf1617hfd0d8bfaea4b0710E,"ax",@progbits
	.globl	_ZN5alloc6string6String10from_utf1617hfd0d8bfaea4b0710E
	.p2align	1
	.type	_ZN5alloc6string6String10from_utf1617hfd0d8bfaea4b0710E,@function
_ZN5alloc6string6String10from_utf1617hfd0d8bfaea4b0710E:
.Lfunc_begin84:
	.loc	13 682 0
	.cfi_startproc
	addi	sp, sp, -48
	.cfi_def_cfa_offset 48
	sw	ra, 44(sp)
	sw	s0, 40(sp)
	sw	s1, 36(sp)
	sw	s2, 32(sp)
	sw	s3, 28(sp)
	sw	s4, 24(sp)
	sw	s5, 20(sp)
	sw	s6, 16(sp)
	sw	s7, 12(sp)
	.cfi_offset ra, -4
	.cfi_offset s0, -8
	.cfi_offset s1, -12
	.cfi_offset s2, -16
	.cfi_offset s3, -20
	.cfi_offset s4, -24
	.cfi_offset s5, -28
	.cfi_offset s6, -32
	.cfi_offset s7, -36
	mv	s1, a2
.Ltmp1374:
	mv	s2, a0
.Ltmp1375:
	.loc	10 171 12 prologue_end
	beqz	a2, .LBB84_9
.Ltmp1376:
	.loc	10 176 26
	bltz	s1, .LBB84_14
.Ltmp1377:
	.loc	10 0 26 is_stmt 0
	mv	s0, a1
.Ltmp1378:
	.loc	11 95 14 is_stmt 1
	li	a1, 1
	mv	a0, s1
	call	__rust_alloc
.Ltmp1379:
	.loc	10 188 23
	beqz	a0, .LBB84_15
.Ltmp1380:
	.loc	13 501 9
	sw	s1, 0(sp)
	sw	a0, 4(sp)
	sw	zero, 8(sp)
.Ltmp1381:
	.loc	24 485 18
	slli	a0, s1, 1
	add	s7, s0, a0
	li	s3, 27
	lui	s4, 2
	li	s5, 63
	lui	s6, 16
	j	.LBB84_5
.Ltmp1382:
.LBB84_4:
	.loc	13 688 17
	mv	a0, sp
	call	_ZN5alloc6string6String4push17h6de370a8d6220186E
.Ltmp1383:
	.loc	13 0 17 is_stmt 0
	mv	s0, s1
.Ltmp1384:
	.loc	4 146 24 is_stmt 1
	beq	s1, s7, .LBB84_10
.Ltmp1385:
.LBB84_5:
	.loc	29 1829 29
	lhu	a1, 0(s0)
.Ltmp1386:
	.loc	42 916 24
	srli	a0, a1, 11
.Ltmp1387:
	.loc	5 499 18
	addi	s1, s0, 2
.Ltmp1388:
	.file	49 "/Users/georg/.rustup/toolchains/nightly-2023-01-03-aarch64-apple-darwin/lib/rustlib/src/rust/library/core/src/char" "decode.rs"
	.loc	49 50 12
	bne	a0, s3, .LBB84_4
.Ltmp1389:
	.loc	49 53 19
	srli	a0, a1, 10
	sltiu	a0, a0, 55
	xori	a0, a0, 1
	xor	a2, s1, s7
	seqz	a2, a2
	or	a0, a0, a2
	bnez	a0, .LBB84_11
.Ltmp1390:
	.loc	29 1829 29
	lhu	a0, 0(s1)
.Ltmp1391:
	.loc	49 62 16
	add	a2, a0, s4
	slli	a2, a2, 16
	srli	a2, a2, 26
	bltu	a2, s5, .LBB84_11
.Ltmp1392:
	.loc	5 499 18
	addi	s1, s0, 4
.Ltmp1393:
	.loc	49 70 22
	andi	a1, a1, 1023
.Ltmp1394:
	slli	a1, a1, 10
	.loc	49 70 51 is_stmt 0
	andi	a0, a0, 1023
.Ltmp1395:
	.loc	49 70 21
	or	a0, a0, a1
	add	a1, a0, s6
	j	.LBB84_4
.Ltmp1396:
.LBB84_9:
	.loc	13 501 9 is_stmt 1
	sw	s1, 0(sp)
	li	a0, 1
	sw	a0, 4(sp)
	sw	zero, 8(sp)
.Ltmp1397:
.LBB84_10:
	.loc	13 693 9
	lw	a0, 8(sp)
	lw	a1, 4(sp)
	lw	a2, 0(sp)
	sw	a0, 8(s2)
	sw	a1, 4(s2)
	sw	a2, 0(s2)
	j	.LBB84_13
.Ltmp1398:
.LBB84_11:
	.loc	13 694 5
	lw	a1, 0(sp)
.Ltmp1399:
	.loc	13 690 24
	sw	zero, 4(s2)
.Ltmp1400:
	.loc	10 241 12
	beqz	a1, .LBB84_13
.Ltmp1401:
	.loc	13 694 5
	lw	a0, 4(sp)
.Ltmp1402:
	.loc	11 113 14
	li	a2, 1
	call	__rust_dealloc
.Ltmp1403:
.LBB84_13:
	.loc	13 694 6
	lw	ra, 44(sp)
	lw	s0, 40(sp)
	lw	s1, 36(sp)
	lw	s2, 32(sp)
	lw	s3, 28(sp)
	lw	s4, 24(sp)
	lw	s5, 20(sp)
	lw	s6, 16(sp)
	lw	s7, 12(sp)
	addi	sp, sp, 48
	ret
.LBB84_14:
.Ltmp1404:
	.loc	10 178 27
	call	_ZN5alloc7raw_vec17capacity_overflow17h2c1c04a797021fabE
.Ltmp1405:
	unimp	
.Ltmp1406:
.LBB84_15:
	.loc	10 190 27
	li	a1, 1
	mv	a0, s1
.Ltmp1407:
	call	_ZN5alloc5alloc18handle_alloc_error17hd9333cd203b4ffb7E
	unimp	
.Ltmp1408:
.Lfunc_end84:
	.size	_ZN5alloc6string6String10from_utf1617hfd0d8bfaea4b0710E, .Lfunc_end84-_ZN5alloc6string6String10from_utf1617hfd0d8bfaea4b0710E
	.cfi_endproc
	.file	50 "/Users/georg/.rustup/toolchains/nightly-2023-01-03-aarch64-apple-darwin/lib/rustlib/src/rust/library/core/src/slice" "iter.rs"
	.file	51 "/Users/georg/.rustup/toolchains/nightly-2023-01-03-aarch64-apple-darwin/lib/rustlib/src/rust/library/core/src/iter/adapters" "cloned.rs"

	.section	.text._ZN5alloc6string6String14into_raw_parts17hfc094abbcd27dc8aE,"ax",@progbits
	.globl	_ZN5alloc6string6String14into_raw_parts17hfc094abbcd27dc8aE
	.p2align	1
	.type	_ZN5alloc6string6String14into_raw_parts17hfc094abbcd27dc8aE,@function
_ZN5alloc6string6String14into_raw_parts17hfc094abbcd27dc8aE:
.Lfunc_begin85:
	.loc	13 756 0
	.cfi_startproc
	.loc	13 757 9 prologue_end
	lw	a2, 4(a1)
	lw	a3, 8(a1)
.Ltmp1409:
	lw	a1, 0(a1)
.Ltmp1410:
	.loc	7 820 9
	sw	a2, 0(a0)
	sw	a3, 4(a0)
	sw	a1, 8(a0)
.Ltmp1411:
	.loc	13 758 6
	ret
.Ltmp1412:
.Lfunc_end85:
	.size	_ZN5alloc6string6String14into_raw_parts17hfc094abbcd27dc8aE, .Lfunc_end85-_ZN5alloc6string6String14into_raw_parts17hfc094abbcd27dc8aE
	.cfi_endproc

	.section	.text._ZN5alloc6string6String11try_reserve17h034b42c79cafe073E,"ax",@progbits
	.globl	_ZN5alloc6string6String11try_reserve17h034b42c79cafe073E
	.p2align	1
	.type	_ZN5alloc6string6String11try_reserve17h034b42c79cafe073E,@function
_ZN5alloc6string6String11try_reserve17h034b42c79cafe073E:
.Lfunc_begin86:
	.loc	13 1111 0
	.cfi_startproc
	addi	sp, sp, -48
	.cfi_def_cfa_offset 48
	sw	ra, 44(sp)
	sw	s0, 40(sp)
	sw	s1, 36(sp)
	.cfi_offset ra, -4
	.cfi_offset s0, -8
	.cfi_offset s1, -12
	mv	s0, a0
.Ltmp1413:
	.loc	7 974 30 prologue_end
	lw	a2, 8(a0)
.Ltmp1414:
	.loc	10 303 12
	lw	a3, 0(a0)
.Ltmp1415:
	.loc	14 1203 13
	sub	a0, a3, a2
.Ltmp1416:
	.loc	10 303 12
	bgeu	a0, a1, .LBB86_13
.Ltmp1417:
	.loc	14 1479 26
	add	a0, a2, a1
.Ltmp1418:
	.loc	10 390 28
	bgeu	a0, a2, .LBB86_3
.Ltmp1419:
	.loc	10 0 28 is_stmt 0
	li	a1, 0
.Ltmp1420:
	j	.LBB86_14
.Ltmp1421:
.LBB86_3:
	.loc	10 394 28 is_stmt 1
	slli	s1, a3, 1
.Ltmp1422:
	.loc	17 0 0 is_stmt 0
	bgeu	a0, s1, .LBB86_7
.Ltmp1423:
	li	a0, 8
.Ltmp1424:
	bgeu	a0, s1, .LBB86_8
.Ltmp1425:
.LBB86_5:
	.loc	18 452 16 is_stmt 1
	not	a0, s1
	srli	a2, a0, 31
.Ltmp1426:
	.loc	10 241 12
	beqz	a3, .LBB86_9
.Ltmp1427:
.LBB86_6:
	.loc	10 400 43
	lw	a0, 4(s0)
.Ltmp1428:
	.loc	10 248 17
	sw	a0, 24(sp)
	sw	a3, 28(sp)
	li	a0, 1
	sw	a0, 32(sp)
	j	.LBB86_10
.Ltmp1429:
.LBB86_7:
	.loc	10 0 17 is_stmt 0
	mv	s1, a0
.Ltmp1430:
	li	a0, 8
.Ltmp1431:
	bltu	a0, s1, .LBB86_5
.Ltmp1432:
.LBB86_8:
	li	s1, 8
.Ltmp1433:
	.loc	18 452 16 is_stmt 1
	not	a0, s1
	srli	a2, a0, 31
.Ltmp1434:
	.loc	10 241 12
	bnez	a3, .LBB86_6
.Ltmp1435:
.LBB86_9:
	.loc	10 242 13
	sw	zero, 32(sp)
.Ltmp1436:
.LBB86_10:
	.loc	10 400 19
	addi	a0, sp, 8
	addi	a3, sp, 24
	mv	a1, s1
.Ltmp1437:
	call	_ZN5alloc7raw_vec11finish_grow17h84df8231ddcc73c7E
.Ltmp1438:
	.loc	19 2091 15
	lw	a1, 8(sp)
	.loc	19 2091 9 is_stmt 0
	lw	a0, 12(sp)
.Ltmp1439:
	.loc	10 400 19 is_stmt 1
	beqz	a1, .LBB86_12
.Ltmp1440:
	.loc	10 0 19 is_stmt 0
	lw	a1, 16(sp)
	j	.LBB86_14
.Ltmp1441:
.LBB86_12:
	.loc	10 368 9 is_stmt 1
	sw	a0, 4(s0)
	.loc	10 369 9
	sw	s1, 0(s0)
.Ltmp1442:
.LBB86_13:
	.loc	10 0 9 is_stmt 0
	lui	a0, 524288
	addi	a1, a0, 1
.Ltmp1443:
.LBB86_14:
	.loc	13 1113 6 is_stmt 1
	lw	ra, 44(sp)
	lw	s0, 40(sp)
.Ltmp1444:
	lw	s1, 36(sp)
	addi	sp, sp, 48
	ret
.Ltmp1445:
.Lfunc_end86:
	.size	_ZN5alloc6string6String11try_reserve17h034b42c79cafe073E, .Lfunc_end86-_ZN5alloc6string6String11try_reserve17h034b42c79cafe073E
	.cfi_endproc

	.section	.text._ZN5alloc6string6String17try_reserve_exact17hcdaf67dbd7011207E,"ax",@progbits
	.globl	_ZN5alloc6string6String17try_reserve_exact17hcdaf67dbd7011207E
	.p2align	1
	.type	_ZN5alloc6string6String17try_reserve_exact17hcdaf67dbd7011207E,@function
_ZN5alloc6string6String17try_reserve_exact17hcdaf67dbd7011207E:
.Lfunc_begin87:
	.loc	13 1152 0
	.cfi_startproc
	addi	sp, sp, -48
	.cfi_def_cfa_offset 48
	sw	ra, 44(sp)
	sw	s0, 40(sp)
	sw	s1, 36(sp)
	.cfi_offset ra, -4
	.cfi_offset s0, -8
	.cfi_offset s1, -12
	mv	s1, a0
.Ltmp1446:
	.loc	7 1017 36 prologue_end
	lw	a2, 8(a0)
.Ltmp1447:
	.loc	10 338 12
	lw	a0, 0(a0)
.Ltmp1448:
	.loc	14 1203 13
	sub	a3, a0, a2
.Ltmp1449:
	.loc	10 338 12
	bgeu	a3, a1, .LBB87_9
.Ltmp1450:
	.loc	14 1479 26
	add	s0, a2, a1
.Ltmp1451:
	.loc	10 415 19
	bgeu	s0, a2, .LBB87_3
.Ltmp1452:
	.loc	10 0 19 is_stmt 0
	li	a1, 0
.Ltmp1453:
	j	.LBB87_10
.Ltmp1454:
.LBB87_3:
	.loc	18 452 16 is_stmt 1
	not	a1, s0
.Ltmp1455:
	srli	a2, a1, 31
.Ltmp1456:
	.loc	10 241 12
	beqz	a0, .LBB87_5
.Ltmp1457:
	.loc	10 419 43
	lw	a1, 4(s1)
.Ltmp1458:
	.loc	10 248 17
	sw	a1, 24(sp)
	sw	a0, 28(sp)
	li	a0, 1
.Ltmp1459:
	sw	a0, 32(sp)
	j	.LBB87_6
.Ltmp1460:
.LBB87_5:
	.loc	10 242 13
	sw	zero, 32(sp)
.Ltmp1461:
.LBB87_6:
	.loc	10 419 19
	addi	a0, sp, 8
	addi	a3, sp, 24
	mv	a1, s0
	call	_ZN5alloc7raw_vec11finish_grow17h84df8231ddcc73c7E
.Ltmp1462:
	.loc	19 2091 15
	lw	a1, 8(sp)
	.loc	19 2091 9 is_stmt 0
	lw	a0, 12(sp)
.Ltmp1463:
	.loc	10 419 19 is_stmt 1
	beqz	a1, .LBB87_8
.Ltmp1464:
	.loc	10 0 19 is_stmt 0
	lw	a1, 16(sp)
	mv	s0, a0
.Ltmp1465:
	j	.LBB87_10
.Ltmp1466:
.LBB87_8:
	.loc	10 368 9 is_stmt 1
	sw	a0, 4(s1)
	.loc	10 369 9
	sw	s0, 0(s1)
.Ltmp1467:
.LBB87_9:
	.loc	10 0 9 is_stmt 0
	lui	a0, 524288
	addi	a1, a0, 1
.Ltmp1468:
.LBB87_10:
	.loc	13 1154 6 is_stmt 1
	mv	a0, s0
	lw	ra, 44(sp)
	lw	s0, 40(sp)
	lw	s1, 36(sp)
.Ltmp1469:
	addi	sp, sp, 48
	ret
.Ltmp1470:
.Lfunc_end87:
	.size	_ZN5alloc6string6String17try_reserve_exact17hcdaf67dbd7011207E, .Lfunc_end87-_ZN5alloc6string6String17try_reserve_exact17hcdaf67dbd7011207E
	.cfi_endproc

	.section	.text._ZN5alloc6string6String4push17h6de370a8d6220186E,"ax",@progbits
	.p2align	1
	.type	_ZN5alloc6string6String4push17h6de370a8d6220186E,@function
_ZN5alloc6string6String4push17h6de370a8d6220186E:
.Lfunc_begin88:
	.loc	13 1223 0
	.cfi_startproc
	addi	sp, sp, -32
	.cfi_def_cfa_offset 32
	sw	ra, 28(sp)
	sw	s0, 24(sp)
	sw	s1, 20(sp)
	sw	s2, 16(sp)
	.cfi_offset ra, -4
	.cfi_offset s0, -8
	.cfi_offset s1, -12
	.cfi_offset s2, -16
	li	a2, 128
	mv	s1, a1
.Ltmp1471:
	mv	s0, a0
.Ltmp1472:
	.file	52 "/Users/georg/.rustup/toolchains/nightly-2023-01-03-aarch64-apple-darwin/lib/rustlib/src/rust/library/core/src/char" "methods.rs"
	.loc	52 1702 8 prologue_end
	bgeu	a1, a2, .LBB88_4
.Ltmp1473:
	.loc	7 1834 12
	lw	a1, 8(s0)
.Ltmp1474:
	.loc	10 232 44
	lw	a0, 0(s0)
.Ltmp1475:
	.loc	7 1834 12
	bne	a1, a0, .LBB88_3
.Ltmp1476:
	.loc	7 1835 13
	mv	a0, s0
	call	_ZN5alloc7raw_vec19RawVec$LT$T$C$A$GT$16reserve_for_push17h2bc031d3040ca85dE
	.loc	7 1838 45
	lw	a1, 8(s0)
.Ltmp1477:
.LBB88_3:
	.loc	10 224 9
	lw	a0, 4(s0)
.Ltmp1478:
	.loc	5 499 18
	add	a0, a0, a1
.Ltmp1479:
	.loc	9 1354 9
	sb	s1, 0(a0)
.Ltmp1480:
	.loc	7 1840 13
	addi	a0, a1, 1
.Ltmp1481:
	.loc	7 0 13 is_stmt 0
	j	.LBB88_11
.Ltmp1482:
.LBB88_4:
	.loc	52 1704 15 is_stmt 1
	srli	a0, s1, 11
.Ltmp1483:
	.loc	13 1226 65
	sw	zero, 12(sp)
.Ltmp1484:
	.loc	52 1704 15
	bnez	a0, .LBB88_6
.Ltmp1485:
	.loc	52 1736 19
	srli	a0, s1, 6
	.loc	52 1736 13 is_stmt 0
	ori	a0, a0, 192
	sb	a0, 12(sp)
	.loc	52 1737 18 is_stmt 1
	andi	a0, s1, 63
	.loc	52 1737 13 is_stmt 0
	ori	a0, a0, 128
	sb	a0, 13(sp)
	li	s2, 2
	j	.LBB88_9
.Ltmp1486:
.LBB88_6:
	.loc	52 1706 15 is_stmt 1
	srli	a0, s1, 16
	.loc	52 1706 12 is_stmt 0
	bnez	a0, .LBB88_8
.Ltmp1487:
	.loc	52 1740 19 is_stmt 1
	srli	a0, s1, 12
	.loc	52 1740 13 is_stmt 0
	ori	a0, a0, 224
	sb	a0, 12(sp)
	.loc	52 1741 18 is_stmt 1
	slli	a0, s1, 20
	srli	a0, a0, 26
	.loc	52 1741 13 is_stmt 0
	ori	a0, a0, 128
	sb	a0, 13(sp)
	.loc	52 1742 18 is_stmt 1
	andi	a0, s1, 63
	.loc	52 1742 13 is_stmt 0
	ori	a0, a0, 128
	sb	a0, 14(sp)
	li	s2, 3
	j	.LBB88_9
.Ltmp1488:
.LBB88_8:
	.loc	52 1745 18 is_stmt 1
	slli	a0, s1, 11
	srli	a0, a0, 29
	.loc	52 1745 13 is_stmt 0
	ori	a0, a0, 240
	sb	a0, 12(sp)
	.loc	52 1746 18 is_stmt 1
	slli	a0, s1, 14
	srli	a0, a0, 26
	.loc	52 1746 13 is_stmt 0
	ori	a0, a0, 128
	sb	a0, 13(sp)
	.loc	52 1747 18 is_stmt 1
	slli	a0, s1, 20
	srli	a0, a0, 26
	.loc	52 1747 13 is_stmt 0
	ori	a0, a0, 128
	sb	a0, 14(sp)
	.loc	52 1748 18 is_stmt 1
	andi	a0, s1, 63
	.loc	52 1748 13 is_stmt 0
	ori	a0, a0, 128
	sb	a0, 15(sp)
	li	s2, 4
.Ltmp1489:
.LBB88_9:
	.loc	7 907 26 is_stmt 1
	lw	s1, 8(s0)
.Ltmp1490:
	.loc	10 288 12
	lw	a0, 0(s0)
.Ltmp1491:
	.loc	14 1203 13
	sub	a0, a0, s1
.Ltmp1492:
	.loc	10 288 12
	bltu	a0, s2, .LBB88_12
.Ltmp1493:
.LBB88_10:
	.loc	10 224 9
	lw	a0, 4(s0)
.Ltmp1494:
	.loc	5 499 18
	add	a0, a0, s1
.Ltmp1495:
	.loc	15 2372 9
	addi	a1, sp, 12
	mv	a2, s2
	call	memcpy@plt
.Ltmp1496:
	.loc	7 1950 9
	add	a0, s1, s2
.Ltmp1497:
.LBB88_11:
	.loc	13 0 0 is_stmt 0
	sw	a0, 8(s0)
	.loc	13 1228 6 is_stmt 1
	lw	ra, 28(sp)
	lw	s0, 24(sp)
.Ltmp1498:
	lw	s1, 20(sp)
	lw	s2, 16(sp)
	addi	sp, sp, 32
	ret
.LBB88_12:
.Ltmp1499:
	.loc	10 289 13
	mv	a0, s0
	mv	a1, s1
	mv	a2, s2
	call	_ZN5alloc7raw_vec19RawVec$LT$T$C$A$GT$7reserve21do_reserve_and_handle17hc60fe6a21a566324E
.Ltmp1500:
	.loc	7 2057 9
	lw	s1, 8(s0)
.Ltmp1501:
	.loc	7 0 9 is_stmt 0
	j	.LBB88_10
.Ltmp1502:
.Lfunc_end88:
	.size	_ZN5alloc6string6String4push17h6de370a8d6220186E, .Lfunc_end88-_ZN5alloc6string6String4push17h6de370a8d6220186E
	.cfi_endproc

	.section	".text._ZN85_$LT$alloc..string..String..retain..SetLenOnDrop$u20$as$u20$core..ops..drop..Drop$GT$4drop17hd60fd8c601616c9eE","ax",@progbits
	.globl	_ZN85_$LT$alloc..string..String..retain..SetLenOnDrop$u20$as$u20$core..ops..drop..Drop$GT$4drop17hd60fd8c601616c9eE
	.p2align	1
	.type	_ZN85_$LT$alloc..string..String..retain..SetLenOnDrop$u20$as$u20$core..ops..drop..Drop$GT$4drop17hd60fd8c601616c9eE,@function
_ZN85_$LT$alloc..string..String..retain..SetLenOnDrop$u20$as$u20$core..ops..drop..Drop$GT$4drop17hd60fd8c601616c9eE:
.Lfunc_begin89:
	.loc	13 1463 0 is_stmt 1
	.cfi_startproc
	.loc	13 1464 31 prologue_end
	lw	a1, 0(a0)
	.loc	13 1464 42 is_stmt 0
	lw	a2, 4(a0)
.Ltmp1503:
	.loc	13 1466 26 is_stmt 1
	lw	a0, 8(a0)
.Ltmp1504:
	.loc	13 1464 31
	sub	a1, a1, a2
.Ltmp1505:
	.loc	7 1372 9
	sw	a1, 8(a0)
.Ltmp1506:
	.loc	13 1467 14
	ret
.Ltmp1507:
.Lfunc_end89:
	.size	_ZN85_$LT$alloc..string..String..retain..SetLenOnDrop$u20$as$u20$core..ops..drop..Drop$GT$4drop17hd60fd8c601616c9eE, .Lfunc_end89-_ZN85_$LT$alloc..string..String..retain..SetLenOnDrop$u20$as$u20$core..ops..drop..Drop$GT$4drop17hd60fd8c601616c9eE
	.cfi_endproc

	.section	.text._ZN5alloc6string6String12insert_bytes17ha4375e21398085dfE,"ax",@progbits
	.globl	_ZN5alloc6string6String12insert_bytes17ha4375e21398085dfE
	.p2align	1
	.type	_ZN5alloc6string6String12insert_bytes17ha4375e21398085dfE,@function
_ZN5alloc6string6String12insert_bytes17ha4375e21398085dfE:
.Lfunc_begin90:
	.loc	13 1542 0
	.cfi_startproc
	addi	sp, sp, -32
	.cfi_def_cfa_offset 32
.Ltmp1508:
	.loc	13 0 0 is_stmt 0
	sw	ra, 28(sp)
	sw	s0, 24(sp)
	sw	s1, 20(sp)
	sw	s2, 16(sp)
	sw	s3, 12(sp)
	sw	s4, 8(sp)
	sw	s5, 4(sp)
	.cfi_offset ra, -4
	.cfi_offset s0, -8
	.cfi_offset s1, -12
	.cfi_offset s2, -16
	.cfi_offset s3, -20
	.cfi_offset s4, -24
	.cfi_offset s5, -28
.Ltmp1509:
	mv	s4, a0
.Ltmp1510:
	.loc	7 2057 9 prologue_end is_stmt 1
	lw	s2, 8(a0)
.Ltmp1511:
	.loc	10 288 12
	lw	a0, 0(a0)
.Ltmp1512:
	.loc	14 1203 13
	sub	a0, a0, s2
.Ltmp1513:
	.loc	14 0 13 is_stmt 0
	mv	s1, a3
.Ltmp1514:
	mv	s3, a2
.Ltmp1515:
	mv	s0, a1
.Ltmp1516:
	.loc	10 288 12 is_stmt 1
	bltu	a0, a3, .LBB90_2
.Ltmp1517:
.LBB90_1:
	.loc	10 224 9
	lw	a0, 4(s4)
.Ltmp1518:
	.loc	24 485 18
	add	s5, a0, s0
.Ltmp1519:
	.loc	13 1548 77
	add	a1, s1, s0
.Ltmp1520:
	.loc	5 499 18
	add	a0, a0, a1
.Ltmp1521:
	.loc	13 1548 89
	sub	a2, s2, s0
.Ltmp1522:
	.loc	15 2458 9
	mv	a1, s5
.Ltmp1523:
	call	memmove@plt
.Ltmp1524:
	.loc	15 2372 9
	mv	a0, s5
	mv	a1, s3
	mv	a2, s1
	call	memcpy@plt
.Ltmp1525:
	.loc	13 1550 30
	add	a0, s2, s1
.Ltmp1526:
	.loc	7 1372 9
	sw	a0, 8(s4)
.Ltmp1527:
	.loc	13 1552 6
	lw	ra, 28(sp)
	lw	s0, 24(sp)
.Ltmp1528:
	lw	s1, 20(sp)
.Ltmp1529:
	lw	s2, 16(sp)
.Ltmp1530:
	lw	s3, 12(sp)
.Ltmp1531:
	lw	s4, 8(sp)
.Ltmp1532:
	lw	s5, 4(sp)
.Ltmp1533:
	addi	sp, sp, 32
	ret
.Ltmp1534:
.LBB90_2:
	.loc	10 289 13
	mv	a0, s4
	mv	a1, s2
	mv	a2, s1
	call	_ZN5alloc7raw_vec19RawVec$LT$T$C$A$GT$7reserve21do_reserve_and_handle17hc60fe6a21a566324E
	j	.LBB90_1
.Ltmp1535:
.Lfunc_end90:
	.size	_ZN5alloc6string6String12insert_bytes17ha4375e21398085dfE, .Lfunc_end90-_ZN5alloc6string6String12insert_bytes17ha4375e21398085dfE
	.cfi_endproc

	.section	.text._ZN5alloc6string13FromUtf8Error10utf8_error17h7a3382dcce553b61E,"ax",@progbits
	.globl	_ZN5alloc6string13FromUtf8Error10utf8_error17h7a3382dcce553b61E
	.p2align	1
	.type	_ZN5alloc6string13FromUtf8Error10utf8_error17h7a3382dcce553b61E,@function
_ZN5alloc6string13FromUtf8Error10utf8_error17h7a3382dcce553b61E:
.Lfunc_begin91:
	.loc	13 1953 0
	.cfi_startproc
	.loc	13 1954 9 prologue_end
	lw	a2, 4(a1)
	lw	a1, 0(a1)
.Ltmp1536:
	sw	a2, 4(a0)
	sw	a1, 0(a0)
	.loc	13 1955 6
	ret
.Ltmp1537:
.Lfunc_end91:
	.size	_ZN5alloc6string13FromUtf8Error10utf8_error17h7a3382dcce553b61E, .Lfunc_end91-_ZN5alloc6string13FromUtf8Error10utf8_error17h7a3382dcce553b61E
	.cfi_endproc

	.section	".text._ZN67_$LT$alloc..string..FromUtf8Error$u20$as$u20$core..fmt..Display$GT$3fmt17hdd1e19c02aa5823eE","ax",@progbits
	.globl	_ZN67_$LT$alloc..string..FromUtf8Error$u20$as$u20$core..fmt..Display$GT$3fmt17hdd1e19c02aa5823eE
	.p2align	1
	.type	_ZN67_$LT$alloc..string..FromUtf8Error$u20$as$u20$core..fmt..Display$GT$3fmt17hdd1e19c02aa5823eE,@function
_ZN67_$LT$alloc..string..FromUtf8Error$u20$as$u20$core..fmt..Display$GT$3fmt17hdd1e19c02aa5823eE:
.Lfunc_begin92:
	.loc	13 1960 0
	.cfi_startproc
	.loc	13 1961 9 prologue_end
	tail	_ZN66_$LT$core..str..error..Utf8Error$u20$as$u20$core..fmt..Display$GT$3fmt17h23e196823970e12cE
.Ltmp1538:
.Lfunc_end92:
	.size	_ZN67_$LT$alloc..string..FromUtf8Error$u20$as$u20$core..fmt..Display$GT$3fmt17hdd1e19c02aa5823eE, .Lfunc_end92-_ZN67_$LT$alloc..string..FromUtf8Error$u20$as$u20$core..fmt..Display$GT$3fmt17hdd1e19c02aa5823eE
	.cfi_endproc

	.section	".text._ZN68_$LT$alloc..string..FromUtf16Error$u20$as$u20$core..fmt..Display$GT$3fmt17h0be0d0bea006ecfaE","ax",@progbits
	.globl	_ZN68_$LT$alloc..string..FromUtf16Error$u20$as$u20$core..fmt..Display$GT$3fmt17h0be0d0bea006ecfaE
	.p2align	1
	.type	_ZN68_$LT$alloc..string..FromUtf16Error$u20$as$u20$core..fmt..Display$GT$3fmt17h0be0d0bea006ecfaE,@function
_ZN68_$LT$alloc..string..FromUtf16Error$u20$as$u20$core..fmt..Display$GT$3fmt17h0be0d0bea006ecfaE:
.Lfunc_begin93:
	.loc	13 1967 0
	.cfi_startproc
	mv	a2, a1
.Ltmp1539:
	.loc	13 1968 9 prologue_end
	lui	a0, %hi(.L__unnamed_48)
.Ltmp1540:
	addi	a0, a0, %lo(.L__unnamed_48)
	li	a1, 36
	tail	_ZN42_$LT$str$u20$as$u20$core..fmt..Display$GT$3fmt17hbfabe9198c18d813E
.Ltmp1541:
.Lfunc_end93:
	.size	_ZN68_$LT$alloc..string..FromUtf16Error$u20$as$u20$core..fmt..Display$GT$3fmt17h0be0d0bea006ecfaE, .Lfunc_end93-_ZN68_$LT$alloc..string..FromUtf16Error$u20$as$u20$core..fmt..Display$GT$3fmt17h0be0d0bea006ecfaE
	.cfi_endproc

	.section	".text._ZN67_$LT$alloc..string..FromUtf8Error$u20$as$u20$core..error..Error$GT$11description17hce4ae0b6a55c1c75E","ax",@progbits
	.globl	_ZN67_$LT$alloc..string..FromUtf8Error$u20$as$u20$core..error..Error$GT$11description17hce4ae0b6a55c1c75E
	.p2align	1
	.type	_ZN67_$LT$alloc..string..FromUtf8Error$u20$as$u20$core..error..Error$GT$11description17hce4ae0b6a55c1c75E,@function
_ZN67_$LT$alloc..string..FromUtf8Error$u20$as$u20$core..error..Error$GT$11description17hce4ae0b6a55c1c75E:
.Lfunc_begin94:
	.loc	13 1975 0
	.cfi_startproc
	.loc	13 1977 6 prologue_end
	lui	a0, %hi(.L__unnamed_49)
.Ltmp1542:
	addi	a0, a0, %lo(.L__unnamed_49)
	li	a1, 13
	ret
.Ltmp1543:
.Lfunc_end94:
	.size	_ZN67_$LT$alloc..string..FromUtf8Error$u20$as$u20$core..error..Error$GT$11description17hce4ae0b6a55c1c75E, .Lfunc_end94-_ZN67_$LT$alloc..string..FromUtf8Error$u20$as$u20$core..error..Error$GT$11description17hce4ae0b6a55c1c75E
	.cfi_endproc

	.section	".text._ZN68_$LT$alloc..string..FromUtf16Error$u20$as$u20$core..error..Error$GT$11description17h0fd5286297c4ddb3E","ax",@progbits
	.globl	_ZN68_$LT$alloc..string..FromUtf16Error$u20$as$u20$core..error..Error$GT$11description17h0fd5286297c4ddb3E
	.p2align	1
	.type	_ZN68_$LT$alloc..string..FromUtf16Error$u20$as$u20$core..error..Error$GT$11description17h0fd5286297c4ddb3E,@function
_ZN68_$LT$alloc..string..FromUtf16Error$u20$as$u20$core..error..Error$GT$11description17h0fd5286297c4ddb3E:
.Lfunc_begin95:
	.loc	13 1983 0
	.cfi_startproc
	.loc	13 1985 6 prologue_end
	lui	a0, %hi(.L__unnamed_50)
.Ltmp1544:
	addi	a0, a0, %lo(.L__unnamed_50)
	li	a1, 14
	ret
.Ltmp1545:
.Lfunc_end95:
	.size	_ZN68_$LT$alloc..string..FromUtf16Error$u20$as$u20$core..error..Error$GT$11description17h0fd5286297c4ddb3E, .Lfunc_end95-_ZN68_$LT$alloc..string..FromUtf16Error$u20$as$u20$core..error..Error$GT$11description17h0fd5286297c4ddb3E
	.cfi_endproc

	.section	".text._ZN60_$LT$alloc..string..String$u20$as$u20$core..clone..Clone$GT$5clone17h45cf0c7cb13c7916E","ax",@progbits
	.globl	_ZN60_$LT$alloc..string..String$u20$as$u20$core..clone..Clone$GT$5clone17h45cf0c7cb13c7916E
	.p2align	1
	.type	_ZN60_$LT$alloc..string..String$u20$as$u20$core..clone..Clone$GT$5clone17h45cf0c7cb13c7916E,@function
_ZN60_$LT$alloc..string..String$u20$as$u20$core..clone..Clone$GT$5clone17h45cf0c7cb13c7916E:
.Lfunc_begin96:
	.loc	13 1991 0
	.cfi_startproc
	addi	sp, sp, -32
	.cfi_def_cfa_offset 32
.Ltmp1546:
	.loc	13 1992 23 prologue_end
	sw	ra, 28(sp)
	sw	s0, 24(sp)
	sw	s1, 20(sp)
	sw	s2, 16(sp)
	sw	s3, 12(sp)
	.cfi_offset ra, -4
	.cfi_offset s0, -8
	.cfi_offset s1, -12
	.cfi_offset s2, -16
	.cfi_offset s3, -20
	lw	s0, 8(a1)
.Ltmp1547:
	lw	s2, 4(a1)
	mv	s3, a0
.Ltmp1548:
	.loc	10 171 12
	beqz	s0, .LBB96_4
.Ltmp1549:
	.loc	10 176 26
	bltz	s0, .LBB96_6
.Ltmp1550:
	.loc	11 95 14
	li	a1, 1
.Ltmp1551:
	mv	a0, s0
	call	__rust_alloc
	mv	s1, a0
.Ltmp1552:
	.loc	10 188 23
	bnez	a0, .LBB96_5
.Ltmp1553:
	.loc	10 190 27
	li	a1, 1
	mv	a0, s0
	call	_ZN5alloc5alloc18handle_alloc_error17hd9333cd203b4ffb7E
	unimp	
.Ltmp1554:
.LBB96_4:
	.loc	10 0 27 is_stmt 0
	li	s1, 1
.Ltmp1555:
.LBB96_5:
	.loc	15 2372 9 is_stmt 1
	mv	a0, s1
	mv	a1, s2
	mv	a2, s0
	call	memcpy@plt
.Ltmp1556:
	.loc	13 1992 9
	sw	s0, 0(s3)
	sw	s1, 4(s3)
	sw	s0, 8(s3)
	.loc	13 1993 6
	lw	ra, 28(sp)
	lw	s0, 24(sp)
.Ltmp1557:
	lw	s1, 20(sp)
.Ltmp1558:
	lw	s2, 16(sp)
.Ltmp1559:
	lw	s3, 12(sp)
	addi	sp, sp, 32
	ret
.LBB96_6:
.Ltmp1560:
	.loc	10 178 27
	call	_ZN5alloc7raw_vec17capacity_overflow17h2c1c04a797021fabE
.Ltmp1561:
	unimp	
.Ltmp1562:
.Lfunc_end96:
	.size	_ZN60_$LT$alloc..string..String$u20$as$u20$core..clone..Clone$GT$5clone17h45cf0c7cb13c7916E, .Lfunc_end96-_ZN60_$LT$alloc..string..String$u20$as$u20$core..clone..Clone$GT$5clone17h45cf0c7cb13c7916E
	.cfi_endproc

	.section	".text._ZN60_$LT$alloc..string..String$u20$as$u20$core..clone..Clone$GT$10clone_from17h72d740950b8c46aeE","ax",@progbits
	.globl	_ZN60_$LT$alloc..string..String$u20$as$u20$core..clone..Clone$GT$10clone_from17h72d740950b8c46aeE
	.p2align	1
	.type	_ZN60_$LT$alloc..string..String$u20$as$u20$core..clone..Clone$GT$10clone_from17h72d740950b8c46aeE,@function
_ZN60_$LT$alloc..string..String$u20$as$u20$core..clone..Clone$GT$10clone_from17h72d740950b8c46aeE:
.Lfunc_begin97:
	.loc	13 1995 0
	.cfi_startproc
	addi	sp, sp, -32
	.cfi_def_cfa_offset 32
	sw	ra, 28(sp)
	sw	s0, 24(sp)
	sw	s1, 20(sp)
	sw	s2, 16(sp)
	sw	s3, 12(sp)
	.cfi_offset ra, -4
	.cfi_offset s0, -8
	.cfi_offset s1, -12
	.cfi_offset s2, -16
	.cfi_offset s3, -20
	mv	s0, a0
.Ltmp1563:
	.loc	13 1996 9 prologue_end
	lw	s1, 8(a1)
.Ltmp1564:
	.loc	10 288 12
	lw	a0, 0(a0)
.Ltmp1565:
	.loc	13 1996 9
	lw	s2, 4(a1)
	li	s3, 0
.Ltmp1566:
	.loc	7 2040 13
	sw	zero, 8(s0)
.Ltmp1567:
	.loc	10 288 12
	bltu	a0, s1, .LBB97_2
.Ltmp1568:
.LBB97_1:
	.loc	10 224 9
	lw	a0, 4(s0)
.Ltmp1569:
	.loc	5 499 18
	add	a0, a0, s3
.Ltmp1570:
	.loc	15 2372 9
	mv	a1, s2
	mv	a2, s1
	call	memcpy@plt
.Ltmp1571:
	.loc	7 1950 9
	add	a0, s3, s1
	sw	a0, 8(s0)
.Ltmp1572:
	.loc	13 1997 6
	lw	ra, 28(sp)
	lw	s0, 24(sp)
.Ltmp1573:
	lw	s1, 20(sp)
.Ltmp1574:
	lw	s2, 16(sp)
.Ltmp1575:
	lw	s3, 12(sp)
.Ltmp1576:
	addi	sp, sp, 32
	ret
.LBB97_2:
.Ltmp1577:
	.loc	10 289 13
	mv	a0, s0
	li	a1, 0
.Ltmp1578:
	mv	a2, s1
	call	_ZN5alloc7raw_vec19RawVec$LT$T$C$A$GT$7reserve21do_reserve_and_handle17hc60fe6a21a566324E
.Ltmp1579:
	.loc	7 2057 9
	lw	s3, 8(s0)
	j	.LBB97_1
.Ltmp1580:
.Lfunc_end97:
	.size	_ZN60_$LT$alloc..string..String$u20$as$u20$core..clone..Clone$GT$10clone_from17h72d740950b8c46aeE, .Lfunc_end97-_ZN60_$LT$alloc..string..String$u20$as$u20$core..clone..Clone$GT$10clone_from17h72d740950b8c46aeE
	.cfi_endproc

	.section	".text._ZN73_$LT$$RF$alloc..string..String$u20$as$u20$core..str..pattern..Pattern$GT$13into_searcher17hf3cbbfddc405fdc6E","ax",@progbits
	.globl	_ZN73_$LT$$RF$alloc..string..String$u20$as$u20$core..str..pattern..Pattern$GT$13into_searcher17hf3cbbfddc405fdc6E
	.p2align	1
	.type	_ZN73_$LT$$RF$alloc..string..String$u20$as$u20$core..str..pattern..Pattern$GT$13into_searcher17hf3cbbfddc405fdc6E,@function
_ZN73_$LT$$RF$alloc..string..String$u20$as$u20$core..str..pattern..Pattern$GT$13into_searcher17hf3cbbfddc405fdc6E:
.Lfunc_begin98:
	.loc	13 2180 0
	.cfi_startproc
	addi	sp, sp, -16
	.cfi_def_cfa_offset 16
.Ltmp1581:
	.loc	13 0 0 is_stmt 0
	sw	ra, 12(sp)
	.cfi_offset ra, -4
.Ltmp1582:
	.loc	13 2389 43 prologue_end is_stmt 1
	lw	a5, 4(a1)
	lw	a4, 8(a1)
.Ltmp1583:
	.loc	13 0 43 is_stmt 0
	mv	a1, a2
.Ltmp1584:
	.file	53 "/Users/georg/.rustup/toolchains/nightly-2023-01-03-aarch64-apple-darwin/lib/rustlib/src/rust/library/core/src/str" "pattern.rs"
	.loc	53 941 9 is_stmt 1
	mv	a2, a3
.Ltmp1585:
	mv	a3, a5
	call	_ZN4core3str7pattern11StrSearcher3new17h77cc27100863d2a5E
.Ltmp1586:
	.loc	13 2182 6
	lw	ra, 12(sp)
	addi	sp, sp, 16
	ret
.Ltmp1587:
.Lfunc_end98:
	.size	_ZN73_$LT$$RF$alloc..string..String$u20$as$u20$core..str..pattern..Pattern$GT$13into_searcher17hf3cbbfddc405fdc6E, .Lfunc_end98-_ZN73_$LT$$RF$alloc..string..String$u20$as$u20$core..str..pattern..Pattern$GT$13into_searcher17hf3cbbfddc405fdc6E
	.cfi_endproc

	.section	".text._ZN97_$LT$alloc..string..String$u20$as$u20$core..convert..From$LT$alloc..boxed..Box$LT$str$GT$$GT$$GT$4from17h2560d4a2021c886fE","ax",@progbits
	.globl	_ZN97_$LT$alloc..string..String$u20$as$u20$core..convert..From$LT$alloc..boxed..Box$LT$str$GT$$GT$$GT$4from17h2560d4a2021c886fE
	.p2align	1
	.type	_ZN97_$LT$alloc..string..String$u20$as$u20$core..convert..From$LT$alloc..boxed..Box$LT$str$GT$$GT$$GT$4from17h2560d4a2021c886fE,@function
_ZN97_$LT$alloc..string..String$u20$as$u20$core..convert..From$LT$alloc..boxed..Box$LT$str$GT$$GT$$GT$4from17h2560d4a2021c886fE:
.Lfunc_begin99:
	.loc	13 2699 0
	.cfi_startproc
	.loc	13 846 9 prologue_end
	sw	a2, 0(a0)
	sw	a1, 4(a0)
	sw	a2, 8(a0)
.Ltmp1588:
	.loc	13 2701 6
	ret
.Ltmp1589:
.Lfunc_end99:
	.size	_ZN97_$LT$alloc..string..String$u20$as$u20$core..convert..From$LT$alloc..boxed..Box$LT$str$GT$$GT$$GT$4from17h2560d4a2021c886fE, .Lfunc_end99-_ZN97_$LT$alloc..string..String$u20$as$u20$core..convert..From$LT$alloc..boxed..Box$LT$str$GT$$GT$$GT$4from17h2560d4a2021c886fE
	.cfi_endproc

	.section	".text._ZN98_$LT$alloc..string..String$u20$as$u20$core..convert..From$LT$alloc..borrow..Cow$LT$str$GT$$GT$$GT$4from17hbd6e41cd186aa8d8E","ax",@progbits
	.globl	_ZN98_$LT$alloc..string..String$u20$as$u20$core..convert..From$LT$alloc..borrow..Cow$LT$str$GT$$GT$$GT$4from17hbd6e41cd186aa8d8E
	.p2align	1
	.type	_ZN98_$LT$alloc..string..String$u20$as$u20$core..convert..From$LT$alloc..borrow..Cow$LT$str$GT$$GT$$GT$4from17hbd6e41cd186aa8d8E,@function
_ZN98_$LT$alloc..string..String$u20$as$u20$core..convert..From$LT$alloc..borrow..Cow$LT$str$GT$$GT$$GT$4from17hbd6e41cd186aa8d8E:
.Lfunc_begin100:
	.loc	13 2744 0
	.cfi_startproc
	addi	sp, sp, -32
	.cfi_def_cfa_offset 32
.Ltmp1590:
	.loc	13 2745 9 prologue_end
	sw	ra, 28(sp)
	sw	s0, 24(sp)
	sw	s1, 20(sp)
	sw	s2, 16(sp)
	sw	s3, 12(sp)
	.cfi_offset ra, -4
	.cfi_offset s0, -8
	.cfi_offset s1, -12
	.cfi_offset s2, -16
	.cfi_offset s3, -20
	lw	a2, 0(a1)
	lw	s2, 4(a1)
	lw	s0, 8(a1)
.Ltmp1591:
	.loc	13 0 9 is_stmt 0
	mv	s1, a0
.Ltmp1592:
	.loc	25 323 9 is_stmt 1
	beqz	a2, .LBB100_2
.Ltmp1593:
	.loc	13 0 0 is_stmt 0
	lw	a0, 12(a1)
.Ltmp1594:
	.loc	25 325 29 is_stmt 1
	sw	s0, 4(s1)
	sw	s2, 0(s1)
	mv	s0, a0
.Ltmp1595:
	.loc	25 0 29 is_stmt 0
	j	.LBB100_8
.Ltmp1596:
.LBB100_2:
	.loc	10 171 12 is_stmt 1
	beqz	s0, .LBB100_6
.Ltmp1597:
	.loc	10 176 26
	bltz	s0, .LBB100_9
.Ltmp1598:
	.loc	11 95 14
	li	a1, 1
.Ltmp1599:
	mv	a0, s0
	call	__rust_alloc
.Ltmp1600:
	mv	s3, a0
.Ltmp1601:
	.loc	10 188 23
	bnez	a0, .LBB100_7
.Ltmp1602:
	.loc	10 190 27
	li	a1, 1
	mv	a0, s0
	call	_ZN5alloc5alloc18handle_alloc_error17hd9333cd203b4ffb7E
	unimp	
.Ltmp1603:
.LBB100_6:
	.loc	10 0 27 is_stmt 0
	li	s3, 1
.Ltmp1604:
.LBB100_7:
	.loc	15 2372 9 is_stmt 1
	mv	a0, s3
	mv	a1, s2
	mv	a2, s0
	call	memcpy@plt
.Ltmp1605:
	.loc	13 846 9
	sw	s0, 0(s1)
	sw	s3, 4(s1)
.Ltmp1606:
.LBB100_8:
	.loc	25 0 0 is_stmt 0
	sw	s0, 8(s1)
.Ltmp1607:
	.loc	13 2746 6 is_stmt 1
	lw	ra, 28(sp)
	lw	s0, 24(sp)
	lw	s1, 20(sp)
	lw	s2, 16(sp)
.Ltmp1608:
	lw	s3, 12(sp)
	addi	sp, sp, 32
	ret
.LBB100_9:
.Ltmp1609:
	.loc	10 178 27
	call	_ZN5alloc7raw_vec17capacity_overflow17h2c1c04a797021fabE
.Ltmp1610:
	unimp	
.Ltmp1611:
.Lfunc_end100:
	.size	_ZN98_$LT$alloc..string..String$u20$as$u20$core..convert..From$LT$alloc..borrow..Cow$LT$str$GT$$GT$$GT$4from17hbd6e41cd186aa8d8E, .Lfunc_end100-_ZN98_$LT$alloc..string..String$u20$as$u20$core..convert..From$LT$alloc..borrow..Cow$LT$str$GT$$GT$$GT$4from17hbd6e41cd186aa8d8E
	.cfi_endproc

	.section	".text._ZN5alloc6string104_$LT$impl$u20$core..convert..From$LT$alloc..string..String$GT$$u20$for$u20$alloc..vec..Vec$LT$u8$GT$$GT$4from17h120c7b3f5219a35fE","ax",@progbits
	.globl	_ZN5alloc6string104_$LT$impl$u20$core..convert..From$LT$alloc..string..String$GT$$u20$for$u20$alloc..vec..Vec$LT$u8$GT$$GT$4from17h120c7b3f5219a35fE
	.p2align	1
	.type	_ZN5alloc6string104_$LT$impl$u20$core..convert..From$LT$alloc..string..String$GT$$u20$for$u20$alloc..vec..Vec$LT$u8$GT$$GT$4from17h120c7b3f5219a35fE,@function
_ZN5alloc6string104_$LT$impl$u20$core..convert..From$LT$alloc..string..String$GT$$u20$for$u20$alloc..vec..Vec$LT$u8$GT$$GT$4from17h120c7b3f5219a35fE:
.Lfunc_begin101:
	.loc	13 2855 0
	.cfi_startproc
	.loc	13 867 9 prologue_end
	lw	a2, 8(a1)
	lw	a3, 4(a1)
	lw	a1, 0(a1)
.Ltmp1612:
	sw	a2, 8(a0)
	sw	a3, 4(a0)
	sw	a1, 0(a0)
.Ltmp1613:
	.loc	13 2857 6
	ret
.Ltmp1614:
.Lfunc_end101:
	.size	_ZN5alloc6string104_$LT$impl$u20$core..convert..From$LT$alloc..string..String$GT$$u20$for$u20$alloc..vec..Vec$LT$u8$GT$$GT$4from17h120c7b3f5219a35fE, .Lfunc_end101-_ZN5alloc6string104_$LT$impl$u20$core..convert..From$LT$alloc..string..String$GT$$u20$for$u20$alloc..vec..Vec$LT$u8$GT$$GT$4from17h120c7b3f5219a35fE
	.cfi_endproc

	.section	".text._ZN57_$LT$alloc..string..Drain$u20$as$u20$core..fmt..Debug$GT$3fmt17h11fe94cebbbf8b76E","ax",@progbits
	.globl	_ZN57_$LT$alloc..string..Drain$u20$as$u20$core..fmt..Debug$GT$3fmt17h11fe94cebbbf8b76E
	.p2align	1
	.type	_ZN57_$LT$alloc..string..Drain$u20$as$u20$core..fmt..Debug$GT$3fmt17h11fe94cebbbf8b76E,@function
_ZN57_$LT$alloc..string..Drain$u20$as$u20$core..fmt..Debug$GT$3fmt17h11fe94cebbbf8b76E:
.Lfunc_begin102:
	.loc	13 2896 0
	.cfi_startproc
	addi	sp, sp, -32
	.cfi_def_cfa_offset 32
	sw	ra, 28(sp)
	sw	s0, 24(sp)
	.cfi_offset ra, -4
	.cfi_offset s0, -8
	mv	s0, a0
.Ltmp1615:
	.loc	13 2897 9 prologue_end
	lui	a0, %hi(.L__unnamed_51)
	addi	a2, a0, %lo(.L__unnamed_51)
	mv	a0, sp
	li	a3, 5
	call	_ZN4core3fmt9Formatter11debug_tuple17h7f2f47fd9bff8925E
.Ltmp1616:
	.loc	44 114 38
	lw	a0, 0(s0)
	lw	a1, 4(s0)
.Ltmp1617:
	.loc	4 29 33
	sub	a0, a0, a1
.Ltmp1618:
	.loc	13 2897 39
	sw	a1, 16(sp)
	sw	a0, 20(sp)
	.loc	13 2897 9 is_stmt 0
	lui	a0, %hi(.L__unnamed_7)
	addi	a2, a0, %lo(.L__unnamed_7)
	mv	a0, sp
	addi	a1, sp, 16
.Ltmp1619:
	call	_ZN4core3fmt8builders10DebugTuple5field17hf96f6388a41d3636E
	call	_ZN4core3fmt8builders10DebugTuple6finish17hb1a48074a046b9daE
	.loc	13 2898 6 is_stmt 1
	lw	ra, 28(sp)
	lw	s0, 24(sp)
.Ltmp1620:
	addi	sp, sp, 32
	ret
.Ltmp1621:
.Lfunc_end102:
	.size	_ZN57_$LT$alloc..string..Drain$u20$as$u20$core..fmt..Debug$GT$3fmt17h11fe94cebbbf8b76E, .Lfunc_end102-_ZN57_$LT$alloc..string..Drain$u20$as$u20$core..fmt..Debug$GT$3fmt17h11fe94cebbbf8b76E
	.cfi_endproc

	.section	".text._ZN62_$LT$alloc..string..Drain$u20$as$u20$core..ops..drop..Drop$GT$4drop17h80bf9aeb445196e9E","ax",@progbits
	.globl	_ZN62_$LT$alloc..string..Drain$u20$as$u20$core..ops..drop..Drop$GT$4drop17h80bf9aeb445196e9E
	.p2align	1
	.type	_ZN62_$LT$alloc..string..Drain$u20$as$u20$core..ops..drop..Drop$GT$4drop17h80bf9aeb445196e9E,@function
_ZN62_$LT$alloc..string..Drain$u20$as$u20$core..ops..drop..Drop$GT$4drop17h80bf9aeb445196e9E:
.Lfunc_begin103:
	.loc	13 2908 0
	.cfi_startproc
	addi	sp, sp, -16
	.cfi_def_cfa_offset 16
.Ltmp1622:
	.loc	13 0 0 is_stmt 0
	sw	ra, 12(sp)
	sw	s0, 8(sp)
	sw	s1, 4(sp)
	sw	s2, 0(sp)
	.cfi_offset ra, -4
	.cfi_offset s0, -8
	.cfi_offset s1, -12
	.cfi_offset s2, -16
.Ltmp1623:
	.loc	13 2913 16 prologue_end is_stmt 1
	lw	s1, 12(a0)
	.loc	13 2913 30 is_stmt 0
	lw	a1, 16(a0)
	.loc	13 2913 16
	bltu	a1, s1, .LBB103_7
.Ltmp1624:
	.loc	13 0 0
	lw	s0, 8(a0)
.Ltmp1625:
	.loc	7 2057 9 is_stmt 1
	lw	a0, 8(s0)
.Ltmp1626:
	.loc	13 2913 16
	bltu	a0, a1, .LBB103_7
.Ltmp1627:
	.loc	7 1372 9
	sw	s1, 8(s0)
.Ltmp1628:
	.loc	7 2007 27
	sub	s2, a0, a1
.Ltmp1629:
	.loc	7 0 27 is_stmt 0
	bne	a1, s1, .LBB103_4
.Ltmp1630:
	.file	54 "/Users/georg/.rustup/toolchains/nightly-2023-01-03-aarch64-apple-darwin/lib/rustlib/src/rust/library/alloc" "src/vec/drain.rs"
	.loc	54 183 20 is_stmt 1
	bne	a0, s1, .LBB103_6
	j	.LBB103_7
.Ltmp1631:
.LBB103_4:
	.loc	54 183 20 is_stmt 0
	beq	a0, a1, .LBB103_7
.Ltmp1632:
	.loc	13 0 0
	lw	a2, 4(s0)
.Ltmp1633:
	add	a0, a2, s1
.Ltmp1634:
	add	a1, a1, a2
.Ltmp1635:
	.loc	15 2458 9 is_stmt 1
	mv	a2, s2
.Ltmp1636:
	call	memmove@plt
.Ltmp1637:
.LBB103_6:
	.loc	54 0 0 is_stmt 0
	add	a0, s2, s1
.Ltmp1638:
	sw	a0, 8(s0)
.Ltmp1639:
.LBB103_7:
	.loc	13 2917 6 is_stmt 1
	lw	ra, 12(sp)
	lw	s0, 8(sp)
	lw	s1, 4(sp)
	lw	s2, 0(sp)
	addi	sp, sp, 16
	ret
.Ltmp1640:
.Lfunc_end103:
	.size	_ZN62_$LT$alloc..string..Drain$u20$as$u20$core..ops..drop..Drop$GT$4drop17h80bf9aeb445196e9E, .Lfunc_end103-_ZN62_$LT$alloc..string..Drain$u20$as$u20$core..ops..drop..Drop$GT$4drop17h80bf9aeb445196e9E
	.cfi_endproc

	.section	.text._ZN5alloc6string5Drain6as_str17h8093741466564a15E,"ax",@progbits
	.globl	_ZN5alloc6string5Drain6as_str17h8093741466564a15E
	.p2align	1
	.type	_ZN5alloc6string5Drain6as_str17h8093741466564a15E,@function
_ZN5alloc6string5Drain6as_str17h8093741466564a15E:
.Lfunc_begin104:
	.loc	13 2934 0
	.cfi_startproc
	.loc	44 114 38 prologue_end
	lw	a1, 0(a0)
	lw	a0, 4(a0)
.Ltmp1641:
	.loc	4 29 33
	sub	a1, a1, a0
.Ltmp1642:
	.loc	13 2936 6
	ret
.Ltmp1643:
.Lfunc_end104:
	.size	_ZN5alloc6string5Drain6as_str17h8093741466564a15E, .Lfunc_end104-_ZN5alloc6string5Drain6as_str17h8093741466564a15E
	.cfi_endproc

	.section	".text._ZN72_$LT$alloc..string..Drain$u20$as$u20$core..convert..AsRef$LT$str$GT$$GT$6as_ref17hfc5c24b73d42bfe3E","ax",@progbits
	.globl	_ZN72_$LT$alloc..string..Drain$u20$as$u20$core..convert..AsRef$LT$str$GT$$GT$6as_ref17hfc5c24b73d42bfe3E
	.p2align	1
	.type	_ZN72_$LT$alloc..string..Drain$u20$as$u20$core..convert..AsRef$LT$str$GT$$GT$6as_ref17hfc5c24b73d42bfe3E,@function
_ZN72_$LT$alloc..string..Drain$u20$as$u20$core..convert..AsRef$LT$str$GT$$GT$6as_ref17hfc5c24b73d42bfe3E:
.Lfunc_begin105:
	.loc	13 2941 0
	.cfi_startproc
	.loc	44 114 38 prologue_end
	lw	a1, 0(a0)
	lw	a0, 4(a0)
.Ltmp1644:
	.loc	4 29 33
	sub	a1, a1, a0
.Ltmp1645:
	.loc	13 2943 6
	ret
.Ltmp1646:
.Lfunc_end105:
	.size	_ZN72_$LT$alloc..string..Drain$u20$as$u20$core..convert..AsRef$LT$str$GT$$GT$6as_ref17hfc5c24b73d42bfe3E, .Lfunc_end105-_ZN72_$LT$alloc..string..Drain$u20$as$u20$core..convert..AsRef$LT$str$GT$$GT$6as_ref17hfc5c24b73d42bfe3E
	.cfi_endproc

	.section	".text._ZN79_$LT$alloc..string..Drain$u20$as$u20$core..iter..traits..iterator..Iterator$GT$9size_hint17he2e2d7c9eab71f1bE","ax",@progbits
	.globl	_ZN79_$LT$alloc..string..Drain$u20$as$u20$core..iter..traits..iterator..Iterator$GT$9size_hint17he2e2d7c9eab71f1bE
	.p2align	1
	.type	_ZN79_$LT$alloc..string..Drain$u20$as$u20$core..iter..traits..iterator..Iterator$GT$9size_hint17he2e2d7c9eab71f1bE,@function
_ZN79_$LT$alloc..string..Drain$u20$as$u20$core..iter..traits..iterator..Iterator$GT$9size_hint17he2e2d7c9eab71f1bE:
.Lfunc_begin106:
	.loc	13 2962 0
	.cfi_startproc
	.loc	13 2963 9 prologue_end
	lw	a2, 0(a1)
	lw	a1, 4(a1)
.Ltmp1647:
	.loc	4 29 33
	sub	a1, a2, a1
.Ltmp1648:
	.loc	44 58 10
	addi	a2, a1, 3
.Ltmp1649:
	srli	a2, a2, 2
	.loc	44 58 9 is_stmt 0
	sw	a2, 0(a0)
	li	a2, 1
	sw	a2, 4(a0)
	sw	a1, 8(a0)
.Ltmp1650:
	.loc	13 2964 6 is_stmt 1
	ret
.Ltmp1651:
.Lfunc_end106:
	.size	_ZN79_$LT$alloc..string..Drain$u20$as$u20$core..iter..traits..iterator..Iterator$GT$9size_hint17he2e2d7c9eab71f1bE, .Lfunc_end106-_ZN79_$LT$alloc..string..Drain$u20$as$u20$core..iter..traits..iterator..Iterator$GT$9size_hint17he2e2d7c9eab71f1bE
	.cfi_endproc

	.section	.text._ZN5alloc4sync32arcinner_layout_for_value_layout17h6ea3ec8ca81fdbc8E,"ax",@progbits
	.globl	_ZN5alloc4sync32arcinner_layout_for_value_layout17h6ea3ec8ca81fdbc8E
	.p2align	1
	.type	_ZN5alloc4sync32arcinner_layout_for_value_layout17h6ea3ec8ca81fdbc8E,@function
_ZN5alloc4sync32arcinner_layout_for_value_layout17h6ea3ec8ca81fdbc8E:
.Lfunc_begin107:
	.file	55 "/Users/georg/.rustup/toolchains/nightly-2023-01-03-aarch64-apple-darwin/lib/rustlib/src/rust/library/alloc" "src/sync.rs"
	.loc	55 337 0
	.cfi_startproc
	li	a3, 4
	mv	a2, a1
.Ltmp1652:
	.loc	17 0 0 is_stmt 0
	bltu	a3, a1, .LBB107_2
.Ltmp1653:
	li	a1, 4
.Ltmp1654:
.LBB107_2:
	.loc	14 1203 13 prologue_end is_stmt 1
	addi	a3, a2, 7
.Ltmp1655:
	.loc	18 283 72
	neg	a2, a2
.Ltmp1656:
	.loc	18 283 30 is_stmt 0
	and	a2, a2, a3
.Ltmp1657:
	.loc	14 1203 13 is_stmt 1
	addi	a3, a2, -8
.Ltmp1658:
	.loc	18 385 22
	bltu	a2, a3, .LBB107_5
.Ltmp1659:
	.loc	14 1479 26
	add	a0, a0, a2
.Ltmp1660:
	sltu	a2, a0, a2
.Ltmp1661:
	.loc	14 0 26 is_stmt 0
	lui	a3, 524288
.Ltmp1662:
	sub	a3, a3, a1
	sltu	a3, a3, a0
.Ltmp1663:
	.loc	18 386 24 is_stmt 1
	or	a2, a2, a3
	bnez	a2, .LBB107_5
.Ltmp1664:
	.loc	14 1162 13
	add	a0, a0, a1
.Ltmp1665:
	.loc	14 1203 13
	addi	a0, a0, -1
.Ltmp1666:
	.loc	18 283 72
	neg	a2, a1
	.loc	18 283 30 is_stmt 0
	and	a0, a0, a2
.Ltmp1667:
	.loc	55 343 2 is_stmt 1
	ret
.Ltmp1668:
.LBB107_5:
	addi	sp, sp, -16
	.cfi_def_cfa_offset 16
.Ltmp1669:
	.loc	19 1112 23
	lui	a0, %hi(.L__unnamed_42)
	addi	a0, a0, %lo(.L__unnamed_42)
	lui	a1, %hi(.L__unnamed_6)
	addi	a3, a1, %lo(.L__unnamed_6)
	lui	a1, %hi(.L__unnamed_52)
	addi	a4, a1, %lo(.L__unnamed_52)
	li	a1, 43
	addi	a2, sp, 8
	call	_ZN4core6result13unwrap_failed17h3809f1cd94940bfeE
	unimp	
.Ltmp1670:
.Lfunc_end107:
	.size	_ZN5alloc4sync32arcinner_layout_for_value_layout17h6ea3ec8ca81fdbc8E, .Lfunc_end107-_ZN5alloc4sync32arcinner_layout_for_value_layout17h6ea3ec8ca81fdbc8E
	.cfi_endproc

	.section	".text.unlikely._ZN5alloc3vec16Vec$LT$T$C$A$GT$11swap_remove13assert_failed17h0c2983079cac9ff3E","ax",@progbits
	.globl	_ZN5alloc3vec16Vec$LT$T$C$A$GT$11swap_remove13assert_failed17h0c2983079cac9ff3E
	.p2align	1
	.type	_ZN5alloc3vec16Vec$LT$T$C$A$GT$11swap_remove13assert_failed17h0c2983079cac9ff3E,@function
_ZN5alloc3vec16Vec$LT$T$C$A$GT$11swap_remove13assert_failed17h0c2983079cac9ff3E:
.Lfunc_begin108:
	.loc	7 1404 0
	.cfi_startproc
	addi	sp, sp, -48
	.cfi_def_cfa_offset 48
	sw	a0, 0(sp)
	sw	a1, 4(sp)
	mv	a0, sp
.Ltmp1671:
	.loc	7 1405 13 prologue_end
	sw	a0, 32(sp)
	lui	a0, %hi(_ZN4core3fmt3num3imp54_$LT$impl$u20$core..fmt..Display$u20$for$u20$usize$GT$3fmt17hf88330a667d69cb1E)
	addi	a0, a0, %lo(_ZN4core3fmt3num3imp54_$LT$impl$u20$core..fmt..Display$u20$for$u20$usize$GT$3fmt17hf88330a667d69cb1E)
	sw	a0, 36(sp)
	addi	a1, sp, 4
.Ltmp1672:
	sw	a1, 40(sp)
	sw	a0, 44(sp)
.Ltmp1673:
	.loc	1 398 9
	lui	a0, %hi(.L__unnamed_53)
	addi	a0, a0, %lo(.L__unnamed_53)
.Ltmp1674:
	sw	a0, 16(sp)
	li	a0, 3
.Ltmp1675:
	sw	a0, 20(sp)
	sw	zero, 8(sp)
	addi	a0, sp, 32
	sw	a0, 24(sp)
	li	a0, 2
	sw	a0, 28(sp)
.Ltmp1676:
	.loc	7 1405 13
	lui	a0, %hi(.L__unnamed_54)
	addi	a1, a0, %lo(.L__unnamed_54)
	addi	a0, sp, 8
	call	_ZN4core9panicking9panic_fmt17h38a84a0a59f0bde7E
	unimp	
.Ltmp1677:
.Lfunc_end108:
	.size	_ZN5alloc3vec16Vec$LT$T$C$A$GT$11swap_remove13assert_failed17h0c2983079cac9ff3E, .Lfunc_end108-_ZN5alloc3vec16Vec$LT$T$C$A$GT$11swap_remove13assert_failed17h0c2983079cac9ff3E
	.cfi_endproc

	.section	".text.unlikely._ZN5alloc3vec16Vec$LT$T$C$A$GT$6insert13assert_failed17hd49255227a3923c1E","ax",@progbits
	.globl	_ZN5alloc3vec16Vec$LT$T$C$A$GT$6insert13assert_failed17hd49255227a3923c1E
	.p2align	1
	.type	_ZN5alloc3vec16Vec$LT$T$C$A$GT$6insert13assert_failed17hd49255227a3923c1E,@function
_ZN5alloc3vec16Vec$LT$T$C$A$GT$6insert13assert_failed17hd49255227a3923c1E:
.Lfunc_begin109:
	.loc	7 1445 0
	.cfi_startproc
	addi	sp, sp, -48
	.cfi_def_cfa_offset 48
	sw	a0, 0(sp)
	sw	a1, 4(sp)
	mv	a0, sp
.Ltmp1678:
	.loc	7 1446 13 prologue_end
	sw	a0, 32(sp)
	lui	a0, %hi(_ZN4core3fmt3num3imp54_$LT$impl$u20$core..fmt..Display$u20$for$u20$usize$GT$3fmt17hf88330a667d69cb1E)
	addi	a0, a0, %lo(_ZN4core3fmt3num3imp54_$LT$impl$u20$core..fmt..Display$u20$for$u20$usize$GT$3fmt17hf88330a667d69cb1E)
	sw	a0, 36(sp)
	addi	a1, sp, 4
.Ltmp1679:
	sw	a1, 40(sp)
	sw	a0, 44(sp)
.Ltmp1680:
	.loc	1 398 9
	lui	a0, %hi(.L__unnamed_55)
	addi	a0, a0, %lo(.L__unnamed_55)
.Ltmp1681:
	sw	a0, 16(sp)
	li	a0, 3
.Ltmp1682:
	sw	a0, 20(sp)
	sw	zero, 8(sp)
	addi	a0, sp, 32
	sw	a0, 24(sp)
	li	a0, 2
	sw	a0, 28(sp)
.Ltmp1683:
	.loc	7 1446 13
	lui	a0, %hi(.L__unnamed_56)
	addi	a1, a0, %lo(.L__unnamed_56)
	addi	a0, sp, 8
	call	_ZN4core9panicking9panic_fmt17h38a84a0a59f0bde7E
	unimp	
.Ltmp1684:
.Lfunc_end109:
	.size	_ZN5alloc3vec16Vec$LT$T$C$A$GT$6insert13assert_failed17hd49255227a3923c1E, .Lfunc_end109-_ZN5alloc3vec16Vec$LT$T$C$A$GT$6insert13assert_failed17hd49255227a3923c1E
	.cfi_endproc

	.section	".text.unlikely._ZN5alloc3vec16Vec$LT$T$C$A$GT$6remove13assert_failed17h372d82984f0c1331E","ax",@progbits
	.globl	_ZN5alloc3vec16Vec$LT$T$C$A$GT$6remove13assert_failed17h372d82984f0c1331E
	.p2align	1
	.type	_ZN5alloc3vec16Vec$LT$T$C$A$GT$6remove13assert_failed17h372d82984f0c1331E,@function
_ZN5alloc3vec16Vec$LT$T$C$A$GT$6remove13assert_failed17h372d82984f0c1331E:
.Lfunc_begin110:
	.loc	7 1507 0
	.cfi_startproc
	addi	sp, sp, -48
	.cfi_def_cfa_offset 48
	sw	a0, 0(sp)
	sw	a1, 4(sp)
	mv	a0, sp
.Ltmp1685:
	.loc	7 1508 13 prologue_end
	sw	a0, 32(sp)
	lui	a0, %hi(_ZN4core3fmt3num3imp54_$LT$impl$u20$core..fmt..Display$u20$for$u20$usize$GT$3fmt17hf88330a667d69cb1E)
	addi	a0, a0, %lo(_ZN4core3fmt3num3imp54_$LT$impl$u20$core..fmt..Display$u20$for$u20$usize$GT$3fmt17hf88330a667d69cb1E)
	sw	a0, 36(sp)
	addi	a1, sp, 4
.Ltmp1686:
	sw	a1, 40(sp)
	sw	a0, 44(sp)
.Ltmp1687:
	.loc	1 398 9
	lui	a0, %hi(.L__unnamed_57)
	addi	a0, a0, %lo(.L__unnamed_57)
.Ltmp1688:
	sw	a0, 16(sp)
	li	a0, 3
.Ltmp1689:
	sw	a0, 20(sp)
	sw	zero, 8(sp)
	addi	a0, sp, 32
	sw	a0, 24(sp)
	li	a0, 2
	sw	a0, 28(sp)
.Ltmp1690:
	.loc	7 1508 13
	addi	a0, sp, 8
	mv	a1, a2
	call	_ZN4core9panicking9panic_fmt17h38a84a0a59f0bde7E
	unimp	
.Ltmp1691:
.Lfunc_end110:
	.size	_ZN5alloc3vec16Vec$LT$T$C$A$GT$6remove13assert_failed17h372d82984f0c1331E, .Lfunc_end110-_ZN5alloc3vec16Vec$LT$T$C$A$GT$6remove13assert_failed17h372d82984f0c1331E
	.cfi_endproc

	.section	".text.unlikely._ZN5alloc3vec16Vec$LT$T$C$A$GT$9split_off13assert_failed17h3fe2e87d1cfd0a30E","ax",@progbits
	.globl	_ZN5alloc3vec16Vec$LT$T$C$A$GT$9split_off13assert_failed17h3fe2e87d1cfd0a30E
	.p2align	1
	.type	_ZN5alloc3vec16Vec$LT$T$C$A$GT$9split_off13assert_failed17h3fe2e87d1cfd0a30E,@function
_ZN5alloc3vec16Vec$LT$T$C$A$GT$9split_off13assert_failed17h3fe2e87d1cfd0a30E:
.Lfunc_begin111:
	.loc	7 2104 0
	.cfi_startproc
	addi	sp, sp, -48
	.cfi_def_cfa_offset 48
	sw	a0, 0(sp)
	sw	a1, 4(sp)
	mv	a0, sp
.Ltmp1692:
	.loc	7 2105 13 prologue_end
	sw	a0, 32(sp)
	lui	a0, %hi(_ZN4core3fmt3num3imp54_$LT$impl$u20$core..fmt..Display$u20$for$u20$usize$GT$3fmt17hf88330a667d69cb1E)
	addi	a0, a0, %lo(_ZN4core3fmt3num3imp54_$LT$impl$u20$core..fmt..Display$u20$for$u20$usize$GT$3fmt17hf88330a667d69cb1E)
	sw	a0, 36(sp)
	addi	a1, sp, 4
.Ltmp1693:
	sw	a1, 40(sp)
	sw	a0, 44(sp)
.Ltmp1694:
	.loc	1 398 9
	lui	a0, %hi(.L__unnamed_58)
	addi	a0, a0, %lo(.L__unnamed_58)
.Ltmp1695:
	sw	a0, 16(sp)
	li	a0, 3
.Ltmp1696:
	sw	a0, 20(sp)
	sw	zero, 8(sp)
	addi	a0, sp, 32
	sw	a0, 24(sp)
	li	a0, 2
	sw	a0, 28(sp)
.Ltmp1697:
	.loc	7 2105 13
	lui	a0, %hi(.L__unnamed_59)
	addi	a1, a0, %lo(.L__unnamed_59)
	addi	a0, sp, 8
	call	_ZN4core9panicking9panic_fmt17h38a84a0a59f0bde7E
	unimp	
.Ltmp1698:
.Lfunc_end111:
	.size	_ZN5alloc3vec16Vec$LT$T$C$A$GT$9split_off13assert_failed17h3fe2e87d1cfd0a30E, .Lfunc_end111-_ZN5alloc3vec16Vec$LT$T$C$A$GT$9split_off13assert_failed17h3fe2e87d1cfd0a30E
	.cfi_endproc

	.section	".text._ZN80_$LT$alloc..vec..Vec$LT$u8$GT$$u20$as$u20$core..convert..From$LT$$RF$str$GT$$GT$4from17h9e0bfcd4cef77ca0E","ax",@progbits
	.globl	_ZN80_$LT$alloc..vec..Vec$LT$u8$GT$$u20$as$u20$core..convert..From$LT$$RF$str$GT$$GT$4from17h9e0bfcd4cef77ca0E
	.p2align	1
	.type	_ZN80_$LT$alloc..vec..Vec$LT$u8$GT$$u20$as$u20$core..convert..From$LT$$RF$str$GT$$GT$4from17h9e0bfcd4cef77ca0E,@function
_ZN80_$LT$alloc..vec..Vec$LT$u8$GT$$u20$as$u20$core..convert..From$LT$$RF$str$GT$$GT$4from17h9e0bfcd4cef77ca0E:
.Lfunc_begin112:
	.loc	7 3250 0
	.cfi_startproc
	addi	sp, sp, -16
	.cfi_def_cfa_offset 16
.Ltmp1699:
	.loc	22 157 17 prologue_end
	sw	ra, 12(sp)
	sw	s0, 8(sp)
	sw	s1, 4(sp)
	sw	s2, 0(sp)
	.cfi_offset ra, -4
	.cfi_offset s0, -8
	.cfi_offset s1, -12
	.cfi_offset s2, -16
.Ltmp1700:
	.loc	22 0 17 is_stmt 0
	mv	s0, a2
.Ltmp1701:
	mv	s2, a1
.Ltmp1702:
	mv	s1, a0
.Ltmp1703:
	.loc	10 171 12 is_stmt 1
	beqz	a2, .LBB112_4
.Ltmp1704:
	.loc	10 176 26
	bltz	s0, .LBB112_6
.Ltmp1705:
	.loc	11 95 14
	li	a1, 1
	mv	a0, s0
	call	__rust_alloc
.Ltmp1706:
	.loc	10 188 23
	bnez	a0, .LBB112_5
.Ltmp1707:
	.loc	10 190 27
	li	a1, 1
	mv	a0, s0
.Ltmp1708:
	call	_ZN5alloc5alloc18handle_alloc_error17hd9333cd203b4ffb7E
	unimp	
.Ltmp1709:
.LBB112_4:
	.loc	10 0 27 is_stmt 0
	li	a0, 1
.Ltmp1710:
.LBB112_5:
	.loc	7 673 9 is_stmt 1
	sw	s0, 0(s1)
	sw	a0, 4(s1)
.Ltmp1711:
	.loc	15 2372 9
	mv	a1, s2
	mv	a2, s0
	call	memcpy@plt
.Ltmp1712:
	.loc	7 1372 9
	sw	s0, 8(s1)
.Ltmp1713:
	.loc	7 3252 6
	lw	ra, 12(sp)
	lw	s0, 8(sp)
.Ltmp1714:
	lw	s1, 4(sp)
.Ltmp1715:
	lw	s2, 0(sp)
.Ltmp1716:
	addi	sp, sp, 16
	ret
.LBB112_6:
.Ltmp1717:
	.loc	10 178 27
	call	_ZN5alloc7raw_vec17capacity_overflow17h2c1c04a797021fabE
	unimp	
.Ltmp1718:
.Lfunc_end112:
	.size	_ZN80_$LT$alloc..vec..Vec$LT$u8$GT$$u20$as$u20$core..convert..From$LT$$RF$str$GT$$GT$4from17h9e0bfcd4cef77ca0E, .Lfunc_end112-_ZN80_$LT$alloc..vec..Vec$LT$u8$GT$$u20$as$u20$core..convert..From$LT$$RF$str$GT$$GT$4from17h9e0bfcd4cef77ca0E
	.cfi_endproc

	.section	".text._ZN57_$LT$alloc..alloc..Global$u20$as$u20$core..fmt..Debug$GT$3fmt17h718971c641c0b3c1E","ax",@progbits
	.globl	_ZN57_$LT$alloc..alloc..Global$u20$as$u20$core..fmt..Debug$GT$3fmt17h718971c641c0b3c1E
	.p2align	1
	.type	_ZN57_$LT$alloc..alloc..Global$u20$as$u20$core..fmt..Debug$GT$3fmt17h718971c641c0b3c1E,@function
_ZN57_$LT$alloc..alloc..Global$u20$as$u20$core..fmt..Debug$GT$3fmt17h718971c641c0b3c1E:
.Lfunc_begin113:
	.loc	11 53 0
	.cfi_startproc
	.loc	11 53 32 prologue_end
	lui	a0, %hi(.L__unnamed_60)
.Ltmp1719:
	addi	a3, a0, %lo(.L__unnamed_60)
	li	a2, 6
	mv	a0, a1
.Ltmp1720:
	mv	a1, a3
	tail	_ZN4core3fmt9Formatter9write_str17h060247258d2cc5e5E
.Ltmp1721:
.Lfunc_end113:
	.size	_ZN57_$LT$alloc..alloc..Global$u20$as$u20$core..fmt..Debug$GT$3fmt17h718971c641c0b3c1E, .Lfunc_end113-_ZN57_$LT$alloc..alloc..Global$u20$as$u20$core..fmt..Debug$GT$3fmt17h718971c641c0b3c1E
	.cfi_endproc

	.section	".text._ZN82_$LT$alloc..collections..btree..set_val..SetValZST$u20$as$u20$core..fmt..Debug$GT$3fmt17h93dc114f93ec7752E","ax",@progbits
	.globl	_ZN82_$LT$alloc..collections..btree..set_val..SetValZST$u20$as$u20$core..fmt..Debug$GT$3fmt17h93dc114f93ec7752E
	.p2align	1
	.type	_ZN82_$LT$alloc..collections..btree..set_val..SetValZST$u20$as$u20$core..fmt..Debug$GT$3fmt17h93dc114f93ec7752E,@function
_ZN82_$LT$alloc..collections..btree..set_val..SetValZST$u20$as$u20$core..fmt..Debug$GT$3fmt17h93dc114f93ec7752E:
.Lfunc_begin114:
	.loc	28 5 0
	.cfi_startproc
	.loc	28 5 10 prologue_end
	lui	a0, %hi(.L__unnamed_61)
.Ltmp1722:
	addi	a3, a0, %lo(.L__unnamed_61)
	li	a2, 9
	mv	a0, a1
.Ltmp1723:
	mv	a1, a3
	tail	_ZN4core3fmt9Formatter9write_str17h060247258d2cc5e5E
.Ltmp1724:
.Lfunc_end114:
	.size	_ZN82_$LT$alloc..collections..btree..set_val..SetValZST$u20$as$u20$core..fmt..Debug$GT$3fmt17h93dc114f93ec7752E, .Lfunc_end114-_ZN82_$LT$alloc..collections..btree..set_val..SetValZST$u20$as$u20$core..fmt..Debug$GT$3fmt17h93dc114f93ec7752E
	.cfi_endproc

	.section	".text._ZN72_$LT$alloc..collections..TryReserveError$u20$as$u20$core..fmt..Debug$GT$3fmt17h3f6f065f86804d31E","ax",@progbits
	.globl	_ZN72_$LT$alloc..collections..TryReserveError$u20$as$u20$core..fmt..Debug$GT$3fmt17h3f6f065f86804d31E
	.p2align	1
	.type	_ZN72_$LT$alloc..collections..TryReserveError$u20$as$u20$core..fmt..Debug$GT$3fmt17h3f6f065f86804d31E,@function
_ZN72_$LT$alloc..collections..TryReserveError$u20$as$u20$core..fmt..Debug$GT$3fmt17h3f6f065f86804d31E:
.Lfunc_begin115:
	.loc	8 59 0
	.cfi_startproc
	addi	sp, sp, -16
	.cfi_def_cfa_offset 16
	sw	ra, 12(sp)
	.cfi_offset ra, -4
	mv	a7, a1
.Ltmp1725:
	.loc	8 62 5 prologue_end
	sw	a0, 8(sp)
	.loc	8 59 32
	lui	a0, %hi(.L__unnamed_62)
.Ltmp1726:
	addi	a1, a0, %lo(.L__unnamed_62)
	lui	a0, %hi(.L__unnamed_63)
	addi	a3, a0, %lo(.L__unnamed_63)
	lui	a0, %hi(.L__unnamed_8)
	addi	a6, a0, %lo(.L__unnamed_8)
	li	a2, 15
	li	a4, 4
	addi	a5, sp, 8
	mv	a0, a7
.Ltmp1727:
	call	_ZN4core3fmt9Formatter26debug_struct_field1_finish17h0aecd1602bc56448E
.Ltmp1728:
	.loc	8 59 37 is_stmt 0
	lw	ra, 12(sp)
	addi	sp, sp, 16
	ret
.Ltmp1729:
.Lfunc_end115:
	.size	_ZN72_$LT$alloc..collections..TryReserveError$u20$as$u20$core..fmt..Debug$GT$3fmt17h3f6f065f86804d31E, .Lfunc_end115-_ZN72_$LT$alloc..collections..TryReserveError$u20$as$u20$core..fmt..Debug$GT$3fmt17h3f6f065f86804d31E
	.cfi_endproc

	.section	".text._ZN76_$LT$alloc..collections..TryReserveErrorKind$u20$as$u20$core..fmt..Debug$GT$3fmt17h0ecbfbf9657d37cbE","ax",@progbits
	.globl	_ZN76_$LT$alloc..collections..TryReserveErrorKind$u20$as$u20$core..fmt..Debug$GT$3fmt17h0ecbfbf9657d37cbE
	.p2align	1
	.type	_ZN76_$LT$alloc..collections..TryReserveErrorKind$u20$as$u20$core..fmt..Debug$GT$3fmt17h0ecbfbf9657d37cbE,@function
_ZN76_$LT$alloc..collections..TryReserveErrorKind$u20$as$u20$core..fmt..Debug$GT$3fmt17h0ecbfbf9657d37cbE:
.Lfunc_begin116:
	.loc	8 80 0 is_stmt 1
	.cfi_startproc
	addi	sp, sp, -32
	.cfi_def_cfa_offset 32
	sw	ra, 28(sp)
	.cfi_offset ra, -4
	mv	a2, a0
.Ltmp1730:
	.loc	8 80 32 prologue_end
	lw	a3, 4(a0)
	mv	a0, a1
.Ltmp1731:
	beqz	a3, .LBB116_2
.Ltmp1732:
	.loc	8 94 9
	sw	a2, 20(sp)
	.loc	8 105 9
	sw	a2, 24(sp)
.Ltmp1733:
	.loc	8 80 32
	lui	a1, %hi(.L__unnamed_10)
	addi	a1, a1, %lo(.L__unnamed_10)
	sw	a1, 8(sp)
	addi	a1, sp, 24
	sw	a1, 4(sp)
	li	t0, 14
	lui	a1, %hi(.L__unnamed_19)
	addi	a1, a1, %lo(.L__unnamed_19)
	lui	a2, %hi(.L__unnamed_20)
.Ltmp1734:
	addi	a3, a2, %lo(.L__unnamed_20)
	lui	a2, %hi(.L__unnamed_9)
	addi	a6, a2, %lo(.L__unnamed_9)
	lui	a2, %hi(.L__unnamed_21)
	addi	a7, a2, %lo(.L__unnamed_21)
	li	a2, 10
	li	a4, 6
	addi	a5, sp, 20
	sw	t0, 0(sp)
	call	_ZN4core3fmt9Formatter26debug_struct_field2_finish17h9091e75d7dc47269E
.Ltmp1735:
	.loc	8 80 37 is_stmt 0
	lw	ra, 28(sp)
	addi	sp, sp, 32
	ret
.Ltmp1736:
.LBB116_2:
	.loc	8 80 32
	lui	a1, %hi(.L__unnamed_22)
	addi	a1, a1, %lo(.L__unnamed_22)
	li	a2, 16
.Ltmp1737:
	lw	ra, 28(sp)
	addi	sp, sp, 32
	tail	_ZN4core3fmt9Formatter9write_str17h060247258d2cc5e5E
.Ltmp1738:
.Lfunc_end116:
	.size	_ZN76_$LT$alloc..collections..TryReserveErrorKind$u20$as$u20$core..fmt..Debug$GT$3fmt17h0ecbfbf9657d37cbE, .Lfunc_end116-_ZN76_$LT$alloc..collections..TryReserveErrorKind$u20$as$u20$core..fmt..Debug$GT$3fmt17h0ecbfbf9657d37cbE
	.cfi_endproc

	.section	".text._ZN64_$LT$alloc..ffi..c_str..NulError$u20$as$u20$core..fmt..Debug$GT$3fmt17ha3bc530e802e91ebE","ax",@progbits
	.globl	_ZN64_$LT$alloc..ffi..c_str..NulError$u20$as$u20$core..fmt..Debug$GT$3fmt17ha3bc530e802e91ebE
	.p2align	1
	.type	_ZN64_$LT$alloc..ffi..c_str..NulError$u20$as$u20$core..fmt..Debug$GT$3fmt17ha3bc530e802e91ebE,@function
_ZN64_$LT$alloc..ffi..c_str..NulError$u20$as$u20$core..fmt..Debug$GT$3fmt17ha3bc530e802e91ebE:
.Lfunc_begin117:
	.loc	3 134 0 is_stmt 1
	.cfi_startproc
	addi	sp, sp, -16
	.cfi_def_cfa_offset 16
	sw	ra, 12(sp)
	.cfi_offset ra, -4
	mv	a7, a1
.Ltmp1739:
	.loc	3 136 21 prologue_end
	sw	a0, 4(sp)
	.loc	3 136 28 is_stmt 0
	addi	a0, a0, 4
.Ltmp1740:
	sw	a0, 8(sp)
	.loc	3 134 32 is_stmt 1
	lui	a0, %hi(.L__unnamed_64)
	addi	a1, a0, %lo(.L__unnamed_64)
	lui	a0, %hi(.L__unnamed_11)
	addi	a4, a0, %lo(.L__unnamed_11)
	lui	a0, %hi(.L__unnamed_12)
	addi	a6, a0, %lo(.L__unnamed_12)
	li	a2, 8
	addi	a3, sp, 4
	addi	a5, sp, 8
	mv	a0, a7
.Ltmp1741:
	call	_ZN4core3fmt9Formatter25debug_tuple_field2_finish17ha3f776420d00201eE
.Ltmp1742:
	.loc	3 134 37 is_stmt 0
	lw	ra, 12(sp)
	addi	sp, sp, 16
	ret
.Ltmp1743:
.Lfunc_end117:
	.size	_ZN64_$LT$alloc..ffi..c_str..NulError$u20$as$u20$core..fmt..Debug$GT$3fmt17ha3bc530e802e91ebE, .Lfunc_end117-_ZN64_$LT$alloc..ffi..c_str..NulError$u20$as$u20$core..fmt..Debug$GT$3fmt17ha3bc530e802e91ebE
	.cfi_endproc

	.section	".text._ZN81_$LT$alloc..ffi..c_str..FromBytesWithNulErrorKind$u20$as$u20$core..fmt..Debug$GT$3fmt17h7482d0f35f91d96dE","ax",@progbits
	.globl	_ZN81_$LT$alloc..ffi..c_str..FromBytesWithNulErrorKind$u20$as$u20$core..fmt..Debug$GT$3fmt17h7482d0f35f91d96dE
	.p2align	1
	.type	_ZN81_$LT$alloc..ffi..c_str..FromBytesWithNulErrorKind$u20$as$u20$core..fmt..Debug$GT$3fmt17h7482d0f35f91d96dE,@function
_ZN81_$LT$alloc..ffi..c_str..FromBytesWithNulErrorKind$u20$as$u20$core..fmt..Debug$GT$3fmt17h7482d0f35f91d96dE:
.Lfunc_begin118:
	.loc	3 138 0 is_stmt 1
	.cfi_startproc
	addi	sp, sp, -16
	.cfi_def_cfa_offset 16
	sw	ra, 12(sp)
	.cfi_offset ra, -4
	mv	a2, a0
.Ltmp1744:
	.loc	3 138 32 prologue_end
	lw	a3, 0(a0)
	mv	a0, a1
.Ltmp1745:
	beqz	a3, .LBB118_2
.Ltmp1746:
	lui	a1, %hi(.L__unnamed_17)
	addi	a1, a1, %lo(.L__unnamed_17)
	li	a2, 16
.Ltmp1747:
	lw	ra, 12(sp)
	addi	sp, sp, 16
	tail	_ZN4core3fmt9Formatter9write_str17h060247258d2cc5e5E
.Ltmp1748:
.LBB118_2:
	.loc	3 140 17
	addi	a1, a2, 4
	sw	a1, 8(sp)
.Ltmp1749:
	.loc	3 138 32
	lui	a1, %hi(.L__unnamed_18)
	addi	a1, a1, %lo(.L__unnamed_18)
	lui	a2, %hi(.L__unnamed_11)
.Ltmp1750:
	addi	a4, a2, %lo(.L__unnamed_11)
	li	a2, 11
	addi	a3, sp, 8
	call	_ZN4core3fmt9Formatter25debug_tuple_field1_finish17hd52c15995c616ceaE
.Ltmp1751:
	.loc	3 138 37 is_stmt 0
	lw	ra, 12(sp)
	addi	sp, sp, 16
	ret
.Ltmp1752:
.Lfunc_end118:
	.size	_ZN81_$LT$alloc..ffi..c_str..FromBytesWithNulErrorKind$u20$as$u20$core..fmt..Debug$GT$3fmt17h7482d0f35f91d96dE, .Lfunc_end118-_ZN81_$LT$alloc..ffi..c_str..FromBytesWithNulErrorKind$u20$as$u20$core..fmt..Debug$GT$3fmt17h7482d0f35f91d96dE
	.cfi_endproc

	.section	".text._ZN75_$LT$alloc..ffi..c_str..FromVecWithNulError$u20$as$u20$core..fmt..Debug$GT$3fmt17h37569e6f9252b89aE","ax",@progbits
	.globl	_ZN75_$LT$alloc..ffi..c_str..FromVecWithNulError$u20$as$u20$core..fmt..Debug$GT$3fmt17h37569e6f9252b89aE
	.p2align	1
	.type	_ZN75_$LT$alloc..ffi..c_str..FromVecWithNulError$u20$as$u20$core..fmt..Debug$GT$3fmt17h37569e6f9252b89aE,@function
_ZN75_$LT$alloc..ffi..c_str..FromVecWithNulError$u20$as$u20$core..fmt..Debug$GT$3fmt17h37569e6f9252b89aE:
.Lfunc_begin119:
	.loc	3 159 0 is_stmt 1
	.cfi_startproc
	addi	sp, sp, -32
	.cfi_def_cfa_offset 32
	sw	ra, 28(sp)
	.cfi_offset ra, -4
	mv	t0, a1
.Ltmp1753:
	.loc	3 162 5 prologue_end
	sw	a0, 20(sp)
	.loc	3 163 5
	addi	a0, a0, 8
.Ltmp1754:
	sw	a0, 24(sp)
	.loc	3 159 32
	lui	a0, %hi(.L__unnamed_12)
	addi	a0, a0, %lo(.L__unnamed_12)
	sw	a0, 8(sp)
	addi	a0, sp, 24
	sw	a0, 4(sp)
	li	a0, 5
	lui	a1, %hi(.L__unnamed_65)
	addi	a1, a1, %lo(.L__unnamed_65)
	lui	a2, %hi(.L__unnamed_66)
	addi	a3, a2, %lo(.L__unnamed_66)
	lui	a2, %hi(.L__unnamed_13)
	addi	a6, a2, %lo(.L__unnamed_13)
	lui	a2, %hi(.L__unnamed_67)
	addi	a7, a2, %lo(.L__unnamed_67)
	li	a2, 19
	li	a4, 10
	addi	a5, sp, 20
	sw	a0, 0(sp)
	mv	a0, t0
.Ltmp1755:
	call	_ZN4core3fmt9Formatter26debug_struct_field2_finish17h9091e75d7dc47269E
.Ltmp1756:
	.loc	3 159 37 is_stmt 0
	lw	ra, 28(sp)
	addi	sp, sp, 32
	ret
.Ltmp1757:
.Lfunc_end119:
	.size	_ZN75_$LT$alloc..ffi..c_str..FromVecWithNulError$u20$as$u20$core..fmt..Debug$GT$3fmt17h37569e6f9252b89aE, .Lfunc_end119-_ZN75_$LT$alloc..ffi..c_str..FromVecWithNulError$u20$as$u20$core..fmt..Debug$GT$3fmt17h37569e6f9252b89aE
	.cfi_endproc

	.section	".text._ZN71_$LT$alloc..ffi..c_str..IntoStringError$u20$as$u20$core..fmt..Debug$GT$3fmt17h7282712ceb24a181E","ax",@progbits
	.globl	_ZN71_$LT$alloc..ffi..c_str..IntoStringError$u20$as$u20$core..fmt..Debug$GT$3fmt17h7282712ceb24a181E
	.p2align	1
	.type	_ZN71_$LT$alloc..ffi..c_str..IntoStringError$u20$as$u20$core..fmt..Debug$GT$3fmt17h7282712ceb24a181E,@function
_ZN71_$LT$alloc..ffi..c_str..IntoStringError$u20$as$u20$core..fmt..Debug$GT$3fmt17h7282712ceb24a181E:
.Lfunc_begin120:
	.loc	3 225 0 is_stmt 1
	.cfi_startproc
	addi	sp, sp, -32
	.cfi_def_cfa_offset 32
	sw	ra, 28(sp)
	.cfi_offset ra, -4
	mv	t0, a1
.Ltmp1758:
	.loc	3 228 5 prologue_end
	sw	a0, 20(sp)
	.loc	3 229 5
	addi	a0, a0, 8
.Ltmp1759:
	sw	a0, 24(sp)
	.loc	3 225 32
	lui	a0, %hi(.L__unnamed_15)
	addi	a0, a0, %lo(.L__unnamed_15)
	sw	a0, 8(sp)
	addi	a0, sp, 24
	sw	a0, 4(sp)
	li	a0, 5
	lui	a1, %hi(.L__unnamed_68)
	addi	a1, a1, %lo(.L__unnamed_68)
	lui	a2, %hi(.L__unnamed_69)
	addi	a3, a2, %lo(.L__unnamed_69)
	lui	a2, %hi(.L__unnamed_14)
	addi	a6, a2, %lo(.L__unnamed_14)
	lui	a2, %hi(.L__unnamed_70)
	addi	a7, a2, %lo(.L__unnamed_70)
	li	a2, 15
	li	a4, 5
	addi	a5, sp, 20
	sw	a0, 0(sp)
	mv	a0, t0
.Ltmp1760:
	call	_ZN4core3fmt9Formatter26debug_struct_field2_finish17h9091e75d7dc47269E
.Ltmp1761:
	.loc	3 225 37 is_stmt 0
	lw	ra, 28(sp)
	addi	sp, sp, 32
	ret
.Ltmp1762:
.Lfunc_end120:
	.size	_ZN71_$LT$alloc..ffi..c_str..IntoStringError$u20$as$u20$core..fmt..Debug$GT$3fmt17h7282712ceb24a181E, .Lfunc_end120-_ZN71_$LT$alloc..ffi..c_str..IntoStringError$u20$as$u20$core..fmt..Debug$GT$3fmt17h7282712ceb24a181E
	.cfi_endproc

	.section	".text._ZN65_$LT$alloc..string..FromUtf8Error$u20$as$u20$core..fmt..Debug$GT$3fmt17h951f4c210875b659E","ax",@progbits
	.globl	_ZN65_$LT$alloc..string..FromUtf8Error$u20$as$u20$core..fmt..Debug$GT$3fmt17h951f4c210875b659E
	.p2align	1
	.type	_ZN65_$LT$alloc..string..FromUtf8Error$u20$as$u20$core..fmt..Debug$GT$3fmt17h951f4c210875b659E,@function
_ZN65_$LT$alloc..string..FromUtf8Error$u20$as$u20$core..fmt..Debug$GT$3fmt17h951f4c210875b659E:
.Lfunc_begin121:
	.loc	13 406 0 is_stmt 1
	.cfi_startproc
	addi	sp, sp, -32
	.cfi_def_cfa_offset 32
	sw	ra, 28(sp)
	.cfi_offset ra, -4
	mv	t0, a1
.Ltmp1763:
	.loc	13 408 5 prologue_end
	addi	a1, a0, 8
	sw	a1, 20(sp)
	.loc	13 409 5
	sw	a0, 24(sp)
	.loc	13 406 10
	lui	a0, %hi(.L__unnamed_15)
.Ltmp1764:
	addi	a0, a0, %lo(.L__unnamed_15)
	sw	a0, 8(sp)
	addi	a0, sp, 24
	sw	a0, 4(sp)
	li	a0, 5
	lui	a1, %hi(.L__unnamed_71)
	addi	a1, a1, %lo(.L__unnamed_71)
	lui	a2, %hi(.L__unnamed_67)
	addi	a3, a2, %lo(.L__unnamed_67)
	lui	a2, %hi(.L__unnamed_12)
	addi	a6, a2, %lo(.L__unnamed_12)
	lui	a2, %hi(.L__unnamed_70)
	addi	a7, a2, %lo(.L__unnamed_70)
	li	a2, 13
	li	a4, 5
	addi	a5, sp, 20
	sw	a0, 0(sp)
	mv	a0, t0
.Ltmp1765:
	call	_ZN4core3fmt9Formatter26debug_struct_field2_finish17h9091e75d7dc47269E
.Ltmp1766:
	.loc	13 406 15 is_stmt 0
	lw	ra, 28(sp)
	addi	sp, sp, 32
	ret
.Ltmp1767:
.Lfunc_end121:
	.size	_ZN65_$LT$alloc..string..FromUtf8Error$u20$as$u20$core..fmt..Debug$GT$3fmt17h951f4c210875b659E, .Lfunc_end121-_ZN65_$LT$alloc..string..FromUtf8Error$u20$as$u20$core..fmt..Debug$GT$3fmt17h951f4c210875b659E
	.cfi_endproc

	.section	".text._ZN66_$LT$alloc..string..FromUtf16Error$u20$as$u20$core..fmt..Debug$GT$3fmt17ha69833eb00cff34cE","ax",@progbits
	.globl	_ZN66_$LT$alloc..string..FromUtf16Error$u20$as$u20$core..fmt..Debug$GT$3fmt17ha69833eb00cff34cE
	.p2align	1
	.type	_ZN66_$LT$alloc..string..FromUtf16Error$u20$as$u20$core..fmt..Debug$GT$3fmt17ha69833eb00cff34cE,@function
_ZN66_$LT$alloc..string..FromUtf16Error$u20$as$u20$core..fmt..Debug$GT$3fmt17ha69833eb00cff34cE:
.Lfunc_begin122:
	.loc	13 429 0 is_stmt 1
	.cfi_startproc
	addi	sp, sp, -16
	.cfi_def_cfa_offset 16
	sw	ra, 12(sp)
	.cfi_offset ra, -4
	mv	a5, a1
.Ltmp1768:
	.loc	13 430 27 prologue_end
	sw	a0, 8(sp)
	.loc	13 429 10
	lui	a0, %hi(.L__unnamed_72)
.Ltmp1769:
	addi	a1, a0, %lo(.L__unnamed_72)
	lui	a0, %hi(.L__unnamed_10)
	addi	a4, a0, %lo(.L__unnamed_10)
	li	a2, 14
	addi	a3, sp, 8
	mv	a0, a5
.Ltmp1770:
	call	_ZN4core3fmt9Formatter25debug_tuple_field1_finish17hd52c15995c616ceaE
.Ltmp1771:
	.loc	13 429 15 is_stmt 0
	lw	ra, 12(sp)
	addi	sp, sp, 16
	ret
.Ltmp1772:
.Lfunc_end122:
	.size	_ZN66_$LT$alloc..string..FromUtf16Error$u20$as$u20$core..fmt..Debug$GT$3fmt17ha69833eb00cff34cE, .Lfunc_end122-_ZN66_$LT$alloc..string..FromUtf16Error$u20$as$u20$core..fmt..Debug$GT$3fmt17ha69833eb00cff34cE
	.cfi_endproc

	.type	.L__unnamed_16,@object
	.section	.rodata..L__unnamed_16,"a",@progbits
.L__unnamed_16:
	.ascii	"()"
	.size	.L__unnamed_16, 2

	.type	.L__unnamed_1,@object
	.section	.rodata..L__unnamed_1,"a",@progbits
	.p2align	2
.L__unnamed_1:
	.word	_ZN4core3ptr27drop_in_place$LT$$RF$u8$GT$17h533449fef5ef3eceE
	.asciz	"\004\000\000\000\004\000\000"
	.word	_ZN50_$LT$$RF$mut$u20$W$u20$as$u20$core..fmt..Write$GT$9write_str17hcd9e853f3382fdc2E
	.word	_ZN50_$LT$$RF$mut$u20$W$u20$as$u20$core..fmt..Write$GT$10write_char17h591f81b2895bdbb2E
	.word	_ZN50_$LT$$RF$mut$u20$W$u20$as$u20$core..fmt..Write$GT$9write_fmt17h74f0f8ad31fa4d01E
	.size	.L__unnamed_1, 24

	.type	.L__unnamed_2,@object
	.section	.rodata..L__unnamed_2,"a",@progbits
	.p2align	2
.L__unnamed_2:
	.word	_ZN4core3ptr27drop_in_place$LT$$RF$u8$GT$17h533449fef5ef3eceE
	.asciz	"\004\000\000\000\004\000\000"
	.word	_ZN42_$LT$$RF$T$u20$as$u20$core..fmt..Debug$GT$3fmt17h3d836f658e7cd17bE
	.size	.L__unnamed_2, 16

	.type	.L__unnamed_24,@object
	.section	.rodata..L__unnamed_24,"a",@progbits
	.p2align	2
.L__unnamed_24:
	.size	.L__unnamed_24, 0

	.type	.L__unnamed_73,@object
	.section	.rodata..L__unnamed_73,"a",@progbits
.L__unnamed_73:
	.ascii	"/Users/georg/.rustup/toolchains/nightly-2023-01-03-aarch64-apple-darwin/lib/rustlib/src/rust/library/alloc/src/raw_vec.rs"
	.size	.L__unnamed_73, 121

	.type	.L__unnamed_46,@object
	.section	.rodata..L__unnamed_46,"a",@progbits
.L__unnamed_46:
	.ascii	"capacity overflow"
	.size	.L__unnamed_46, 17

	.type	.L__unnamed_23,@object
	.section	.rodata..L__unnamed_23,"a",@progbits
	.p2align	2
.L__unnamed_23:
	.word	.L__unnamed_46
	.asciz	"\021\000\000"
	.size	.L__unnamed_23, 8

	.type	.L__unnamed_25,@object
	.section	.rodata..L__unnamed_25,"a",@progbits
	.p2align	2
.L__unnamed_25:
	.word	.L__unnamed_73
	.asciz	"y\000\000\000\006\002\000\000\005\000\000"
	.size	.L__unnamed_25, 16

	.type	.L__unnamed_74,@object
	.section	.rodata..L__unnamed_74,"a",@progbits
.L__unnamed_74:
	.ascii	"allocation failed"
	.size	.L__unnamed_74, 17

	.type	.L__unnamed_26,@object
	.section	.rodata..L__unnamed_26,"a",@progbits
	.p2align	2
.L__unnamed_26:
	.word	.L__unnamed_74
	.asciz	"\021\000\000"
	.size	.L__unnamed_26, 8

	.type	.L__unnamed_75,@object
	.section	.rodata..L__unnamed_75,"a",@progbits
.L__unnamed_75:
	.ascii	"/Users/georg/.rustup/toolchains/nightly-2023-01-03-aarch64-apple-darwin/lib/rustlib/src/rust/library/alloc/src/alloc.rs"
	.size	.L__unnamed_75, 119

	.type	.L__unnamed_27,@object
	.section	.rodata..L__unnamed_27,"a",@progbits
	.p2align	2
.L__unnamed_27:
	.word	.L__unnamed_75
	.asciz	"w\000\000\000|\001\000\000\t\000\000"
	.size	.L__unnamed_27, 16

	.type	.L__unnamed_76,@object
	.section	.rodata..L__unnamed_76,"a",@progbits
.L__unnamed_76:
	.ascii	"memory allocation of "
	.size	.L__unnamed_76, 21

	.type	.L__unnamed_77,@object
	.section	.rodata..L__unnamed_77,"a",@progbits
.L__unnamed_77:
	.ascii	" bytes failed"
	.size	.L__unnamed_77, 13

	.type	.L__unnamed_28,@object
	.section	.rodata..L__unnamed_28,"a",@progbits
	.p2align	2
.L__unnamed_28:
	.word	.L__unnamed_76
	.asciz	"\025\000\000"
	.word	.L__unnamed_77
	.asciz	"\r\000\000"
	.size	.L__unnamed_28, 16

	.type	.L__unnamed_29,@object
	.section	.rodata..L__unnamed_29,"a",@progbits
	.p2align	2
.L__unnamed_29:
	.word	.L__unnamed_75
	.asciz	"w\000\000\000\225\001\000\000\t\000\000"
	.size	.L__unnamed_29, 16

	.type	.L__unnamed_78,@object
	.section	.rodata..L__unnamed_78,"a",@progbits
	.p2align	2
.L__unnamed_78:
	.word	_ZN4core3ptr205drop_in_place$LT$$LT$alloc..boxed..Box$LT$dyn$u20$core..error..Error$u2b$core..marker..Send$u2b$core..marker..Sync$GT$$u20$as$u20$core..convert..From$LT$alloc..string..String$GT$$GT$..from..StringError$GT$17h4aceb1283a6dbf46E
	.asciz	"\f\000\000\000\004\000\000"
	.word	_ZN223_$LT$$LT$alloc..boxed..Box$LT$dyn$u20$core..error..Error$u2b$core..marker..Send$u2b$core..marker..Sync$GT$$u20$as$u20$core..convert..From$LT$alloc..string..String$GT$$GT$..from..StringError$u20$as$u20$core..fmt..Display$GT$3fmt17h380b3fd264ba2a9bE
	.size	.L__unnamed_78, 16

	.type	.L__unnamed_3,@object
	.section	.rodata..L__unnamed_3,"a",@progbits
	.p2align	2
.L__unnamed_3:
	.word	_ZN4core3ptr205drop_in_place$LT$$LT$alloc..boxed..Box$LT$dyn$u20$core..error..Error$u2b$core..marker..Send$u2b$core..marker..Sync$GT$$u20$as$u20$core..convert..From$LT$alloc..string..String$GT$$GT$..from..StringError$GT$17h4aceb1283a6dbf46E
	.asciz	"\f\000\000\000\004\000\000"
	.word	_ZN221_$LT$$LT$alloc..boxed..Box$LT$dyn$u20$core..error..Error$u2b$core..marker..Send$u2b$core..marker..Sync$GT$$u20$as$u20$core..convert..From$LT$alloc..string..String$GT$$GT$..from..StringError$u20$as$u20$core..fmt..Debug$GT$3fmt17h80919c7767221e1eE
	.word	_ZN223_$LT$$LT$alloc..boxed..Box$LT$dyn$u20$core..error..Error$u2b$core..marker..Send$u2b$core..marker..Sync$GT$$u20$as$u20$core..convert..From$LT$alloc..string..String$GT$$GT$..from..StringError$u20$as$u20$core..fmt..Display$GT$3fmt17h380b3fd264ba2a9bE
	.word	.L__unnamed_78
	.word	_ZN4core5error5Error6source17h02a20bc8b1f5d3bfE
	.word	_ZN4core5error5Error7type_id17h9d09a8fa61d96977E
	.word	_ZN223_$LT$$LT$alloc..boxed..Box$LT$dyn$u20$core..error..Error$u2b$core..marker..Send$u2b$core..marker..Sync$GT$$u20$as$u20$core..convert..From$LT$alloc..string..String$GT$$GT$..from..StringError$u20$as$u20$core..error..Error$GT$11description17h607d5e4b4698c1e9E
	.word	_ZN4core5error5Error5cause17h94db1e2cb30a45e5E
	.word	_ZN4core5error5Error7provide17h7f4366c44e57c564E
	.size	.L__unnamed_3, 44

	.type	.L__unnamed_30,@object
	.section	.rodata..L__unnamed_30,"a",@progbits
.L__unnamed_30:
	.ascii	"memory allocation failed"
	.size	.L__unnamed_30, 24

	.type	.L__unnamed_31,@object
	.section	.rodata..L__unnamed_31,"a",@progbits
.L__unnamed_31:
	.ascii	" because the memory allocator returned an error"
	.size	.L__unnamed_31, 47

	.type	.L__unnamed_32,@object
	.section	.rodata..L__unnamed_32,"a",@progbits
.L__unnamed_32:
	.ascii	" because the computed capacity exceeded the collection's maximum"
	.size	.L__unnamed_32, 64

	.type	.L__unnamed_79,@object
	.section	.rodata..L__unnamed_79,"a",@progbits
.L__unnamed_79:
	.ascii	"/Users/georg/.rustup/toolchains/nightly-2023-01-03-aarch64-apple-darwin/lib/rustlib/src/rust/library/alloc/src/ffi/c_str.rs"
	.size	.L__unnamed_79, 123

	.type	.L__unnamed_33,@object
	.section	.rodata..L__unnamed_33,"a",@progbits
.L__unnamed_33:
	.ascii	"called `Option::unwrap()` on a `None` value"
	.size	.L__unnamed_33, 43

	.type	.L__unnamed_34,@object
	.section	.rodata..L__unnamed_34,"a",@progbits
	.p2align	2
.L__unnamed_34:
	.word	.L__unnamed_79
	.asciz	"{\000\000\000\033\001\000\0007\000\000"
	.size	.L__unnamed_34, 16

	.type	.L__unnamed_80,@object
	.section	.rodata..L__unnamed_80,"a",@progbits
.L__unnamed_80:
	.ascii	"nul byte found in provided data at position: "
	.size	.L__unnamed_80, 45

	.type	.L__unnamed_35,@object
	.section	.rodata..L__unnamed_35,"a",@progbits
	.p2align	2
.L__unnamed_35:
	.word	.L__unnamed_80
	.asciz	"-\000\000"
	.size	.L__unnamed_35, 8

	.type	.L__unnamed_81,@object
	.section	.rodata..L__unnamed_81,"a",@progbits
.L__unnamed_81:
	.ascii	"data provided is not nul terminated"
	.size	.L__unnamed_81, 35

	.type	.L__unnamed_36,@object
	.section	.rodata..L__unnamed_36,"a",@progbits
	.p2align	2
.L__unnamed_36:
	.word	.L__unnamed_81
	.asciz	"#\000\000"
	.size	.L__unnamed_36, 8

	.type	.L__unnamed_82,@object
	.section	.rodata..L__unnamed_82,"a",@progbits
.L__unnamed_82:
	.ascii	"data provided contains an interior nul byte at pos "
	.size	.L__unnamed_82, 51

	.type	.L__unnamed_37,@object
	.section	.rodata..L__unnamed_37,"a",@progbits
	.p2align	2
.L__unnamed_37:
	.word	.L__unnamed_82
	.asciz	"3\000\000"
	.size	.L__unnamed_37, 8

	.type	.L__unnamed_38,@object
	.section	.rodata..L__unnamed_38,"a",@progbits
.L__unnamed_38:
	.ascii	"C string contained non-utf8 bytes"
	.size	.L__unnamed_38, 33

	.type	.L__unnamed_39,@object
	.section	.rodata..L__unnamed_39,"a",@progbits
.L__unnamed_39:
	.ascii	"nul byte found in data"
	.size	.L__unnamed_39, 22

	.type	.L__unnamed_83,@object
	.section	.rodata..L__unnamed_83,"a",@progbits
	.p2align	2
.L__unnamed_83:
	.word	_ZN4core3ptr27drop_in_place$LT$$RF$u8$GT$17h533449fef5ef3eceE
	.asciz	"\b\000\000\000\004\000\000"
	.word	_ZN66_$LT$core..str..error..Utf8Error$u20$as$u20$core..fmt..Display$GT$3fmt17h23e196823970e12cE
	.size	.L__unnamed_83, 16

	.type	.L__unnamed_4,@object
	.section	.rodata..L__unnamed_4,"a",@progbits
	.p2align	2
.L__unnamed_4:
	.word	_ZN4core3ptr27drop_in_place$LT$$RF$u8$GT$17h533449fef5ef3eceE
	.asciz	"\b\000\000\000\004\000\000"
	.word	_ZN64_$LT$core..str..error..Utf8Error$u20$as$u20$core..fmt..Debug$GT$3fmt17h8c7aebc3d8fe9605E
	.word	_ZN66_$LT$core..str..error..Utf8Error$u20$as$u20$core..fmt..Display$GT$3fmt17h23e196823970e12cE
	.word	.L__unnamed_83
	.word	_ZN4core5error5Error6source17h02a20bc8b1f5d3bfE
	.word	_ZN4core5error5Error7type_id17h5661b8227c383599E
	.word	_ZN66_$LT$core..str..error..Utf8Error$u20$as$u20$core..error..Error$GT$11description17h6fcaad91a07669b9E
	.word	_ZN4core5error5Error5cause17h64432525accc317cE
	.word	_ZN4core5error5Error7provide17h7f4366c44e57c564E
	.size	.L__unnamed_4, 44

	.type	.L__unnamed_40,@object
	.section	.rodata..L__unnamed_40,"a",@progbits
.L__unnamed_40:
	.ascii	"a formatting trait implementation returned an error"
	.size	.L__unnamed_40, 51

	.type	.L__unnamed_5,@object
	.section	.rodata..L__unnamed_5,"a",@progbits
	.p2align	2
.L__unnamed_5:
	.word	_ZN4core3ptr27drop_in_place$LT$$RF$u8$GT$17h533449fef5ef3eceE
	.asciz	"\000\000\000\000\001\000\000"
	.word	_ZN53_$LT$core..fmt..Error$u20$as$u20$core..fmt..Debug$GT$3fmt17h8ce97bea8e305373E
	.size	.L__unnamed_5, 16

	.type	.L__unnamed_84,@object
	.section	.rodata..L__unnamed_84,"a",@progbits
.L__unnamed_84:
	.ascii	"/Users/georg/.rustup/toolchains/nightly-2023-01-03-aarch64-apple-darwin/lib/rustlib/src/rust/library/alloc/src/fmt.rs"
	.size	.L__unnamed_84, 117

	.type	.L__unnamed_41,@object
	.section	.rodata..L__unnamed_41,"a",@progbits
	.p2align	2
.L__unnamed_41:
	.word	.L__unnamed_84
	.asciz	"u\000\000\000d\002\000\000 \000\000"
	.size	.L__unnamed_41, 16

	.type	.L__unnamed_42,@object
	.section	.rodata..L__unnamed_42,"a",@progbits
.L__unnamed_42:
	.ascii	"called `Result::unwrap()` on an `Err` value"
	.size	.L__unnamed_42, 43

	.type	.L__unnamed_6,@object
	.section	.rodata..L__unnamed_6,"a",@progbits
	.p2align	2
.L__unnamed_6:
	.word	_ZN4core3ptr27drop_in_place$LT$$RF$u8$GT$17h533449fef5ef3eceE
	.asciz	"\000\000\000\000\001\000\000"
	.word	_ZN69_$LT$core..alloc..layout..LayoutError$u20$as$u20$core..fmt..Debug$GT$3fmt17h59304a9064e4f5b2E
	.size	.L__unnamed_6, 16

	.type	.L__unnamed_85,@object
	.section	.rodata..L__unnamed_85,"a",@progbits
.L__unnamed_85:
	.ascii	"/Users/georg/.rustup/toolchains/nightly-2023-01-03-aarch64-apple-darwin/lib/rustlib/src/rust/library/alloc/src/rc.rs"
	.size	.L__unnamed_85, 116

	.type	.L__unnamed_43,@object
	.section	.rodata..L__unnamed_43,"a",@progbits
	.p2align	2
.L__unnamed_43:
	.word	.L__unnamed_85
	.asciz	"t\000\000\000.\001\000\000/\000\000"
	.size	.L__unnamed_43, 16

	.type	.L__unnamed_86,@object
	.section	.rodata..L__unnamed_86,"a",@progbits
.L__unnamed_86:
	.ascii	"/Users/georg/.rustup/toolchains/nightly-2023-01-03-aarch64-apple-darwin/lib/rustlib/src/rust/library/alloc/src/slice.rs"
	.size	.L__unnamed_86, 119

	.type	.L__unnamed_47,@object
	.section	.rodata..L__unnamed_47,"a",@progbits
	.p2align	2
.L__unnamed_47:
	.word	.L__unnamed_86
	.asciz	"w\000\000\000\362\001\000\0002\000\000"
	.size	.L__unnamed_47, 16

	.type	.L__unnamed_87,@object
	.section	.rodata..L__unnamed_87,"a",@progbits
.L__unnamed_87:
	.ascii	"/Users/georg/.rustup/toolchains/nightly-2023-01-03-aarch64-apple-darwin/lib/rustlib/src/rust/library/alloc/src/str.rs"
	.size	.L__unnamed_87, 117

	.type	.L__unnamed_44,@object
	.section	.rodata..L__unnamed_44,"a",@progbits
	.p2align	2
.L__unnamed_44:
	.word	.L__unnamed_87
	.asciz	"u\000\000\000\227\001\000\000<\000\000"
	.size	.L__unnamed_44, 16

	.type	.L__unnamed_45,@object
	.section	.rodata..L__unnamed_45,"a",@progbits
	.p2align	2
.L__unnamed_45:
	.word	.L__unnamed_87
	.asciz	"u\000\000\000\230\001\000\0000\000\000"
	.size	.L__unnamed_45, 16

	.type	.L__unnamed_88,@object
	.section	.rodata..L__unnamed_88,"a",@progbits
.L__unnamed_88:
	.ascii	"\357\277\275"
	.size	.L__unnamed_88, 3

	.type	.L__unnamed_48,@object
	.section	.rodata..L__unnamed_48,"a",@progbits
.L__unnamed_48:
	.ascii	"invalid utf-16: lone surrogate found"
	.size	.L__unnamed_48, 36

	.type	.L__unnamed_49,@object
	.section	.rodata..L__unnamed_49,"a",@progbits
.L__unnamed_49:
	.ascii	"invalid utf-8"
	.size	.L__unnamed_49, 13

	.type	.L__unnamed_50,@object
	.section	.rodata..L__unnamed_50,"a",@progbits
.L__unnamed_50:
	.ascii	"invalid utf-16"
	.size	.L__unnamed_50, 14

	.type	.L__unnamed_51,@object
	.section	.rodata..L__unnamed_51,"a",@progbits
.L__unnamed_51:
	.ascii	"Drain"
	.size	.L__unnamed_51, 5

	.type	.L__unnamed_7,@object
	.section	.rodata..L__unnamed_7,"a",@progbits
	.p2align	2
.L__unnamed_7:
	.word	_ZN4core3ptr27drop_in_place$LT$$RF$u8$GT$17h533449fef5ef3eceE
	.asciz	"\b\000\000\000\004\000\000"
	.word	_ZN42_$LT$$RF$T$u20$as$u20$core..fmt..Debug$GT$3fmt17hb1a0aaf2a3b9bb7fE
	.size	.L__unnamed_7, 16

	.type	.L__unnamed_89,@object
	.section	.rodata..L__unnamed_89,"a",@progbits
.L__unnamed_89:
	.ascii	"/Users/georg/.rustup/toolchains/nightly-2023-01-03-aarch64-apple-darwin/lib/rustlib/src/rust/library/alloc/src/sync.rs"
	.size	.L__unnamed_89, 118

	.type	.L__unnamed_52,@object
	.section	.rodata..L__unnamed_52,"a",@progbits
	.p2align	2
.L__unnamed_52:
	.word	.L__unnamed_89
	.asciz	"v\000\000\000V\001\000\0002\000\000"
	.size	.L__unnamed_52, 16

	.type	.L__unnamed_90,@object
	.section	.rodata..L__unnamed_90,"a",@progbits
.L__unnamed_90:
	.ascii	"swap_remove index (is "
	.size	.L__unnamed_90, 22

	.type	.L__unnamed_91,@object
	.section	.rodata..L__unnamed_91,"a",@progbits
.L__unnamed_91:
	.ascii	") should be < len (is "
	.size	.L__unnamed_91, 22

	.type	.L__unnamed_92,@object
	.section	.rodata..L__unnamed_92,"a",@progbits
.L__unnamed_92:
	.byte	41
	.size	.L__unnamed_92, 1

	.type	.L__unnamed_53,@object
	.section	.rodata..L__unnamed_53,"a",@progbits
	.p2align	2
.L__unnamed_53:
	.word	.L__unnamed_90
	.asciz	"\026\000\000"
	.word	.L__unnamed_91
	.asciz	"\026\000\000"
	.word	.L__unnamed_92
	.asciz	"\001\000\000"
	.size	.L__unnamed_53, 24

	.type	.L__unnamed_93,@object
	.section	.rodata..L__unnamed_93,"a",@progbits
.L__unnamed_93:
	.ascii	"/Users/georg/.rustup/toolchains/nightly-2023-01-03-aarch64-apple-darwin/lib/rustlib/src/rust/library/alloc/src/vec/mod.rs"
	.size	.L__unnamed_93, 121

	.type	.L__unnamed_54,@object
	.section	.rodata..L__unnamed_54,"a",@progbits
	.p2align	2
.L__unnamed_54:
	.word	.L__unnamed_93
	.asciz	"y\000\000\000}\005\000\000\r\000\000"
	.size	.L__unnamed_54, 16

	.type	.L__unnamed_94,@object
	.section	.rodata..L__unnamed_94,"a",@progbits
.L__unnamed_94:
	.ascii	"insertion index (is "
	.size	.L__unnamed_94, 20

	.type	.L__unnamed_95,@object
	.section	.rodata..L__unnamed_95,"a",@progbits
.L__unnamed_95:
	.ascii	") should be <= len (is "
	.size	.L__unnamed_95, 23

	.type	.L__unnamed_55,@object
	.section	.rodata..L__unnamed_55,"a",@progbits
	.p2align	2
.L__unnamed_55:
	.word	.L__unnamed_94
	.asciz	"\024\000\000"
	.word	.L__unnamed_95
	.asciz	"\027\000\000"
	.word	.L__unnamed_92
	.asciz	"\001\000\000"
	.size	.L__unnamed_55, 24

	.type	.L__unnamed_56,@object
	.section	.rodata..L__unnamed_56,"a",@progbits
	.p2align	2
.L__unnamed_56:
	.word	.L__unnamed_93
	.asciz	"y\000\000\000\246\005\000\000\r\000\000"
	.size	.L__unnamed_56, 16

	.type	.L__unnamed_96,@object
	.section	.rodata..L__unnamed_96,"a",@progbits
.L__unnamed_96:
	.ascii	"removal index (is "
	.size	.L__unnamed_96, 18

	.type	.L__unnamed_57,@object
	.section	.rodata..L__unnamed_57,"a",@progbits
	.p2align	2
.L__unnamed_57:
	.word	.L__unnamed_96
	.asciz	"\022\000\000"
	.word	.L__unnamed_91
	.asciz	"\026\000\000"
	.word	.L__unnamed_92
	.asciz	"\001\000\000"
	.size	.L__unnamed_57, 24

	.type	.L__unnamed_97,@object
	.section	.rodata..L__unnamed_97,"a",@progbits
.L__unnamed_97:
	.ascii	"`at` split index (is "
	.size	.L__unnamed_97, 21

	.type	.L__unnamed_58,@object
	.section	.rodata..L__unnamed_58,"a",@progbits
	.p2align	2
.L__unnamed_58:
	.word	.L__unnamed_97
	.asciz	"\025\000\000"
	.word	.L__unnamed_95
	.asciz	"\027\000\000"
	.word	.L__unnamed_92
	.asciz	"\001\000\000"
	.size	.L__unnamed_58, 24

	.type	.L__unnamed_59,@object
	.section	.rodata..L__unnamed_59,"a",@progbits
	.p2align	2
.L__unnamed_59:
	.word	.L__unnamed_93
	.asciz	"y\000\000\0009\b\000\000\r\000\000"
	.size	.L__unnamed_59, 16

	.type	.L__unnamed_60,@object
	.section	.rodata..L__unnamed_60,"a",@progbits
.L__unnamed_60:
	.ascii	"Global"
	.size	.L__unnamed_60, 6

	.type	.L__unnamed_61,@object
	.section	.rodata..L__unnamed_61,"a",@progbits
.L__unnamed_61:
	.ascii	"SetValZST"
	.size	.L__unnamed_61, 9

	.type	.L__unnamed_62,@object
	.section	.rodata..L__unnamed_62,"a",@progbits
.L__unnamed_62:
	.ascii	"TryReserveError"
	.size	.L__unnamed_62, 15

	.type	.L__unnamed_63,@object
	.section	.rodata.cst4,"aM",@progbits,4
.L__unnamed_63:
	.ascii	"kind"
	.size	.L__unnamed_63, 4

	.type	.L__unnamed_8,@object
	.section	.rodata..L__unnamed_8,"a",@progbits
	.p2align	2
.L__unnamed_8:
	.word	_ZN4core3ptr27drop_in_place$LT$$RF$u8$GT$17h533449fef5ef3eceE
	.asciz	"\004\000\000\000\004\000\000"
	.word	_ZN42_$LT$$RF$T$u20$as$u20$core..fmt..Debug$GT$3fmt17hf30d5b32817e334fE
	.size	.L__unnamed_8, 16

	.type	.L__unnamed_19,@object
	.section	.rodata..L__unnamed_19,"a",@progbits
.L__unnamed_19:
	.ascii	"AllocError"
	.size	.L__unnamed_19, 10

	.type	.L__unnamed_20,@object
	.section	.rodata..L__unnamed_20,"a",@progbits
.L__unnamed_20:
	.ascii	"layout"
	.size	.L__unnamed_20, 6

	.type	.L__unnamed_9,@object
	.section	.rodata..L__unnamed_9,"a",@progbits
	.p2align	2
.L__unnamed_9:
	.word	_ZN4core3ptr27drop_in_place$LT$$RF$u8$GT$17h533449fef5ef3eceE
	.asciz	"\004\000\000\000\004\000\000"
	.word	_ZN42_$LT$$RF$T$u20$as$u20$core..fmt..Debug$GT$3fmt17h7a1cd28268fd835cE
	.size	.L__unnamed_9, 16

	.type	.L__unnamed_21,@object
	.section	.rodata..L__unnamed_21,"a",@progbits
.L__unnamed_21:
	.ascii	"non_exhaustive"
	.size	.L__unnamed_21, 14

	.type	.L__unnamed_10,@object
	.section	.rodata..L__unnamed_10,"a",@progbits
	.p2align	2
.L__unnamed_10:
	.word	_ZN4core3ptr27drop_in_place$LT$$RF$u8$GT$17h533449fef5ef3eceE
	.asciz	"\004\000\000\000\004\000\000"
	.word	_ZN42_$LT$$RF$T$u20$as$u20$core..fmt..Debug$GT$3fmt17h09cef89096c19262E
	.size	.L__unnamed_10, 16

	.type	.L__unnamed_22,@object
	.section	.rodata.cst16,"aM",@progbits,16
.L__unnamed_22:
	.ascii	"CapacityOverflow"
	.size	.L__unnamed_22, 16

	.type	.L__unnamed_64,@object
	.section	.rodata.cst8,"aM",@progbits,8
.L__unnamed_64:
	.ascii	"NulError"
	.size	.L__unnamed_64, 8

	.type	.L__unnamed_11,@object
	.section	.rodata..L__unnamed_11,"a",@progbits
	.p2align	2
.L__unnamed_11:
	.word	_ZN4core3ptr27drop_in_place$LT$$RF$u8$GT$17h533449fef5ef3eceE
	.asciz	"\004\000\000\000\004\000\000"
	.word	_ZN42_$LT$$RF$T$u20$as$u20$core..fmt..Debug$GT$3fmt17h284c62f337751c04E
	.size	.L__unnamed_11, 16

	.type	.L__unnamed_12,@object
	.section	.rodata..L__unnamed_12,"a",@progbits
	.p2align	2
.L__unnamed_12:
	.word	_ZN4core3ptr27drop_in_place$LT$$RF$u8$GT$17h533449fef5ef3eceE
	.asciz	"\004\000\000\000\004\000\000"
	.word	_ZN42_$LT$$RF$T$u20$as$u20$core..fmt..Debug$GT$3fmt17h8a83899c8d1b0864E
	.size	.L__unnamed_12, 16

	.type	.L__unnamed_17,@object
	.section	.rodata.cst16,"aM",@progbits,16
.L__unnamed_17:
	.ascii	"NotNulTerminated"
	.size	.L__unnamed_17, 16

	.type	.L__unnamed_18,@object
	.section	.rodata..L__unnamed_18,"a",@progbits
.L__unnamed_18:
	.ascii	"InteriorNul"
	.size	.L__unnamed_18, 11

	.type	.L__unnamed_65,@object
	.section	.rodata..L__unnamed_65,"a",@progbits
.L__unnamed_65:
	.ascii	"FromVecWithNulError"
	.size	.L__unnamed_65, 19

	.type	.L__unnamed_66,@object
	.section	.rodata..L__unnamed_66,"a",@progbits
.L__unnamed_66:
	.ascii	"error_kind"
	.size	.L__unnamed_66, 10

	.type	.L__unnamed_13,@object
	.section	.rodata..L__unnamed_13,"a",@progbits
	.p2align	2
.L__unnamed_13:
	.word	_ZN4core3ptr27drop_in_place$LT$$RF$u8$GT$17h533449fef5ef3eceE
	.asciz	"\004\000\000\000\004\000\000"
	.word	_ZN42_$LT$$RF$T$u20$as$u20$core..fmt..Debug$GT$3fmt17h67a57bdb935bf8b9E
	.size	.L__unnamed_13, 16

	.type	.L__unnamed_67,@object
	.section	.rodata..L__unnamed_67,"a",@progbits
.L__unnamed_67:
	.ascii	"bytes"
	.size	.L__unnamed_67, 5

	.type	.L__unnamed_68,@object
	.section	.rodata..L__unnamed_68,"a",@progbits
.L__unnamed_68:
	.ascii	"IntoStringError"
	.size	.L__unnamed_68, 15

	.type	.L__unnamed_69,@object
	.section	.rodata..L__unnamed_69,"a",@progbits
.L__unnamed_69:
	.ascii	"inner"
	.size	.L__unnamed_69, 5

	.type	.L__unnamed_14,@object
	.section	.rodata..L__unnamed_14,"a",@progbits
	.p2align	2
.L__unnamed_14:
	.word	_ZN4core3ptr27drop_in_place$LT$$RF$u8$GT$17h533449fef5ef3eceE
	.asciz	"\004\000\000\000\004\000\000"
	.word	_ZN42_$LT$$RF$T$u20$as$u20$core..fmt..Debug$GT$3fmt17h84ccf8e71d264277E
	.size	.L__unnamed_14, 16

	.type	.L__unnamed_70,@object
	.section	.rodata..L__unnamed_70,"a",@progbits
.L__unnamed_70:
	.ascii	"error"
	.size	.L__unnamed_70, 5

	.type	.L__unnamed_15,@object
	.section	.rodata..L__unnamed_15,"a",@progbits
	.p2align	2
.L__unnamed_15:
	.word	_ZN4core3ptr27drop_in_place$LT$$RF$u8$GT$17h533449fef5ef3eceE
	.asciz	"\004\000\000\000\004\000\000"
	.word	_ZN42_$LT$$RF$T$u20$as$u20$core..fmt..Debug$GT$3fmt17h16c45db378635d7aE
	.size	.L__unnamed_15, 16

	.type	.L__unnamed_71,@object
	.section	.rodata..L__unnamed_71,"a",@progbits
.L__unnamed_71:
	.ascii	"FromUtf8Error"
	.size	.L__unnamed_71, 13

	.type	.L__unnamed_72,@object
	.section	.rodata..L__unnamed_72,"a",@progbits
.L__unnamed_72:
	.ascii	"FromUtf16Error"
	.size	.L__unnamed_72, 14

	.section	.rodata..L__unnamed_1,"a",@progbits
.Lsec_end0:
	.section	.rodata..L__unnamed_2,"a",@progbits
.Lsec_end1:
	.section	.rodata..L__unnamed_3,"a",@progbits
.Lsec_end2:
	.section	.rodata..L__unnamed_4,"a",@progbits
.Lsec_end3:
	.section	.rodata..L__unnamed_5,"a",@progbits
.Lsec_end4:
	.section	.rodata..L__unnamed_6,"a",@progbits
.Lsec_end5:
	.section	.rodata..L__unnamed_7,"a",@progbits
.Lsec_end6:
	.section	.rodata..L__unnamed_8,"a",@progbits
.Lsec_end7:
	.section	.rodata..L__unnamed_9,"a",@progbits
.Lsec_end8:
	.section	.rodata..L__unnamed_10,"a",@progbits
.Lsec_end9:
	.section	.rodata..L__unnamed_11,"a",@progbits
.Lsec_end10:
	.section	.rodata..L__unnamed_12,"a",@progbits
.Lsec_end11:
	.section	.rodata..L__unnamed_13,"a",@progbits
.Lsec_end12:
	.section	.rodata..L__unnamed_14,"a",@progbits
.Lsec_end13:
	.section	.rodata..L__unnamed_15,"a",@progbits
.Lsec_end14:
	.section	".text._ZN42_$LT$$RF$T$u20$as$u20$core..fmt..Debug$GT$3fmt17h09cef89096c19262E","ax",@progbits
.Lsec_end15:
	.section	".text._ZN42_$LT$$RF$T$u20$as$u20$core..fmt..Debug$GT$3fmt17h16c45db378635d7aE","ax",@progbits
.Lsec_end16:
	.section	".text._ZN42_$LT$$RF$T$u20$as$u20$core..fmt..Debug$GT$3fmt17h284c62f337751c04E","ax",@progbits
.Lsec_end17:
	.section	".text._ZN42_$LT$$RF$T$u20$as$u20$core..fmt..Debug$GT$3fmt17h3d836f658e7cd17bE","ax",@progbits
.Lsec_end18:
	.section	".text._ZN42_$LT$$RF$T$u20$as$u20$core..fmt..Debug$GT$3fmt17h67a57bdb935bf8b9E","ax",@progbits
.Lsec_end19:
	.section	".text._ZN42_$LT$$RF$T$u20$as$u20$core..fmt..Debug$GT$3fmt17h7a1cd28268fd835cE","ax",@progbits
.Lsec_end20:
	.section	".text._ZN42_$LT$$RF$T$u20$as$u20$core..fmt..Debug$GT$3fmt17h84ccf8e71d264277E","ax",@progbits
.Lsec_end21:
	.section	".text._ZN42_$LT$$RF$T$u20$as$u20$core..fmt..Debug$GT$3fmt17h8a83899c8d1b0864E","ax",@progbits
.Lsec_end22:
	.section	".text._ZN42_$LT$$RF$T$u20$as$u20$core..fmt..Debug$GT$3fmt17hb1a0aaf2a3b9bb7fE","ax",@progbits
.Lsec_end23:
	.section	".text._ZN42_$LT$$RF$T$u20$as$u20$core..fmt..Debug$GT$3fmt17hf30d5b32817e334fE","ax",@progbits
.Lsec_end24:
	.section	".text._ZN4core3ptr205drop_in_place$LT$$LT$alloc..boxed..Box$LT$dyn$u20$core..error..Error$u2b$core..marker..Send$u2b$core..marker..Sync$GT$$u20$as$u20$core..convert..From$LT$alloc..string..String$GT$$GT$..from..StringError$GT$17h4aceb1283a6dbf46E","ax",@progbits
.Lsec_end25:
	.section	".text._ZN4core3ptr27drop_in_place$LT$$RF$u8$GT$17h533449fef5ef3eceE","ax",@progbits
.Lsec_end26:
	.section	.text._ZN4core5error5Error5cause17h64432525accc317cE,"ax",@progbits
.Lsec_end27:
	.section	.text._ZN4core5error5Error5cause17h94db1e2cb30a45e5E,"ax",@progbits
.Lsec_end28:
	.section	.text._ZN4core5error5Error6source17h02a20bc8b1f5d3bfE,"ax",@progbits
.Lsec_end29:
	.section	.text._ZN4core5error5Error7provide17h7f4366c44e57c564E,"ax",@progbits
.Lsec_end30:
	.section	.text._ZN4core5error5Error7type_id17h5661b8227c383599E,"ax",@progbits
.Lsec_end31:
	.section	.text._ZN4core5error5Error7type_id17h9d09a8fa61d96977E,"ax",@progbits
.Lsec_end32:
	.section	".text._ZN50_$LT$$RF$mut$u20$W$u20$as$u20$core..fmt..Write$GT$10write_char17h591f81b2895bdbb2E","ax",@progbits
.Lsec_end33:
	.section	".text._ZN50_$LT$$RF$mut$u20$W$u20$as$u20$core..fmt..Write$GT$9write_fmt17h74f0f8ad31fa4d01E","ax",@progbits
.Lsec_end34:
	.section	".text._ZN50_$LT$$RF$mut$u20$W$u20$as$u20$core..fmt..Write$GT$9write_str17hcd9e853f3382fdc2E","ax",@progbits
.Lsec_end35:
	.section	".text.unlikely._ZN5alloc7raw_vec19RawVec$LT$T$C$A$GT$7reserve21do_reserve_and_handle17hc60fe6a21a566324E","ax",@progbits
.Lsec_end36:
	.section	".text._ZN5alloc7raw_vec19RawVec$LT$T$C$A$GT$16reserve_for_push17h2bc031d3040ca85dE","ax",@progbits
.Lsec_end37:
	.section	.text._ZN5alloc7raw_vec11finish_grow17h84df8231ddcc73c7E,"ax",@progbits
.Lsec_end38:
	.section	.text._ZN5alloc7raw_vec17capacity_overflow17h2c1c04a797021fabE,"ax",@progbits
.Lsec_end39:
	.section	.text.unlikely._ZN5alloc5alloc18handle_alloc_error17hd9333cd203b4ffb7E,"ax",@progbits
.Lsec_end40:
	.section	.text._ZN5alloc5alloc18handle_alloc_error8ct_error17h17e27b3e5371a247E,"ax",@progbits
.Lsec_end41:
	.section	.text._ZN5alloc5alloc18handle_alloc_error8rt_error17hbce31673c38e46b3E,"ax",@progbits
.Lsec_end42:
	.section	.text.__rdl_oom,"ax",@progbits
.Lsec_end43:
	.section	".text._ZN71_$LT$alloc..boxed..Box$LT$str$GT$$u20$as$u20$core..default..Default$GT$7default17hb78e7dcba44058baE","ax",@progbits
.Lsec_end44:
	.section	".text._ZN67_$LT$alloc..boxed..Box$LT$str$GT$$u20$as$u20$core..clone..Clone$GT$5clone17h2cc726b399646242E","ax",@progbits
.Lsec_end45:
	.section	".text._ZN223_$LT